; ModuleID = '29i3b70x5xirxi42'
source_filename = "29i3b70x5xirxi42"
target datalayout = "e-m:o-i64:64-i128:128-n32:64-S128"
target triple = "arm64-apple-macosx11.0.0"

%"core::ops::range::Bound<&usize>" = type { i64, [1 x i64] }
%"core::ops::range::Range<usize>" = type { i64, i64 }
%"core::ptr::metadata::PtrComponents<[u8]>" = type { ptr, i64 }
%"core::ptr::metadata::PtrRepr<[u8]>" = type { [2 x i64] }
%"core::option::Option<(usize, &[u8])>" = type { [1 x i64], ptr, [1 x i64] }
%"core::option::Option<&[u8]>" = type { ptr, [1 x i64] }
%"core::ops::control_flow::ControlFlow<core::option::Option<core::convert::Infallible>, &[u8]>" = type { ptr, [1 x i64] }
%"core::option::Option<core::convert::Infallible>::None" = type {}
%"core::option::Option<(usize, &u8)>" = type { [1 x i64], ptr }
%"core::slice::iter::Iter<'_, u8>" = type { ptr, ptr, %"core::marker::PhantomData<&u8>" }
%"core::marker::PhantomData<&u8>" = type {}
%"core::result::Result<engine::DecodeMetadata, decode::DecodeSliceError>" = type { i64, [2 x i64] }
%"decode::DecodeSliceError" = type { i8, [15 x i8] }
%"decode::DecodeError" = type { i8, [15 x i8] }
%"core::option::Option<usize>" = type { i64, [1 x i64] }
%"core::fmt::Arguments<'_>" = type { { ptr, i64 }, { ptr, i64 }, %"core::option::Option<&[core::fmt::rt::Placeholder]>" }
%"core::option::Option<&[core::fmt::rt::Placeholder]>" = type { ptr, [1 x i64] }
%"core::option::Option<&str>" = type { ptr, [1 x i64] }
%"core::fmt::rt::UnsafeArg" = type { {} }
%"core::iter::adapters::enumerate::Enumerate<core::slice::iter::ChunksExact<'_, u8>>" = type { %"core::slice::iter::ChunksExact<'_, u8>", i64 }
%"core::slice::iter::ChunksExact<'_, u8>" = type { { ptr, i64 }, { ptr, i64 }, i64 }
%"core::iter::adapters::enumerate::Enumerate<core::slice::iter::Iter<'_, u8>>" = type { %"core::slice::iter::Iter<'_, u8>", i64 }
%"core::alloc::layout::Layout" = type { i64, i64 }
%"core::result::Result<core::alloc::layout::Layout, core::alloc::layout::LayoutError>" = type { i64, [1 x i64] }
%"core::result::Result<[u8; 8], core::array::TryFromSliceError>" = type { i8, [8 x i8] }
%"core::array::TryFromSliceError" = type { {} }
%"{closure@core::result::Result<&[u8; 8], core::array::TryFromSliceError>::copied::{closure#0}}" = type {}
%"core::error::private::Internal" = type {}
%"core::ptr::non_null::NonNull<[u8]>" = type { { ptr, i64 } }
%"core::result::Result<&mut u8, decode::DecodeSliceError>" = type { i8, [15 x i8] }
%"core::str::error::Utf8Error" = type { i64, %"core::option::Option<u8>", [6 x i8] }
%"core::option::Option<u8>" = type { i8, [1 x i8] }
%"core::result::Result<core::ptr::non_null::NonNull<[u8]>, core::alloc::AllocError>" = type { ptr, [1 x i64] }
%"core::alloc::AllocError" = type {}
%"core::result::Result<core::convert::Infallible, core::alloc::AllocError>::Err" = type { %"core::alloc::AllocError" }
%"core::ops::control_flow::ControlFlow<core::result::Result<core::convert::Infallible, core::alloc::AllocError>, core::ptr::non_null::NonNull<[u8]>>" = type { ptr, [1 x i64] }
%"core::result::Result<core::ptr::non_null::NonNull<[u8]>, alloc::collections::TryReserveError>" = type { i64, [2 x i64] }
%"alloc::collections::TryReserveErrorKind" = type { i64, [1 x i64] }
%"alloc::collections::TryReserveError" = type { %"alloc::collections::TryReserveErrorKind" }
%"core::result::Result<core::convert::Infallible, alloc::collections::TryReserveErrorKind>::Err" = type { %"alloc::collections::TryReserveErrorKind" }
%"core::result::Result<core::alloc::layout::Layout, alloc::collections::TryReserveErrorKind>" = type { i64, [2 x i64] }
%"core::ops::control_flow::ControlFlow<core::result::Result<core::convert::Infallible, alloc::collections::TryReserveErrorKind>, core::alloc::layout::Layout>" = type { i64, [2 x i64] }
%"core::result::Result<(), alloc::collections::TryReserveError>" = type { i64, [1 x i64] }
%"core::alloc::layout::LayoutError" = type {}
%"{closure@alloc::raw_vec::finish_grow<alloc::alloc::Global>::{closure#0}}" = type {}
%"core::result::Result<(), alloc::collections::TryReserveErrorKind>" = type { i64, [1 x i64] }
%"{closure@alloc::raw_vec::handle_reserve::{closure#0}}" = type {}
%"core::option::Option<(core::ptr::non_null::NonNull<u8>, core::alloc::layout::Layout)>" = type { [1 x i64], i64, [1 x i64] }
%"core::result::Result<core::convert::Infallible, alloc::collections::TryReserveError>::Err" = type { %"alloc::collections::TryReserveError" }
%"core::ops::control_flow::ControlFlow<core::result::Result<core::convert::Infallible, alloc::collections::TryReserveError>, core::ptr::non_null::NonNull<[u8]>>" = type { i64, [2 x i64] }
%"core::result::Result<usize, alloc::collections::TryReserveErrorKind>" = type { i64, [1 x i64] }
%"core::ops::control_flow::ControlFlow<core::result::Result<core::convert::Infallible, alloc::collections::TryReserveErrorKind>, usize>" = type { i64, [1 x i64] }
%"core::ops::control_flow::ControlFlow<core::result::Result<core::convert::Infallible, decode::DecodeError>>" = type { i8, [15 x i8] }
%"core::result::Result<core::convert::Infallible, decode::DecodeError>::Err" = type { %"decode::DecodeError" }
%"core::ops::control_flow::ControlFlow<core::result::Result<core::convert::Infallible, decode::DecodeSliceError>, usize>" = type { i8, [15 x i8] }
%"core::result::Result<core::convert::Infallible, decode::DecodeSliceError>::Err" = type { %"decode::DecodeSliceError" }
%"core::ops::control_flow::ControlFlow<core::result::Result<core::convert::Infallible, decode::DecodeSliceError>, &mut u8>" = type { i8, [15 x i8] }
%"core::result::Result<&str, core::str::error::Utf8Error>" = type { i64, [2 x i64] }
%"engine::general_purpose::decode::GeneralPurposeEstimate" = type { i64, i64 }
%"core::result::Result<(), decode::DecodeError>" = type { i8, [15 x i8] }
%"core::result::Result<usize, decode::DecodeSliceError>" = type { i8, [15 x i8] }
%"engine::DecodeMetadata" = type { %"core::option::Option<usize>", i64 }
%"engine::general_purpose::GeneralPurpose" = type { %"engine::general_purpose::GeneralPurposeConfig", [64 x i8], [256 x i8] }
%"engine::general_purpose::GeneralPurposeConfig" = type { i8, i8, i8 }
%"alphabet::Alphabet" = type { [64 x i8] }
%"core::result::Result<alphabet::Alphabet, alphabet::ParseAlphabetError>" = type { i8, [64 x i8] }
%"alphabet::ParseAlphabetError" = type { i8, [1 x i8] }
%"core::fmt::rt::Argument<'_>" = type { ptr, ptr }
%"core::fmt::rt::Count" = type { i64, [1 x i64] }
%"core::fmt::rt::Placeholder" = type { %"core::fmt::rt::Count", %"core::fmt::rt::Count", i64, i32, i32, i8, [7 x i8] }
%"core::option::Option<&dyn core::error::Error>" = type { ptr, [1 x i64] }

@alloc_0dc6db72fcead760fba2799443fc0f82 = private unnamed_addr constant <{ [64 x i8] }> <{ [64 x i8] c"slice::get_unchecked requires that the range is within the slice" }>, align 1
@alloc_8bc4d99c9de504799214701ea609a64b = private unnamed_addr constant <{ [68 x i8] }> <{ [68 x i8] c"slice::get_unchecked_mut requires that the range is within the slice" }>, align 1
@alloc_a5869cf5c211a4021ad47df57f69cf0d = private unnamed_addr constant <{ [91 x i8] }> <{ [91 x i8] c"/rustc/46b180ec2452d388c5d9c14009442e2e0beb01d7/library/core/src/iter/adapters/enumerate.rs" }>, align 1
@alloc_e644bbe572686fdbe11c9dbdc434ddd2 = private unnamed_addr constant <{ ptr, [16 x i8] }> <{ ptr @alloc_a5869cf5c211a4021ad47df57f69cf0d, [16 x i8] c"[\00\00\00\00\00\00\001\00\00\00\09\00\00\00" }>, align 8
@str.0 = internal unnamed_addr constant [28 x i8] c"attempt to add with overflow"
@alloc_ae6dc619079e3c3b08144a35532ecff7 = private unnamed_addr constant <{ [2 x i8] }> <{ [2 x i8] c"()" }>, align 1
@alloc_424341b75ece3fa20496f1c69b9fb0ac = private unnamed_addr constant <{ [111 x i8] }> <{ [111 x i8] c"unsafe precondition(s) violated: ptr::write_bytes requires that the destination pointer is aligned and non-null" }>, align 1
@alloc_763310d78c99c2c1ad3f8a9821e942f3 = private unnamed_addr constant <{ [61 x i8] }> <{ [61 x i8] c"is_nonoverlapping: `size_of::<T>() * count` overflows a usize" }>, align 1
@alloc_8df0580a595a87d56789d20c7318e185 = private unnamed_addr constant <{ [166 x i8] }> <{ [166 x i8] c"unsafe precondition(s) violated: ptr::copy_nonoverlapping requires that both pointer arguments are aligned and non-null and the specified memory ranges do not overlap" }>, align 1
@alloc_fad0cd83b7d1858a846a172eb260e593 = private unnamed_addr constant <{ [42 x i8] }> <{ [42 x i8] c"is_aligned_to: align is not a power-of-two" }>, align 1
@alloc_041983ee8170efdaaf95ba67fd072d26 = private unnamed_addr constant <{ ptr, [8 x i8] }> <{ ptr @alloc_fad0cd83b7d1858a846a172eb260e593, [8 x i8] c"*\00\00\00\00\00\00\00" }>, align 8
@alloc_513570631223a12912d85da2bec3b15a = private unnamed_addr constant <{}> zeroinitializer, align 8
@0 = private unnamed_addr constant <{ [8 x i8], [8 x i8] }> <{ [8 x i8] zeroinitializer, [8 x i8] undef }>, align 8
@alloc_f1802761b0cba8787ff63a6853b741ad = private unnamed_addr constant <{ [81 x i8] }> <{ [81 x i8] c"/rustc/46b180ec2452d388c5d9c14009442e2e0beb01d7/library/core/src/ptr/const_ptr.rs" }>, align 1
@alloc_33f991fa5bbac1da9d8a778b0f014caf = private unnamed_addr constant <{ ptr, [16 x i8] }> <{ ptr @alloc_f1802761b0cba8787ff63a6853b741ad, [16 x i8] c"Q\00\00\00\00\00\00\00T\06\00\00\0D\00\00\00" }>, align 8
@alloc_91c7fa63c3cfeaa3c795652d5cf060e4 = private unnamed_addr constant <{ [12 x i8] }> <{ [12 x i8] c"invalid args" }>, align 1
@alloc_af99043bc04c419363a7f04d23183506 = private unnamed_addr constant <{ ptr, [8 x i8] }> <{ ptr @alloc_91c7fa63c3cfeaa3c795652d5cf060e4, [8 x i8] c"\0C\00\00\00\00\00\00\00" }>, align 8
@alloc_b471600b253f24fcc8f91ba747bf2f04 = private unnamed_addr constant <{ [75 x i8] }> <{ [75 x i8] c"/rustc/46b180ec2452d388c5d9c14009442e2e0beb01d7/library/core/src/fmt/mod.rs" }>, align 1
@alloc_4ba2c5ddff77a51f3765b0dd5f2851cc = private unnamed_addr constant <{ ptr, [16 x i8] }> <{ ptr @alloc_b471600b253f24fcc8f91ba747bf2f04, [16 x i8] c"K\00\00\00\00\00\00\00U\01\00\00\0D\00\00\00" }>, align 8
@alloc_3d28b95801fd55932918b2920be93f48 = private unnamed_addr constant <{ ptr, [16 x i8] }> <{ ptr @alloc_b471600b253f24fcc8f91ba747bf2f04, [16 x i8] c"K\00\00\00\00\00\00\00K\01\00\00\0D\00\00\00" }>, align 8
@alloc_d4d2a2a8539eafc62756407d946babb3 = private unnamed_addr constant <{ [110 x i8] }> <{ [110 x i8] c"unsafe precondition(s) violated: ptr::read_volatile requires that the pointer argument is aligned and non-null" }>, align 1
@alloc_20b3d155afd5c58c42e598b7e6d186ef = private unnamed_addr constant <{ [93 x i8] }> <{ [93 x i8] c"unsafe precondition(s) violated: NonNull::new_unchecked requires that the pointer is non-null" }>, align 1
@alloc_ec595fc0e82ef92fc59bd74f68296eae = private unnamed_addr constant <{ [73 x i8] }> <{ [73 x i8] c"assertion failed: 0 < pointee_size && pointee_size <= isize::MAX as usize" }>, align 1
@alloc_4e3a3aaf48410eaea90c90938dabe76a = private unnamed_addr constant <{ ptr, [16 x i8] }> <{ ptr @alloc_f1802761b0cba8787ff63a6853b741ad, [16 x i8] c"Q\00\00\00\00\00\00\00:\03\00\00\09\00\00\00" }>, align 8
@alloc_7efb3a7632b3620f628ce83a521b4d9b = private unnamed_addr constant <{ [71 x i8] }> <{ [71 x i8] c"unsafe precondition(s) violated: ptr::sub_ptr requires `self >= origin`" }>, align 1
@alloc_ab14703751a9eb3585c49b2e55e9a9e5 = private unnamed_addr constant <{ [104 x i8] }> <{ [104 x i8] c"unsafe precondition(s) violated: hint::assert_unchecked must never be called when the condition is false" }>, align 1
@alloc_ba0874c83e0d5d922dde9777ace7637c = private unnamed_addr constant <{ [80 x i8] }> <{ [80 x i8] c"/rustc/46b180ec2452d388c5d9c14009442e2e0beb01d7/library/core/src/alloc/layout.rs" }>, align 1
@alloc_f68de2cf1ceb450073519dc71a218631 = private unnamed_addr constant <{ ptr, [16 x i8] }> <{ ptr @alloc_ba0874c83e0d5d922dde9777ace7637c, [16 x i8] c"P\00\00\00\00\00\00\00\C1\01\00\00)\00\00\00" }>, align 8
@str.1 = internal unnamed_addr constant [25 x i8] c"attempt to divide by zero"
@alloc_04d7ce44d7c86a9a02b346ab945bf155 = private unnamed_addr constant <{ [40 x i8] }> <{ [40 x i8] c"description() is deprecated; use Display" }>, align 1
@alloc_a6e8913658d98d0dbd0444b57ddfd811 = private unnamed_addr constant <{ [27 x i8] }> <{ [27 x i8] c"chunk size must be non-zero" }>, align 1
@alloc_1f6e2bb373e6c20cda1457c91e8d33ed = private unnamed_addr constant <{ ptr, [8 x i8] }> <{ ptr @alloc_a6e8913658d98d0dbd0444b57ddfd811, [8 x i8] c"\1B\00\00\00\00\00\00\00" }>, align 8
@alloc_f195f5aa4597af008813b3ea9390d1c8 = private unnamed_addr constant <{ [78 x i8] }> <{ [78 x i8] c"/rustc/46b180ec2452d388c5d9c14009442e2e0beb01d7/library/core/src/slice/iter.rs" }>, align 1
@alloc_e948c17f630a84e2075d780ddd21eed0 = private unnamed_addr constant <{ ptr, [16 x i8] }> <{ ptr @alloc_f195f5aa4597af008813b3ea9390d1c8, [16 x i8] c"N\00\00\00\00\00\00\00-\07\00\00\13\00\00\00" }>, align 8
@str.2 = internal unnamed_addr constant [57 x i8] c"attempt to calculate the remainder with a divisor of zero"
@alloc_584baff3633a9fd987857f744de1d20e = private unnamed_addr constant <{ [67 x i8] }> <{ [67 x i8] c"slice::split_at_unchecked requires the index to be within the slice" }>, align 1
@alloc_81f9ea5ad36a4fd02db0f8c6040ce6ce = private unnamed_addr constant <{ [78 x i8] }> <{ [78 x i8] c"/rustc/46b180ec2452d388c5d9c14009442e2e0beb01d7/library/core/src/intrinsics.rs" }>, align 1
@alloc_3ddfd615a577a80e66751be046ca7362 = private unnamed_addr constant <{ ptr, [16 x i8] }> <{ ptr @alloc_81f9ea5ad36a4fd02db0f8c6040ce6ce, [16 x i8] c"N\00\00\00\00\00\00\00\E6\0A\00\006\00\00\00" }>, align 8
@alloc_11195730e5236cfdc15ea13be1c301f9 = private unnamed_addr constant <{ [162 x i8] }> <{ [162 x i8] c"unsafe precondition(s) violated: slice::from_raw_parts requires the pointer to be aligned and non-null, and the total size of the slice not to exceed `isize::MAX`" }>, align 1
@vtable.3 = private constant <{ ptr, [16 x i8], ptr }> <{ ptr @"_ZN4core3ptr48drop_in_place$LT$core..str..error..Utf8Error$GT$17h25f574cb7461411dE", [16 x i8] c"\10\00\00\00\00\00\00\00\08\00\00\00\00\00\00\00", ptr @"_ZN64_$LT$core..str..error..Utf8Error$u20$as$u20$core..fmt..Debug$GT$3fmt17h7554decb5dba0d78E" }>, align 8, !dbg !0
@alloc_00ae4b301f7fab8ac9617c03fcbd7274 = private unnamed_addr constant <{ [43 x i8] }> <{ [43 x i8] c"called `Result::unwrap()` on an `Err` value" }>, align 1
@vtable.4 = private constant <{ ptr, [16 x i8], ptr }> <{ ptr @"_ZN4core3ptr51drop_in_place$LT$core..array..TryFromSliceError$GT$17heb0b410bf14c44b8E", [16 x i8] c"\00\00\00\00\00\00\00\00\01\00\00\00\00\00\00\00", ptr @"_ZN67_$LT$core..array..TryFromSliceError$u20$as$u20$core..fmt..Debug$GT$3fmt17h7889cdbc79cdd03eE" }>, align 8, !dbg !35
@__rust_no_alloc_shim_is_unstable = external global i8
@1 = private unnamed_addr constant <{ [8 x i8], [8 x i8] }> <{ [8 x i8] c"\01\00\00\00\00\00\00\80", [8 x i8] undef }>, align 8
@alloc_8e685ef482aec04a2d7a8ed5ef1228a3 = private unnamed_addr constant <{ [9 x i8] }> <{ [9 x i8] c"Utf8Error" }>, align 1
@alloc_f34017a1538f19bf68b6d6294eec0bb3 = private unnamed_addr constant <{ [11 x i8] }> <{ [11 x i8] c"valid_up_to" }>, align 1
@vtable.5 = private constant <{ ptr, [16 x i8], ptr }> <{ ptr @"_ZN4core3ptr26drop_in_place$LT$usize$GT$17he37d690ca782b13fE", [16 x i8] c"\08\00\00\00\00\00\00\00\08\00\00\00\00\00\00\00", ptr @"_ZN4core3fmt3num52_$LT$impl$u20$core..fmt..Debug$u20$for$u20$usize$GT$3fmt17h8bde9cac43fa9edaE" }>, align 8, !dbg !47
@alloc_91eca80c47235190e5fbed3d6d8be36c = private unnamed_addr constant <{ [9 x i8] }> <{ [9 x i8] c"error_len" }>, align 1
@vtable.6 = private constant <{ ptr, [16 x i8], ptr }> <{ ptr @"_ZN4core3ptr55drop_in_place$LT$$RF$core..option..Option$LT$u8$GT$$GT$17he08ca46739c455fbE", [16 x i8] c"\08\00\00\00\00\00\00\00\08\00\00\00\00\00\00\00", ptr @"_ZN42_$LT$$RF$T$u20$as$u20$core..fmt..Debug$GT$3fmt17h1a0a6301cf3fa32fE" }>, align 8, !dbg !55
@alloc_37d2e53432a03a1f90b3e7253015eaf9 = private unnamed_addr constant <{ [4 x i8] }> <{ [4 x i8] c"None" }>, align 1
@alloc_9535bf4c204f3eb9b19ec2c83e446e52 = private unnamed_addr constant <{ [4 x i8] }> <{ [4 x i8] c"Some" }>, align 1
@vtable.7 = private constant <{ ptr, [16 x i8], ptr }> <{ ptr @"_ZN4core3ptr27drop_in_place$LT$$RF$u8$GT$17hc339d119e0ed31b4E", [16 x i8] c"\08\00\00\00\00\00\00\00\08\00\00\00\00\00\00\00", ptr @"_ZN42_$LT$$RF$T$u20$as$u20$core..fmt..Debug$GT$3fmt17h4268e87370c8fa83E" }>, align 8, !dbg !64
@alloc_48318ba683a5a3255a282af33b7a5e80 = private unnamed_addr constant <{ [17 x i8] }> <{ [17 x i8] c"TryFromSliceError" }>, align 1
@vtable.8 = private constant <{ ptr, [16 x i8], ptr }> <{ ptr @"_ZN4core3ptr33drop_in_place$LT$$RF$$LP$$RP$$GT$17h9096d79bbe735b43E", [16 x i8] c"\08\00\00\00\00\00\00\00\08\00\00\00\00\00\00\00", ptr @"_ZN42_$LT$$RF$T$u20$as$u20$core..fmt..Debug$GT$3fmt17hc59f047934a16639E" }>, align 8, !dbg !73
@alloc_bfa61d7e283d89afcae72d5c9c906d04 = private unnamed_addr constant <{ [68 x i8] }> <{ [68 x i8] c"slice::get_unchecked_mut requires that the index is within the slice" }>, align 1
@alloc_d1084648e479974e70c9329824bf76f9 = private unnamed_addr constant <{ [9 x i8] }> <{ [9 x i8] c"mid > len" }>, align 1
@alloc_2b3e40161faa82f936e1f97ea2aea002 = private unnamed_addr constant <{ ptr, [8 x i8] }> <{ ptr @alloc_d1084648e479974e70c9329824bf76f9, [8 x i8] c"\09\00\00\00\00\00\00\00" }>, align 8
@alloc_391f8f2df57954d0faa164b7caf35b84 = private unnamed_addr constant <{ ptr, [16 x i8] }> <{ ptr @alloc_f195f5aa4597af008813b3ea9390d1c8, [16 x i8] c"N\00\00\00\00\00\00\00]\07\00\00%\00\00\00" }>, align 8
@alloc_d22c8f80e5d5e729377f40d9aa30a630 = private unnamed_addr constant <{ [22 x i8] }> <{ [22 x i8] c"src/chunked_encoder.rs" }>, align 1
@alloc_f5843f125dfe57c037405f0eda3d13d4 = private unnamed_addr constant <{ ptr, [16 x i8] }> <{ ptr @alloc_d22c8f80e5d5e729377f40d9aa30a630, [16 x i8] c"\16\00\00\00\00\00\00\00C\00\00\000\00\00\00" }>, align 8
@alloc_f179b389e9b4250b187cb816b9182bcc = private unnamed_addr constant <{ [24 x i8] }> <{ [24 x i8] c"base64 data was not utf8" }>, align 1
@alloc_038d6c5722efbd3955ab3763bdc8cc27 = private unnamed_addr constant <{ [14 x i8] }> <{ [14 x i8] c"src/display.rs" }>, align 1
@alloc_2bca34355514d084d3f8c606b1687afc = private unnamed_addr constant <{ ptr, [16 x i8] }> <{ ptr @alloc_038d6c5722efbd3955ab3763bdc8cc27, [16 x i8] c"\0E\00\00\00\00\00\00\003\00\00\000\00\00\00" }>, align 8
@alloc_8f0260f22f1950df1269936ca4e27494 = private unnamed_addr constant <{ [36 x i8] }> <{ [36 x i8] c"src/engine/general_purpose/decode.rs" }>, align 1
@alloc_0b483052c6a71fd22d7f72012e5b0133 = private unnamed_addr constant <{ ptr, [16 x i8] }> <{ ptr @alloc_8f0260f22f1950df1269936ca4e27494, [16 x i8] c"$\00\00\00\00\00\00\00\12\00\00\00'\00\00\00" }>, align 8
@str.9 = internal unnamed_addr constant [33 x i8] c"attempt to multiply with overflow"
@alloc_e09e7ca0742e83904da3c664d034936a = private unnamed_addr constant <{ ptr, [16 x i8] }> <{ ptr @alloc_8f0260f22f1950df1269936ca4e27494, [16 x i8] c"$\00\00\00\00\00\00\005\00\00\00\09\00\00\00" }>, align 8
@str.a = internal unnamed_addr constant [33 x i8] c"attempt to subtract with overflow"
@alloc_ec7604d3655a70d5a54ed0dd41995959 = private unnamed_addr constant <{ ptr, [16 x i8] }> <{ ptr @alloc_8f0260f22f1950df1269936ca4e27494, [16 x i8] c"$\00\00\00\00\00\00\008\00\00\00&\00\00\00" }>, align 8
@alloc_a8b1b02867eded02fb3728008e3098ab = private unnamed_addr constant <{ ptr, [16 x i8] }> <{ ptr @alloc_8f0260f22f1950df1269936ca4e27494, [16 x i8] c"$\00\00\00\00\00\00\009\00\00\00\0A\00\00\00" }>, align 8
@alloc_be20cca9ca2ffb0031efe508f2318016 = private unnamed_addr constant <{ ptr, [16 x i8] }> <{ ptr @alloc_8f0260f22f1950df1269936ca4e27494, [16 x i8] c"$\00\00\00\00\00\00\00[\00\00\00$\00\00\00" }>, align 8
@alloc_3543a1b86ee3a631b3a78c911aa1f767 = private unnamed_addr constant <{ ptr, [16 x i8] }> <{ ptr @alloc_8f0260f22f1950df1269936ca4e27494, [16 x i8] c"$\00\00\00\00\00\00\00\\\00\00\00$\00\00\00" }>, align 8
@alloc_3da7ce14bf23992314b26fcd88f64887 = private unnamed_addr constant <{ ptr, [16 x i8] }> <{ ptr @alloc_8f0260f22f1950df1269936ca4e27494, [16 x i8] c"$\00\00\00\00\00\00\00^\00\00\00.\00\00\00" }>, align 8
@alloc_3a3762c0bb3ec4bd3c71cfe9f0a6bc56 = private unnamed_addr constant <{ ptr, [16 x i8] }> <{ ptr @alloc_8f0260f22f1950df1269936ca4e27494, [16 x i8] c"$\00\00\00\00\00\00\00a\00\00\00\0D\00\00\00" }>, align 8
@alloc_6defa4069b65620eda6cb348f39da602 = private unnamed_addr constant <{ ptr, [16 x i8] }> <{ ptr @alloc_8f0260f22f1950df1269936ca4e27494, [16 x i8] c"$\00\00\00\00\00\00\00b\00\00\00\0E\00\00\00" }>, align 8
@alloc_408635a911ea622b2ddd27a25fdf5858 = private unnamed_addr constant <{ ptr, [16 x i8] }> <{ ptr @alloc_8f0260f22f1950df1269936ca4e27494, [16 x i8] c"$\00\00\00\00\00\00\00e\00\00\009\00\00\00" }>, align 8
@alloc_936a8356927615a02d1ff02f321cec33 = private unnamed_addr constant <{ ptr, [16 x i8] }> <{ ptr @alloc_8f0260f22f1950df1269936ca4e27494, [16 x i8] c"$\00\00\00\00\00\00\00e\00\00\00J\00\00\00" }>, align 8
@alloc_6d81527d791e5f2a98f6cd6472b29674 = private unnamed_addr constant <{ ptr, [16 x i8] }> <{ ptr @alloc_8f0260f22f1950df1269936ca4e27494, [16 x i8] c"$\00\00\00\00\00\00\00e\00\00\008\00\00\00" }>, align 8
@alloc_55e441c4759a18baaf94c81b3399be20 = private unnamed_addr constant <{ ptr, [16 x i8] }> <{ ptr @alloc_8f0260f22f1950df1269936ca4e27494, [16 x i8] c"$\00\00\00\00\00\00\00i\00\00\00+\00\00\00" }>, align 8
@alloc_eb02a44ba731ba8fe01299e9bbe2ab63 = private unnamed_addr constant <{ ptr, [16 x i8] }> <{ ptr @alloc_8f0260f22f1950df1269936ca4e27494, [16 x i8] c"$\00\00\00\00\00\00\00i\00\00\00\11\00\00\00" }>, align 8
@alloc_04fff29afaa887e31ada8f5c6cdef79f = private unnamed_addr constant <{ ptr, [16 x i8] }> <{ ptr @alloc_8f0260f22f1950df1269936ca4e27494, [16 x i8] c"$\00\00\00\00\00\00\00g\00\00\00\0D\00\00\00" }>, align 8
@alloc_2a4bc0391a5b71b6adbd7756a45dd4f0 = private unnamed_addr constant <{ ptr, [16 x i8] }> <{ ptr @alloc_8f0260f22f1950df1269936ca4e27494, [16 x i8] c"$\00\00\00\00\00\00\00<\00\00\00\1B\00\00\00" }>, align 8
@alloc_cf01d25e7da33142aecb127a1f395bd5 = private unnamed_addr constant <{ ptr, [16 x i8] }> <{ ptr @alloc_8f0260f22f1950df1269936ca4e27494, [16 x i8] c"$\00\00\00\00\00\00\00=\00\00\00(\00\00\00" }>, align 8
@alloc_9190a9f6ef2f7ab7ef79252f8cf45f60 = private unnamed_addr constant <{ ptr, [16 x i8] }> <{ ptr @alloc_8f0260f22f1950df1269936ca4e27494, [16 x i8] c"$\00\00\00\00\00\00\00>\00\00\00\0F\00\00\00" }>, align 8
@alloc_44c1c16677095f41117f7ce74f72aa6d = private unnamed_addr constant <{ ptr, [16 x i8] }> <{ ptr @alloc_8f0260f22f1950df1269936ca4e27494, [16 x i8] c"$\00\00\00\00\00\00\00=\00\00\00'\00\00\00" }>, align 8
@alloc_9cf68c242910b640e28a9556c25fb99c = private unnamed_addr constant <{ ptr, [16 x i8] }> <{ ptr @alloc_8f0260f22f1950df1269936ca4e27494, [16 x i8] c"$\00\00\00\00\00\00\00A\00\00\00\13\00\00\00" }>, align 8
@alloc_7ccc494fe4de0dc7d85b5654000bb592 = private unnamed_addr constant <{ ptr, [16 x i8] }> <{ ptr @alloc_8f0260f22f1950df1269936ca4e27494, [16 x i8] c"$\00\00\00\00\00\00\00D\00\00\00\1E\00\00\00" }>, align 8
@alloc_805e1f3581aa449ac9a68bc5d259e8c4 = private unnamed_addr constant <{ ptr, [16 x i8] }> <{ ptr @alloc_8f0260f22f1950df1269936ca4e27494, [16 x i8] c"$\00\00\00\00\00\00\00G\00\00\00\13\00\00\00" }>, align 8
@alloc_1eff89f63b4d8ca658eec3b872e958f9 = private unnamed_addr constant <{ ptr, [16 x i8] }> <{ ptr @alloc_8f0260f22f1950df1269936ca4e27494, [16 x i8] c"$\00\00\00\00\00\00\00H\00\00\00\0D\00\00\00" }>, align 8
@alloc_d0ab225472c4c17878cc351638e6923e = private unnamed_addr constant <{ ptr, [16 x i8] }> <{ ptr @alloc_8f0260f22f1950df1269936ca4e27494, [16 x i8] c"$\00\00\00\00\00\00\00J\00\00\00\1E\00\00\00" }>, align 8
@alloc_b9f0b2f311d38420e40aba001600d350 = private unnamed_addr constant <{ ptr, [16 x i8] }> <{ ptr @alloc_8f0260f22f1950df1269936ca4e27494, [16 x i8] c"$\00\00\00\00\00\00\00M\00\00\00\13\00\00\00" }>, align 8
@alloc_28154b47ac0a128a159b8237e0fb2720 = private unnamed_addr constant <{ ptr, [16 x i8] }> <{ ptr @alloc_8f0260f22f1950df1269936ca4e27494, [16 x i8] c"$\00\00\00\00\00\00\00N\00\00\00\0D\00\00\00" }>, align 8
@alloc_cdf755ee0824d08939c07eec801e67ac = private unnamed_addr constant <{ ptr, [16 x i8] }> <{ ptr @alloc_8f0260f22f1950df1269936ca4e27494, [16 x i8] c"$\00\00\00\00\00\00\00P\00\00\00\1E\00\00\00" }>, align 8
@alloc_b5bf48999ef0adac2d5776f4e0544828 = private unnamed_addr constant <{ ptr, [16 x i8] }> <{ ptr @alloc_8f0260f22f1950df1269936ca4e27494, [16 x i8] c"$\00\00\00\00\00\00\00S\00\00\00\13\00\00\00" }>, align 8
@alloc_c6145663a168ff2ec30d48c6cc95442a = private unnamed_addr constant <{ ptr, [16 x i8] }> <{ ptr @alloc_8f0260f22f1950df1269936ca4e27494, [16 x i8] c"$\00\00\00\00\00\00\00T\00\00\00\0D\00\00\00" }>, align 8
@alloc_93f49f6686f8e776fc7e52ec88e550e1 = private unnamed_addr constant <{ ptr, [16 x i8] }> <{ ptr @alloc_8f0260f22f1950df1269936ca4e27494, [16 x i8] c"$\00\00\00\00\00\00\00V\00\00\00\1E\00\00\00" }>, align 8
@alloc_60e8efcbc1f530ce3b7adfffc13b81e5 = private unnamed_addr constant <{ ptr, [16 x i8] }> <{ ptr @alloc_8f0260f22f1950df1269936ca4e27494, [16 x i8] c"$\00\00\00\00\00\00\00R\00\00\00\09\00\00\00" }>, align 8
@alloc_b7ae5e7e58f7f342cf1bcb357e031d1e = private unnamed_addr constant <{ ptr, [16 x i8] }> <{ ptr @alloc_8f0260f22f1950df1269936ca4e27494, [16 x i8] c"$\00\00\00\00\00\00\00L\00\00\00\09\00\00\00" }>, align 8
@alloc_72097fbddfe3c41d1e0d91f14d4a7f23 = private unnamed_addr constant <{ ptr, [16 x i8] }> <{ ptr @alloc_8f0260f22f1950df1269936ca4e27494, [16 x i8] c"$\00\00\00\00\00\00\00F\00\00\00\09\00\00\00" }>, align 8
@alloc_0224e8ccb6845ca8c6bda3401ced4e3b = private unnamed_addr constant <{ ptr, [16 x i8] }> <{ ptr @alloc_8f0260f22f1950df1269936ca4e27494, [16 x i8] c"$\00\00\00\00\00\00\00@\00\00\00\09\00\00\00" }>, align 8
@alloc_3bac8ae53ff5f5fad1c92f8e2cee7dc4 = private unnamed_addr constant <{ ptr, [16 x i8] }> <{ ptr @alloc_8f0260f22f1950df1269936ca4e27494, [16 x i8] c"$\00\00\00\00\00\00\00,\00\00\00\09\00\00\00" }>, align 8
@alloc_10f880280b69b239b9517032c1442b15 = private unnamed_addr constant <{ [50 x i8] }> <{ [50 x i8] c"assertion failed: input.len() % 4 == input_len_rem" }>, align 1
@alloc_424fe4a0fe6ed618c060b60cf488f10e = private unnamed_addr constant <{ ptr, [16 x i8] }> <{ ptr @alloc_8f0260f22f1950df1269936ca4e27494, [16 x i8] c"$\00\00\00\00\00\00\00\89\00\00\00\05\00\00\00" }>, align 8
@alloc_2ce744285993cf524f8a32568eb5c3b3 = private unnamed_addr constant <{ ptr, [16 x i8] }> <{ ptr @alloc_8f0260f22f1950df1269936ca4e27494, [16 x i8] c"$\00\00\00\00\00\00\00\8D\00\00\00\1F\00\00\00" }>, align 8
@alloc_85a0dc2f06767cadf48f25d792aa0b47 = private unnamed_addr constant <{ ptr, [16 x i8] }> <{ ptr @alloc_8f0260f22f1950df1269936ca4e27494, [16 x i8] c"$\00\00\00\00\00\00\00\8D\00\00\00\19\00\00\00" }>, align 8
@alloc_be716fcf932565a1241aaeec68250835 = private unnamed_addr constant <{ ptr, [16 x i8] }> <{ ptr @alloc_8f0260f22f1950df1269936ca4e27494, [16 x i8] c"$\00\00\00\00\00\00\00\8F\00\00\00%\00\00\00" }>, align 8
@alloc_0979637b60e00b4ae257bf1e9b47230d = private unnamed_addr constant <{ ptr, [16 x i8] }> <{ ptr @alloc_8f0260f22f1950df1269936ca4e27494, [16 x i8] c"$\00\00\00\00\00\00\00\90\00\00\001\00\00\00" }>, align 8
@alloc_25435c0bc8bff22b4d77211811c5716c = private unnamed_addr constant <{ ptr, [16 x i8] }> <{ ptr @alloc_8f0260f22f1950df1269936ca4e27494, [16 x i8] c"$\00\00\00\00\00\00\00\90\00\00\00M\00\00\00" }>, align 8
@alloc_31b965a14eb7830c989727b8f62331d8 = private unnamed_addr constant <{ ptr, [16 x i8] }> <{ ptr @alloc_8f0260f22f1950df1269936ca4e27494, [16 x i8] c"$\00\00\00\00\00\00\00\99\00\00\00\19\00\00\00" }>, align 8
@alloc_1fcc08721bfb5d593ab08b843c8e3897 = private unnamed_addr constant <{ [17 x i8], [7 x i8] }> <{ [17 x i8] c"\01\00\00\00\00\00\00\00\04\00\00\00\00\00\00\00\00", [7 x i8] undef }>, align 8
@alloc_d015663c339abf06ca31a0e55fdf1aa1 = private unnamed_addr constant <{ ptr, [16 x i8] }> <{ ptr @alloc_8f0260f22f1950df1269936ca4e27494, [16 x i8] c"$\00\00\00\00\00\00\00\9B\00\00\00/\00\00\00" }>, align 8
@alloc_e03c40503ae395d4734a2ccb64dc682a = private unnamed_addr constant <{ [113 x i8] }> <{ [113 x i8] c"assertion failed: input.is_empty() ||\0A    (1..=4).contains(&(input.len() - input_complete_nonterminal_quads_len))" }>, align 1
@alloc_889bad6c422407be3261531092363eaf = private unnamed_addr constant <{ ptr, [16 x i8] }> <{ ptr @alloc_8f0260f22f1950df1269936ca4e27494, [16 x i8] c"$\00\00\00\00\00\00\00\9A\00\00\00\05\00\00\00" }>, align 8
@alloc_b90633e9457883c369fbc2779ae7e1ef = private unnamed_addr constant <{ ptr, [16 x i8] }> <{ ptr @alloc_8f0260f22f1950df1269936ca4e27494, [16 x i8] c"$\00\00\00\00\00\00\00\9F\00\00\00\15\00\00\00" }>, align 8
@alloc_ade3a6499e04b12b35ebb4424bff3044 = private unnamed_addr constant <{ ptr, [16 x i8] }> <{ ptr @alloc_8f0260f22f1950df1269936ca4e27494, [16 x i8] c"$\00\00\00\00\00\00\00\B4\00\00\00+\00\00\00" }>, align 8
@alloc_b1a61246189f085d2896c841c646f7c2 = private unnamed_addr constant <{ ptr, [16 x i8] }> <{ ptr @alloc_8f0260f22f1950df1269936ca4e27494, [16 x i8] c"$\00\00\00\00\00\00\00\B4\00\00\00\12\00\00\00" }>, align 8
@alloc_f34e359faf1999217139200b35f5178b = private unnamed_addr constant <{ ptr, [16 x i8] }> <{ ptr @alloc_8f0260f22f1950df1269936ca4e27494, [16 x i8] c"$\00\00\00\00\00\00\00\BA\00\00\00+\00\00\00" }>, align 8
@alloc_8da635561c72174d135cb3ce9e2b2dcf = private unnamed_addr constant <{ ptr, [16 x i8] }> <{ ptr @alloc_8f0260f22f1950df1269936ca4e27494, [16 x i8] c"$\00\00\00\00\00\00\00\BA\00\00\00\12\00\00\00" }>, align 8
@alloc_7114a09895d149e31618b43faedc3f2f = private unnamed_addr constant <{ ptr, [16 x i8] }> <{ ptr @alloc_8f0260f22f1950df1269936ca4e27494, [16 x i8] c"$\00\00\00\00\00\00\00\C3\00\00\00+\00\00\00" }>, align 8
@alloc_44797d78bc8906596675cb090842a387 = private unnamed_addr constant <{ ptr, [16 x i8] }> <{ ptr @alloc_8f0260f22f1950df1269936ca4e27494, [16 x i8] c"$\00\00\00\00\00\00\00\C3\00\00\00\12\00\00\00" }>, align 8
@alloc_282bbebb4d0943ca2184b39a3dab3be1 = private unnamed_addr constant <{ ptr, [16 x i8] }> <{ ptr @alloc_8f0260f22f1950df1269936ca4e27494, [16 x i8] c"$\00\00\00\00\00\00\00\CC\00\00\00+\00\00\00" }>, align 8
@alloc_ae4e265a828d125eafdc3735775bb338 = private unnamed_addr constant <{ ptr, [16 x i8] }> <{ ptr @alloc_8f0260f22f1950df1269936ca4e27494, [16 x i8] c"$\00\00\00\00\00\00\00\CC\00\00\00\12\00\00\00" }>, align 8
@alloc_eddf813903a95cf68e028e2a86434e5c = private unnamed_addr constant <{ ptr, [16 x i8] }> <{ ptr @alloc_8f0260f22f1950df1269936ca4e27494, [16 x i8] c"$\00\00\00\00\00\00\00\D5\00\00\00+\00\00\00" }>, align 8
@alloc_25d8476f6ee2d9d66d9939ad2f4d220c = private unnamed_addr constant <{ ptr, [16 x i8] }> <{ ptr @alloc_8f0260f22f1950df1269936ca4e27494, [16 x i8] c"$\00\00\00\00\00\00\00\D5\00\00\00\12\00\00\00" }>, align 8
@alloc_56dd35d02f4c150d291d6758c2bd8703 = private unnamed_addr constant <{ ptr, [16 x i8] }> <{ ptr @alloc_8f0260f22f1950df1269936ca4e27494, [16 x i8] c"$\00\00\00\00\00\00\00\DE\00\00\00+\00\00\00" }>, align 8
@alloc_22c5f01db6ff80bd2243298688629c45 = private unnamed_addr constant <{ ptr, [16 x i8] }> <{ ptr @alloc_8f0260f22f1950df1269936ca4e27494, [16 x i8] c"$\00\00\00\00\00\00\00\DE\00\00\00\12\00\00\00" }>, align 8
@alloc_6f7df460372cd9be52f5fc61779a5559 = private unnamed_addr constant <{ ptr, [16 x i8] }> <{ ptr @alloc_8f0260f22f1950df1269936ca4e27494, [16 x i8] c"$\00\00\00\00\00\00\00\E7\00\00\00+\00\00\00" }>, align 8
@alloc_932f232159b3e226acbf37f97e082e53 = private unnamed_addr constant <{ ptr, [16 x i8] }> <{ ptr @alloc_8f0260f22f1950df1269936ca4e27494, [16 x i8] c"$\00\00\00\00\00\00\00\E7\00\00\00\12\00\00\00" }>, align 8
@alloc_6df620413e66b8bc5ce15b02604aa7ac = private unnamed_addr constant <{ ptr, [16 x i8] }> <{ ptr @alloc_8f0260f22f1950df1269936ca4e27494, [16 x i8] c"$\00\00\00\00\00\00\00\F0\00\00\00+\00\00\00" }>, align 8
@alloc_96aff0bfabafba026799b07d7ddd3309 = private unnamed_addr constant <{ ptr, [16 x i8] }> <{ ptr @alloc_8f0260f22f1950df1269936ca4e27494, [16 x i8] c"$\00\00\00\00\00\00\00\F0\00\00\00\12\00\00\00" }>, align 8
@alloc_e7e37b312cdf1c4a69db9e61f76e2b45 = private unnamed_addr constant <{ ptr, [16 x i8] }> <{ ptr @alloc_8f0260f22f1950df1269936ca4e27494, [16 x i8] c"$\00\00\00\00\00\00\00\F9\00\00\00\0B\00\00\00" }>, align 8
@alloc_3b340507571e0fdc76c5a86297ed3895 = private unnamed_addr constant <{ ptr, [16 x i8] }> <{ ptr @alloc_8f0260f22f1950df1269936ca4e27494, [16 x i8] c"$\00\00\00\00\00\00\00\F9\00\00\005\00\00\00" }>, align 8
@alloc_87a7b8fbbf6ffbc0f367a6acbeb4172f = private unnamed_addr constant <{ ptr, [16 x i8] }> <{ ptr @alloc_8f0260f22f1950df1269936ca4e27494, [16 x i8] c"$\00\00\00\00\00\00\00\F9\00\00\00\11\00\00\00" }>, align 8
@alloc_cd9d651b9c20d3950d34d9ecdad0664d = private unnamed_addr constant <{ ptr, [16 x i8] }> <{ ptr @alloc_8f0260f22f1950df1269936ca4e27494, [16 x i8] c"$\00\00\00\00\00\00\00\F3\00\00\00\0D\00\00\00" }>, align 8
@alloc_fb37b4def621ae8c04c8bc77361f8592 = private unnamed_addr constant <{ ptr, [16 x i8] }> <{ ptr @alloc_8f0260f22f1950df1269936ca4e27494, [16 x i8] c"$\00\00\00\00\00\00\00\F4\00\00\00\0D\00\00\00" }>, align 8
@alloc_64637fa57575a1a9c92a1fb4bfe9cac4 = private unnamed_addr constant <{ ptr, [16 x i8] }> <{ ptr @alloc_8f0260f22f1950df1269936ca4e27494, [16 x i8] c"$\00\00\00\00\00\00\00\EA\00\00\00\0D\00\00\00" }>, align 8
@alloc_de36af83f7730ca66d7892f63dacb0db = private unnamed_addr constant <{ ptr, [16 x i8] }> <{ ptr @alloc_8f0260f22f1950df1269936ca4e27494, [16 x i8] c"$\00\00\00\00\00\00\00\EB\00\00\00\0D\00\00\00" }>, align 8
@alloc_16543fcceda39a3529a8a3d73a31a5ec = private unnamed_addr constant <{ ptr, [16 x i8] }> <{ ptr @alloc_8f0260f22f1950df1269936ca4e27494, [16 x i8] c"$\00\00\00\00\00\00\00\E1\00\00\00\0D\00\00\00" }>, align 8
@alloc_424e2a603fc427cbb783df913a67bef6 = private unnamed_addr constant <{ ptr, [16 x i8] }> <{ ptr @alloc_8f0260f22f1950df1269936ca4e27494, [16 x i8] c"$\00\00\00\00\00\00\00\E2\00\00\00\0D\00\00\00" }>, align 8
@alloc_3f3a612dd320c98c8f17581edb8e5919 = private unnamed_addr constant <{ ptr, [16 x i8] }> <{ ptr @alloc_8f0260f22f1950df1269936ca4e27494, [16 x i8] c"$\00\00\00\00\00\00\00\D8\00\00\00\0D\00\00\00" }>, align 8
@alloc_ad5d9e905c9ab9fc7fc11aaca4451d26 = private unnamed_addr constant <{ ptr, [16 x i8] }> <{ ptr @alloc_8f0260f22f1950df1269936ca4e27494, [16 x i8] c"$\00\00\00\00\00\00\00\D9\00\00\00\0D\00\00\00" }>, align 8
@alloc_848f58eb3a4f9a24e07329d858f759b2 = private unnamed_addr constant <{ ptr, [16 x i8] }> <{ ptr @alloc_8f0260f22f1950df1269936ca4e27494, [16 x i8] c"$\00\00\00\00\00\00\00\CF\00\00\00\0D\00\00\00" }>, align 8
@alloc_2ce9f3ee77f7a4a9b5b5be837d6e165d = private unnamed_addr constant <{ ptr, [16 x i8] }> <{ ptr @alloc_8f0260f22f1950df1269936ca4e27494, [16 x i8] c"$\00\00\00\00\00\00\00\D0\00\00\00\0D\00\00\00" }>, align 8
@alloc_fbe0e7d50ba78c10f1aff66fc006fbcb = private unnamed_addr constant <{ ptr, [16 x i8] }> <{ ptr @alloc_8f0260f22f1950df1269936ca4e27494, [16 x i8] c"$\00\00\00\00\00\00\00\C6\00\00\00\0D\00\00\00" }>, align 8
@alloc_c073a973aea8fa592961ad43a1ac9cff = private unnamed_addr constant <{ ptr, [16 x i8] }> <{ ptr @alloc_8f0260f22f1950df1269936ca4e27494, [16 x i8] c"$\00\00\00\00\00\00\00\C7\00\00\00\0D\00\00\00" }>, align 8
@alloc_a1b950b76e65bbb8b0db578849053dcf = private unnamed_addr constant <{ ptr, [16 x i8] }> <{ ptr @alloc_8f0260f22f1950df1269936ca4e27494, [16 x i8] c"$\00\00\00\00\00\00\00\BD\00\00\00\0D\00\00\00" }>, align 8
@alloc_4647f0b2d49704b8c0f47704a74ca3ca = private unnamed_addr constant <{ ptr, [16 x i8] }> <{ ptr @alloc_8f0260f22f1950df1269936ca4e27494, [16 x i8] c"$\00\00\00\00\00\00\00\BE\00\00\00\0D\00\00\00" }>, align 8
@alloc_c65dddd4a083fa788f1d7ae3e4d48a60 = private unnamed_addr constant <{ ptr, [16 x i8] }> <{ ptr @alloc_8f0260f22f1950df1269936ca4e27494, [16 x i8] c"$\00\00\00\00\00\00\00\B6\00\00\00F\00\00\00" }>, align 8
@alloc_0a4a1ff4bb5a50b5575952fc36e2c61f = private unnamed_addr constant <{ ptr, [16 x i8] }> <{ ptr @alloc_8f0260f22f1950df1269936ca4e27494, [16 x i8] c"$\00\00\00\00\00\00\00\06\01\00\00+\00\00\00" }>, align 8
@alloc_1b75877cda833b94e48fb7bef6c481c5 = private unnamed_addr constant <{ ptr, [16 x i8] }> <{ ptr @alloc_8f0260f22f1950df1269936ca4e27494, [16 x i8] c"$\00\00\00\00\00\00\00\06\01\00\00\12\00\00\00" }>, align 8
@alloc_4804fc7947a76464f4101182d7f6cebd = private unnamed_addr constant <{ ptr, [16 x i8] }> <{ ptr @alloc_8f0260f22f1950df1269936ca4e27494, [16 x i8] c"$\00\00\00\00\00\00\00\0C\01\00\00+\00\00\00" }>, align 8
@alloc_d26924a5796a525c06d27b64c2452f3d = private unnamed_addr constant <{ ptr, [16 x i8] }> <{ ptr @alloc_8f0260f22f1950df1269936ca4e27494, [16 x i8] c"$\00\00\00\00\00\00\00\0C\01\00\00\12\00\00\00" }>, align 8
@alloc_fbe30896309239d7d62dbcb6b9a640bb = private unnamed_addr constant <{ ptr, [16 x i8] }> <{ ptr @alloc_8f0260f22f1950df1269936ca4e27494, [16 x i8] c"$\00\00\00\00\00\00\00\15\01\00\00+\00\00\00" }>, align 8
@alloc_6046328844ade696cafb0353d3ff1176 = private unnamed_addr constant <{ ptr, [16 x i8] }> <{ ptr @alloc_8f0260f22f1950df1269936ca4e27494, [16 x i8] c"$\00\00\00\00\00\00\00\15\01\00\00\12\00\00\00" }>, align 8
@alloc_e0cba4d57080be2a53d394bdecf8d3dd = private unnamed_addr constant <{ ptr, [16 x i8] }> <{ ptr @alloc_8f0260f22f1950df1269936ca4e27494, [16 x i8] c"$\00\00\00\00\00\00\00\1E\01\00\00+\00\00\00" }>, align 8
@alloc_a023304cb59e2668942fb8933d8e3b1a = private unnamed_addr constant <{ ptr, [16 x i8] }> <{ ptr @alloc_8f0260f22f1950df1269936ca4e27494, [16 x i8] c"$\00\00\00\00\00\00\00\1E\01\00\00\12\00\00\00" }>, align 8
@alloc_a5dbb74166c10ea56dbf1df09c05ac36 = private unnamed_addr constant <{ ptr, [16 x i8] }> <{ ptr @alloc_8f0260f22f1950df1269936ca4e27494, [16 x i8] c"$\00\00\00\00\00\00\00'\01\00\00\0B\00\00\00" }>, align 8
@alloc_f99634b96ca1f5522f3b0ac223ebc8f4 = private unnamed_addr constant <{ ptr, [16 x i8] }> <{ ptr @alloc_8f0260f22f1950df1269936ca4e27494, [16 x i8] c"$\00\00\00\00\00\00\00'\01\00\005\00\00\00" }>, align 8
@alloc_565a5627a665ea4b0fef2e9f34210349 = private unnamed_addr constant <{ ptr, [16 x i8] }> <{ ptr @alloc_8f0260f22f1950df1269936ca4e27494, [16 x i8] c"$\00\00\00\00\00\00\00'\01\00\00\11\00\00\00" }>, align 8
@alloc_837d25c09dca5633361d478fb975490c = private unnamed_addr constant <{ ptr, [16 x i8] }> <{ ptr @alloc_8f0260f22f1950df1269936ca4e27494, [16 x i8] c"$\00\00\00\00\00\00\00!\01\00\00\0D\00\00\00" }>, align 8
@alloc_bbccce8e45b70e00226a7d28b053f3d2 = private unnamed_addr constant <{ ptr, [16 x i8] }> <{ ptr @alloc_8f0260f22f1950df1269936ca4e27494, [16 x i8] c"$\00\00\00\00\00\00\00\22\01\00\00\0D\00\00\00" }>, align 8
@alloc_de16f9fe4b86a82f59d2ef464bed5bd4 = private unnamed_addr constant <{ ptr, [16 x i8] }> <{ ptr @alloc_8f0260f22f1950df1269936ca4e27494, [16 x i8] c"$\00\00\00\00\00\00\00\18\01\00\00\0D\00\00\00" }>, align 8
@alloc_8b8b266a299fc49262471f1dd84970ba = private unnamed_addr constant <{ ptr, [16 x i8] }> <{ ptr @alloc_8f0260f22f1950df1269936ca4e27494, [16 x i8] c"$\00\00\00\00\00\00\00\19\01\00\00\0D\00\00\00" }>, align 8
@alloc_fb5cfc43377e4186ab53faf753d752b7 = private unnamed_addr constant <{ ptr, [16 x i8] }> <{ ptr @alloc_8f0260f22f1950df1269936ca4e27494, [16 x i8] c"$\00\00\00\00\00\00\00\0F\01\00\00\0D\00\00\00" }>, align 8
@alloc_62c08a9798b9727f1c2592e7edbdacb2 = private unnamed_addr constant <{ ptr, [16 x i8] }> <{ ptr @alloc_8f0260f22f1950df1269936ca4e27494, [16 x i8] c"$\00\00\00\00\00\00\00\10\01\00\00\0D\00\00\00" }>, align 8
@alloc_8d37b830db70744992cf6d1a14def603 = private unnamed_addr constant <{ ptr, [16 x i8] }> <{ ptr @alloc_8f0260f22f1950df1269936ca4e27494, [16 x i8] c"$\00\00\00\00\00\00\00\08\01\00\00F\00\00\00" }>, align 8
@alloc_bfc794a7a1e4c315e21e244a5c65777e = private unnamed_addr constant <{ [43 x i8] }> <{ [43 x i8] c"src/engine/general_purpose/decode_suffix.rs" }>, align 1
@alloc_b2d526992cbfcc7654d225c373830966 = private unnamed_addr constant <{ ptr, [16 x i8] }> <{ ptr @alloc_bfc794a7a1e4c315e21e244a5c65777e, [16 x i8] c"+\00\00\00\00\00\00\00\14\00\00\00\13\00\00\00" }>, align 8
@alloc_6714023ecf03d2b8c8d333ec8399b8cc = private unnamed_addr constant <{ [50 x i8] }> <{ [50 x i8] c"assertion failed: (input.len() - input_index) <= 4" }>, align 1
@alloc_772d8acbfff113f6fa5d3cc8e81be2f3 = private unnamed_addr constant <{ ptr, [16 x i8] }> <{ ptr @alloc_bfc794a7a1e4c315e21e244a5c65777e, [16 x i8] c"+\00\00\00\00\00\00\00\14\00\00\00\05\00\00\00" }>, align 8
@alloc_451fd11ea47cd8bcad6ac061718b5b78 = private unnamed_addr constant <{ ptr, [16 x i8] }> <{ ptr @alloc_bfc794a7a1e4c315e21e244a5c65777e, [16 x i8] c"+\00\00\00\00\00\00\00\1F\00\00\00&\00\00\00" }>, align 8
@alloc_97e07a371a741189630034e63d30c201 = private unnamed_addr constant <{ ptr, [16 x i8] }> <{ ptr @alloc_bfc794a7a1e4c315e21e244a5c65777e, [16 x i8] c"+\00\00\00\00\00\00\00[\00\00\00/\00\00\00" }>, align 8
@alloc_a99b01165ac67184b61c3875e76a160e = private unnamed_addr constant <{ ptr, [16 x i8] }> <{ ptr @alloc_bfc794a7a1e4c315e21e244a5c65777e, [16 x i8] c"+\00\00\00\00\00\00\00[\00\00\00R\00\00\00" }>, align 8
@alloc_6ea323f3bdcc4c99d04d24a68a590b98 = private unnamed_addr constant <{ ptr, [16 x i8] }> <{ ptr @alloc_bfc794a7a1e4c315e21e244a5c65777e, [16 x i8] c"+\00\00\00\00\00\00\00b\00\00\00\10\00\00\00" }>, align 8
@alloc_79e54a9a62e75b015e3d439086f5b636 = private unnamed_addr constant <{ ptr, [16 x i8] }> <{ ptr @alloc_bfc794a7a1e4c315e21e244a5c65777e, [16 x i8] c"+\00\00\00\00\00\00\00c\00\00\008\00\00\00" }>, align 8
@alloc_cfe69e10a0a00c36e7966ab05c4a05ee = private unnamed_addr constant <{ ptr, [16 x i8] }> <{ ptr @alloc_bfc794a7a1e4c315e21e244a5c65777e, [16 x i8] c"+\00\00\00\00\00\00\00{\00\00\00$\00\00\00" }>, align 8
@alloc_e7bfa751dda9698a332e2917e37cec7e = private unnamed_addr constant <{ ptr, [16 x i8] }> <{ ptr @alloc_bfc794a7a1e4c315e21e244a5c65777e, [16 x i8] c"+\00\00\00\00\00\00\00\85\00\00\00\1A\00\00\00" }>, align 8
@alloc_977a15cec805331205c8ab118f1a3ec1 = private unnamed_addr constant <{ ptr, [16 x i8] }> <{ ptr @alloc_bfc794a7a1e4c315e21e244a5c65777e, [16 x i8] c"+\00\00\00\00\00\00\00\85\00\00\00\10\00\00\00" }>, align 8
@str.b = internal unnamed_addr constant [36 x i8] c"attempt to shift right with overflow"
@alloc_586a0b1436734cdb446b402c3a3968ce = private unnamed_addr constant <{ ptr, [16 x i8] }> <{ ptr @alloc_bfc794a7a1e4c315e21e244a5c65777e, [16 x i8] c"+\00\00\00\00\00\00\00\89\00\00\00\0D\00\00\00" }>, align 8
@alloc_1f0fb0c5f1c524bcdc2d1da628f5139a = private unnamed_addr constant <{ ptr, [16 x i8] }> <{ ptr @alloc_bfc794a7a1e4c315e21e244a5c65777e, [16 x i8] c"+\00\00\00\00\00\00\00\8C\00\00\00\0A\00\00\00" }>, align 8
@alloc_26c2804e978dcc7fbdb1db2373757976 = private unnamed_addr constant <{ ptr, [16 x i8] }> <{ ptr @alloc_bfc794a7a1e4c315e21e244a5c65777e, [16 x i8] c"+\00\00\00\00\00\00\00\9D\00\00\00\12\00\00\00" }>, align 8
@alloc_0e599e81153f2a25c8de7e94a7064735 = private unnamed_addr constant <{ ptr, [16 x i8] }> <{ ptr @alloc_bfc794a7a1e4c315e21e244a5c65777e, [16 x i8] c"+\00\00\00\00\00\00\00\97\00\00\00\09\00\00\00" }>, align 8
@alloc_54fde145d4ecc666bbad460346ce82f8 = private unnamed_addr constant <{ ptr, [16 x i8] }> <{ ptr @alloc_bfc794a7a1e4c315e21e244a5c65777e, [16 x i8] c"+\00\00\00\00\00\00\00\94\00\00\00\0A\00\00\00" }>, align 8
@alloc_56e8abb512faba0aa7a8313dda56eea6 = private unnamed_addr constant <{ ptr, [16 x i8] }> <{ ptr @alloc_bfc794a7a1e4c315e21e244a5c65777e, [16 x i8] c"+\00\00\00\00\00\00\00j\00\00\008\00\00\00" }>, align 8
@alloc_cea61a0e8df4142a1d7e2c23e78aef9a = private unnamed_addr constant <{ ptr, [16 x i8] }> <{ ptr @alloc_bfc794a7a1e4c315e21e244a5c65777e, [16 x i8] c"+\00\00\00\00\00\00\00O\00\00\00\16\00\00\00" }>, align 8
@alloc_65f5a7ba287dae3b899ca9ada0881f56 = private unnamed_addr constant <{ ptr, [16 x i8] }> <{ ptr @alloc_bfc794a7a1e4c315e21e244a5c65777e, [16 x i8] c"+\00\00\00\00\00\00\00T\00\00\00\09\00\00\00" }>, align 8
@alloc_76c9d05f59bd2b70f6ba5cd495df4cdc = private unnamed_addr constant <{ ptr, [16 x i8] }> <{ ptr @alloc_bfc794a7a1e4c315e21e244a5c65777e, [16 x i8] c"+\00\00\00\00\00\00\00U\00\00\00\09\00\00\00" }>, align 8
@alloc_21b36a6e85cd6af610c18dc2be18e689 = private unnamed_addr constant <{ ptr, [16 x i8] }> <{ ptr @alloc_bfc794a7a1e4c315e21e244a5c65777e, [16 x i8] c"+\00\00\00\00\00\00\00Q\00\00\001\00\00\00" }>, align 8
@alloc_9fdf15f303fa6092c85aa349c6d82f0f = private unnamed_addr constant <{ ptr, [16 x i8] }> <{ ptr @alloc_bfc794a7a1e4c315e21e244a5c65777e, [16 x i8] c"+\00\00\00\00\00\00\00Q\00\00\00R\00\00\00" }>, align 8
@alloc_89b10600ec008643d7bcbc3b186e902f = private unnamed_addr constant <{ ptr, [16 x i8] }> <{ ptr @alloc_bfc794a7a1e4c315e21e244a5c65777e, [16 x i8] c"+\00\00\00\00\00\00\00G\00\00\00*\00\00\00" }>, align 8
@alloc_08d740e8bfd44049e65d2737ba6d8829 = private unnamed_addr constant <{ ptr, [16 x i8] }> <{ ptr @alloc_bfc794a7a1e4c315e21e244a5c65777e, [16 x i8] c"+\00\00\00\00\00\00\00G\00\00\00X\00\00\00" }>, align 8
@alloc_0375fcfe7af05c8b13d5d8797a18e648 = private unnamed_addr constant <{ ptr, [16 x i8] }> <{ ptr @alloc_bfc794a7a1e4c315e21e244a5c65777e, [16 x i8] c"+\00\00\00\00\00\00\00=\00\00\00\0D\00\00\00" }>, align 8
@alloc_ef50def5fd18172fd44a618ad3f5ac3d = private unnamed_addr constant <{ ptr, [16 x i8] }> <{ ptr @alloc_bfc794a7a1e4c315e21e244a5c65777e, [16 x i8] c"+\00\00\00\00\00\00\005\00\00\00)\00\00\00" }>, align 8
@alloc_5b3fe52a1224705533d3b1d7ecdb4f01 = private unnamed_addr constant <{ ptr, [16 x i8] }> <{ ptr @alloc_bfc794a7a1e4c315e21e244a5c65777e, [16 x i8] c"+\00\00\00\00\00\00\006\00\00\00K\00\00\00" }>, align 8
@alloc_0a3859aa9b544ff4d3a7f51f87fb04a7 = private unnamed_addr constant <{ [90 x i8] }> <{ [90 x i8] c"assertion failed: leftover_index == 0 || (leftover_index == 1 && padding_bytes_count == 0)" }>, align 1
@alloc_8ea279039825d8ec8a2294a1bd351822 = private unnamed_addr constant <{ ptr, [16 x i8] }> <{ ptr @alloc_bfc794a7a1e4c315e21e244a5c65777e, [16 x i8] c"+\00\00\00\00\00\00\002\00\00\00\11\00\00\00" }>, align 8
@alloc_adb4c038113546823ffe9ce2a86c42a3 = private unnamed_addr constant <{ [33 x i8] }> <{ [33 x i8] c"src/engine/general_purpose/mod.rs" }>, align 1
@alloc_1d9283d81996c884bee415178ae259c1 = private unnamed_addr constant <{ ptr, [16 x i8] }> <{ ptr @alloc_adb4c038113546823ffe9ce2a86c42a3, [16 x i8] c"!\00\00\00\00\00\00\008\00\00\00:\00\00\00" }>, align 8
@alloc_9076babda2e4329da469f5b5e2136f5c = private unnamed_addr constant <{ ptr, [16 x i8] }> <{ ptr @alloc_adb4c038113546823ffe9ce2a86c42a3, [16 x i8] c"!\00\00\00\00\00\00\00\82\00\00\00\1C\00\00\00" }>, align 8
@alloc_50dc63a2a9df6038bca2cf53bb229875 = private unnamed_addr constant <{ ptr, [16 x i8] }> <{ ptr @alloc_adb4c038113546823ffe9ce2a86c42a3, [16 x i8] c"!\00\00\00\00\00\00\00\96\00\00\007\00\00\00" }>, align 8
@alloc_c1a168957b767a0b43d0ef9fff2cdf82 = private unnamed_addr constant <{ ptr, [16 x i8] }> <{ ptr @alloc_adb4c038113546823ffe9ce2a86c42a3, [16 x i8] c"!\00\00\00\00\00\00\00\96\00\00\00$\00\00\00" }>, align 8
@alloc_aa3256af8bb14347177416be5143ccfc = private unnamed_addr constant <{ ptr, [16 x i8] }> <{ ptr @alloc_adb4c038113546823ffe9ce2a86c42a3, [16 x i8] c"!\00\00\00\00\00\00\00\96\00\00\00\0D\00\00\00" }>, align 8
@alloc_9d8e2509e2bb330814c689db2ca9c8c4 = private unnamed_addr constant <{ ptr, [16 x i8] }> <{ ptr @alloc_adb4c038113546823ffe9ce2a86c42a3, [16 x i8] c"!\00\00\00\00\00\00\00\98\00\00\00%\00\00\00" }>, align 8
@alloc_2d20cc61ea00eb8340b6eceddb866f19 = private unnamed_addr constant <{ ptr, [16 x i8] }> <{ ptr @alloc_adb4c038113546823ffe9ce2a86c42a3, [16 x i8] c"!\00\00\00\00\00\00\00\98\00\00\00F\00\00\00" }>, align 8
@alloc_58819827aa69e93a85839452092835a4 = private unnamed_addr constant <{ ptr, [16 x i8] }> <{ ptr @alloc_adb4c038113546823ffe9ce2a86c42a3, [16 x i8] c"!\00\00\00\00\00\00\00\98\00\00\00@\00\00\00" }>, align 8
@alloc_573e43de1d0b21986828efe77b77d306 = private unnamed_addr constant <{ ptr, [16 x i8] }> <{ ptr @alloc_adb4c038113546823ffe9ce2a86c42a3, [16 x i8] c"!\00\00\00\00\00\00\00\98\00\00\00\11\00\00\00" }>, align 8
@alloc_edca8cdb4d6a215447281ff116a300ca = private unnamed_addr constant <{ ptr, [16 x i8] }> <{ ptr @alloc_adb4c038113546823ffe9ce2a86c42a3, [16 x i8] c"!\00\00\00\00\00\00\00\97\00\00\00\14\00\00\00" }>, align 8
@alloc_15752a133289729ebc6b580adb9d5ead = private unnamed_addr constant <{ ptr, [16 x i8] }> <{ ptr @alloc_adb4c038113546823ffe9ce2a86c42a3, [16 x i8] c"!\00\00\00\00\00\00\00\97\00\00\00\0D\00\00\00" }>, align 8
@alloc_295961379453d9eea3393737e3a15689 = private unnamed_addr constant <{ ptr, [16 x i8] }> <{ ptr @alloc_adb4c038113546823ffe9ce2a86c42a3, [16 x i8] c"!\00\00\00\00\00\00\00\9B\00\00\00+\00\00\00" }>, align 8
@alloc_59787b24618d8d325a5c031776001218 = private unnamed_addr constant <{ ptr, [16 x i8] }> <{ ptr @alloc_adb4c038113546823ffe9ce2a86c42a3, [16 x i8] c"!\00\00\00\00\00\00\00\9B\00\00\00%\00\00\00" }>, align 8
@alloc_b7a5d9fb4c7854acab86625fcf4c40ca = private unnamed_addr constant <{ ptr, [16 x i8] }> <{ ptr @alloc_adb4c038113546823ffe9ce2a86c42a3, [16 x i8] c"!\00\00\00\00\00\00\00\9B\00\00\00\11\00\00\00" }>, align 8
@alloc_b3875c65d06dc7d2fca54aa6fd73b85b = private unnamed_addr constant <{ ptr, [16 x i8] }> <{ ptr @alloc_adb4c038113546823ffe9ce2a86c42a3, [16 x i8] c"!\00\00\00\00\00\00\00\9A\00\00\00\14\00\00\00" }>, align 8
@alloc_58392b66b29eff3ca8c8df7b97b79f4e = private unnamed_addr constant <{ ptr, [16 x i8] }> <{ ptr @alloc_adb4c038113546823ffe9ce2a86c42a3, [16 x i8] c"!\00\00\00\00\00\00\00\9A\00\00\00\0D\00\00\00" }>, align 8
@alloc_7ef1802b61e4de0084527f0821781c11 = private unnamed_addr constant <{ ptr, [16 x i8] }> <{ ptr @alloc_adb4c038113546823ffe9ce2a86c42a3, [16 x i8] c"!\00\00\00\00\00\00\00\9C\00\00\00\0D\00\00\00" }>, align 8
@alloc_1455c7ad70f145cc38c243e721ec35db = private unnamed_addr constant <{ ptr, [16 x i8] }> <{ ptr @alloc_adb4c038113546823ffe9ce2a86c42a3, [16 x i8] c"!\00\00\00\00\00\00\00\9E\00\00\007\00\00\00" }>, align 8
@alloc_06cec1d4706cd27196e3a053cd303ee2 = private unnamed_addr constant <{ ptr, [16 x i8] }> <{ ptr @alloc_adb4c038113546823ffe9ce2a86c42a3, [16 x i8] c"!\00\00\00\00\00\00\00\9E\00\00\00$\00\00\00" }>, align 8
@alloc_b08c5d27e24422f4d3b05eb662fe723a = private unnamed_addr constant <{ ptr, [16 x i8] }> <{ ptr @alloc_adb4c038113546823ffe9ce2a86c42a3, [16 x i8] c"!\00\00\00\00\00\00\00\9E\00\00\00\0D\00\00\00" }>, align 8
@alloc_e9d4461436df7d2a90695980e751faf8 = private unnamed_addr constant <{ ptr, [16 x i8] }> <{ ptr @alloc_adb4c038113546823ffe9ce2a86c42a3, [16 x i8] c"!\00\00\00\00\00\00\00\A0\00\00\00%\00\00\00" }>, align 8
@alloc_965f3f83f8da7c70a962bc015c463761 = private unnamed_addr constant <{ ptr, [16 x i8] }> <{ ptr @alloc_adb4c038113546823ffe9ce2a86c42a3, [16 x i8] c"!\00\00\00\00\00\00\00\A0\00\00\00\11\00\00\00" }>, align 8
@alloc_98340d484ecadff31157c58cf801801e = private unnamed_addr constant <{ ptr, [16 x i8] }> <{ ptr @alloc_adb4c038113546823ffe9ce2a86c42a3, [16 x i8] c"!\00\00\00\00\00\00\00\9F\00\00\00\14\00\00\00" }>, align 8
@alloc_6524ac8f0f93f70c176c3c213788a5a7 = private unnamed_addr constant <{ ptr, [16 x i8] }> <{ ptr @alloc_adb4c038113546823ffe9ce2a86c42a3, [16 x i8] c"!\00\00\00\00\00\00\00\9F\00\00\00\0D\00\00\00" }>, align 8
@alloc_23f9c305aabf5276131423d3c8dc5da4 = private unnamed_addr constant <{ ptr, [16 x i8] }> <{ ptr @alloc_adb4c038113546823ffe9ce2a86c42a3, [16 x i8] c"!\00\00\00\00\00\00\00\A1\00\00\00\0D\00\00\00" }>, align 8
@alloc_343c4d1635fbc2e2d823d6bbb07306eb = private unnamed_addr constant <{ ptr, [16 x i8] }> <{ ptr @alloc_adb4c038113546823ffe9ce2a86c42a3, [16 x i8] c"!\00\00\00\00\00\00\00\87\00\00\003\00\00\00" }>, align 8
@alloc_da005a41f74a6470b3d845e7e665cac3 = private unnamed_addr constant <{ ptr, [16 x i8] }> <{ ptr @alloc_adb4c038113546823ffe9ce2a86c42a3, [16 x i8] c"!\00\00\00\00\00\00\00\87\00\00\00%\00\00\00" }>, align 8
@alloc_b61d281a019f3024d78f90af7105c735 = private unnamed_addr constant <{ ptr, [16 x i8] }> <{ ptr @alloc_adb4c038113546823ffe9ce2a86c42a3, [16 x i8] c"!\00\00\00\00\00\00\00\88\00\00\00:\00\00\00" }>, align 8
@alloc_1e24b6a1dfd288e510c6e7b2b38da146 = private unnamed_addr constant <{ ptr, [16 x i8] }> <{ ptr @alloc_adb4c038113546823ffe9ce2a86c42a3, [16 x i8] c"!\00\00\00\00\00\00\00\88\00\00\00+\00\00\00" }>, align 8
@alloc_579981ec7d481e4531a71707fe0dbfeb = private unnamed_addr constant <{ ptr, [16 x i8] }> <{ ptr @alloc_adb4c038113546823ffe9ce2a86c42a3, [16 x i8] c"!\00\00\00\00\00\00\00\8A\00\00\002\00\00\00" }>, align 8
@alloc_5ab66a08dad8545c37ff4bede446adb4 = private unnamed_addr constant <{ ptr, [16 x i8] }> <{ ptr @alloc_adb4c038113546823ffe9ce2a86c42a3, [16 x i8] c"!\00\00\00\00\00\00\00\8A\00\00\00\1F\00\00\00" }>, align 8
@alloc_e08119ad9222b38b0006c5b7f5c4697f = private unnamed_addr constant <{ ptr, [16 x i8] }> <{ ptr @alloc_adb4c038113546823ffe9ce2a86c42a3, [16 x i8] c"!\00\00\00\00\00\00\00\8A\00\00\00\0D\00\00\00" }>, align 8
@alloc_e52338fc33fc71d45bdfb88cec8a59ce = private unnamed_addr constant <{ ptr, [16 x i8] }> <{ ptr @alloc_adb4c038113546823ffe9ce2a86c42a3, [16 x i8] c"!\00\00\00\00\00\00\00\8C\00\00\00\14\00\00\00" }>, align 8
@alloc_9fc942564751686792c6569d8d1da2f6 = private unnamed_addr constant <{ ptr, [16 x i8] }> <{ ptr @alloc_adb4c038113546823ffe9ce2a86c42a3, [16 x i8] c"!\00\00\00\00\00\00\00\8C\00\00\00*\00\00\00" }>, align 8
@alloc_4cfa593d89ff40ed5feb525e2abf2d05 = private unnamed_addr constant <{ ptr, [16 x i8] }> <{ ptr @alloc_adb4c038113546823ffe9ce2a86c42a3, [16 x i8] c"!\00\00\00\00\00\00\00\8B\00\00\00\1F\00\00\00" }>, align 8
@alloc_41437fbc843e6a9160edff0b651eefa9 = private unnamed_addr constant <{ ptr, [16 x i8] }> <{ ptr @alloc_adb4c038113546823ffe9ce2a86c42a3, [16 x i8] c"!\00\00\00\00\00\00\00\8B\00\00\00\0D\00\00\00" }>, align 8
@alloc_f9fc336f29e904fe3116c71565fcac86 = private unnamed_addr constant <{ ptr, [16 x i8] }> <{ ptr @alloc_adb4c038113546823ffe9ce2a86c42a3, [16 x i8] c"!\00\00\00\00\00\00\00\8E\00\00\00\14\00\00\00" }>, align 8
@alloc_8de1ce01f128a1e6eb40feb0f6e15417 = private unnamed_addr constant <{ ptr, [16 x i8] }> <{ ptr @alloc_adb4c038113546823ffe9ce2a86c42a3, [16 x i8] c"!\00\00\00\00\00\00\00\8E\00\00\00*\00\00\00" }>, align 8
@alloc_b6bb6838938ac90169d025433c5bd678 = private unnamed_addr constant <{ ptr, [16 x i8] }> <{ ptr @alloc_adb4c038113546823ffe9ce2a86c42a3, [16 x i8] c"!\00\00\00\00\00\00\00\8D\00\00\00\1F\00\00\00" }>, align 8
@alloc_671e46f8a6b19452884f7a3492dec601 = private unnamed_addr constant <{ ptr, [16 x i8] }> <{ ptr @alloc_adb4c038113546823ffe9ce2a86c42a3, [16 x i8] c"!\00\00\00\00\00\00\00\8D\00\00\00\0D\00\00\00" }>, align 8
@alloc_77663a64830626c820b50f8339a98870 = private unnamed_addr constant <{ ptr, [16 x i8] }> <{ ptr @alloc_adb4c038113546823ffe9ce2a86c42a3, [16 x i8] c"!\00\00\00\00\00\00\00\8F\00\00\002\00\00\00" }>, align 8
@alloc_7f45be25cf00fb4fb0ba868a3c1d2bd2 = private unnamed_addr constant <{ ptr, [16 x i8] }> <{ ptr @alloc_adb4c038113546823ffe9ce2a86c42a3, [16 x i8] c"!\00\00\00\00\00\00\00\8F\00\00\00\1F\00\00\00" }>, align 8
@alloc_7e6e5a3942c4466e735912111648e151 = private unnamed_addr constant <{ ptr, [16 x i8] }> <{ ptr @alloc_adb4c038113546823ffe9ce2a86c42a3, [16 x i8] c"!\00\00\00\00\00\00\00\8F\00\00\00\0D\00\00\00" }>, align 8
@alloc_8317cd14e1038d804c6cfeef5faff00d = private unnamed_addr constant <{ ptr, [16 x i8] }> <{ ptr @alloc_adb4c038113546823ffe9ce2a86c42a3, [16 x i8] c"!\00\00\00\00\00\00\00\91\00\00\00\0D\00\00\00" }>, align 8
@alloc_f36c83247305db0097e47ac48dbed2cb = private unnamed_addr constant <{ ptr, [16 x i8] }> <{ ptr @alloc_adb4c038113546823ffe9ce2a86c42a3, [16 x i8] c"!\00\00\00\00\00\00\00\92\00\00\00\0D\00\00\00" }>, align 8
@alloc_25073e233975d6516b94a077730dc651 = private unnamed_addr constant <{ ptr, [16 x i8] }> <{ ptr @alloc_adb4c038113546823ffe9ce2a86c42a3, [16 x i8] c"!\00\00\00\00\00\00\00@\00\00\009\00\00\00" }>, align 8
@alloc_6b04160ac81f891dcfc77bc24c5eb0ba = private unnamed_addr constant <{ ptr, [16 x i8] }> <{ ptr @alloc_adb4c038113546823ffe9ce2a86c42a3, [16 x i8] c"!\00\00\00\00\00\00\00@\00\00\008\00\00\00" }>, align 8
@alloc_53b372cc7ee8ff6d3348bc1b35f642ef = private unnamed_addr constant <{ ptr, [16 x i8] }> <{ ptr @alloc_adb4c038113546823ffe9ce2a86c42a3, [16 x i8] c"!\00\00\00\00\00\00\00@\00\00\00)\00\00\00" }>, align 8
@alloc_1fd2f83b8cd81cf63fa4e2c6d8bcc92f = private unnamed_addr constant <{ ptr, [16 x i8] }> <{ ptr @alloc_adb4c038113546823ffe9ce2a86c42a3, [16 x i8] c"!\00\00\00\00\00\00\00@\00\00\00\1B\00\00\00" }>, align 8
@alloc_0a9bfa5d00446ed50cbda492e768108f = private unnamed_addr constant <{ ptr, [16 x i8] }> <{ ptr @alloc_adb4c038113546823ffe9ce2a86c42a3, [16 x i8] c"!\00\00\00\00\00\00\00B\00\00\00?\00\00\00" }>, align 8
@alloc_2478a352df27d51a94d6b98e3ccd29ec = private unnamed_addr constant <{ ptr, [16 x i8] }> <{ ptr @alloc_adb4c038113546823ffe9ce2a86c42a3, [16 x i8] c"!\00\00\00\00\00\00\00B\00\00\00/\00\00\00" }>, align 8
@alloc_72bbf09ed73659e7d7b8b355f60e3677 = private unnamed_addr constant <{ ptr, [16 x i8] }> <{ ptr @alloc_adb4c038113546823ffe9ce2a86c42a3, [16 x i8] c"!\00\00\00\00\00\00\00B\00\00\00 \00\00\00" }>, align 8
@alloc_8f0f18c78191fa25f8a224cca486f510 = private unnamed_addr constant <{ ptr, [16 x i8] }> <{ ptr @alloc_adb4c038113546823ffe9ce2a86c42a3, [16 x i8] c"!\00\00\00\00\00\00\00L\00\00\006\00\00\00" }>, align 8
@alloc_5be5b292f5c247a7a97a2cce44042cc4 = private unnamed_addr constant <{ ptr, [16 x i8] }> <{ ptr @alloc_adb4c038113546823ffe9ce2a86c42a3, [16 x i8] c"!\00\00\00\00\00\00\00N\00\00\00#\00\00\00" }>, align 8
@alloc_a79a222052038b407ce7f13030ee2bb8 = private unnamed_addr constant <{ ptr, [16 x i8] }> <{ ptr @alloc_adb4c038113546823ffe9ce2a86c42a3, [16 x i8] c"!\00\00\00\00\00\00\00N\00\00\00\11\00\00\00" }>, align 8
@alloc_d5afcf546ae4f4f6bb9859eacb1eacec = private unnamed_addr constant <{ ptr, [16 x i8] }> <{ ptr @alloc_adb4c038113546823ffe9ce2a86c42a3, [16 x i8] c"!\00\00\00\00\00\00\00O\00\00\00#\00\00\00" }>, align 8
@alloc_5bcb01aec88269eb291de78058d2a985 = private unnamed_addr constant <{ ptr, [16 x i8] }> <{ ptr @alloc_adb4c038113546823ffe9ce2a86c42a3, [16 x i8] c"!\00\00\00\00\00\00\00O\00\00\00\11\00\00\00" }>, align 8
@alloc_0c3c7e54236878d7f93382efe40b6778 = private unnamed_addr constant <{ ptr, [16 x i8] }> <{ ptr @alloc_adb4c038113546823ffe9ce2a86c42a3, [16 x i8] c"!\00\00\00\00\00\00\00P\00\00\00#\00\00\00" }>, align 8
@alloc_7d406429ad77602d76ddcf4e0e8806e2 = private unnamed_addr constant <{ ptr, [16 x i8] }> <{ ptr @alloc_adb4c038113546823ffe9ce2a86c42a3, [16 x i8] c"!\00\00\00\00\00\00\00P\00\00\00\11\00\00\00" }>, align 8
@alloc_9e5af04af1ff9802573c44c247f1c2f1 = private unnamed_addr constant <{ ptr, [16 x i8] }> <{ ptr @alloc_adb4c038113546823ffe9ce2a86c42a3, [16 x i8] c"!\00\00\00\00\00\00\00Q\00\00\00#\00\00\00" }>, align 8
@alloc_0fa9d2f6c4243a469e2ba444f22f3cc2 = private unnamed_addr constant <{ ptr, [16 x i8] }> <{ ptr @alloc_adb4c038113546823ffe9ce2a86c42a3, [16 x i8] c"!\00\00\00\00\00\00\00Q\00\00\00\11\00\00\00" }>, align 8
@alloc_4149c2ad120e9e7b2600262157c609f8 = private unnamed_addr constant <{ ptr, [16 x i8] }> <{ ptr @alloc_adb4c038113546823ffe9ce2a86c42a3, [16 x i8] c"!\00\00\00\00\00\00\00R\00\00\00#\00\00\00" }>, align 8
@alloc_de2548cdb718c2e30b96bc9befe7c672 = private unnamed_addr constant <{ ptr, [16 x i8] }> <{ ptr @alloc_adb4c038113546823ffe9ce2a86c42a3, [16 x i8] c"!\00\00\00\00\00\00\00R\00\00\00\11\00\00\00" }>, align 8
@alloc_327da802761ac962b1e47b500f96795d = private unnamed_addr constant <{ ptr, [16 x i8] }> <{ ptr @alloc_adb4c038113546823ffe9ce2a86c42a3, [16 x i8] c"!\00\00\00\00\00\00\00S\00\00\00#\00\00\00" }>, align 8
@alloc_44f39ee58ea660708429bc64199b6bbb = private unnamed_addr constant <{ ptr, [16 x i8] }> <{ ptr @alloc_adb4c038113546823ffe9ce2a86c42a3, [16 x i8] c"!\00\00\00\00\00\00\00S\00\00\00\11\00\00\00" }>, align 8
@alloc_8f37468c28dbe4fea57d690ff7ac7f76 = private unnamed_addr constant <{ ptr, [16 x i8] }> <{ ptr @alloc_adb4c038113546823ffe9ce2a86c42a3, [16 x i8] c"!\00\00\00\00\00\00\00T\00\00\00#\00\00\00" }>, align 8
@alloc_5bf2d0fb2bdbcf1d4507a2708b778daa = private unnamed_addr constant <{ ptr, [16 x i8] }> <{ ptr @alloc_adb4c038113546823ffe9ce2a86c42a3, [16 x i8] c"!\00\00\00\00\00\00\00T\00\00\00\11\00\00\00" }>, align 8
@alloc_ea172f313827917c4610ee063ea3baab = private unnamed_addr constant <{ ptr, [16 x i8] }> <{ ptr @alloc_adb4c038113546823ffe9ce2a86c42a3, [16 x i8] c"!\00\00\00\00\00\00\00U\00\00\00#\00\00\00" }>, align 8
@alloc_94961bbeb03a9290920e9d328a6cc0ae = private unnamed_addr constant <{ ptr, [16 x i8] }> <{ ptr @alloc_adb4c038113546823ffe9ce2a86c42a3, [16 x i8] c"!\00\00\00\00\00\00\00U\00\00\00\11\00\00\00" }>, align 8
@alloc_15ec291481ffab775a724b1b5fae8928 = private unnamed_addr constant <{ ptr, [16 x i8] }> <{ ptr @alloc_adb4c038113546823ffe9ce2a86c42a3, [16 x i8] c"!\00\00\00\00\00\00\00W\00\00\006\00\00\00" }>, align 8
@alloc_1016209b93dd93256b62901387aac3a7 = private unnamed_addr constant <{ ptr, [16 x i8] }> <{ ptr @alloc_adb4c038113546823ffe9ce2a86c42a3, [16 x i8] c"!\00\00\00\00\00\00\00Y\00\00\00#\00\00\00" }>, align 8
@alloc_8714f325cb9af5184b80a7d9f464d009 = private unnamed_addr constant <{ ptr, [16 x i8] }> <{ ptr @alloc_adb4c038113546823ffe9ce2a86c42a3, [16 x i8] c"!\00\00\00\00\00\00\00Y\00\00\00\11\00\00\00" }>, align 8
@alloc_0066e13e5a60c6c77b875d187eefa77b = private unnamed_addr constant <{ ptr, [16 x i8] }> <{ ptr @alloc_adb4c038113546823ffe9ce2a86c42a3, [16 x i8] c"!\00\00\00\00\00\00\00Z\00\00\00#\00\00\00" }>, align 8
@alloc_1b02046c8b5e8d17f01cd57ca9ffaaa6 = private unnamed_addr constant <{ ptr, [16 x i8] }> <{ ptr @alloc_adb4c038113546823ffe9ce2a86c42a3, [16 x i8] c"!\00\00\00\00\00\00\00Z\00\00\00\11\00\00\00" }>, align 8
@alloc_9cae4a805aade0f5fbd424443aedd5ce = private unnamed_addr constant <{ ptr, [16 x i8] }> <{ ptr @alloc_adb4c038113546823ffe9ce2a86c42a3, [16 x i8] c"!\00\00\00\00\00\00\00[\00\00\00$\00\00\00" }>, align 8
@alloc_54449f5a90b4ee0d8d9771c2661303f6 = private unnamed_addr constant <{ ptr, [16 x i8] }> <{ ptr @alloc_adb4c038113546823ffe9ce2a86c42a3, [16 x i8] c"!\00\00\00\00\00\00\00[\00\00\00\11\00\00\00" }>, align 8
@alloc_7d3750e1c65852c0685e946e601ca5f8 = private unnamed_addr constant <{ ptr, [16 x i8] }> <{ ptr @alloc_adb4c038113546823ffe9ce2a86c42a3, [16 x i8] c"!\00\00\00\00\00\00\00\\\00\00\00$\00\00\00" }>, align 8
@alloc_eb14b7c400405bc1bf2f387d3496ec53 = private unnamed_addr constant <{ ptr, [16 x i8] }> <{ ptr @alloc_adb4c038113546823ffe9ce2a86c42a3, [16 x i8] c"!\00\00\00\00\00\00\00\\\00\00\00\11\00\00\00" }>, align 8
@alloc_14faee9ac4f7a592d615568c14db8240 = private unnamed_addr constant <{ ptr, [16 x i8] }> <{ ptr @alloc_adb4c038113546823ffe9ce2a86c42a3, [16 x i8] c"!\00\00\00\00\00\00\00]\00\00\00$\00\00\00" }>, align 8
@alloc_7b37b282b62059d1a24bd955a3639c63 = private unnamed_addr constant <{ ptr, [16 x i8] }> <{ ptr @alloc_adb4c038113546823ffe9ce2a86c42a3, [16 x i8] c"!\00\00\00\00\00\00\00]\00\00\00\11\00\00\00" }>, align 8
@alloc_d92ee0fdac18747eafca18ddca5bc69a = private unnamed_addr constant <{ ptr, [16 x i8] }> <{ ptr @alloc_adb4c038113546823ffe9ce2a86c42a3, [16 x i8] c"!\00\00\00\00\00\00\00^\00\00\00$\00\00\00" }>, align 8
@alloc_534d332f5162bcb99c986172b758dbc3 = private unnamed_addr constant <{ ptr, [16 x i8] }> <{ ptr @alloc_adb4c038113546823ffe9ce2a86c42a3, [16 x i8] c"!\00\00\00\00\00\00\00^\00\00\00\11\00\00\00" }>, align 8
@alloc_3d37c88a9a9843e1dfac066f002deb59 = private unnamed_addr constant <{ ptr, [16 x i8] }> <{ ptr @alloc_adb4c038113546823ffe9ce2a86c42a3, [16 x i8] c"!\00\00\00\00\00\00\00_\00\00\00$\00\00\00" }>, align 8
@alloc_80cbcb52864e28320a450ea41e08a811 = private unnamed_addr constant <{ ptr, [16 x i8] }> <{ ptr @alloc_adb4c038113546823ffe9ce2a86c42a3, [16 x i8] c"!\00\00\00\00\00\00\00_\00\00\00\11\00\00\00" }>, align 8
@alloc_61c4bf99677937b0d94f399c0d43f975 = private unnamed_addr constant <{ ptr, [16 x i8] }> <{ ptr @alloc_adb4c038113546823ffe9ce2a86c42a3, [16 x i8] c"!\00\00\00\00\00\00\00`\00\00\00$\00\00\00" }>, align 8
@alloc_f70cc11f697d229652279235c1c04a7e = private unnamed_addr constant <{ ptr, [16 x i8] }> <{ ptr @alloc_adb4c038113546823ffe9ce2a86c42a3, [16 x i8] c"!\00\00\00\00\00\00\00`\00\00\00\11\00\00\00" }>, align 8
@alloc_bd8b652050b7ca3d903c5ab14e9458e8 = private unnamed_addr constant <{ ptr, [16 x i8] }> <{ ptr @alloc_adb4c038113546823ffe9ce2a86c42a3, [16 x i8] c"!\00\00\00\00\00\00\00b\00\00\006\00\00\00" }>, align 8
@alloc_44c95b020b14e75e599cdb351bb3f5f6 = private unnamed_addr constant <{ ptr, [16 x i8] }> <{ ptr @alloc_adb4c038113546823ffe9ce2a86c42a3, [16 x i8] c"!\00\00\00\00\00\00\00d\00\00\00$\00\00\00" }>, align 8
@alloc_845ad24beb96fa9b7ca3b97611a00156 = private unnamed_addr constant <{ ptr, [16 x i8] }> <{ ptr @alloc_adb4c038113546823ffe9ce2a86c42a3, [16 x i8] c"!\00\00\00\00\00\00\00d\00\00\00\11\00\00\00" }>, align 8
@alloc_733070c4d36ba456922d424d40923fd3 = private unnamed_addr constant <{ ptr, [16 x i8] }> <{ ptr @alloc_adb4c038113546823ffe9ce2a86c42a3, [16 x i8] c"!\00\00\00\00\00\00\00e\00\00\00$\00\00\00" }>, align 8
@alloc_69b8aee9bcbb04d4ab75de321c15cd11 = private unnamed_addr constant <{ ptr, [16 x i8] }> <{ ptr @alloc_adb4c038113546823ffe9ce2a86c42a3, [16 x i8] c"!\00\00\00\00\00\00\00e\00\00\00\11\00\00\00" }>, align 8
@alloc_a28af72658c29d854ce3d3c6d4d95db0 = private unnamed_addr constant <{ ptr, [16 x i8] }> <{ ptr @alloc_adb4c038113546823ffe9ce2a86c42a3, [16 x i8] c"!\00\00\00\00\00\00\00f\00\00\00$\00\00\00" }>, align 8
@alloc_6b11db90ba6c661179e0c28ff7c5f9b8 = private unnamed_addr constant <{ ptr, [16 x i8] }> <{ ptr @alloc_adb4c038113546823ffe9ce2a86c42a3, [16 x i8] c"!\00\00\00\00\00\00\00f\00\00\00\11\00\00\00" }>, align 8
@alloc_51ad9f1751b9b92c190b71950632af8d = private unnamed_addr constant <{ ptr, [16 x i8] }> <{ ptr @alloc_adb4c038113546823ffe9ce2a86c42a3, [16 x i8] c"!\00\00\00\00\00\00\00g\00\00\00$\00\00\00" }>, align 8
@alloc_59b919734376fd66a38064d0102be1ad = private unnamed_addr constant <{ ptr, [16 x i8] }> <{ ptr @alloc_adb4c038113546823ffe9ce2a86c42a3, [16 x i8] c"!\00\00\00\00\00\00\00g\00\00\00\11\00\00\00" }>, align 8
@alloc_8ae5af1cf042855851f7b1ef69d199c0 = private unnamed_addr constant <{ ptr, [16 x i8] }> <{ ptr @alloc_adb4c038113546823ffe9ce2a86c42a3, [16 x i8] c"!\00\00\00\00\00\00\00h\00\00\00$\00\00\00" }>, align 8
@alloc_0fcfd0effbea432f11c7e762fa8b3b97 = private unnamed_addr constant <{ ptr, [16 x i8] }> <{ ptr @alloc_adb4c038113546823ffe9ce2a86c42a3, [16 x i8] c"!\00\00\00\00\00\00\00h\00\00\00\11\00\00\00" }>, align 8
@alloc_f57a04e2d3c7a37c023cb0f80d550cb4 = private unnamed_addr constant <{ ptr, [16 x i8] }> <{ ptr @alloc_adb4c038113546823ffe9ce2a86c42a3, [16 x i8] c"!\00\00\00\00\00\00\00i\00\00\00$\00\00\00" }>, align 8
@alloc_1a474ffbcbbe8ba7a1b546fdcfe9f60d = private unnamed_addr constant <{ ptr, [16 x i8] }> <{ ptr @alloc_adb4c038113546823ffe9ce2a86c42a3, [16 x i8] c"!\00\00\00\00\00\00\00i\00\00\00\11\00\00\00" }>, align 8
@alloc_278778b98bff63cfa7da510b16e44abe = private unnamed_addr constant <{ ptr, [16 x i8] }> <{ ptr @alloc_adb4c038113546823ffe9ce2a86c42a3, [16 x i8] c"!\00\00\00\00\00\00\00j\00\00\00$\00\00\00" }>, align 8
@alloc_4b22bda724263cf247857ac8b102b043 = private unnamed_addr constant <{ ptr, [16 x i8] }> <{ ptr @alloc_adb4c038113546823ffe9ce2a86c42a3, [16 x i8] c"!\00\00\00\00\00\00\00j\00\00\00\11\00\00\00" }>, align 8
@alloc_eccbd91f2780d7da9c167486446476ec = private unnamed_addr constant <{ ptr, [16 x i8] }> <{ ptr @alloc_adb4c038113546823ffe9ce2a86c42a3, [16 x i8] c"!\00\00\00\00\00\00\00k\00\00\00$\00\00\00" }>, align 8
@alloc_ffcede3e848cd57ab104fd4afba6658e = private unnamed_addr constant <{ ptr, [16 x i8] }> <{ ptr @alloc_adb4c038113546823ffe9ce2a86c42a3, [16 x i8] c"!\00\00\00\00\00\00\00k\00\00\00\11\00\00\00" }>, align 8
@alloc_cd5e19e598d069de0db504b9b592ad32 = private unnamed_addr constant <{ ptr, [16 x i8] }> <{ ptr @alloc_adb4c038113546823ffe9ce2a86c42a3, [16 x i8] c"!\00\00\00\00\00\00\00m\00\00\006\00\00\00" }>, align 8
@alloc_7d54410a2be69af69f1a7284ed022803 = private unnamed_addr constant <{ ptr, [16 x i8] }> <{ ptr @alloc_adb4c038113546823ffe9ce2a86c42a3, [16 x i8] c"!\00\00\00\00\00\00\00o\00\00\00$\00\00\00" }>, align 8
@alloc_e18397d1416dea536fd5996324ba4536 = private unnamed_addr constant <{ ptr, [16 x i8] }> <{ ptr @alloc_adb4c038113546823ffe9ce2a86c42a3, [16 x i8] c"!\00\00\00\00\00\00\00o\00\00\00\11\00\00\00" }>, align 8
@alloc_c792b4988f3007619ece50296bbfa02e = private unnamed_addr constant <{ ptr, [16 x i8] }> <{ ptr @alloc_adb4c038113546823ffe9ce2a86c42a3, [16 x i8] c"!\00\00\00\00\00\00\00p\00\00\00$\00\00\00" }>, align 8
@alloc_3b13249c3891d6849a712d9e7128c47b = private unnamed_addr constant <{ ptr, [16 x i8] }> <{ ptr @alloc_adb4c038113546823ffe9ce2a86c42a3, [16 x i8] c"!\00\00\00\00\00\00\00p\00\00\00\11\00\00\00" }>, align 8
@alloc_11d31e1f09938c46fe5d33e5db0293d5 = private unnamed_addr constant <{ ptr, [16 x i8] }> <{ ptr @alloc_adb4c038113546823ffe9ce2a86c42a3, [16 x i8] c"!\00\00\00\00\00\00\00q\00\00\00$\00\00\00" }>, align 8
@alloc_6089bb0f1dfe12e263ad625f777f4408 = private unnamed_addr constant <{ ptr, [16 x i8] }> <{ ptr @alloc_adb4c038113546823ffe9ce2a86c42a3, [16 x i8] c"!\00\00\00\00\00\00\00q\00\00\00\11\00\00\00" }>, align 8
@alloc_788f6400c0625637974bd831c6743e4d = private unnamed_addr constant <{ ptr, [16 x i8] }> <{ ptr @alloc_adb4c038113546823ffe9ce2a86c42a3, [16 x i8] c"!\00\00\00\00\00\00\00r\00\00\00$\00\00\00" }>, align 8
@alloc_66ee13edd60bd97f36fb6d7e22652962 = private unnamed_addr constant <{ ptr, [16 x i8] }> <{ ptr @alloc_adb4c038113546823ffe9ce2a86c42a3, [16 x i8] c"!\00\00\00\00\00\00\00r\00\00\00\11\00\00\00" }>, align 8
@alloc_74db029a68ec3a04dbb310f20fed80f5 = private unnamed_addr constant <{ ptr, [16 x i8] }> <{ ptr @alloc_adb4c038113546823ffe9ce2a86c42a3, [16 x i8] c"!\00\00\00\00\00\00\00s\00\00\00$\00\00\00" }>, align 8
@alloc_242b3285fd021a464e05297b76c729cf = private unnamed_addr constant <{ ptr, [16 x i8] }> <{ ptr @alloc_adb4c038113546823ffe9ce2a86c42a3, [16 x i8] c"!\00\00\00\00\00\00\00s\00\00\00\11\00\00\00" }>, align 8
@alloc_dfbdc682eb9b9ba18aa79de781d5b186 = private unnamed_addr constant <{ ptr, [16 x i8] }> <{ ptr @alloc_adb4c038113546823ffe9ce2a86c42a3, [16 x i8] c"!\00\00\00\00\00\00\00t\00\00\00$\00\00\00" }>, align 8
@alloc_3a6453ba484b86f3d2fae91e263411bb = private unnamed_addr constant <{ ptr, [16 x i8] }> <{ ptr @alloc_adb4c038113546823ffe9ce2a86c42a3, [16 x i8] c"!\00\00\00\00\00\00\00t\00\00\00\11\00\00\00" }>, align 8
@alloc_17181631471faa142030aa702d42b59d = private unnamed_addr constant <{ ptr, [16 x i8] }> <{ ptr @alloc_adb4c038113546823ffe9ce2a86c42a3, [16 x i8] c"!\00\00\00\00\00\00\00u\00\00\00$\00\00\00" }>, align 8
@alloc_ee95f1fcbc1ee27e67aaf34b414d777e = private unnamed_addr constant <{ ptr, [16 x i8] }> <{ ptr @alloc_adb4c038113546823ffe9ce2a86c42a3, [16 x i8] c"!\00\00\00\00\00\00\00u\00\00\00\11\00\00\00" }>, align 8
@alloc_8dc42b66a393b161be0f5f9724c61167 = private unnamed_addr constant <{ ptr, [16 x i8] }> <{ ptr @alloc_adb4c038113546823ffe9ce2a86c42a3, [16 x i8] c"!\00\00\00\00\00\00\00v\00\00\00$\00\00\00" }>, align 8
@alloc_5f70e895ec2e2980fa7f9ca8707d5cf7 = private unnamed_addr constant <{ ptr, [16 x i8] }> <{ ptr @alloc_adb4c038113546823ffe9ce2a86c42a3, [16 x i8] c"!\00\00\00\00\00\00\00v\00\00\00\11\00\00\00" }>, align 8
@alloc_37690002dca4ad41f973a8406a854b48 = private unnamed_addr constant <{ ptr, [16 x i8] }> <{ ptr @alloc_adb4c038113546823ffe9ce2a86c42a3, [16 x i8] c"!\00\00\00\00\00\00\00x\00\00\00!\00\00\00" }>, align 8
@alloc_d9a6617147cafba162b394aad08c1a66 = private unnamed_addr constant <{ ptr, [16 x i8] }> <{ ptr @alloc_adb4c038113546823ffe9ce2a86c42a3, [16 x i8] c"!\00\00\00\00\00\00\00x\00\00\00\11\00\00\00" }>, align 8
@alloc_38f16c17e567f3011495775be69c74e3 = private unnamed_addr constant <{ ptr, [16 x i8] }> <{ ptr @alloc_adb4c038113546823ffe9ce2a86c42a3, [16 x i8] c"!\00\00\00\00\00\00\00y\00\00\00 \00\00\00" }>, align 8
@alloc_7ae57314860d5adf6d05cc69708629f3 = private unnamed_addr constant <{ ptr, [16 x i8] }> <{ ptr @alloc_adb4c038113546823ffe9ce2a86c42a3, [16 x i8] c"!\00\00\00\00\00\00\00y\00\00\00\11\00\00\00" }>, align 8
@alloc_7b6e8ec39c88271c6c3b03a673cf12b7 = private unnamed_addr constant <{ ptr, [16 x i8] }> <{ ptr @alloc_adb4c038113546823ffe9ce2a86c42a3, [16 x i8] c"!\00\00\00\00\00\00\00\C8\00\00\00#\00\00\00" }>, align 8
@alloc_b886db86902d3cd74cf6e7d4305996a9 = private unnamed_addr constant <{ ptr, [16 x i8] }> <{ ptr @alloc_adb4c038113546823ffe9ce2a86c42a3, [16 x i8] c"!\00\00\00\00\00\00\00\C8\00\00\00\0D\00\00\00" }>, align 8
@alloc_8f44f6c96e695928e788f5dc24b3a07e = private unnamed_addr constant <{ ptr, [16 x i8] }> <{ ptr @alloc_adb4c038113546823ffe9ce2a86c42a3, [16 x i8] c"!\00\00\00\00\00\00\00\C9\00\00\00\0D\00\00\00" }>, align 8
@alloc_df244c9c0094ff07e6bd712716a971f9 = private unnamed_addr constant <{ ptr, [16 x i8] }> <{ ptr @alloc_adb4c038113546823ffe9ce2a86c42a3, [16 x i8] c"!\00\00\00\00\00\00\00\DC\00\00\00\16\00\00\00" }>, align 8
@alloc_5cd50cd02fba2aa2f5f5d0a9481267bc = private unnamed_addr constant <{ ptr, [16 x i8] }> <{ ptr @alloc_adb4c038113546823ffe9ce2a86c42a3, [16 x i8] c"!\00\00\00\00\00\00\00\DC\00\00\00\09\00\00\00" }>, align 8
@alloc_939f888134c371962f3760dbf5328eb3 = private unnamed_addr constant <{ ptr, [16 x i8] }> <{ ptr @alloc_adb4c038113546823ffe9ce2a86c42a3, [16 x i8] c"!\00\00\00\00\00\00\00\DD\00\00\00\09\00\00\00" }>, align 8
@alloc_48450d5dea596404693b47906d08d8a4 = private unnamed_addr constant <{ ptr, [16 x i8] }> <{ ptr @alloc_adb4c038113546823ffe9ce2a86c42a3, [16 x i8] c"!\00\00\00\00\00\00\00\E5\00\00\00\19\00\00\00" }>, align 8
@alloc_619c59cc68f35d70a652f483afaa6ce7 = private unnamed_addr constant <{ ptr, [16 x i8] }> <{ ptr @alloc_adb4c038113546823ffe9ce2a86c42a3, [16 x i8] c"!\00\00\00\00\00\00\00\E5\00\00\00*\00\00\00" }>, align 8
@alloc_faf6134b3ec03a2739115d5182757cec = private unnamed_addr constant <{ [15 x i8] }> <{ [15 x i8] c"src/alphabet.rs" }>, align 1
@alloc_ebf838d84a7bf3a1ab319678a0e52c57 = private unnamed_addr constant <{ ptr, [16 x i8] }> <{ ptr @alloc_faf6134b3ec03a2739115d5182757cec, [16 x i8] c"\0F\00\00\00\00\00\00\00E\00\00\00\1E\00\00\00" }>, align 8
@alloc_54b0942b2b255a435e6fa9e0ab6debff = private unnamed_addr constant <{ ptr, [16 x i8] }> <{ ptr @alloc_faf6134b3ec03a2739115d5182757cec, [16 x i8] c"\0F\00\00\00\00\00\00\00E\00\00\00\0D\00\00\00" }>, align 8
@alloc_3aea5235974b15b90b6febde7bc7b408 = private unnamed_addr constant <{ ptr, [16 x i8] }> <{ ptr @alloc_faf6134b3ec03a2739115d5182757cec, [16 x i8] c"\0F\00\00\00\00\00\00\00F\00\00\00\0D\00\00\00" }>, align 8
@alloc_4d61fe0dbfa0550d4b1c0e0c681c2ffc = private unnamed_addr constant <{ ptr, [16 x i8] }> <{ ptr @alloc_faf6134b3ec03a2739115d5182757cec, [16 x i8] c"\0F\00\00\00\00\00\00\00X\00\00\00\1C\00\00\00" }>, align 8
@alloc_6baa6e36287cd7606907b5cf71649f6e = private unnamed_addr constant <{ ptr, [16 x i8] }> <{ ptr @alloc_faf6134b3ec03a2739115d5182757cec, [16 x i8] c"\0F\00\00\00\00\00\00\00x\00\00\00\11\00\00\00" }>, align 8
@alloc_7c18a1cb3817b8fecdbe53a59c48ab60 = private unnamed_addr constant <{ ptr, [16 x i8] }> <{ ptr @alloc_faf6134b3ec03a2739115d5182757cec, [16 x i8] c"\0F\00\00\00\00\00\00\00o\00\00\00&\00\00\00" }>, align 8
@alloc_3a8a98ad1da0d9c1dfcbdfc8f6e3fde1 = private unnamed_addr constant <{ ptr, [16 x i8] }> <{ ptr @alloc_faf6134b3ec03a2739115d5182757cec, [16 x i8] c"\0F\00\00\00\00\00\00\00u\00\00\00\15\00\00\00" }>, align 8
@alloc_6dba611fb3cb9f98c8b7d7bcc09b26a7 = private unnamed_addr constant <{ ptr, [16 x i8] }> <{ ptr @alloc_faf6134b3ec03a2739115d5182757cec, [16 x i8] c"\0F\00\00\00\00\00\00\00k\00\00\00\19\00\00\00" }>, align 8
@alloc_dd97d42ed4b52272e5c586f8c254b995 = private unnamed_addr constant <{ ptr, [16 x i8] }> <{ ptr @alloc_faf6134b3ec03a2739115d5182757cec, [16 x i8] c"\0F\00\00\00\00\00\00\00\81\00\00\00-\00\00\00" }>, align 8
@alloc_715fa3e826fe751936a3c37b2fb7ce92 = private unnamed_addr constant <{ [33 x i8] }> <{ [33 x i8] c"Invalid length - must be 64 bytes" }>, align 1
@alloc_8542ffed9ec8f49b1ac04ef7005e5ced = private unnamed_addr constant <{ ptr, [8 x i8] }> <{ ptr @alloc_715fa3e826fe751936a3c37b2fb7ce92, [8 x i8] c"!\00\00\00\00\00\00\00" }>, align 8
@alloc_6a47d332fc000b4460910a9bd084b867 = private unnamed_addr constant <{ [17 x i8] }> <{ [17 x i8] c"Duplicated byte: " }>, align 1
@alloc_62e8b4fa42ade8e607ec653afb196e12 = private unnamed_addr constant <{ ptr, [8 x i8] }> <{ ptr @alloc_6a47d332fc000b4460910a9bd084b867, [8 x i8] c"\11\00\00\00\00\00\00\00" }>, align 8
@alloc_d6b42fd563eaa5d57594ead8af932719 = private unnamed_addr constant <{ [18 x i8] }> <{ [18 x i8] c"Unprintable byte: " }>, align 1
@alloc_498f87f5c01849b62879dae12eccce9e = private unnamed_addr constant <{ ptr, [8 x i8] }> <{ ptr @alloc_d6b42fd563eaa5d57594ead8af932719, [8 x i8] c"\12\00\00\00\00\00\00\00" }>, align 8
@alloc_3395634bf34c5f1f9738984e0e62bb85 = private unnamed_addr constant <{ [15 x i8] }> <{ [15 x i8] c"Reserved byte: " }>, align 1
@alloc_9228a0e4827a17e8beee533feb27405b = private unnamed_addr constant <{ ptr, [8 x i8] }> <{ ptr @alloc_3395634bf34c5f1f9738984e0e62bb85, [8 x i8] c"\0F\00\00\00\00\00\00\00" }>, align 8
@alloc_3f52c2362507695c384458f6bd79b7c5 = private unnamed_addr constant <{ [13 x i8] }> <{ [13 x i8] c"src/encode.rs" }>, align 1
@alloc_69f4b5ef5250e7dc4fc1606d6cc8737e = private unnamed_addr constant <{ ptr, [16 x i8] }> <{ ptr @alloc_3f52c2362507695c384458f6bd79b7c5, [16 x i8] c"\0D\00\00\00\00\00\00\00\85\00\00\00\15\00\00\00" }>, align 8
@alloc_396a326a5b62622748e940163d37b55c = private unnamed_addr constant <{ ptr, [16 x i8] }> <{ ptr @alloc_3f52c2362507695c384458f6bd79b7c5, [16 x i8] c"\0D\00\00\00\00\00\00\00\8A\00\00\00\09\00\00\00" }>, align 8
@alloc_f235ff33c4cc910f40532ae8bb3b0953 = private unnamed_addr constant <{ [22 x i8] }> <{ [22 x i8] c"Output slice too small" }>, align 1
@alloc_66eff4e9a5adae19c9e3b9bfac577ff4 = private unnamed_addr constant <{ ptr, [8 x i8] }> <{ ptr @alloc_f235ff33c4cc910f40532ae8bb3b0953, [8 x i8] c"\16\00\00\00\00\00\00\00" }>, align 8
@alloc_13256804125209329d2f3c999380e5be = private unnamed_addr constant <{ [15 x i8] }> <{ [15 x i8] c"Invalid symbol " }>, align 1
@alloc_87a91505409ba37aea2206dca33e5f24 = private unnamed_addr constant <{ [9 x i8] }> <{ [9 x i8] c", offset " }>, align 1
@alloc_0f52f98e9fa44caf6668aeb0b1c94ca5 = private unnamed_addr constant <{ [1 x i8] }> <{ [1 x i8] c"." }>, align 1
@alloc_64482df185a9e0a532e755098d269a04 = private unnamed_addr constant <{ ptr, [8 x i8], ptr, [8 x i8], ptr, [8 x i8] }> <{ ptr @alloc_13256804125209329d2f3c999380e5be, [8 x i8] c"\0F\00\00\00\00\00\00\00", ptr @alloc_87a91505409ba37aea2206dca33e5f24, [8 x i8] c"\09\00\00\00\00\00\00\00", ptr @alloc_0f52f98e9fa44caf6668aeb0b1c94ca5, [8 x i8] c"\01\00\00\00\00\00\00\00" }>, align 8
@alloc_39020a0c95cab7f10bbeb308d376136a = private unnamed_addr constant <{ [22 x i8] }> <{ [22 x i8] c"Invalid input length: " }>, align 1
@alloc_95c4eac9ec015efb17db91aa7bc7d5cb = private unnamed_addr constant <{ ptr, [8 x i8] }> <{ ptr @alloc_39020a0c95cab7f10bbeb308d376136a, [8 x i8] c"\16\00\00\00\00\00\00\00" }>, align 8
@alloc_e34717025dbdda2e0bc5ec72fa37f12a = private unnamed_addr constant <{ [20 x i8] }> <{ [20 x i8] c"Invalid last symbol " }>, align 1
@alloc_209076d78548b75eff2da598672e8f42 = private unnamed_addr constant <{ ptr, [8 x i8], ptr, [8 x i8], ptr, [8 x i8] }> <{ ptr @alloc_e34717025dbdda2e0bc5ec72fa37f12a, [8 x i8] c"\14\00\00\00\00\00\00\00", ptr @alloc_87a91505409ba37aea2206dca33e5f24, [8 x i8] c"\09\00\00\00\00\00\00\00", ptr @alloc_0f52f98e9fa44caf6668aeb0b1c94ca5, [8 x i8] c"\01\00\00\00\00\00\00\00" }>, align 8
@alloc_2600228ef5d7cd191463db9c96e1c771 = private unnamed_addr constant <{ [15 x i8] }> <{ [15 x i8] c"Invalid padding" }>, align 1
@alloc_eda7bb4b44d697eedd271654f4aa7cf4 = private unnamed_addr constant <{ ptr, [8 x i8] }> <{ ptr @alloc_2600228ef5d7cd191463db9c96e1c771, [8 x i8] c"\0F\00\00\00\00\00\00\00" }>, align 8
@alloc_e7c6da2d1921717647aefb3a99dfffe1 = private unnamed_addr constant <{ [13 x i8] }> <{ [13 x i8] c"DecodeError: " }>, align 1
@alloc_2a9dd3a363c54e794724a4e4b1143308 = private unnamed_addr constant <{ ptr, [8 x i8] }> <{ ptr @alloc_e7c6da2d1921717647aefb3a99dfffe1, [8 x i8] c"\0D\00\00\00\00\00\00\00" }>, align 8
@alloc_631b92f3545fd142f157c7753a920b6f = private unnamed_addr constant <{ ptr, [16 x i8], ptr }> <{ ptr @"_ZN4core3ptr48drop_in_place$LT$base64..decode..DecodeError$GT$17h66454f38c18f99aeE", [16 x i8] c"\10\00\00\00\00\00\00\00\08\00\00\00\00\00\00\00", ptr @"_ZN66_$LT$base64..decode..DecodeError$u20$as$u20$core..fmt..Display$GT$3fmt17hd27dbce10b657da8E" }>, align 8
@vtable.c = private constant <{ ptr, [16 x i8], ptr, ptr, ptr, ptr, ptr, ptr, ptr, ptr }> <{ ptr @"_ZN4core3ptr48drop_in_place$LT$base64..decode..DecodeError$GT$17h66454f38c18f99aeE", [16 x i8] c"\10\00\00\00\00\00\00\00\08\00\00\00\00\00\00\00", ptr @"_ZN64_$LT$base64..decode..DecodeError$u20$as$u20$core..fmt..Debug$GT$3fmt17hf366c27e6cbc93dfE", ptr @"_ZN66_$LT$base64..decode..DecodeError$u20$as$u20$core..fmt..Display$GT$3fmt17hd27dbce10b657da8E", ptr @alloc_631b92f3545fd142f157c7753a920b6f, ptr @_ZN4core5error5Error6source17hc7a304a8a113718bE, ptr @_ZN4core5error5Error7type_id17hb2dc7eb4bc272675E, ptr @_ZN4core5error5Error11description17h7c2611ffed02fa24E, ptr @_ZN4core5error5Error5cause17h8d2e62b1d0dcae97E, ptr @_ZN4core5error5Error7provide17ha2b1b1cf36b19d3eE }>, align 8, !dbg !82
@alloc_fd3f38934afae9e95a2bca19b41997c7 = private unnamed_addr constant <{ [323 x i8] }> <{ [323 x i8] c"\01\00\01ABCDEFGHIJKLMNOPQRSTUVWXYZabcdefghijklmnopqrstuvwxyz0123456789+/\FF\FF\FF\FF\FF\FF\FF\FF\FF\FF\FF\FF\FF\FF\FF\FF\FF\FF\FF\FF\FF\FF\FF\FF\FF\FF\FF\FF\FF\FF\FF\FF\FF\FF\FF\FF\FF\FF\FF\FF\FF\FF\FF>\FF\FF\FF?456789:;<=\FF\FF\FF\FF\FF\FF\FF\00\01\02\03\04\05\06\07\08\09\0A\0B\0C\0D\0E\0F\10\11\12\13\14\15\16\17\18\19\FF\FF\FF\FF\FF\FF\1A\1B\1C\1D\1E\1F !\22#$%&'()*+,-./0123\FF\FF\FF\FF\FF\FF\FF\FF\FF\FF\FF\FF\FF\FF\FF\FF\FF\FF\FF\FF\FF\FF\FF\FF\FF\FF\FF\FF\FF\FF\FF\FF\FF\FF\FF\FF\FF\FF\FF\FF\FF\FF\FF\FF\FF\FF\FF\FF\FF\FF\FF\FF\FF\FF\FF\FF\FF\FF\FF\FF\FF\FF\FF\FF\FF\FF\FF\FF\FF\FF\FF\FF\FF\FF\FF\FF\FF\FF\FF\FF\FF\FF\FF\FF\FF\FF\FF\FF\FF\FF\FF\FF\FF\FF\FF\FF\FF\FF\FF\FF\FF\FF\FF\FF\FF\FF\FF\FF\FF\FF\FF\FF\FF\FF\FF\FF\FF\FF\FF\FF\FF\FF\FF\FF\FF\FF\FF\FF\FF\FF\FF\FF\FF" }>, align 1
@alloc_9293dd8bc971a7d22f3ef9c8b729b76a = private unnamed_addr constant <{ [11 x i8] }> <{ [11 x i8] c"InvalidByte" }>, align 1
@alloc_12506a5e897ae16f94ca1d011d5e37b1 = private unnamed_addr constant <{ [13 x i8] }> <{ [13 x i8] c"InvalidLength" }>, align 1
@vtable.d = private constant <{ ptr, [16 x i8], ptr }> <{ ptr @"_ZN4core3ptr30drop_in_place$LT$$RF$usize$GT$17h0972e0ad45c7fa2eE", [16 x i8] c"\08\00\00\00\00\00\00\00\08\00\00\00\00\00\00\00", ptr @"_ZN42_$LT$$RF$T$u20$as$u20$core..fmt..Debug$GT$3fmt17hd5366517517e2948E" }>, align 8, !dbg !120
@alloc_e220eaada62c6dd6739695ad7b252f05 = private unnamed_addr constant <{ [17 x i8] }> <{ [17 x i8] c"InvalidLastSymbol" }>, align 1
@alloc_b73afe99a8171e350aa1030a1536f41f = private unnamed_addr constant <{ [14 x i8] }> <{ [14 x i8] c"InvalidPadding" }>, align 1

; <core::ops::range::RangeInclusive<T> as core::ops::range::RangeBounds<T>>::start_bound
; Function Attrs: uwtable
define { i64, ptr } @"_ZN100_$LT$core..ops..range..RangeInclusive$LT$T$GT$$u20$as$u20$core..ops..range..RangeBounds$LT$T$GT$$GT$11start_bound17h5d941291100153deE"(ptr align 8 %self) unnamed_addr #0 !dbg !233 {
start:
  %self.dbg.spill = alloca ptr, align 8
  %_0 = alloca %"core::ops::range::Bound<&usize>", align 8
  store ptr %self, ptr %self.dbg.spill, align 8
  call void @llvm.dbg.declare(metadata ptr %self.dbg.spill, metadata !267, metadata !DIExpression()), !dbg !270
  %0 = getelementptr inbounds i8, ptr %_0, i64 8, !dbg !271
  store ptr %self, ptr %0, align 8, !dbg !271
  store i64 0, ptr %_0, align 8, !dbg !271
  %1 = load i64, ptr %_0, align 8, !dbg !272, !range !273, !noundef !26
  %2 = getelementptr inbounds i8, ptr %_0, i64 8, !dbg !272
  %3 = load ptr, ptr %2, align 8, !dbg !272
  %4 = insertvalue { i64, ptr } poison, i64 %1, 0, !dbg !272
  %5 = insertvalue { i64, ptr } %4, ptr %3, 1, !dbg !272
  ret { i64, ptr } %5, !dbg !272
}

; <core::ops::range::RangeInclusive<T> as core::ops::range::RangeBounds<T>>::end_bound
; Function Attrs: uwtable
define { i64, ptr } @"_ZN100_$LT$core..ops..range..RangeInclusive$LT$T$GT$$u20$as$u20$core..ops..range..RangeBounds$LT$T$GT$$GT$9end_bound17h9485b721ae87480bE"(ptr align 8 %self) unnamed_addr #0 !dbg !274 {
start:
  %self.dbg.spill = alloca ptr, align 8
  %_0 = alloca %"core::ops::range::Bound<&usize>", align 8
  store ptr %self, ptr %self.dbg.spill, align 8
  call void @llvm.dbg.declare(metadata ptr %self.dbg.spill, metadata !276, metadata !DIExpression()), !dbg !277
  %0 = getelementptr inbounds i8, ptr %self, i64 16, !dbg !278
  %1 = load i8, ptr %0, align 8, !dbg !278, !range !279, !noundef !26
  %_2 = trunc i8 %1 to i1, !dbg !278
  br i1 %_2, label %bb1, label %bb2, !dbg !278

bb2:                                              ; preds = %start
  %_4 = getelementptr inbounds i8, ptr %self, i64 8, !dbg !280
  %2 = getelementptr inbounds i8, ptr %_0, i64 8, !dbg !281
  store ptr %_4, ptr %2, align 8, !dbg !281
  store i64 0, ptr %_0, align 8, !dbg !281
  br label %bb3, !dbg !282

bb1:                                              ; preds = %start
  %_3 = getelementptr inbounds i8, ptr %self, i64 8, !dbg !283
  %3 = getelementptr inbounds i8, ptr %_0, i64 8, !dbg !284
  store ptr %_3, ptr %3, align 8, !dbg !284
  store i64 1, ptr %_0, align 8, !dbg !284
  br label %bb3, !dbg !282

bb3:                                              ; preds = %bb1, %bb2
  %4 = load i64, ptr %_0, align 8, !dbg !285, !range !273, !noundef !26
  %5 = getelementptr inbounds i8, ptr %_0, i64 8, !dbg !285
  %6 = load ptr, ptr %5, align 8, !dbg !285
  %7 = insertvalue { i64, ptr } poison, i64 %4, 0, !dbg !285
  %8 = insertvalue { i64, ptr } %7, ptr %6, 1, !dbg !285
  ret { i64, ptr } %8, !dbg !285
}

; <core::ops::range::Range<usize> as core::slice::index::SliceIndex<[T]>>::get_unchecked
; Function Attrs: inlinehint uwtable
define { ptr, i64 } @"_ZN106_$LT$core..ops..range..Range$LT$usize$GT$$u20$as$u20$core..slice..index..SliceIndex$LT$$u5b$T$u5d$$GT$$GT$13get_unchecked17h3be89a617ac12cbfE"(i64 %self.0, i64 %self.1, ptr %slice.0, i64 %slice.1) unnamed_addr #1 !dbg !286 {
start:
  %data_pointer.dbg.spill = alloca ptr, align 8
  %data.dbg.spill = alloca ptr, align 8
  %self.dbg.spill1 = alloca ptr, align 8
  %new_len.dbg.spill = alloca i64, align 8
  %count.dbg.spill = alloca i64, align 8
  %slice.dbg.spill = alloca { ptr, i64 }, align 8
  %self.dbg.spill = alloca %"core::ops::range::Range<usize>", align 8
  %_18 = alloca %"core::ptr::metadata::PtrComponents<[u8]>", align 8
  %_17 = alloca %"core::ptr::metadata::PtrRepr<[u8]>", align 8
  %_15 = alloca %"core::ptr::metadata::PtrRepr<[u8]>", align 8
  store i64 %self.0, ptr %self.dbg.spill, align 8
  %0 = getelementptr inbounds i8, ptr %self.dbg.spill, i64 8
  store i64 %self.1, ptr %0, align 8
  call void @llvm.dbg.declare(metadata ptr %self.dbg.spill, metadata !303, metadata !DIExpression()), !dbg !307
  store ptr %slice.0, ptr %slice.dbg.spill, align 8
  %1 = getelementptr inbounds i8, ptr %slice.dbg.spill, i64 8
  store i64 %slice.1, ptr %1, align 8
  call void @llvm.dbg.declare(metadata ptr %slice.dbg.spill, metadata !304, metadata !DIExpression()), !dbg !308
  call void @llvm.dbg.declare(metadata ptr %slice.dbg.spill, metadata !309, metadata !DIExpression()), !dbg !318
  call void @llvm.dbg.declare(metadata ptr %slice.dbg.spill, metadata !320, metadata !DIExpression()), !dbg !326
  call void @llvm.dbg.declare(metadata ptr %slice.dbg.spill, metadata !328, metadata !DIExpression()), !dbg !335
  br label %bb1, !dbg !337

bb1:                                              ; preds = %start
  %_4 = icmp uge i64 %self.1, %self.0, !dbg !338
  br i1 %_4, label %bb2, label %bb5, !dbg !338

bb5:                                              ; preds = %bb1
  br label %bb6, !dbg !339

bb2:                                              ; preds = %bb1
  store ptr %slice.0, ptr %_15, align 8, !dbg !342
  %2 = getelementptr inbounds i8, ptr %_15, i64 8, !dbg !342
  store i64 %slice.1, ptr %2, align 8, !dbg !342
  %3 = getelementptr inbounds i8, ptr %_15, i64 8, !dbg !342
  %_8 = load i64, ptr %3, align 8, !dbg !342, !noundef !26
  %_7 = icmp ule i64 %self.1, %_8, !dbg !343
  br i1 %_7, label %bb3, label %bb4, !dbg !343

bb6:                                              ; preds = %bb4, %bb5
; call core::panicking::panic_nounwind
  call void @_ZN4core9panicking14panic_nounwind17h50c31e15afde233eE(ptr align 1 @alloc_0dc6db72fcead760fba2799443fc0f82, i64 64) #19, !dbg !337
  unreachable, !dbg !337

bb4:                                              ; preds = %bb2
  br label %bb6, !dbg !339

bb3:                                              ; preds = %bb2
  br label %bb7, !dbg !337

bb7:                                              ; preds = %bb3
  store i64 %self.0, ptr %count.dbg.spill, align 8, !dbg !344
  call void @llvm.dbg.declare(metadata ptr %count.dbg.spill, metadata !345, metadata !DIExpression()), !dbg !353
  %new_len = sub nuw i64 %self.1, %self.0, !dbg !355
  store i64 %new_len, ptr %new_len.dbg.spill, align 8, !dbg !355
  call void @llvm.dbg.declare(metadata ptr %new_len.dbg.spill, metadata !305, metadata !DIExpression()), !dbg !356
  call void @llvm.dbg.declare(metadata ptr %new_len.dbg.spill, metadata !357, metadata !DIExpression()), !dbg !365
  call void @llvm.dbg.declare(metadata ptr %new_len.dbg.spill, metadata !367, metadata !DIExpression()), !dbg !374
  store ptr %slice.0, ptr %self.dbg.spill1, align 8, !dbg !376
  call void @llvm.dbg.declare(metadata ptr %self.dbg.spill1, metadata !352, metadata !DIExpression()), !dbg !377
  %data = getelementptr inbounds i8, ptr %slice.0, i64 %self.0, !dbg !378
  store ptr %data, ptr %data.dbg.spill, align 8, !dbg !378
  call void @llvm.dbg.declare(metadata ptr %data.dbg.spill, metadata !364, metadata !DIExpression()), !dbg !379
  call void @llvm.dbg.declare(metadata ptr %data.dbg.spill, metadata !380, metadata !DIExpression()), !dbg !388
  store ptr %data, ptr %data_pointer.dbg.spill, align 8, !dbg !390
  call void @llvm.dbg.declare(metadata ptr %data_pointer.dbg.spill, metadata !373, metadata !DIExpression()), !dbg !391
  store ptr %data, ptr %_18, align 8, !dbg !392
  %4 = getelementptr inbounds i8, ptr %_18, i64 8, !dbg !392
  store i64 %new_len, ptr %4, align 8, !dbg !392
  %5 = load ptr, ptr %_18, align 8, !dbg !393, !noundef !26
  %6 = getelementptr inbounds i8, ptr %_18, i64 8, !dbg !393
  %7 = load i64, ptr %6, align 8, !dbg !393, !noundef !26
  store ptr %5, ptr %_17, align 8, !dbg !393
  %8 = getelementptr inbounds i8, ptr %_17, i64 8, !dbg !393
  store i64 %7, ptr %8, align 8, !dbg !393
  %_0.0 = load ptr, ptr %_17, align 8, !dbg !393, !noundef !26
  %9 = getelementptr inbounds i8, ptr %_17, i64 8, !dbg !393
  %_0.1 = load i64, ptr %9, align 8, !dbg !393, !noundef !26
  %10 = insertvalue { ptr, i64 } poison, ptr %_0.0, 0, !dbg !394
  %11 = insertvalue { ptr, i64 } %10, i64 %_0.1, 1, !dbg !394
  ret { ptr, i64 } %11, !dbg !394
}

; <core::ops::range::Range<usize> as core::slice::index::SliceIndex<[T]>>::get_unchecked_mut
; Function Attrs: inlinehint uwtable
define { ptr, i64 } @"_ZN106_$LT$core..ops..range..Range$LT$usize$GT$$u20$as$u20$core..slice..index..SliceIndex$LT$$u5b$T$u5d$$GT$$GT$17get_unchecked_mut17h6e892ebc0faac215E"(i64 %self.0, i64 %self.1, ptr %slice.0, i64 %slice.1) unnamed_addr #1 !dbg !395 {
start:
  %data_pointer.dbg.spill = alloca ptr, align 8
  %data.dbg.spill = alloca ptr, align 8
  %self.dbg.spill1 = alloca ptr, align 8
  %new_len.dbg.spill = alloca i64, align 8
  %count.dbg.spill = alloca i64, align 8
  %ptr.dbg.spill = alloca { ptr, i64 }, align 8
  %slice.dbg.spill = alloca { ptr, i64 }, align 8
  %self.dbg.spill = alloca %"core::ops::range::Range<usize>", align 8
  %_19 = alloca %"core::ptr::metadata::PtrComponents<[u8]>", align 8
  %_18 = alloca %"core::ptr::metadata::PtrRepr<[u8]>", align 8
  %_16 = alloca %"core::ptr::metadata::PtrRepr<[u8]>", align 8
  store i64 %self.0, ptr %self.dbg.spill, align 8
  %0 = getelementptr inbounds i8, ptr %self.dbg.spill, i64 8
  store i64 %self.1, ptr %0, align 8
  call void @llvm.dbg.declare(metadata ptr %self.dbg.spill, metadata !403, metadata !DIExpression()), !dbg !407
  store ptr %slice.0, ptr %slice.dbg.spill, align 8
  %1 = getelementptr inbounds i8, ptr %slice.dbg.spill, i64 8
  store i64 %slice.1, ptr %1, align 8
  call void @llvm.dbg.declare(metadata ptr %slice.dbg.spill, metadata !404, metadata !DIExpression()), !dbg !408
  call void @llvm.dbg.declare(metadata ptr %slice.dbg.spill, metadata !409, metadata !DIExpression()), !dbg !418
  call void @llvm.dbg.declare(metadata ptr %slice.dbg.spill, metadata !420, metadata !DIExpression()), !dbg !427
  br label %bb1, !dbg !429

bb1:                                              ; preds = %start
  %_4 = icmp uge i64 %self.1, %self.0, !dbg !430
  br i1 %_4, label %bb2, label %bb5, !dbg !430

bb5:                                              ; preds = %bb1
  br label %bb6, !dbg !431

bb2:                                              ; preds = %bb1
  store ptr %slice.0, ptr %ptr.dbg.spill, align 8, !dbg !433
  %2 = getelementptr inbounds i8, ptr %ptr.dbg.spill, i64 8, !dbg !433
  store i64 %slice.1, ptr %2, align 8, !dbg !433
  call void @llvm.dbg.declare(metadata ptr %ptr.dbg.spill, metadata !434, metadata !DIExpression()), !dbg !438
  store ptr %slice.0, ptr %_16, align 8, !dbg !440
  %3 = getelementptr inbounds i8, ptr %_16, i64 8, !dbg !440
  store i64 %slice.1, ptr %3, align 8, !dbg !440
  %4 = getelementptr inbounds i8, ptr %_16, i64 8, !dbg !440
  %_8 = load i64, ptr %4, align 8, !dbg !440, !noundef !26
  %_7 = icmp ule i64 %self.1, %_8, !dbg !441
  br i1 %_7, label %bb3, label %bb4, !dbg !441

bb6:                                              ; preds = %bb4, %bb5
; call core::panicking::panic_nounwind
  call void @_ZN4core9panicking14panic_nounwind17h50c31e15afde233eE(ptr align 1 @alloc_8bc4d99c9de504799214701ea609a64b, i64 68) #19, !dbg !429
  unreachable, !dbg !429

bb4:                                              ; preds = %bb2
  br label %bb6, !dbg !431

bb3:                                              ; preds = %bb2
  br label %bb7, !dbg !429

bb7:                                              ; preds = %bb3
  store i64 %self.0, ptr %count.dbg.spill, align 8, !dbg !442
  call void @llvm.dbg.declare(metadata ptr %count.dbg.spill, metadata !443, metadata !DIExpression()), !dbg !451
  %new_len = sub nuw i64 %self.1, %self.0, !dbg !453
  store i64 %new_len, ptr %new_len.dbg.spill, align 8, !dbg !453
  call void @llvm.dbg.declare(metadata ptr %new_len.dbg.spill, metadata !405, metadata !DIExpression()), !dbg !454
  call void @llvm.dbg.declare(metadata ptr %new_len.dbg.spill, metadata !455, metadata !DIExpression()), !dbg !462
  call void @llvm.dbg.declare(metadata ptr %new_len.dbg.spill, metadata !464, metadata !DIExpression()), !dbg !472
  store ptr %slice.0, ptr %self.dbg.spill1, align 8, !dbg !474
  call void @llvm.dbg.declare(metadata ptr %self.dbg.spill1, metadata !450, metadata !DIExpression()), !dbg !475
  %data = getelementptr inbounds i8, ptr %slice.0, i64 %self.0, !dbg !476
  store ptr %data, ptr %data.dbg.spill, align 8, !dbg !476
  call void @llvm.dbg.declare(metadata ptr %data.dbg.spill, metadata !461, metadata !DIExpression()), !dbg !477
  call void @llvm.dbg.declare(metadata ptr %data.dbg.spill, metadata !478, metadata !DIExpression()), !dbg !484
  store ptr %data, ptr %data_pointer.dbg.spill, align 8, !dbg !486
  call void @llvm.dbg.declare(metadata ptr %data_pointer.dbg.spill, metadata !471, metadata !DIExpression()), !dbg !487
  store ptr %data, ptr %_19, align 8, !dbg !488
  %5 = getelementptr inbounds i8, ptr %_19, i64 8, !dbg !488
  store i64 %new_len, ptr %5, align 8, !dbg !488
  %6 = load ptr, ptr %_19, align 8, !dbg !489, !noundef !26
  %7 = getelementptr inbounds i8, ptr %_19, i64 8, !dbg !489
  %8 = load i64, ptr %7, align 8, !dbg !489, !noundef !26
  store ptr %6, ptr %_18, align 8, !dbg !489
  %9 = getelementptr inbounds i8, ptr %_18, i64 8, !dbg !489
  store i64 %8, ptr %9, align 8, !dbg !489
  %_0.0 = load ptr, ptr %_18, align 8, !dbg !489, !noundef !26
  %10 = getelementptr inbounds i8, ptr %_18, i64 8, !dbg !489
  %_0.1 = load i64, ptr %10, align 8, !dbg !489, !noundef !26
  %11 = insertvalue { ptr, i64 } poison, ptr %_0.0, 0, !dbg !490
  %12 = insertvalue { ptr, i64 } %11, i64 %_0.1, 1, !dbg !490
  ret { ptr, i64 } %12, !dbg !490
}

; <core::ops::range::Range<usize> as core::slice::index::SliceIndex<[T]>>::index_mut
; Function Attrs: inlinehint uwtable
define { ptr, i64 } @"_ZN106_$LT$core..ops..range..Range$LT$usize$GT$$u20$as$u20$core..slice..index..SliceIndex$LT$$u5b$T$u5d$$GT$$GT$9index_mut17h32b1b3e610792016E"(i64 %self.0, i64 %self.1, ptr align 1 %slice.0, i64 %slice.1, ptr align 8 %0) unnamed_addr #1 !dbg !491 {
start:
  %slice.dbg.spill = alloca { ptr, i64 }, align 8
  %self.dbg.spill = alloca %"core::ops::range::Range<usize>", align 8
  store i64 %self.0, ptr %self.dbg.spill, align 8
  %1 = getelementptr inbounds i8, ptr %self.dbg.spill, i64 8
  store i64 %self.1, ptr %1, align 8
  call void @llvm.dbg.declare(metadata ptr %self.dbg.spill, metadata !512, metadata !DIExpression()), !dbg !514
  store ptr %slice.0, ptr %slice.dbg.spill, align 8
  %2 = getelementptr inbounds i8, ptr %slice.dbg.spill, i64 8
  store i64 %slice.1, ptr %2, align 8
  call void @llvm.dbg.declare(metadata ptr %slice.dbg.spill, metadata !513, metadata !DIExpression()), !dbg !515
  %_3 = icmp ugt i64 %self.0, %self.1, !dbg !516
  br i1 %_3, label %bb1, label %bb2, !dbg !516

bb2:                                              ; preds = %start
  %_7 = icmp ugt i64 %self.1, %slice.1, !dbg !517
  br i1 %_7, label %bb3, label %bb4, !dbg !517

bb1:                                              ; preds = %start
; call core::slice::index::slice_index_order_fail
  call void @_ZN4core5slice5index22slice_index_order_fail17hb18c43fcae7a83cbE(i64 %self.0, i64 %self.1, ptr align 8 %0) #20, !dbg !518
  unreachable, !dbg !518

bb4:                                              ; preds = %bb2
; call <core::ops::range::Range<usize> as core::slice::index::SliceIndex<[T]>>::get_unchecked_mut
  %3 = call { ptr, i64 } @"_ZN106_$LT$core..ops..range..Range$LT$usize$GT$$u20$as$u20$core..slice..index..SliceIndex$LT$$u5b$T$u5d$$GT$$GT$17get_unchecked_mut17h6e892ebc0faac215E"(i64 %self.0, i64 %self.1, ptr %slice.0, i64 %slice.1), !dbg !519
  %_11.0 = extractvalue { ptr, i64 } %3, 0, !dbg !519
  %_11.1 = extractvalue { ptr, i64 } %3, 1, !dbg !519
  %4 = insertvalue { ptr, i64 } poison, ptr %_11.0, 0, !dbg !520
  %5 = insertvalue { ptr, i64 } %4, i64 %_11.1, 1, !dbg !520
  ret { ptr, i64 } %5, !dbg !520

bb3:                                              ; preds = %bb2
; call core::slice::index::slice_end_index_len_fail
  call void @_ZN4core5slice5index24slice_end_index_len_fail17h86c2fd0bdb9be0ffE(i64 %self.1, i64 %slice.1, ptr align 8 %0) #20, !dbg !521
  unreachable, !dbg !521
}

; <core::ops::range::RangeTo<usize> as core::slice::index::SliceIndex<[T]>>::index_mut
; Function Attrs: inlinehint uwtable
define { ptr, i64 } @"_ZN108_$LT$core..ops..range..RangeTo$LT$usize$GT$$u20$as$u20$core..slice..index..SliceIndex$LT$$u5b$T$u5d$$GT$$GT$9index_mut17hce1f43d12b28d17aE"(i64 %self, ptr align 1 %slice.0, i64 %slice.1, ptr align 8 %0) unnamed_addr #1 !dbg !522 {
start:
  %slice.dbg.spill = alloca { ptr, i64 }, align 8
  %self.dbg.spill = alloca i64, align 8
  %_3 = alloca %"core::ops::range::Range<usize>", align 8
  store i64 %self, ptr %self.dbg.spill, align 8
  call void @llvm.dbg.declare(metadata ptr %self.dbg.spill, metadata !530, metadata !DIExpression()), !dbg !532
  store ptr %slice.0, ptr %slice.dbg.spill, align 8
  %1 = getelementptr inbounds i8, ptr %slice.dbg.spill, i64 8
  store i64 %slice.1, ptr %1, align 8
  call void @llvm.dbg.declare(metadata ptr %slice.dbg.spill, metadata !531, metadata !DIExpression()), !dbg !533
  store i64 0, ptr %_3, align 8, !dbg !534
  %2 = getelementptr inbounds i8, ptr %_3, i64 8, !dbg !534
  store i64 %self, ptr %2, align 8, !dbg !534
  %3 = load i64, ptr %_3, align 8, !dbg !534, !noundef !26
  %4 = getelementptr inbounds i8, ptr %_3, i64 8, !dbg !534
  %5 = load i64, ptr %4, align 8, !dbg !534, !noundef !26
; call <core::ops::range::Range<usize> as core::slice::index::SliceIndex<[T]>>::index_mut
  %6 = call { ptr, i64 } @"_ZN106_$LT$core..ops..range..Range$LT$usize$GT$$u20$as$u20$core..slice..index..SliceIndex$LT$$u5b$T$u5d$$GT$$GT$9index_mut17h32b1b3e610792016E"(i64 %3, i64 %5, ptr align 1 %slice.0, i64 %slice.1, ptr align 8 %0), !dbg !534
  %_0.0 = extractvalue { ptr, i64 } %6, 0, !dbg !534
  %_0.1 = extractvalue { ptr, i64 } %6, 1, !dbg !534
  %7 = insertvalue { ptr, i64 } poison, ptr %_0.0, 0, !dbg !535
  %8 = insertvalue { ptr, i64 } %7, i64 %_0.1, 1, !dbg !535
  ret { ptr, i64 } %8, !dbg !535
}

; <core::iter::adapters::enumerate::Enumerate<I> as core::iter::traits::iterator::Iterator>::next
; Function Attrs: inlinehint uwtable
define void @"_ZN110_$LT$core..iter..adapters..enumerate..Enumerate$LT$I$GT$$u20$as$u20$core..iter..traits..iterator..Iterator$GT$4next17h148d49842ef8921dE"(ptr sret(%"core::option::Option<(usize, &[u8])>") align 8 %_0, ptr align 8 %self) unnamed_addr #1 personality ptr @rust_eh_personality !dbg !536 {
start:
  %0 = alloca { ptr, i32, [1 x i32] }, align 8
  %i.dbg.spill = alloca i64, align 8
  %a.dbg.spill = alloca { ptr, i64 }, align 8
  %val.dbg.spill = alloca { ptr, i64 }, align 8
  %v.dbg.spill = alloca { ptr, i64 }, align 8
  %self.dbg.spill = alloca ptr, align 8
  %_9 = alloca { i64, { ptr, i64 } }, align 8
  %self2 = alloca %"core::option::Option<&[u8]>", align 8
  %_3 = alloca %"core::ops::control_flow::ControlFlow<core::option::Option<core::convert::Infallible>, &[u8]>", align 8
  %residual.dbg.spill1 = alloca %"core::option::Option<core::convert::Infallible>::None", align 1
  %residual.dbg.spill = alloca %"core::option::Option<core::convert::Infallible>::None", align 1
  call void @llvm.dbg.declare(metadata ptr %residual.dbg.spill, metadata !582, metadata !DIExpression()), !dbg !604
  call void @llvm.dbg.declare(metadata ptr %residual.dbg.spill1, metadata !605, metadata !DIExpression()), !dbg !613
  store ptr %self, ptr %self.dbg.spill, align 8, !dbg !613
  call void @llvm.dbg.declare(metadata ptr %self.dbg.spill, metadata !579, metadata !DIExpression()), !dbg !615
  call void @llvm.dbg.declare(metadata ptr %self2, metadata !616, metadata !DIExpression()), !dbg !655
; call <core::slice::iter::ChunksExact<T> as core::iter::traits::iterator::Iterator>::next
  %1 = call { ptr, i64 } @"_ZN98_$LT$core..slice..iter..ChunksExact$LT$T$GT$$u20$as$u20$core..iter..traits..iterator..Iterator$GT$4next17h69540ce5c4a4dba8E"(ptr align 8 %self), !dbg !656
  %2 = extractvalue { ptr, i64 } %1, 0, !dbg !656
  %3 = extractvalue { ptr, i64 } %1, 1, !dbg !656
  store ptr %2, ptr %self2, align 8, !dbg !656
  %4 = getelementptr inbounds i8, ptr %self2, i64 8, !dbg !656
  store i64 %3, ptr %4, align 8, !dbg !656
  %5 = load ptr, ptr %self2, align 8, !dbg !657, !noundef !26
  %6 = ptrtoint ptr %5 to i64, !dbg !657
  %7 = icmp eq i64 %6, 0, !dbg !657
  %_11 = select i1 %7, i64 0, i64 1, !dbg !657
  %8 = icmp eq i64 %_11, 0, !dbg !658
  br i1 %8, label %bb7, label %bb8, !dbg !658

bb7:                                              ; preds = %start
  %9 = getelementptr inbounds i8, ptr %_0, i64 8, !dbg !659
  store ptr null, ptr %9, align 8, !dbg !659
  br label %bb4, !dbg !660

bb8:                                              ; preds = %start
  %v.0 = load ptr, ptr %self2, align 8, !dbg !661, !nonnull !26, !align !662, !noundef !26
  %10 = getelementptr inbounds i8, ptr %self2, i64 8, !dbg !661
  %v.1 = load i64, ptr %10, align 8, !dbg !661, !noundef !26
  store ptr %v.0, ptr %v.dbg.spill, align 8, !dbg !661
  %11 = getelementptr inbounds i8, ptr %v.dbg.spill, i64 8, !dbg !661
  store i64 %v.1, ptr %11, align 8, !dbg !661
  call void @llvm.dbg.declare(metadata ptr %v.dbg.spill, metadata !653, metadata !DIExpression()), !dbg !663
  store ptr %v.0, ptr %_3, align 8, !dbg !664
  %12 = getelementptr inbounds i8, ptr %_3, i64 8, !dbg !664
  store i64 %v.1, ptr %12, align 8, !dbg !664
  %val.0 = load ptr, ptr %_3, align 8, !dbg !656, !nonnull !26, !align !662, !noundef !26
  %13 = getelementptr inbounds i8, ptr %_3, i64 8, !dbg !656
  %val.1 = load i64, ptr %13, align 8, !dbg !656, !noundef !26
  store ptr %val.0, ptr %val.dbg.spill, align 8, !dbg !656
  %14 = getelementptr inbounds i8, ptr %val.dbg.spill, i64 8, !dbg !656
  store i64 %val.1, ptr %14, align 8, !dbg !656
  call void @llvm.dbg.declare(metadata ptr %val.dbg.spill, metadata !600, metadata !DIExpression()), !dbg !665
  store ptr %val.0, ptr %a.dbg.spill, align 8, !dbg !665
  %15 = getelementptr inbounds i8, ptr %a.dbg.spill, i64 8, !dbg !665
  store i64 %val.1, ptr %15, align 8, !dbg !665
  call void @llvm.dbg.declare(metadata ptr %a.dbg.spill, metadata !580, metadata !DIExpression()), !dbg !666
  %16 = getelementptr inbounds i8, ptr %self, i64 40, !dbg !667
  %i = load i64, ptr %16, align 8, !dbg !667, !noundef !26
  store i64 %i, ptr %i.dbg.spill, align 8, !dbg !667
  call void @llvm.dbg.declare(metadata ptr %i.dbg.spill, metadata !602, metadata !DIExpression()), !dbg !668
  %17 = getelementptr inbounds i8, ptr %self, i64 40, !dbg !669
  %18 = load i64, ptr %17, align 8, !dbg !669, !noundef !26
  %19 = call { i64, i1 } @llvm.uadd.with.overflow.i64(i64 %18, i64 1), !dbg !669
  %_8.0 = extractvalue { i64, i1 } %19, 0, !dbg !669
  %_8.1 = extractvalue { i64, i1 } %19, 1, !dbg !669
  %20 = call i1 @llvm.expect.i1(i1 %_8.1, i1 false), !dbg !669
  br i1 %20, label %panic, label %bb3, !dbg !669

bb4:                                              ; preds = %bb3, %bb7
  ret void, !dbg !660

bb3:                                              ; preds = %bb8
  %21 = getelementptr inbounds i8, ptr %self, i64 40, !dbg !669
  store i64 %_8.0, ptr %21, align 8, !dbg !669
  store i64 %i, ptr %_9, align 8, !dbg !670
  %22 = getelementptr inbounds i8, ptr %_9, i64 8, !dbg !670
  store ptr %val.0, ptr %22, align 8, !dbg !670
  %23 = getelementptr inbounds i8, ptr %22, i64 8, !dbg !670
  store i64 %val.1, ptr %23, align 8, !dbg !670
  call void @llvm.memcpy.p0.p0.i64(ptr align 8 %_0, ptr align 8 %_9, i64 24, i1 false), !dbg !671
  br label %bb4, !dbg !660

panic:                                            ; preds = %bb8
; invoke core::panicking::panic
  invoke void @_ZN4core9panicking5panic17h5884aad3a9044857E(ptr align 1 @str.0, i64 28, ptr align 8 @alloc_e644bbe572686fdbe11c9dbdc434ddd2) #20
          to label %unreachable unwind label %cleanup, !dbg !669

bb5:                                              ; preds = %cleanup
  %24 = load ptr, ptr %0, align 8, !dbg !672, !noundef !26
  %25 = getelementptr inbounds i8, ptr %0, i64 8, !dbg !672
  %26 = load i32, ptr %25, align 8, !dbg !672, !noundef !26
  %27 = insertvalue { ptr, i32 } poison, ptr %24, 0, !dbg !672
  %28 = insertvalue { ptr, i32 } %27, i32 %26, 1, !dbg !672
  resume { ptr, i32 } %28, !dbg !672

cleanup:                                          ; preds = %panic
  %29 = landingpad { ptr, i32 }
          cleanup
  %30 = extractvalue { ptr, i32 } %29, 0
  %31 = extractvalue { ptr, i32 } %29, 1
  store ptr %30, ptr %0, align 8
  %32 = getelementptr inbounds i8, ptr %0, i64 8
  store i32 %31, ptr %32, align 8
  br label %bb5

unreachable:                                      ; preds = %panic
  unreachable

bb2:                                              ; No predecessors!
  unreachable, !dbg !656
}

; <core::iter::adapters::enumerate::Enumerate<I> as core::iter::traits::iterator::Iterator>::next
; Function Attrs: inlinehint uwtable
define { i64, ptr } @"_ZN110_$LT$core..iter..adapters..enumerate..Enumerate$LT$I$GT$$u20$as$u20$core..iter..traits..iterator..Iterator$GT$4next17hd13ccc988d625fc8E"(ptr align 8 %self) unnamed_addr #1 personality ptr @rust_eh_personality !dbg !673 {
start:
  %0 = alloca { ptr, i32, [1 x i32] }, align 8
  %i.dbg.spill = alloca i64, align 8
  %a.dbg.spill = alloca ptr, align 8
  %val.dbg.spill = alloca ptr, align 8
  %v.dbg.spill = alloca ptr, align 8
  %self.dbg.spill = alloca ptr, align 8
  %_9 = alloca { i64, ptr }, align 8
  %self2 = alloca ptr, align 8
  %_3 = alloca ptr, align 8
  %_0 = alloca %"core::option::Option<(usize, &u8)>", align 8
  %residual.dbg.spill1 = alloca %"core::option::Option<core::convert::Infallible>::None", align 1
  %residual.dbg.spill = alloca %"core::option::Option<core::convert::Infallible>::None", align 1
  call void @llvm.dbg.declare(metadata ptr %residual.dbg.spill, metadata !717, metadata !DIExpression()), !dbg !723
  call void @llvm.dbg.declare(metadata ptr %residual.dbg.spill1, metadata !724, metadata !DIExpression()), !dbg !730
  store ptr %self, ptr %self.dbg.spill, align 8, !dbg !730
  call void @llvm.dbg.declare(metadata ptr %self.dbg.spill, metadata !714, metadata !DIExpression()), !dbg !732
  call void @llvm.dbg.declare(metadata ptr %self2, metadata !733, metadata !DIExpression()), !dbg !767
; call <core::slice::iter::Iter<T> as core::iter::traits::iterator::Iterator>::next
  %1 = call align 1 ptr @"_ZN91_$LT$core..slice..iter..Iter$LT$T$GT$$u20$as$u20$core..iter..traits..iterator..Iterator$GT$4next17hdd8733cf23d85518E"(ptr align 8 %self), !dbg !768
  store ptr %1, ptr %self2, align 8, !dbg !768
  %2 = load ptr, ptr %self2, align 8, !dbg !769, !noundef !26
  %3 = ptrtoint ptr %2 to i64, !dbg !769
  %4 = icmp eq i64 %3, 0, !dbg !769
  %_11 = select i1 %4, i64 0, i64 1, !dbg !769
  %5 = icmp eq i64 %_11, 0, !dbg !770
  br i1 %5, label %bb7, label %bb8, !dbg !770

bb7:                                              ; preds = %start
  %6 = getelementptr inbounds i8, ptr %_0, i64 8, !dbg !771
  store ptr null, ptr %6, align 8, !dbg !771
  br label %bb4, !dbg !772

bb8:                                              ; preds = %start
  %v = load ptr, ptr %self2, align 8, !dbg !773, !nonnull !26, !align !662, !noundef !26
  store ptr %v, ptr %v.dbg.spill, align 8, !dbg !773
  call void @llvm.dbg.declare(metadata ptr %v.dbg.spill, metadata !765, metadata !DIExpression()), !dbg !774
  store ptr %v, ptr %_3, align 8, !dbg !775
  %val = load ptr, ptr %_3, align 8, !dbg !768, !nonnull !26, !align !662, !noundef !26
  store ptr %val, ptr %val.dbg.spill, align 8, !dbg !768
  call void @llvm.dbg.declare(metadata ptr %val.dbg.spill, metadata !719, metadata !DIExpression()), !dbg !776
  store ptr %val, ptr %a.dbg.spill, align 8, !dbg !776
  call void @llvm.dbg.declare(metadata ptr %a.dbg.spill, metadata !715, metadata !DIExpression()), !dbg !777
  %7 = getelementptr inbounds i8, ptr %self, i64 16, !dbg !778
  %i = load i64, ptr %7, align 8, !dbg !778, !noundef !26
  store i64 %i, ptr %i.dbg.spill, align 8, !dbg !778
  call void @llvm.dbg.declare(metadata ptr %i.dbg.spill, metadata !721, metadata !DIExpression()), !dbg !779
  %8 = getelementptr inbounds i8, ptr %self, i64 16, !dbg !780
  %9 = load i64, ptr %8, align 8, !dbg !780, !noundef !26
  %10 = call { i64, i1 } @llvm.uadd.with.overflow.i64(i64 %9, i64 1), !dbg !780
  %_8.0 = extractvalue { i64, i1 } %10, 0, !dbg !780
  %_8.1 = extractvalue { i64, i1 } %10, 1, !dbg !780
  %11 = call i1 @llvm.expect.i1(i1 %_8.1, i1 false), !dbg !780
  br i1 %11, label %panic, label %bb3, !dbg !780

bb4:                                              ; preds = %bb3, %bb7
  %12 = load i64, ptr %_0, align 8, !dbg !772
  %13 = getelementptr inbounds i8, ptr %_0, i64 8, !dbg !772
  %14 = load ptr, ptr %13, align 8, !dbg !772, !align !662, !noundef !26
  %15 = insertvalue { i64, ptr } poison, i64 %12, 0, !dbg !772
  %16 = insertvalue { i64, ptr } %15, ptr %14, 1, !dbg !772
  ret { i64, ptr } %16, !dbg !772

bb3:                                              ; preds = %bb8
  %17 = getelementptr inbounds i8, ptr %self, i64 16, !dbg !780
  store i64 %_8.0, ptr %17, align 8, !dbg !780
  store i64 %i, ptr %_9, align 8, !dbg !781
  %18 = getelementptr inbounds i8, ptr %_9, i64 8, !dbg !781
  store ptr %val, ptr %18, align 8, !dbg !781
  %19 = load i64, ptr %_9, align 8, !dbg !782, !noundef !26
  %20 = getelementptr inbounds i8, ptr %_9, i64 8, !dbg !782
  %21 = load ptr, ptr %20, align 8, !dbg !782, !nonnull !26, !align !662, !noundef !26
  store i64 %19, ptr %_0, align 8, !dbg !782
  %22 = getelementptr inbounds i8, ptr %_0, i64 8, !dbg !782
  store ptr %21, ptr %22, align 8, !dbg !782
  br label %bb4, !dbg !772

panic:                                            ; preds = %bb8
; invoke core::panicking::panic
  invoke void @_ZN4core9panicking5panic17h5884aad3a9044857E(ptr align 1 @str.0, i64 28, ptr align 8 @alloc_e644bbe572686fdbe11c9dbdc434ddd2) #20
          to label %unreachable unwind label %cleanup, !dbg !780

bb5:                                              ; preds = %cleanup
  %23 = load ptr, ptr %0, align 8, !dbg !783, !noundef !26
  %24 = getelementptr inbounds i8, ptr %0, i64 8, !dbg !783
  %25 = load i32, ptr %24, align 8, !dbg !783, !noundef !26
  %26 = insertvalue { ptr, i32 } poison, ptr %23, 0, !dbg !783
  %27 = insertvalue { ptr, i32 } %26, i32 %25, 1, !dbg !783
  resume { ptr, i32 } %27, !dbg !783

cleanup:                                          ; preds = %panic
  %28 = landingpad { ptr, i32 }
          cleanup
  %29 = extractvalue { ptr, i32 } %28, 0
  %30 = extractvalue { ptr, i32 } %28, 1
  store ptr %29, ptr %0, align 8
  %31 = getelementptr inbounds i8, ptr %0, i64 8
  store i32 %30, ptr %31, align 8
  br label %bb5

unreachable:                                      ; preds = %panic
  unreachable

bb2:                                              ; No predecessors!
  unreachable, !dbg !768
}

; <core::ops::range::RangeFrom<usize> as core::slice::index::SliceIndex<[T]>>::index
; Function Attrs: inlinehint uwtable
define { ptr, i64 } @"_ZN110_$LT$core..ops..range..RangeFrom$LT$usize$GT$$u20$as$u20$core..slice..index..SliceIndex$LT$$u5b$T$u5d$$GT$$GT$5index17h61dee3280c2dcde2E"(i64 %self, ptr align 1 %slice.0, i64 %slice.1, ptr align 8 %0) unnamed_addr #1 !dbg !784 {
start:
  %self.dbg.spill1 = alloca i64, align 8
  %slice.dbg.spill = alloca { ptr, i64 }, align 8
  %self.dbg.spill = alloca i64, align 8
  %_12 = alloca %"core::ptr::metadata::PtrRepr<[u8]>", align 8
  %_10 = alloca %"core::ops::range::Range<usize>", align 8
  store i64 %self, ptr %self.dbg.spill, align 8
  call void @llvm.dbg.declare(metadata ptr %self.dbg.spill, metadata !792, metadata !DIExpression()), !dbg !794
  store ptr %slice.0, ptr %slice.dbg.spill, align 8
  %1 = getelementptr inbounds i8, ptr %slice.dbg.spill, i64 8
  store i64 %slice.1, ptr %1, align 8
  call void @llvm.dbg.declare(metadata ptr %slice.dbg.spill, metadata !793, metadata !DIExpression()), !dbg !795
  call void @llvm.dbg.declare(metadata ptr %slice.dbg.spill, metadata !796, metadata !DIExpression()), !dbg !803
  call void @llvm.dbg.declare(metadata ptr %slice.dbg.spill, metadata !805, metadata !DIExpression()), !dbg !809
  call void @llvm.dbg.declare(metadata ptr %slice.dbg.spill, metadata !811, metadata !DIExpression()), !dbg !815
  store i64 %self, ptr %self.dbg.spill1, align 8, !dbg !817
  call void @llvm.dbg.declare(metadata ptr %self.dbg.spill1, metadata !802, metadata !DIExpression()), !dbg !818
  %_3 = icmp ugt i64 %self, %slice.1, !dbg !817
  br i1 %_3, label %bb1, label %bb2, !dbg !817

bb2:                                              ; preds = %start
  store ptr %slice.0, ptr %_12, align 8, !dbg !819
  %2 = getelementptr inbounds i8, ptr %_12, i64 8, !dbg !819
  store i64 %slice.1, ptr %2, align 8, !dbg !819
  %3 = getelementptr inbounds i8, ptr %_12, i64 8, !dbg !819
  %_11 = load i64, ptr %3, align 8, !dbg !819, !noundef !26
  store i64 %self, ptr %_10, align 8, !dbg !820
  %4 = getelementptr inbounds i8, ptr %_10, i64 8, !dbg !820
  store i64 %_11, ptr %4, align 8, !dbg !820
  %5 = load i64, ptr %_10, align 8, !dbg !820, !noundef !26
  %6 = getelementptr inbounds i8, ptr %_10, i64 8, !dbg !820
  %7 = load i64, ptr %6, align 8, !dbg !820, !noundef !26
; call <core::ops::range::Range<usize> as core::slice::index::SliceIndex<[T]>>::get_unchecked
  %8 = call { ptr, i64 } @"_ZN106_$LT$core..ops..range..Range$LT$usize$GT$$u20$as$u20$core..slice..index..SliceIndex$LT$$u5b$T$u5d$$GT$$GT$13get_unchecked17h3be89a617ac12cbfE"(i64 %5, i64 %7, ptr %slice.0, i64 %slice.1), !dbg !820
  %_8.0 = extractvalue { ptr, i64 } %8, 0, !dbg !820
  %_8.1 = extractvalue { ptr, i64 } %8, 1, !dbg !820
  %9 = insertvalue { ptr, i64 } poison, ptr %_8.0, 0, !dbg !821
  %10 = insertvalue { ptr, i64 } %9, i64 %_8.1, 1, !dbg !821
  ret { ptr, i64 } %10, !dbg !821

bb1:                                              ; preds = %start
; call core::slice::index::slice_start_index_len_fail
  call void @_ZN4core5slice5index26slice_start_index_len_fail17hdf66d65d95069d8dE(i64 %self, i64 %slice.1, ptr align 8 %0) #20, !dbg !822
  unreachable, !dbg !822
}

; <alloc::vec::Vec<T,A> as alloc::vec::spec_extend::SpecExtend<&T,core::slice::iter::Iter<T>>>::spec_extend
; Function Attrs: uwtable
define void @"_ZN132_$LT$alloc..vec..Vec$LT$T$C$A$GT$$u20$as$u20$alloc..vec..spec_extend..SpecExtend$LT$$RF$T$C$core..slice..iter..Iter$LT$T$GT$$GT$$GT$11spec_extend17h1a51f7ffb6cfb3b4E"(ptr align 8 %self, ptr %0, ptr %1) unnamed_addr #0 !dbg !823 {
start:
  %data_pointer.dbg.spill.i = alloca ptr, align 8
  %end.dbg.spill.i = alloca ptr, align 8
  %self.dbg.spill4.i = alloca ptr, align 8
  %data.dbg.spill.i = alloca ptr, align 8
  %self.dbg.spill2.i = alloca ptr, align 8
  %self.dbg.spill.i = alloca ptr, align 8
  %_21.i = alloca %"core::ptr::metadata::PtrComponents<[u8]>", align 8
  %_20.i = alloca %"core::ptr::metadata::PtrRepr<[u8]>", align 8
  %len.i = alloca i64, align 8
  %slice.dbg.spill = alloca { ptr, i64 }, align 8
  %self.dbg.spill1 = alloca ptr, align 8
  %self.dbg.spill = alloca ptr, align 8
  %iterator = alloca %"core::slice::iter::Iter<'_, u8>", align 8
  store ptr %0, ptr %iterator, align 8
  %2 = getelementptr inbounds i8, ptr %iterator, i64 8
  store ptr %1, ptr %2, align 8
  store ptr %self, ptr %self.dbg.spill, align 8
  call void @llvm.dbg.declare(metadata ptr %self.dbg.spill, metadata !856, metadata !DIExpression()), !dbg !860
  call void @llvm.dbg.declare(metadata ptr %iterator, metadata !857, metadata !DIExpression()), !dbg !861
  store ptr %iterator, ptr %self.dbg.spill1, align 8, !dbg !862
  call void @llvm.dbg.declare(metadata ptr %self.dbg.spill1, metadata !863, metadata !DIExpression()), !dbg !872
  store ptr %iterator, ptr %self.dbg.spill.i, align 8
  call void @llvm.dbg.declare(metadata ptr %self.dbg.spill.i, metadata !874, metadata !DIExpression()), !dbg !883
  call void @llvm.dbg.declare(metadata ptr %len.i, metadata !885, metadata !DIExpression()), !dbg !894
  call void @llvm.dbg.declare(metadata ptr %len.i, metadata !896, metadata !DIExpression()), !dbg !901
  call void @llvm.dbg.declare(metadata ptr %len.i, metadata !903, metadata !DIExpression()), !dbg !908
  %self1.i = load ptr, ptr %iterator, align 8, !dbg !910, !nonnull !26, !noundef !26
  store ptr %self1.i, ptr %self.dbg.spill2.i, align 8, !dbg !910
  call void @llvm.dbg.declare(metadata ptr %self.dbg.spill2.i, metadata !911, metadata !DIExpression()), !dbg !919
  call void @llvm.dbg.declare(metadata ptr %self.dbg.spill2.i, metadata !921, metadata !DIExpression()), !dbg !929
  store ptr %self1.i, ptr %data.dbg.spill.i, align 8, !dbg !931
  call void @llvm.dbg.declare(metadata ptr %data.dbg.spill.i, metadata !893, metadata !DIExpression()), !dbg !932
  call void @llvm.dbg.declare(metadata ptr %data.dbg.spill.i, metadata !900, metadata !DIExpression()), !dbg !933
  call void @llvm.dbg.declare(metadata ptr %data.dbg.spill.i, metadata !934, metadata !DIExpression()), !dbg !940
  %self3.i = getelementptr inbounds i8, ptr %iterator, i64 8, !dbg !942
  store ptr %self3.i, ptr %self.dbg.spill4.i, align 8, !dbg !942
  call void @llvm.dbg.declare(metadata ptr %self.dbg.spill4.i, metadata !943, metadata !DIExpression()), !dbg !954
  %end.i = load ptr, ptr %self3.i, align 8, !dbg !942, !nonnull !26, !noundef !26
  store ptr %end.i, ptr %end.dbg.spill.i, align 8, !dbg !942
  call void @llvm.dbg.declare(metadata ptr %end.dbg.spill.i, metadata !881, metadata !DIExpression()), !dbg !956
  call void @llvm.dbg.declare(metadata ptr %end.dbg.spill.i, metadata !928, metadata !DIExpression()), !dbg !957
; call core::ptr::const_ptr::<impl *const T>::sub_ptr
  %3 = call i64 @"_ZN4core3ptr9const_ptr33_$LT$impl$u20$$BP$const$u20$T$GT$7sub_ptr17h946caa1ded3a8b07E"(ptr %end.i, ptr %self1.i), !dbg !958
  store i64 %3, ptr %len.i, align 8, !dbg !958
  %4 = load i64, ptr %len.i, align 8, !dbg !959, !noundef !26
; call core::slice::raw::from_raw_parts::precondition_check
  call void @_ZN4core5slice3raw14from_raw_parts18precondition_check17h1b301d77961feaaeE(ptr %self1.i, i64 1, i64 1, i64 %4) #21, !dbg !959
  store ptr %self1.i, ptr %data_pointer.dbg.spill.i, align 8, !dbg !960
  call void @llvm.dbg.declare(metadata ptr %data_pointer.dbg.spill.i, metadata !907, metadata !DIExpression()), !dbg !961
  store ptr %self1.i, ptr %_21.i, align 8, !dbg !962
  %5 = load i64, ptr %len.i, align 8, !dbg !962, !noundef !26
  %6 = getelementptr inbounds i8, ptr %_21.i, i64 8, !dbg !962
  store i64 %5, ptr %6, align 8, !dbg !962
  %7 = load ptr, ptr %_21.i, align 8, !dbg !963, !noundef !26
  %8 = getelementptr inbounds i8, ptr %_21.i, i64 8, !dbg !963
  %9 = load i64, ptr %8, align 8, !dbg !963, !noundef !26
  store ptr %7, ptr %_20.i, align 8, !dbg !963
  %10 = getelementptr inbounds i8, ptr %_20.i, i64 8, !dbg !963
  store i64 %9, ptr %10, align 8, !dbg !963
  %_18.0.i = load ptr, ptr %_20.i, align 8, !dbg !963, !noundef !26
  %11 = getelementptr inbounds i8, ptr %_20.i, i64 8, !dbg !963
  %_18.1.i = load i64, ptr %11, align 8, !dbg !963, !noundef !26
  %12 = insertvalue { ptr, i64 } poison, ptr %_18.0.i, 0, !dbg !964
  %13 = insertvalue { ptr, i64 } %12, i64 %_18.1.i, 1, !dbg !964
  %slice.0 = extractvalue { ptr, i64 } %13, 0, !dbg !965
  %slice.1 = extractvalue { ptr, i64 } %13, 1, !dbg !965
  store ptr %slice.0, ptr %slice.dbg.spill, align 8, !dbg !965
  %14 = getelementptr inbounds i8, ptr %slice.dbg.spill, i64 8, !dbg !965
  store i64 %slice.1, ptr %14, align 8, !dbg !965
  call void @llvm.dbg.declare(metadata ptr %slice.dbg.spill, metadata !858, metadata !DIExpression()), !dbg !966
; call alloc::vec::Vec<T,A>::append_elements
  call void @"_ZN5alloc3vec16Vec$LT$T$C$A$GT$15append_elements17h968fa20eac4abe41E"(ptr align 8 %self, ptr %slice.0, i64 %slice.1), !dbg !967
  ret void, !dbg !968
}

; <core::result::Result<T,F> as core::ops::try_trait::FromResidual<core::result::Result<core::convert::Infallible,E>>>::from_residual
; Function Attrs: inlinehint uwtable
define void @"_ZN153_$LT$core..result..Result$LT$T$C$F$GT$$u20$as$u20$core..ops..try_trait..FromResidual$LT$core..result..Result$LT$core..convert..Infallible$C$E$GT$$GT$$GT$13from_residual17hd0d022149a662e6dE"(ptr sret(%"core::result::Result<engine::DecodeMetadata, decode::DecodeSliceError>") align 8 %_0, ptr align 8 %residual, ptr align 8 %0) unnamed_addr #1 !dbg !969 {
start:
  %_3 = alloca %"decode::DecodeSliceError", align 8
  %e = alloca %"decode::DecodeError", align 8
  call void @llvm.dbg.declare(metadata ptr %residual, metadata !1032, metadata !DIExpression()), !dbg !1037
  call void @llvm.dbg.declare(metadata ptr %e, metadata !1033, metadata !DIExpression()), !dbg !1038
  call void @llvm.memcpy.p0.p0.i64(ptr align 8 %e, ptr align 8 %residual, i64 16, i1 false), !dbg !1039
; call <base64::decode::DecodeSliceError as core::convert::From<base64::decode::DecodeError>>::from
  call void @"_ZN107_$LT$base64..decode..DecodeSliceError$u20$as$u20$core..convert..From$LT$base64..decode..DecodeError$GT$$GT$4from17hdea1f0671fad0f65E"(ptr sret(%"decode::DecodeSliceError") align 8 %_3, ptr align 8 %e), !dbg !1040
  %1 = getelementptr inbounds i8, ptr %_0, i64 8, !dbg !1041
  call void @llvm.memcpy.p0.p0.i64(ptr align 8 %1, ptr align 8 %_3, i64 16, i1 false), !dbg !1041
  store i64 2, ptr %_0, align 8, !dbg !1041
  ret void, !dbg !1042
}

; <core::result::Result<T,F> as core::ops::try_trait::FromResidual<core::result::Result<core::convert::Infallible,E>>>::from_residual
; Function Attrs: inlinehint uwtable
define void @"_ZN153_$LT$core..result..Result$LT$T$C$F$GT$$u20$as$u20$core..ops..try_trait..FromResidual$LT$core..result..Result$LT$core..convert..Infallible$C$E$GT$$GT$$GT$13from_residual17hd93faea669d3b42bE"(ptr sret(%"core::result::Result<engine::DecodeMetadata, decode::DecodeSliceError>") align 8 %_0, ptr align 8 %residual, ptr align 8 %0) unnamed_addr #1 !dbg !1043 {
start:
  %_3 = alloca %"decode::DecodeSliceError", align 8
  %e = alloca %"decode::DecodeSliceError", align 8
  call void @llvm.dbg.declare(metadata ptr %residual, metadata !1060, metadata !DIExpression()), !dbg !1064
  call void @llvm.dbg.declare(metadata ptr %e, metadata !1061, metadata !DIExpression()), !dbg !1065
  call void @llvm.memcpy.p0.p0.i64(ptr align 8 %e, ptr align 8 %residual, i64 16, i1 false), !dbg !1066
  call void @llvm.dbg.declare(metadata ptr %e, metadata !1067, metadata !DIExpression()), !dbg !1076
  call void @llvm.memcpy.p0.p0.i64(ptr align 8 %_3, ptr align 8 %e, i64 16, i1 false), !dbg !1078
  %1 = getelementptr inbounds i8, ptr %_0, i64 8, !dbg !1079
  call void @llvm.memcpy.p0.p0.i64(ptr align 8 %1, ptr align 8 %_3, i64 16, i1 false), !dbg !1079
  store i64 2, ptr %_0, align 8, !dbg !1079
  ret void, !dbg !1080
}

; <&T as core::fmt::Debug>::fmt
; Function Attrs: uwtable
define zeroext i1 @"_ZN42_$LT$$RF$T$u20$as$u20$core..fmt..Debug$GT$3fmt17h1a0a6301cf3fa32fE"(ptr align 8 %self, ptr align 8 %f) unnamed_addr #0 !dbg !1081 {
start:
  %f.dbg.spill = alloca ptr, align 8
  %self.dbg.spill = alloca ptr, align 8
  store ptr %self, ptr %self.dbg.spill, align 8
  call void @llvm.dbg.declare(metadata ptr %self.dbg.spill, metadata !1125, metadata !DIExpression()), !dbg !1129
  store ptr %f, ptr %f.dbg.spill, align 8
  call void @llvm.dbg.declare(metadata ptr %f.dbg.spill, metadata !1126, metadata !DIExpression()), !dbg !1130
  %_3 = load ptr, ptr %self, align 8, !dbg !1131, !nonnull !26, !align !662, !noundef !26
; call <core::option::Option<T> as core::fmt::Debug>::fmt
  %_0 = call zeroext i1 @"_ZN66_$LT$core..option..Option$LT$T$GT$$u20$as$u20$core..fmt..Debug$GT$3fmt17h69eaf4e171f395daE"(ptr align 1 %_3, ptr align 8 %f), !dbg !1132
  ret i1 %_0, !dbg !1133
}

; <&T as core::fmt::Debug>::fmt
; Function Attrs: uwtable
define zeroext i1 @"_ZN42_$LT$$RF$T$u20$as$u20$core..fmt..Debug$GT$3fmt17h4268e87370c8fa83E"(ptr align 8 %self, ptr align 8 %f) unnamed_addr #0 !dbg !1134 {
start:
  %f.dbg.spill = alloca ptr, align 8
  %self.dbg.spill = alloca ptr, align 8
  store ptr %self, ptr %self.dbg.spill, align 8
  call void @llvm.dbg.declare(metadata ptr %self.dbg.spill, metadata !1139, metadata !DIExpression()), !dbg !1141
  store ptr %f, ptr %f.dbg.spill, align 8
  call void @llvm.dbg.declare(metadata ptr %f.dbg.spill, metadata !1140, metadata !DIExpression()), !dbg !1142
  %_3 = load ptr, ptr %self, align 8, !dbg !1143, !nonnull !26, !align !662, !noundef !26
; call core::fmt::num::<impl core::fmt::Debug for u8>::fmt
  %_0 = call zeroext i1 @"_ZN4core3fmt3num49_$LT$impl$u20$core..fmt..Debug$u20$for$u20$u8$GT$3fmt17hba9e86c6f9239898E"(ptr align 1 %_3, ptr align 8 %f), !dbg !1144
  ret i1 %_0, !dbg !1145
}

; <&T as core::fmt::Debug>::fmt
; Function Attrs: uwtable
define zeroext i1 @"_ZN42_$LT$$RF$T$u20$as$u20$core..fmt..Debug$GT$3fmt17hc59f047934a16639E"(ptr align 8 %self, ptr align 8 %f) unnamed_addr #0 !dbg !1146 {
start:
  %f.dbg.spill = alloca ptr, align 8
  %self.dbg.spill = alloca ptr, align 8
  store ptr %self, ptr %self.dbg.spill, align 8
  call void @llvm.dbg.declare(metadata ptr %self.dbg.spill, metadata !1151, metadata !DIExpression()), !dbg !1154
  store ptr %f, ptr %f.dbg.spill, align 8
  call void @llvm.dbg.declare(metadata ptr %f.dbg.spill, metadata !1152, metadata !DIExpression()), !dbg !1155
  %_3 = load ptr, ptr %self, align 8, !dbg !1156, !nonnull !26, !align !662, !noundef !26
; call <() as core::fmt::Debug>::fmt
  %_0 = call zeroext i1 @"_ZN45_$LT$$LP$$RP$$u20$as$u20$core..fmt..Debug$GT$3fmt17h0dd057a96d2fd10cE"(ptr align 1 %_3, ptr align 8 %f), !dbg !1157
  ret i1 %_0, !dbg !1158
}

; <&T as core::fmt::Debug>::fmt
; Function Attrs: uwtable
define zeroext i1 @"_ZN42_$LT$$RF$T$u20$as$u20$core..fmt..Debug$GT$3fmt17hd5366517517e2948E"(ptr align 8 %self, ptr align 8 %f) unnamed_addr #0 !dbg !1159 {
start:
  %f.dbg.spill = alloca ptr, align 8
  %self.dbg.spill = alloca ptr, align 8
  store ptr %self, ptr %self.dbg.spill, align 8
  call void @llvm.dbg.declare(metadata ptr %self.dbg.spill, metadata !1164, metadata !DIExpression()), !dbg !1166
  store ptr %f, ptr %f.dbg.spill, align 8
  call void @llvm.dbg.declare(metadata ptr %f.dbg.spill, metadata !1165, metadata !DIExpression()), !dbg !1167
  %_3 = load ptr, ptr %self, align 8, !dbg !1168, !nonnull !26, !align !1169, !noundef !26
; call core::fmt::num::<impl core::fmt::Debug for usize>::fmt
  %_0 = call zeroext i1 @"_ZN4core3fmt3num52_$LT$impl$u20$core..fmt..Debug$u20$for$u20$usize$GT$3fmt17h8bde9cac43fa9edaE"(ptr align 8 %_3, ptr align 8 %f), !dbg !1170
  ret i1 %_0, !dbg !1171
}

; <&T as core::fmt::Display>::fmt
; Function Attrs: uwtable
define zeroext i1 @"_ZN44_$LT$$RF$T$u20$as$u20$core..fmt..Display$GT$3fmt17h714779b2fc41a8fbE"(ptr align 8 %self, ptr align 8 %f) unnamed_addr #0 !dbg !1172 {
start:
  %f.dbg.spill = alloca ptr, align 8
  %self.dbg.spill = alloca ptr, align 8
  store ptr %self, ptr %self.dbg.spill, align 8
  call void @llvm.dbg.declare(metadata ptr %self.dbg.spill, metadata !1179, metadata !DIExpression()), !dbg !1183
  store ptr %f, ptr %f.dbg.spill, align 8
  call void @llvm.dbg.declare(metadata ptr %f.dbg.spill, metadata !1180, metadata !DIExpression()), !dbg !1184
  %_3 = load ptr, ptr %self, align 8, !dbg !1185, !nonnull !26, !align !1169, !noundef !26
; call <base64::decode::DecodeError as core::fmt::Display>::fmt
  %_0 = call zeroext i1 @"_ZN66_$LT$base64..decode..DecodeError$u20$as$u20$core..fmt..Display$GT$3fmt17hd27dbce10b657da8E"(ptr align 8 %_3, ptr align 8 %f), !dbg !1186
  ret i1 %_0, !dbg !1187
}

; <() as core::fmt::Debug>::fmt
; Function Attrs: inlinehint uwtable
define internal zeroext i1 @"_ZN45_$LT$$LP$$RP$$u20$as$u20$core..fmt..Debug$GT$3fmt17h0dd057a96d2fd10cE"(ptr align 1 %self, ptr align 8 %f) unnamed_addr #1 !dbg !1188 {
start:
  %f.dbg.spill = alloca ptr, align 8
  %self.dbg.spill = alloca ptr, align 8
  store ptr %self, ptr %self.dbg.spill, align 8
  call void @llvm.dbg.declare(metadata ptr %self.dbg.spill, metadata !1193, metadata !DIExpression()), !dbg !1195
  store ptr %f, ptr %f.dbg.spill, align 8
  call void @llvm.dbg.declare(metadata ptr %f.dbg.spill, metadata !1194, metadata !DIExpression()), !dbg !1196
; call core::fmt::Formatter::pad
  %_0 = call zeroext i1 @_ZN4core3fmt9Formatter3pad17h2f69a4922a0818bbE(ptr align 8 %f, ptr align 1 @alloc_ae6dc619079e3c3b08144a35532ecff7, i64 2), !dbg !1197
  ret i1 %_0, !dbg !1198
}

; <&T as core::fmt::LowerHex>::fmt
; Function Attrs: uwtable
define zeroext i1 @"_ZN45_$LT$$RF$T$u20$as$u20$core..fmt..LowerHex$GT$3fmt17h99a4b12e1ad2bfcfE"(ptr align 8 %self, ptr align 8 %f) unnamed_addr #0 !dbg !1199 {
start:
  %f.dbg.spill = alloca ptr, align 8
  %self.dbg.spill = alloca ptr, align 8
  store ptr %self, ptr %self.dbg.spill, align 8
  call void @llvm.dbg.declare(metadata ptr %self.dbg.spill, metadata !1202, metadata !DIExpression()), !dbg !1204
  store ptr %f, ptr %f.dbg.spill, align 8
  call void @llvm.dbg.declare(metadata ptr %f.dbg.spill, metadata !1203, metadata !DIExpression()), !dbg !1205
  %_3 = load ptr, ptr %self, align 8, !dbg !1206, !nonnull !26, !align !662, !noundef !26
; call core::fmt::num::<impl core::fmt::LowerHex for u8>::fmt
  %_0 = call zeroext i1 @"_ZN4core3fmt3num52_$LT$impl$u20$core..fmt..LowerHex$u20$for$u20$u8$GT$3fmt17h77b8dff7d9b2fef6E"(ptr align 1 %_3, ptr align 8 %f), !dbg !1207
  ret i1 %_0, !dbg !1208
}

; <usize as core::iter::range::Step>::forward_unchecked
; Function Attrs: inlinehint uwtable
define internal i64 @"_ZN49_$LT$usize$u20$as$u20$core..iter..range..Step$GT$17forward_unchecked17ha95aab769ee56c01E"(i64 %start1, i64 %n) unnamed_addr #1 !dbg !1209 {
start:
  %n.dbg.spill = alloca i64, align 8
  %start.dbg.spill = alloca i64, align 8
  store i64 %start1, ptr %start.dbg.spill, align 8
  call void @llvm.dbg.declare(metadata ptr %start.dbg.spill, metadata !1216, metadata !DIExpression()), !dbg !1218
  call void @llvm.dbg.declare(metadata ptr %start.dbg.spill, metadata !1219, metadata !DIExpression()), !dbg !1229
  store i64 %n, ptr %n.dbg.spill, align 8
  call void @llvm.dbg.declare(metadata ptr %n.dbg.spill, metadata !1217, metadata !DIExpression()), !dbg !1231
  call void @llvm.dbg.declare(metadata ptr %n.dbg.spill, metadata !1228, metadata !DIExpression()), !dbg !1229
  %_0 = add nuw i64 %start1, %n, !dbg !1229
  ret i64 %_0, !dbg !1232
}

; core::intrinsics::write_bytes::precondition_check
; Function Attrs: inlinehint nounwind uwtable
define internal void @_ZN4core10intrinsics11write_bytes18precondition_check17h29c2f0714cbda5f7E(ptr %addr, i64 %align) unnamed_addr #2 personality ptr @rust_eh_personality !dbg !1233 {
start:
  %align.dbg.spill = alloca i64, align 8
  %addr.dbg.spill = alloca ptr, align 8
  store ptr %addr, ptr %addr.dbg.spill, align 8
  call void @llvm.dbg.declare(metadata ptr %addr.dbg.spill, metadata !1240, metadata !DIExpression()), !dbg !1242
  store i64 %align, ptr %align.dbg.spill, align 8
  call void @llvm.dbg.declare(metadata ptr %align.dbg.spill, metadata !1241, metadata !DIExpression()), !dbg !1242
; invoke core::intrinsics::is_aligned_and_not_null
  %_3 = invoke zeroext i1 @_ZN4core10intrinsics23is_aligned_and_not_null17h7eaf322197e26745E(ptr %addr, i64 %align)
          to label %bb1 unwind label %terminate, !dbg !1243

terminate:                                        ; preds = %start
  %0 = landingpad { ptr, i32 }
          filter [0 x ptr] zeroinitializer
  %1 = extractvalue { ptr, i32 } %0, 0
  %2 = extractvalue { ptr, i32 } %0, 1
; call core::panicking::panic_cannot_unwind
  call void @_ZN4core9panicking19panic_cannot_unwind17h3626040c0976c0c3E() #22, !dbg !1244
  unreachable, !dbg !1244

bb1:                                              ; preds = %start
  br i1 %_3, label %bb2, label %bb3, !dbg !1243

bb3:                                              ; preds = %bb1
; call core::panicking::panic_nounwind
  call void @_ZN4core9panicking14panic_nounwind17h50c31e15afde233eE(ptr align 1 @alloc_424341b75ece3fa20496f1c69b9fb0ac, i64 111) #19, !dbg !1245
  unreachable, !dbg !1245

bb2:                                              ; preds = %bb1
  ret void, !dbg !1246
}

; core::intrinsics::is_nonoverlapping
; Function Attrs: inlinehint uwtable
define internal zeroext i1 @_ZN4core10intrinsics17is_nonoverlapping17h4b6a8059130b91dbE(ptr %src, ptr %dst, i64 %size, i64 %count) unnamed_addr #1 !dbg !1247 {
start:
  %size.dbg.spill3 = alloca i64, align 8
  %0 = alloca i8, align 1
  %a.dbg.spill1 = alloca i64, align 8
  %b.dbg.spill = alloca i8, align 1
  %a.dbg.spill = alloca i64, align 8
  %dst_usize.dbg.spill = alloca i64, align 8
  %src_usize.dbg.spill = alloca i64, align 8
  %count.dbg.spill = alloca i64, align 8
  %size.dbg.spill = alloca i64, align 8
  %dst.dbg.spill = alloca ptr, align 8
  %src.dbg.spill = alloca ptr, align 8
  %diff = alloca i64, align 8
  %_9 = alloca %"core::option::Option<usize>", align 8
  store ptr %src, ptr %src.dbg.spill, align 8
  call void @llvm.dbg.declare(metadata ptr %src.dbg.spill, metadata !1251, metadata !DIExpression()), !dbg !1263
  call void @llvm.dbg.declare(metadata ptr %src.dbg.spill, metadata !1264, metadata !DIExpression()), !dbg !1272
  call void @llvm.dbg.declare(metadata ptr %src.dbg.spill, metadata !1274, metadata !DIExpression()), !dbg !1283
  store ptr %dst, ptr %dst.dbg.spill, align 8
  call void @llvm.dbg.declare(metadata ptr %dst.dbg.spill, metadata !1252, metadata !DIExpression()), !dbg !1285
  call void @llvm.dbg.declare(metadata ptr %dst.dbg.spill, metadata !1270, metadata !DIExpression()), !dbg !1286
  call void @llvm.dbg.declare(metadata ptr %dst.dbg.spill, metadata !1280, metadata !DIExpression()), !dbg !1288
  store i64 %size, ptr %size.dbg.spill, align 8
  call void @llvm.dbg.declare(metadata ptr %size.dbg.spill, metadata !1253, metadata !DIExpression()), !dbg !1290
  call void @llvm.dbg.declare(metadata ptr %size.dbg.spill, metadata !1291, metadata !DIExpression()), !dbg !1303
  call void @llvm.dbg.declare(metadata ptr %size.dbg.spill, metadata !1305, metadata !DIExpression()), !dbg !1321
  store i64 %count, ptr %count.dbg.spill, align 8
  call void @llvm.dbg.declare(metadata ptr %count.dbg.spill, metadata !1254, metadata !DIExpression()), !dbg !1323
  call void @llvm.dbg.declare(metadata ptr %count.dbg.spill, metadata !1298, metadata !DIExpression()), !dbg !1303
  call void @llvm.dbg.declare(metadata ptr %count.dbg.spill, metadata !1316, metadata !DIExpression()), !dbg !1321
  call void @llvm.dbg.declare(metadata ptr %diff, metadata !1261, metadata !DIExpression()), !dbg !1324
  %src_usize = ptrtoint ptr %src to i64, !dbg !1325
  store i64 %src_usize, ptr %src_usize.dbg.spill, align 8, !dbg !1325
  call void @llvm.dbg.declare(metadata ptr %src_usize.dbg.spill, metadata !1255, metadata !DIExpression()), !dbg !1326
  call void @llvm.dbg.declare(metadata ptr %src_usize.dbg.spill, metadata !1327, metadata !DIExpression()), !dbg !1333
  %dst_usize = ptrtoint ptr %dst to i64, !dbg !1335
  store i64 %dst_usize, ptr %dst_usize.dbg.spill, align 8, !dbg !1335
  call void @llvm.dbg.declare(metadata ptr %dst_usize.dbg.spill, metadata !1257, metadata !DIExpression()), !dbg !1336
  call void @llvm.dbg.declare(metadata ptr %dst_usize.dbg.spill, metadata !1332, metadata !DIExpression()), !dbg !1333
  %1 = call { i64, i1 } @llvm.umul.with.overflow.i64(i64 %size, i64 %count), !dbg !1321
  %_15.0 = extractvalue { i64, i1 } %1, 0, !dbg !1321
  %_15.1 = extractvalue { i64, i1 } %1, 1, !dbg !1321
  store i64 %_15.0, ptr %a.dbg.spill, align 8, !dbg !1321
  call void @llvm.dbg.declare(metadata ptr %a.dbg.spill, metadata !1317, metadata !DIExpression()), !dbg !1337
  %2 = zext i1 %_15.1 to i8, !dbg !1321
  store i8 %2, ptr %b.dbg.spill, align 1, !dbg !1321
  call void @llvm.dbg.declare(metadata ptr %b.dbg.spill, metadata !1302, metadata !DIExpression()), !dbg !1338
  call void @llvm.dbg.declare(metadata ptr %b.dbg.spill, metadata !1320, metadata !DIExpression()), !dbg !1337
  store i64 %_15.0, ptr %a.dbg.spill1, align 8, !dbg !1337
  call void @llvm.dbg.declare(metadata ptr %a.dbg.spill1, metadata !1299, metadata !DIExpression()), !dbg !1338
  %3 = call i1 @llvm.expect.i1(i1 %_15.1, i1 false), !dbg !1338
  %4 = zext i1 %3 to i8, !dbg !1338
  store i8 %4, ptr %0, align 1, !dbg !1338
  %5 = load i8, ptr %0, align 1, !dbg !1338, !range !279, !noundef !26
  %_12 = trunc i8 %5 to i1, !dbg !1338
  br i1 %_12, label %bb2, label %bb3, !dbg !1338

bb3:                                              ; preds = %start
  %6 = getelementptr inbounds i8, ptr %_9, i64 8, !dbg !1338
  store i64 %_15.0, ptr %6, align 8, !dbg !1338
  store i64 1, ptr %_9, align 8, !dbg !1338
  %7 = getelementptr inbounds i8, ptr %_9, i64 8, !dbg !1339
  %size2 = load i64, ptr %7, align 8, !dbg !1339, !noundef !26
  store i64 %size2, ptr %size.dbg.spill3, align 8, !dbg !1339
  call void @llvm.dbg.declare(metadata ptr %size.dbg.spill3, metadata !1259, metadata !DIExpression()), !dbg !1340
  %_22 = icmp ult i64 %src_usize, %dst_usize, !dbg !1333
  br i1 %_22, label %bb4, label %bb5, !dbg !1333

bb2:                                              ; preds = %start
; call core::panicking::panic_nounwind
  call void @_ZN4core9panicking14panic_nounwind17h50c31e15afde233eE(ptr align 1 @alloc_763310d78c99c2c1ad3f8a9821e942f3, i64 61) #19, !dbg !1341
  unreachable, !dbg !1341

bb5:                                              ; preds = %bb3
  %8 = sub i64 %src_usize, %dst_usize, !dbg !1333
  store i64 %8, ptr %diff, align 8, !dbg !1333
  br label %bb6, !dbg !1333

bb4:                                              ; preds = %bb3
  %9 = sub i64 %dst_usize, %src_usize, !dbg !1333
  store i64 %9, ptr %diff, align 8, !dbg !1333
  br label %bb6, !dbg !1333

bb6:                                              ; preds = %bb4, %bb5
  %_11 = load i64, ptr %diff, align 8, !dbg !1342, !noundef !26
  %_0 = icmp uge i64 %_11, %size2, !dbg !1342
  ret i1 %_0, !dbg !1343
}

; core::intrinsics::copy_nonoverlapping::precondition_check
; Function Attrs: inlinehint nounwind uwtable
define internal void @_ZN4core10intrinsics19copy_nonoverlapping18precondition_check17h168d8abd2ef0fb81E(ptr %src, ptr %dst, i64 %size, i64 %align, i64 %count) unnamed_addr #2 personality ptr @rust_eh_personality !dbg !1344 {
start:
  %count.dbg.spill = alloca i64, align 8
  %align.dbg.spill = alloca i64, align 8
  %size.dbg.spill = alloca i64, align 8
  %dst.dbg.spill = alloca ptr, align 8
  %src.dbg.spill = alloca ptr, align 8
  store ptr %src, ptr %src.dbg.spill, align 8
  call void @llvm.dbg.declare(metadata ptr %src.dbg.spill, metadata !1349, metadata !DIExpression()), !dbg !1354
  store ptr %dst, ptr %dst.dbg.spill, align 8
  call void @llvm.dbg.declare(metadata ptr %dst.dbg.spill, metadata !1350, metadata !DIExpression()), !dbg !1354
  store i64 %size, ptr %size.dbg.spill, align 8
  call void @llvm.dbg.declare(metadata ptr %size.dbg.spill, metadata !1351, metadata !DIExpression()), !dbg !1354
  store i64 %align, ptr %align.dbg.spill, align 8
  call void @llvm.dbg.declare(metadata ptr %align.dbg.spill, metadata !1352, metadata !DIExpression()), !dbg !1354
  store i64 %count, ptr %count.dbg.spill, align 8
  call void @llvm.dbg.declare(metadata ptr %count.dbg.spill, metadata !1353, metadata !DIExpression()), !dbg !1354
; invoke core::intrinsics::is_aligned_and_not_null
  %_6 = invoke zeroext i1 @_ZN4core10intrinsics23is_aligned_and_not_null17h7eaf322197e26745E(ptr %src, i64 %align)
          to label %bb1 unwind label %terminate, !dbg !1355

terminate:                                        ; preds = %bb4, %bb2, %start
  %0 = landingpad { ptr, i32 }
          filter [0 x ptr] zeroinitializer
  %1 = extractvalue { ptr, i32 } %0, 0
  %2 = extractvalue { ptr, i32 } %0, 1
; call core::panicking::panic_cannot_unwind
  call void @_ZN4core9panicking19panic_cannot_unwind17h3626040c0976c0c3E() #22, !dbg !1356
  unreachable, !dbg !1356

bb1:                                              ; preds = %start
  br i1 %_6, label %bb2, label %bb7, !dbg !1355

bb7:                                              ; preds = %bb5, %bb3, %bb1
; call core::panicking::panic_nounwind
  call void @_ZN4core9panicking14panic_nounwind17h50c31e15afde233eE(ptr align 1 @alloc_8df0580a595a87d56789d20c7318e185, i64 166) #19, !dbg !1357
  unreachable, !dbg !1357

bb2:                                              ; preds = %bb1
; invoke core::intrinsics::is_aligned_and_not_null
  %_7 = invoke zeroext i1 @_ZN4core10intrinsics23is_aligned_and_not_null17h7eaf322197e26745E(ptr %dst, i64 %align)
          to label %bb3 unwind label %terminate, !dbg !1358

bb3:                                              ; preds = %bb2
  br i1 %_7, label %bb4, label %bb7, !dbg !1358

bb4:                                              ; preds = %bb3
; invoke core::intrinsics::is_nonoverlapping
  %_9 = invoke zeroext i1 @_ZN4core10intrinsics17is_nonoverlapping17h4b6a8059130b91dbE(ptr %src, ptr %dst, i64 %size, i64 %count)
          to label %bb5 unwind label %terminate, !dbg !1359

bb5:                                              ; preds = %bb4
  br i1 %_9, label %bb6, label %bb7, !dbg !1359

bb6:                                              ; preds = %bb5
  ret void, !dbg !1360
}

; core::intrinsics::is_aligned_and_not_null
; Function Attrs: inlinehint uwtable
define internal zeroext i1 @_ZN4core10intrinsics23is_aligned_and_not_null17h7eaf322197e26745E(ptr %ptr, i64 %align) unnamed_addr #1 !dbg !1361 {
start:
  %pieces.dbg.spill = alloca { ptr, i64 }, align 8
  %0 = alloca i64, align 8
  %ptr.dbg.spill1 = alloca ptr, align 8
  %align.dbg.spill = alloca i64, align 8
  %ptr.dbg.spill = alloca ptr, align 8
  %_6 = alloca %"core::fmt::Arguments<'_>", align 8
  %_0 = alloca i8, align 1
  store ptr %ptr, ptr %ptr.dbg.spill, align 8
  call void @llvm.dbg.declare(metadata ptr %ptr.dbg.spill, metadata !1365, metadata !DIExpression()), !dbg !1367
  call void @llvm.dbg.declare(metadata ptr %ptr.dbg.spill, metadata !1368, metadata !DIExpression()), !dbg !1374
  call void @llvm.dbg.declare(metadata ptr %ptr.dbg.spill, metadata !1376, metadata !DIExpression()), !dbg !1381
  call void @llvm.dbg.declare(metadata ptr %ptr.dbg.spill, metadata !1383, metadata !DIExpression()), !dbg !1389
  call void @llvm.dbg.declare(metadata ptr %ptr.dbg.spill, metadata !1391, metadata !DIExpression()), !dbg !1397
  call void @llvm.dbg.declare(metadata ptr %ptr.dbg.spill, metadata !1399, metadata !DIExpression()), !dbg !1403
  call void @llvm.dbg.declare(metadata ptr %ptr.dbg.spill, metadata !1387, metadata !DIExpression()), !dbg !1405
  store i64 %align, ptr %align.dbg.spill, align 8
  call void @llvm.dbg.declare(metadata ptr %align.dbg.spill, metadata !1366, metadata !DIExpression()), !dbg !1407
  call void @llvm.dbg.declare(metadata ptr %align.dbg.spill, metadata !1380, metadata !DIExpression()), !dbg !1408
  call void @llvm.dbg.declare(metadata ptr %align.dbg.spill, metadata !1409, metadata !DIExpression()), !dbg !1416
  call void @llvm.dbg.declare(metadata ptr %align.dbg.spill, metadata !1418, metadata !DIExpression()), !dbg !1425
  call void @llvm.dbg.declare(metadata ptr %align.dbg.spill, metadata !1396, metadata !DIExpression()), !dbg !1427
  store ptr %ptr, ptr %ptr.dbg.spill1, align 8, !dbg !1428
  call void @llvm.dbg.declare(metadata ptr %ptr.dbg.spill1, metadata !1429, metadata !DIExpression()), !dbg !1436
  call void @llvm.dbg.declare(metadata ptr %ptr.dbg.spill1, metadata !1438, metadata !DIExpression()), !dbg !1444
  call void @llvm.dbg.declare(metadata ptr %ptr.dbg.spill1, metadata !1446, metadata !DIExpression()), !dbg !1450
  %_4 = ptrtoint ptr %ptr to i64, !dbg !1452
  %1 = icmp eq i64 %_4, 0, !dbg !1453
  br i1 %1, label %bb1, label %bb2, !dbg !1453

bb1:                                              ; preds = %start
  store i8 0, ptr %_0, align 1, !dbg !1454
  br label %bb3, !dbg !1454

bb2:                                              ; preds = %start
  %2 = call i64 @llvm.ctpop.i64(i64 %align), !dbg !1425
  store i64 %2, ptr %0, align 8, !dbg !1425
  %_9 = load i64, ptr %0, align 8, !dbg !1425, !noundef !26
  %_8 = trunc i64 %_9 to i32, !dbg !1425
  %3 = icmp eq i32 %_8, 1, !dbg !1455
  br i1 %3, label %bb4, label %bb5, !dbg !1455

bb3:                                              ; preds = %bb4, %bb1
  %4 = load i8, ptr %_0, align 1, !dbg !1456, !range !279, !noundef !26
  %5 = trunc i8 %4 to i1, !dbg !1456
  ret i1 %5, !dbg !1456

bb4:                                              ; preds = %bb2
  %_13 = sub i64 %align, 1, !dbg !1457
  %_12 = and i64 %_4, %_13, !dbg !1458
  %6 = icmp eq i64 %_12, 0, !dbg !1458
  %7 = zext i1 %6 to i8, !dbg !1458
  store i8 %7, ptr %_0, align 1, !dbg !1458
  br label %bb3, !dbg !1454

bb5:                                              ; preds = %bb2
  store ptr @alloc_041983ee8170efdaaf95ba67fd072d26, ptr %pieces.dbg.spill, align 8, !dbg !1459
  %8 = getelementptr inbounds i8, ptr %pieces.dbg.spill, i64 8, !dbg !1459
  store i64 1, ptr %8, align 8, !dbg !1459
  call void @llvm.dbg.declare(metadata ptr %pieces.dbg.spill, metadata !1460, metadata !DIExpression()), !dbg !1533
  store ptr @alloc_041983ee8170efdaaf95ba67fd072d26, ptr %_6, align 8, !dbg !1537
  %9 = getelementptr inbounds i8, ptr %_6, i64 8, !dbg !1537
  store i64 1, ptr %9, align 8, !dbg !1537
  %10 = load ptr, ptr @0, align 8, !dbg !1537, !align !1169, !noundef !26
  %11 = load i64, ptr getelementptr inbounds (i8, ptr @0, i64 8), align 8, !dbg !1537
  %12 = getelementptr inbounds i8, ptr %_6, i64 32, !dbg !1537
  store ptr %10, ptr %12, align 8, !dbg !1537
  %13 = getelementptr inbounds i8, ptr %12, i64 8, !dbg !1537
  store i64 %11, ptr %13, align 8, !dbg !1537
  %14 = getelementptr inbounds i8, ptr %_6, i64 16, !dbg !1537
  store ptr @alloc_513570631223a12912d85da2bec3b15a, ptr %14, align 8, !dbg !1537
  %15 = getelementptr inbounds i8, ptr %14, i64 8, !dbg !1537
  store i64 0, ptr %15, align 8, !dbg !1537
; call core::panicking::panic_fmt
  call void @_ZN4core9panicking9panic_fmt17ha6d62ade15192290E(ptr align 8 %_6, ptr align 8 @alloc_33f991fa5bbac1da9d8a778b0f014caf) #20, !dbg !1538
  unreachable, !dbg !1538
}

; core::intrinsics::is_val_statically_known
; Function Attrs: nounwind uwtable
define zeroext i1 @_ZN4core10intrinsics23is_val_statically_known17h08b9c97700d9f181E(i1 zeroext %_arg) unnamed_addr #3 !dbg !1539 {
start:
  %_arg.dbg.spill = alloca i8, align 1
  %0 = zext i1 %_arg to i8
  store i8 %0, ptr %_arg.dbg.spill, align 1
  call void @llvm.dbg.declare(metadata ptr %_arg.dbg.spill, metadata !1543, metadata !DIExpression()), !dbg !1546
  ret i1 false, !dbg !1547
}

; core::intrinsics::unlikely
; Function Attrs: nounwind uwtable
define internal zeroext i1 @_ZN4core10intrinsics8unlikely17he7c9ebc7a1ad3ea9E(i1 zeroext %b) unnamed_addr #3 !dbg !1548 {
start:
  %b.dbg.spill = alloca i8, align 1
  %0 = zext i1 %b to i8
  store i8 %0, ptr %b.dbg.spill, align 1
  call void @llvm.dbg.declare(metadata ptr %b.dbg.spill, metadata !1550, metadata !DIExpression()), !dbg !1551
  ret i1 %b, !dbg !1552
}

; core::cmp::impls::<impl core::cmp::Ord for usize>::cmp
; Function Attrs: inlinehint uwtable
define internal i8 @"_ZN4core3cmp5impls50_$LT$impl$u20$core..cmp..Ord$u20$for$u20$usize$GT$3cmp17h80d7abee3cce234dE"(ptr align 8 %self, ptr align 8 %other) unnamed_addr #1 !dbg !1553 {
start:
  %other.dbg.spill = alloca ptr, align 8
  %self.dbg.spill = alloca ptr, align 8
  %_0 = alloca i8, align 1
  store ptr %self, ptr %self.dbg.spill, align 8
  call void @llvm.dbg.declare(metadata ptr %self.dbg.spill, metadata !1560, metadata !DIExpression()), !dbg !1562
  store ptr %other, ptr %other.dbg.spill, align 8
  call void @llvm.dbg.declare(metadata ptr %other.dbg.spill, metadata !1561, metadata !DIExpression()), !dbg !1563
  %_4 = load i64, ptr %self, align 8, !dbg !1564, !noundef !26
  %_5 = load i64, ptr %other, align 8, !dbg !1565, !noundef !26
  %_3 = icmp ult i64 %_4, %_5, !dbg !1564
  br i1 %_3, label %bb1, label %bb2, !dbg !1564

bb2:                                              ; preds = %start
  %_6 = icmp eq i64 %_4, %_5, !dbg !1566
  br i1 %_6, label %bb3, label %bb4, !dbg !1566

bb1:                                              ; preds = %start
  store i8 -1, ptr %_0, align 1, !dbg !1567
  br label %bb6, !dbg !1568

bb4:                                              ; preds = %bb2
  store i8 1, ptr %_0, align 1, !dbg !1569
  br label %bb5, !dbg !1570

bb3:                                              ; preds = %bb2
  store i8 0, ptr %_0, align 1, !dbg !1571
  br label %bb5, !dbg !1570

bb5:                                              ; preds = %bb3, %bb4
  br label %bb6, !dbg !1568

bb6:                                              ; preds = %bb1, %bb5
  %0 = load i8, ptr %_0, align 1, !dbg !1572, !range !1573, !noundef !26
  ret i8 %0, !dbg !1572
}

; core::cmp::max_by
; Function Attrs: inlinehint uwtable
define i64 @_ZN4core3cmp6max_by17hd4c950efd71c4fe3E(i64 %0, i64 %1) unnamed_addr #1 personality ptr @rust_eh_personality !dbg !1574 {
start:
  %2 = alloca { ptr, i32, [1 x i32] }, align 8
  %compare.dbg.spill = alloca {}, align 1
  %_9 = alloca i8, align 1
  %_5 = alloca { ptr, ptr }, align 8
  %_4 = alloca i8, align 1
  %_0 = alloca i64, align 8
  %v2 = alloca i64, align 8
  %v1 = alloca i64, align 8
  store i64 %0, ptr %v1, align 8
  store i64 %1, ptr %v2, align 8
  call void @llvm.dbg.declare(metadata ptr %v1, metadata !1579, metadata !DIExpression()), !dbg !1584
  call void @llvm.dbg.declare(metadata ptr %v2, metadata !1580, metadata !DIExpression()), !dbg !1585
  call void @llvm.dbg.declare(metadata ptr %compare.dbg.spill, metadata !1581, metadata !DIExpression()), !dbg !1586
  store i8 1, ptr %_9, align 1, !dbg !1587
  store ptr %v1, ptr %_5, align 8, !dbg !1587
  %3 = getelementptr inbounds i8, ptr %_5, i64 8, !dbg !1587
  store ptr %v2, ptr %3, align 8, !dbg !1587
  %4 = load ptr, ptr %_5, align 8, !dbg !1587, !nonnull !26, !align !1169, !noundef !26
  %5 = getelementptr inbounds i8, ptr %_5, i64 8, !dbg !1587
  %6 = load ptr, ptr %5, align 8, !dbg !1587, !nonnull !26, !align !1169, !noundef !26
; invoke core::ops::function::FnOnce::call_once
  %7 = invoke i8 @_ZN4core3ops8function6FnOnce9call_once17hfcad6d5433eccf48E(ptr align 8 %4, ptr align 8 %6)
          to label %bb1 unwind label %cleanup, !dbg !1587, !range !1573

bb6:                                              ; preds = %cleanup
  br label %bb10, !dbg !1588

cleanup:                                          ; preds = %start
  %8 = landingpad { ptr, i32 }
          cleanup
  %9 = extractvalue { ptr, i32 } %8, 0
  %10 = extractvalue { ptr, i32 } %8, 1
  store ptr %9, ptr %2, align 8
  %11 = getelementptr inbounds i8, ptr %2, i64 8
  store i32 %10, ptr %11, align 8
  br label %bb6

bb1:                                              ; preds = %start
  store i8 %7, ptr %_4, align 1, !dbg !1587
  %_8 = load i8, ptr %_4, align 1, !dbg !1587, !range !1573, !noundef !26
  switch i8 %_8, label %bb2 [
    i8 -1, label %bb4
    i8 0, label %bb4
    i8 1, label %bb3
  ], !dbg !1589

bb2:                                              ; preds = %bb1
  unreachable, !dbg !1587

bb4:                                              ; preds = %bb1, %bb1
  %12 = load i64, ptr %v2, align 8, !dbg !1590, !noundef !26
  store i64 %12, ptr %_0, align 8, !dbg !1590
  %13 = load i8, ptr %_9, align 1, !dbg !1588, !range !279, !noundef !26
  %14 = trunc i8 %13 to i1, !dbg !1588
  br i1 %14, label %bb8, label %bb5, !dbg !1588

bb3:                                              ; preds = %bb1
  store i8 0, ptr %_9, align 1, !dbg !1591
  %15 = load i64, ptr %v1, align 8, !dbg !1591, !noundef !26
  store i64 %15, ptr %_0, align 8, !dbg !1591
  br label %bb5, !dbg !1588

bb5:                                              ; preds = %bb3, %bb8, %bb4
  %16 = load i64, ptr %_0, align 8, !dbg !1592, !noundef !26
  ret i64 %16, !dbg !1592

bb8:                                              ; preds = %bb4
  br label %bb5, !dbg !1588

bb10:                                             ; preds = %bb6
  %17 = load i8, ptr %_9, align 1, !dbg !1588, !range !279, !noundef !26
  %18 = trunc i8 %17 to i1, !dbg !1588
  br i1 %18, label %bb9, label %bb7, !dbg !1588

bb7:                                              ; preds = %bb9, %bb10
  %19 = load ptr, ptr %2, align 8, !dbg !1593, !noundef !26
  %20 = getelementptr inbounds i8, ptr %2, i64 8, !dbg !1593
  %21 = load i32, ptr %20, align 8, !dbg !1593, !noundef !26
  %22 = insertvalue { ptr, i32 } poison, ptr %19, 0, !dbg !1593
  %23 = insertvalue { ptr, i32 } %22, i32 %21, 1, !dbg !1593
  resume { ptr, i32 } %23, !dbg !1593

bb9:                                              ; preds = %bb10
  br label %bb7, !dbg !1588
}

; core::fmt::num::<impl core::fmt::Debug for u8>::fmt
; Function Attrs: inlinehint uwtable
define internal zeroext i1 @"_ZN4core3fmt3num49_$LT$impl$u20$core..fmt..Debug$u20$for$u20$u8$GT$3fmt17hba9e86c6f9239898E"(ptr align 1 %self, ptr align 8 %f) unnamed_addr #1 !dbg !1594 {
start:
  %f.dbg.spill = alloca ptr, align 8
  %self.dbg.spill = alloca ptr, align 8
  %_0 = alloca i8, align 1
  store ptr %self, ptr %self.dbg.spill, align 8
  call void @llvm.dbg.declare(metadata ptr %self.dbg.spill, metadata !1601, metadata !DIExpression()), !dbg !1603
  store ptr %f, ptr %f.dbg.spill, align 8
  call void @llvm.dbg.declare(metadata ptr %f.dbg.spill, metadata !1602, metadata !DIExpression()), !dbg !1604
  call void @llvm.dbg.declare(metadata ptr %f.dbg.spill, metadata !1605, metadata !DIExpression()), !dbg !1613
  call void @llvm.dbg.declare(metadata ptr %f.dbg.spill, metadata !1615, metadata !DIExpression()), !dbg !1620
  %0 = getelementptr inbounds i8, ptr %f, i64 52, !dbg !1622
  %_4 = load i32, ptr %0, align 4, !dbg !1622, !noundef !26
  %_3 = and i32 %_4, 16, !dbg !1622
  %1 = icmp eq i32 %_3, 0, !dbg !1623
  br i1 %1, label %bb2, label %bb1, !dbg !1623

bb2:                                              ; preds = %start
  %2 = getelementptr inbounds i8, ptr %f, i64 52, !dbg !1624
  %_6 = load i32, ptr %2, align 4, !dbg !1624, !noundef !26
  %_5 = and i32 %_6, 32, !dbg !1624
  %3 = icmp eq i32 %_5, 0, !dbg !1625
  br i1 %3, label %bb4, label %bb3, !dbg !1625

bb1:                                              ; preds = %start
; call core::fmt::num::<impl core::fmt::LowerHex for u8>::fmt
  %4 = call zeroext i1 @"_ZN4core3fmt3num52_$LT$impl$u20$core..fmt..LowerHex$u20$for$u20$u8$GT$3fmt17h77b8dff7d9b2fef6E"(ptr align 1 %self, ptr align 8 %f), !dbg !1626
  %5 = zext i1 %4 to i8, !dbg !1626
  store i8 %5, ptr %_0, align 1, !dbg !1626
  br label %bb6, !dbg !1626

bb4:                                              ; preds = %bb2
; call core::fmt::num::imp::<impl core::fmt::Display for u8>::fmt
  %6 = call zeroext i1 @"_ZN4core3fmt3num3imp51_$LT$impl$u20$core..fmt..Display$u20$for$u20$u8$GT$3fmt17hc64a1a25867a8a62E"(ptr align 1 %self, ptr align 8 %f), !dbg !1627
  %7 = zext i1 %6 to i8, !dbg !1627
  store i8 %7, ptr %_0, align 1, !dbg !1627
  br label %bb5, !dbg !1627

bb3:                                              ; preds = %bb2
; call core::fmt::num::<impl core::fmt::UpperHex for u8>::fmt
  %8 = call zeroext i1 @"_ZN4core3fmt3num52_$LT$impl$u20$core..fmt..UpperHex$u20$for$u20$u8$GT$3fmt17he2800ab9254fbf0fE"(ptr align 1 %self, ptr align 8 %f), !dbg !1628
  %9 = zext i1 %8 to i8, !dbg !1628
  store i8 %9, ptr %_0, align 1, !dbg !1628
  br label %bb5, !dbg !1628

bb5:                                              ; preds = %bb3, %bb4
  br label %bb6, !dbg !1629

bb6:                                              ; preds = %bb1, %bb5
  %10 = load i8, ptr %_0, align 1, !dbg !1630, !range !279, !noundef !26
  %11 = trunc i8 %10 to i1, !dbg !1630
  ret i1 %11, !dbg !1630
}

; core::fmt::num::<impl core::fmt::Debug for usize>::fmt
; Function Attrs: inlinehint uwtable
define internal zeroext i1 @"_ZN4core3fmt3num52_$LT$impl$u20$core..fmt..Debug$u20$for$u20$usize$GT$3fmt17h8bde9cac43fa9edaE"(ptr align 8 %self, ptr align 8 %f) unnamed_addr #1 !dbg !1631 {
start:
  %f.dbg.spill = alloca ptr, align 8
  %self.dbg.spill = alloca ptr, align 8
  %_0 = alloca i8, align 1
  store ptr %self, ptr %self.dbg.spill, align 8
  call void @llvm.dbg.declare(metadata ptr %self.dbg.spill, metadata !1636, metadata !DIExpression()), !dbg !1638
  store ptr %f, ptr %f.dbg.spill, align 8
  call void @llvm.dbg.declare(metadata ptr %f.dbg.spill, metadata !1637, metadata !DIExpression()), !dbg !1639
  call void @llvm.dbg.declare(metadata ptr %f.dbg.spill, metadata !1640, metadata !DIExpression()), !dbg !1644
  call void @llvm.dbg.declare(metadata ptr %f.dbg.spill, metadata !1646, metadata !DIExpression()), !dbg !1650
  %0 = getelementptr inbounds i8, ptr %f, i64 52, !dbg !1652
  %_4 = load i32, ptr %0, align 4, !dbg !1652, !noundef !26
  %_3 = and i32 %_4, 16, !dbg !1652
  %1 = icmp eq i32 %_3, 0, !dbg !1653
  br i1 %1, label %bb2, label %bb1, !dbg !1653

bb2:                                              ; preds = %start
  %2 = getelementptr inbounds i8, ptr %f, i64 52, !dbg !1654
  %_6 = load i32, ptr %2, align 4, !dbg !1654, !noundef !26
  %_5 = and i32 %_6, 32, !dbg !1654
  %3 = icmp eq i32 %_5, 0, !dbg !1655
  br i1 %3, label %bb4, label %bb3, !dbg !1655

bb1:                                              ; preds = %start
; call core::fmt::num::<impl core::fmt::LowerHex for usize>::fmt
  %4 = call zeroext i1 @"_ZN4core3fmt3num55_$LT$impl$u20$core..fmt..LowerHex$u20$for$u20$usize$GT$3fmt17h47ab34c38f234db6E"(ptr align 8 %self, ptr align 8 %f), !dbg !1656
  %5 = zext i1 %4 to i8, !dbg !1656
  store i8 %5, ptr %_0, align 1, !dbg !1656
  br label %bb6, !dbg !1656

bb4:                                              ; preds = %bb2
; call core::fmt::num::imp::<impl core::fmt::Display for usize>::fmt
  %6 = call zeroext i1 @"_ZN4core3fmt3num3imp54_$LT$impl$u20$core..fmt..Display$u20$for$u20$usize$GT$3fmt17h5159b867faf653c2E"(ptr align 8 %self, ptr align 8 %f), !dbg !1657
  %7 = zext i1 %6 to i8, !dbg !1657
  store i8 %7, ptr %_0, align 1, !dbg !1657
  br label %bb5, !dbg !1657

bb3:                                              ; preds = %bb2
; call core::fmt::num::<impl core::fmt::UpperHex for usize>::fmt
  %8 = call zeroext i1 @"_ZN4core3fmt3num55_$LT$impl$u20$core..fmt..UpperHex$u20$for$u20$usize$GT$3fmt17h95d968ee1c330b2cE"(ptr align 8 %self, ptr align 8 %f), !dbg !1658
  %9 = zext i1 %8 to i8, !dbg !1658
  store i8 %9, ptr %_0, align 1, !dbg !1658
  br label %bb5, !dbg !1658

bb5:                                              ; preds = %bb3, %bb4
  br label %bb6, !dbg !1659

bb6:                                              ; preds = %bb1, %bb5
  %10 = load i8, ptr %_0, align 1, !dbg !1660, !range !279, !noundef !26
  %11 = trunc i8 %10 to i1, !dbg !1660
  ret i1 %11, !dbg !1660
}

; core::fmt::Arguments::as_const_str
; Function Attrs: inlinehint uwtable
define internal { ptr, i64 } @_ZN4core3fmt9Arguments12as_const_str17h5b75ce61f9888b67E(ptr align 8 %self) unnamed_addr #1 !dbg !1661 {
start:
  %0 = alloca i8, align 1
  %self.dbg.spill2 = alloca ptr, align 8
  %s.dbg.spill = alloca ptr, align 8
  %self.dbg.spill = alloca ptr, align 8
  %_4 = alloca i8, align 1
  %s = alloca %"core::option::Option<&str>", align 8
  %_0 = alloca %"core::option::Option<&str>", align 8
  store ptr %self, ptr %self.dbg.spill, align 8
  call void @llvm.dbg.declare(metadata ptr %self.dbg.spill, metadata !1680, metadata !DIExpression()), !dbg !1683
  call void @llvm.dbg.declare(metadata ptr %self.dbg.spill, metadata !1684, metadata !DIExpression()), !dbg !1692
  call void @llvm.dbg.declare(metadata ptr %s, metadata !1681, metadata !DIExpression()), !dbg !1694
  %_6.0 = load ptr, ptr %self, align 8, !dbg !1695, !nonnull !26, !align !1169, !noundef !26
  %1 = getelementptr inbounds i8, ptr %self, i64 8, !dbg !1695
  %_6.1 = load i64, ptr %1, align 8, !dbg !1695, !noundef !26
  %2 = getelementptr inbounds i8, ptr %self, i64 16, !dbg !1696
  %_7.0 = load ptr, ptr %2, align 8, !dbg !1696, !nonnull !26, !align !1169, !noundef !26
  %3 = getelementptr inbounds i8, ptr %2, i64 8, !dbg !1696
  %_7.1 = load i64, ptr %3, align 8, !dbg !1696, !noundef !26
  %4 = icmp eq i64 %_6.1, 0, !dbg !1697
  br i1 %4, label %bb7, label %bb8, !dbg !1697

bb7:                                              ; preds = %start
  %5 = icmp eq i64 %_7.1, 0, !dbg !1698
  br i1 %5, label %bb10, label %bb6, !dbg !1698

bb8:                                              ; preds = %start
  %6 = icmp eq i64 %_6.1, 1, !dbg !1699
  br i1 %6, label %bb9, label %bb6, !dbg !1699

bb10:                                             ; preds = %bb7
  store ptr @alloc_513570631223a12912d85da2bec3b15a, ptr %s, align 8, !dbg !1700
  %7 = getelementptr inbounds i8, ptr %s, i64 8, !dbg !1700
  store i64 0, ptr %7, align 8, !dbg !1700
  br label %bb5, !dbg !1701

bb6:                                              ; preds = %bb9, %bb8, %bb7
  %8 = load ptr, ptr @0, align 8, !dbg !1702, !align !662, !noundef !26
  %9 = load i64, ptr getelementptr inbounds (i8, ptr @0, i64 8), align 8, !dbg !1702
  store ptr %8, ptr %s, align 8, !dbg !1702
  %10 = getelementptr inbounds i8, ptr %s, i64 8, !dbg !1702
  store i64 %9, ptr %10, align 8, !dbg !1702
  br label %bb5, !dbg !1702

bb5:                                              ; preds = %bb6, %bb11, %bb10
  store ptr %s, ptr %self.dbg.spill2, align 8, !dbg !1703
  call void @llvm.dbg.declare(metadata ptr %self.dbg.spill2, metadata !1704, metadata !DIExpression()), !dbg !1712
  %11 = load ptr, ptr %s, align 8, !dbg !1714, !noundef !26
  %12 = ptrtoint ptr %11 to i64, !dbg !1714
  %13 = icmp eq i64 %12, 0, !dbg !1714
  %_14 = select i1 %13, i64 0, i64 1, !dbg !1714
  %14 = icmp eq i64 %_14, 1, !dbg !1715
  br i1 %14, label %bb14, label %bb13, !dbg !1715

bb9:                                              ; preds = %bb8
  %15 = icmp eq i64 %_7.1, 0, !dbg !1716
  br i1 %15, label %bb11, label %bb6, !dbg !1716

bb11:                                             ; preds = %bb9
  %s1 = getelementptr inbounds [0 x { ptr, i64 }], ptr %_6.0, i64 0, i64 0, !dbg !1717
  store ptr %s1, ptr %s.dbg.spill, align 8, !dbg !1717
  call void @llvm.dbg.declare(metadata ptr %s.dbg.spill, metadata !1689, metadata !DIExpression()), !dbg !1718
  %16 = getelementptr inbounds [0 x { ptr, i64 }], ptr %_6.0, i64 0, i64 0, !dbg !1719
  %_13.0 = load ptr, ptr %16, align 8, !dbg !1719, !nonnull !26, !align !662, !noundef !26
  %17 = getelementptr inbounds i8, ptr %16, i64 8, !dbg !1719
  %_13.1 = load i64, ptr %17, align 8, !dbg !1719, !noundef !26
  store ptr %_13.0, ptr %s, align 8, !dbg !1720
  %18 = getelementptr inbounds i8, ptr %s, i64 8, !dbg !1720
  store i64 %_13.1, ptr %18, align 8, !dbg !1720
  br label %bb5, !dbg !1721

bb14:                                             ; preds = %bb5
  store i8 1, ptr %_4, align 1, !dbg !1715
  br label %bb12, !dbg !1715

bb13:                                             ; preds = %bb5
  store i8 0, ptr %_4, align 1, !dbg !1715
  br label %bb12, !dbg !1715

bb12:                                             ; preds = %bb13, %bb14
  %19 = load i8, ptr %_4, align 1, !dbg !1722, !range !279, !noundef !26
  %20 = trunc i8 %19 to i1, !dbg !1722
  %21 = call i1 @llvm.is.constant.i1(i1 %20), !dbg !1722
  %22 = zext i1 %21 to i8, !dbg !1722
  store i8 %22, ptr %0, align 1, !dbg !1722
  %23 = load i8, ptr %0, align 1, !dbg !1722, !range !279, !noundef !26
  %_3 = trunc i8 %23 to i1, !dbg !1722
  br i1 %_3, label %bb2, label %bb3, !dbg !1722

bb3:                                              ; preds = %bb12
  %24 = load ptr, ptr @0, align 8, !dbg !1723, !align !662, !noundef !26
  %25 = load i64, ptr getelementptr inbounds (i8, ptr @0, i64 8), align 8, !dbg !1723
  store ptr %24, ptr %_0, align 8, !dbg !1723
  %26 = getelementptr inbounds i8, ptr %_0, i64 8, !dbg !1723
  store i64 %25, ptr %26, align 8, !dbg !1723
  br label %bb4, !dbg !1724

bb2:                                              ; preds = %bb12
  %27 = load ptr, ptr %s, align 8, !dbg !1725, !align !662, !noundef !26
  %28 = getelementptr inbounds i8, ptr %s, i64 8, !dbg !1725
  %29 = load i64, ptr %28, align 8, !dbg !1725
  store ptr %27, ptr %_0, align 8, !dbg !1725
  %30 = getelementptr inbounds i8, ptr %_0, i64 8, !dbg !1725
  store i64 %29, ptr %30, align 8, !dbg !1725
  br label %bb4, !dbg !1724

bb4:                                              ; preds = %bb2, %bb3
  %31 = load ptr, ptr %_0, align 8, !dbg !1726, !align !662, !noundef !26
  %32 = getelementptr inbounds i8, ptr %_0, i64 8, !dbg !1726
  %33 = load i64, ptr %32, align 8, !dbg !1726
  %34 = insertvalue { ptr, i64 } poison, ptr %31, 0, !dbg !1726
  %35 = insertvalue { ptr, i64 } %34, i64 %33, 1, !dbg !1726
  ret { ptr, i64 } %35, !dbg !1726

bb15:                                             ; No predecessors!
  unreachable, !dbg !1727
}

; core::fmt::Arguments::new_v1_formatted
; Function Attrs: inlinehint uwtable
define internal void @_ZN4core3fmt9Arguments16new_v1_formatted17h8344316270ad954dE(ptr sret(%"core::fmt::Arguments<'_>") align 8 %_0, ptr align 8 %pieces.0, i64 %pieces.1, ptr align 8 %args.0, i64 %args.1, ptr align 8 %fmt.0, i64 %fmt.1) unnamed_addr #1 !dbg !1728 {
start:
  %_4.dbg.spill = alloca %"core::fmt::rt::UnsafeArg", align 1
  %fmt.dbg.spill = alloca { ptr, i64 }, align 8
  %args.dbg.spill = alloca { ptr, i64 }, align 8
  %pieces.dbg.spill = alloca { ptr, i64 }, align 8
  %_5 = alloca %"core::option::Option<&[core::fmt::rt::Placeholder]>", align 8
  %_unsafe_arg.dbg.spill = alloca %"core::fmt::rt::UnsafeArg", align 1
  call void @llvm.dbg.declare(metadata ptr %_unsafe_arg.dbg.spill, metadata !1739, metadata !DIExpression()), !dbg !1741
  store ptr %pieces.0, ptr %pieces.dbg.spill, align 8, !dbg !1741
  %0 = getelementptr inbounds i8, ptr %pieces.dbg.spill, i64 8, !dbg !1741
  store i64 %pieces.1, ptr %0, align 8, !dbg !1741
  call void @llvm.dbg.declare(metadata ptr %pieces.dbg.spill, metadata !1736, metadata !DIExpression()), !dbg !1742
  store ptr %args.0, ptr %args.dbg.spill, align 8, !dbg !1741
  %1 = getelementptr inbounds i8, ptr %args.dbg.spill, i64 8, !dbg !1741
  store i64 %args.1, ptr %1, align 8, !dbg !1741
  call void @llvm.dbg.declare(metadata ptr %args.dbg.spill, metadata !1737, metadata !DIExpression()), !dbg !1743
  store ptr %fmt.0, ptr %fmt.dbg.spill, align 8, !dbg !1741
  %2 = getelementptr inbounds i8, ptr %fmt.dbg.spill, i64 8, !dbg !1741
  store i64 %fmt.1, ptr %2, align 8, !dbg !1741
  call void @llvm.dbg.declare(metadata ptr %fmt.dbg.spill, metadata !1738, metadata !DIExpression()), !dbg !1744
  call void @llvm.dbg.declare(metadata ptr %_4.dbg.spill, metadata !1740, metadata !DIExpression()), !dbg !1741
  store ptr %fmt.0, ptr %_5, align 8, !dbg !1745
  %3 = getelementptr inbounds i8, ptr %_5, i64 8, !dbg !1745
  store i64 %fmt.1, ptr %3, align 8, !dbg !1745
  store ptr %pieces.0, ptr %_0, align 8, !dbg !1746
  %4 = getelementptr inbounds i8, ptr %_0, i64 8, !dbg !1746
  store i64 %pieces.1, ptr %4, align 8, !dbg !1746
  %5 = load ptr, ptr %_5, align 8, !dbg !1746, !align !1169, !noundef !26
  %6 = getelementptr inbounds i8, ptr %_5, i64 8, !dbg !1746
  %7 = load i64, ptr %6, align 8, !dbg !1746
  %8 = getelementptr inbounds i8, ptr %_0, i64 32, !dbg !1746
  store ptr %5, ptr %8, align 8, !dbg !1746
  %9 = getelementptr inbounds i8, ptr %8, i64 8, !dbg !1746
  store i64 %7, ptr %9, align 8, !dbg !1746
  %10 = getelementptr inbounds i8, ptr %_0, i64 16, !dbg !1746
  store ptr %args.0, ptr %10, align 8, !dbg !1746
  %11 = getelementptr inbounds i8, ptr %10, i64 8, !dbg !1746
  store i64 %args.1, ptr %11, align 8, !dbg !1746
  ret void, !dbg !1747
}

; core::fmt::Arguments::new_v1
; Function Attrs: inlinehint uwtable
define internal void @_ZN4core3fmt9Arguments6new_v117hcb3289d201929ed6E(ptr sret(%"core::fmt::Arguments<'_>") align 8 %_0, ptr align 8 %pieces.0, i64 %pieces.1, ptr align 8 %args.0, i64 %args.1) unnamed_addr #1 !dbg !1748 {
start:
  %pieces.dbg.spill1 = alloca { ptr, i64 }, align 8
  %args.dbg.spill = alloca { ptr, i64 }, align 8
  %pieces.dbg.spill = alloca { ptr, i64 }, align 8
  %_9 = alloca %"core::fmt::Arguments<'_>", align 8
  store ptr %pieces.0, ptr %pieces.dbg.spill, align 8
  %0 = getelementptr inbounds i8, ptr %pieces.dbg.spill, i64 8
  store i64 %pieces.1, ptr %0, align 8
  call void @llvm.dbg.declare(metadata ptr %pieces.dbg.spill, metadata !1753, metadata !DIExpression()), !dbg !1755
  store ptr %args.0, ptr %args.dbg.spill, align 8
  %1 = getelementptr inbounds i8, ptr %args.dbg.spill, i64 8
  store i64 %args.1, ptr %1, align 8
  call void @llvm.dbg.declare(metadata ptr %args.dbg.spill, metadata !1754, metadata !DIExpression()), !dbg !1756
  %_3 = icmp ult i64 %pieces.1, %args.1, !dbg !1757
  br i1 %_3, label %bb3, label %bb1, !dbg !1757

bb1:                                              ; preds = %start
  %_7 = add i64 %args.1, 1, !dbg !1758
  %_6 = icmp ugt i64 %pieces.1, %_7, !dbg !1759
  br i1 %_6, label %bb2, label %bb4, !dbg !1759

bb3:                                              ; preds = %bb2, %start
  store ptr @alloc_af99043bc04c419363a7f04d23183506, ptr %pieces.dbg.spill1, align 8, !dbg !1760
  %2 = getelementptr inbounds i8, ptr %pieces.dbg.spill1, i64 8, !dbg !1760
  store i64 1, ptr %2, align 8, !dbg !1760
  call void @llvm.dbg.declare(metadata ptr %pieces.dbg.spill1, metadata !1761, metadata !DIExpression()), !dbg !1765
  store ptr @alloc_af99043bc04c419363a7f04d23183506, ptr %_9, align 8, !dbg !1768
  %3 = getelementptr inbounds i8, ptr %_9, i64 8, !dbg !1768
  store i64 1, ptr %3, align 8, !dbg !1768
  %4 = load ptr, ptr @0, align 8, !dbg !1768, !align !1169, !noundef !26
  %5 = load i64, ptr getelementptr inbounds (i8, ptr @0, i64 8), align 8, !dbg !1768
  %6 = getelementptr inbounds i8, ptr %_9, i64 32, !dbg !1768
  store ptr %4, ptr %6, align 8, !dbg !1768
  %7 = getelementptr inbounds i8, ptr %6, i64 8, !dbg !1768
  store i64 %5, ptr %7, align 8, !dbg !1768
  %8 = getelementptr inbounds i8, ptr %_9, i64 16, !dbg !1768
  store ptr @alloc_513570631223a12912d85da2bec3b15a, ptr %8, align 8, !dbg !1768
  %9 = getelementptr inbounds i8, ptr %8, i64 8, !dbg !1768
  store i64 0, ptr %9, align 8, !dbg !1768
; call core::panicking::panic_fmt
  call void @_ZN4core9panicking9panic_fmt17ha6d62ade15192290E(ptr align 8 %_9, ptr align 8 @alloc_4ba2c5ddff77a51f3765b0dd5f2851cc) #20, !dbg !1769
  unreachable, !dbg !1769

bb4:                                              ; preds = %bb1
  store ptr %pieces.0, ptr %_0, align 8, !dbg !1770
  %10 = getelementptr inbounds i8, ptr %_0, i64 8, !dbg !1770
  store i64 %pieces.1, ptr %10, align 8, !dbg !1770
  %11 = load ptr, ptr @0, align 8, !dbg !1770, !align !1169, !noundef !26
  %12 = load i64, ptr getelementptr inbounds (i8, ptr @0, i64 8), align 8, !dbg !1770
  %13 = getelementptr inbounds i8, ptr %_0, i64 32, !dbg !1770
  store ptr %11, ptr %13, align 8, !dbg !1770
  %14 = getelementptr inbounds i8, ptr %13, i64 8, !dbg !1770
  store i64 %12, ptr %14, align 8, !dbg !1770
  %15 = getelementptr inbounds i8, ptr %_0, i64 16, !dbg !1770
  store ptr %args.0, ptr %15, align 8, !dbg !1770
  %16 = getelementptr inbounds i8, ptr %15, i64 8, !dbg !1770
  store i64 %args.1, ptr %16, align 8, !dbg !1770
  ret void, !dbg !1771

bb2:                                              ; preds = %bb1
  br label %bb3, !dbg !1772
}

; core::fmt::Arguments::new_const
; Function Attrs: inlinehint uwtable
define internal void @_ZN4core3fmt9Arguments9new_const17h21d8175d0307dd7eE(ptr sret(%"core::fmt::Arguments<'_>") align 8 %_0, ptr align 8 %pieces.0, i64 %pieces.1) unnamed_addr #1 !dbg !1773 {
start:
  %pieces.dbg.spill = alloca { ptr, i64 }, align 8
  %_5 = alloca %"core::fmt::Arguments<'_>", align 8
  store ptr %pieces.0, ptr %pieces.dbg.spill, align 8
  %0 = getelementptr inbounds i8, ptr %pieces.dbg.spill, i64 8
  store i64 %pieces.1, ptr %0, align 8
  call void @llvm.dbg.declare(metadata ptr %pieces.dbg.spill, metadata !1775, metadata !DIExpression()), !dbg !1776
  %_2 = icmp ugt i64 %pieces.1, 1, !dbg !1777
  br i1 %_2, label %bb1, label %bb3, !dbg !1777

bb3:                                              ; preds = %start
  store ptr %pieces.0, ptr %_0, align 8, !dbg !1778
  %1 = getelementptr inbounds i8, ptr %_0, i64 8, !dbg !1778
  store i64 %pieces.1, ptr %1, align 8, !dbg !1778
  %2 = load ptr, ptr @0, align 8, !dbg !1778, !align !1169, !noundef !26
  %3 = load i64, ptr getelementptr inbounds (i8, ptr @0, i64 8), align 8, !dbg !1778
  %4 = getelementptr inbounds i8, ptr %_0, i64 32, !dbg !1778
  store ptr %2, ptr %4, align 8, !dbg !1778
  %5 = getelementptr inbounds i8, ptr %4, i64 8, !dbg !1778
  store i64 %3, ptr %5, align 8, !dbg !1778
  %6 = getelementptr inbounds i8, ptr %_0, i64 16, !dbg !1778
  store ptr @alloc_513570631223a12912d85da2bec3b15a, ptr %6, align 8, !dbg !1778
  %7 = getelementptr inbounds i8, ptr %6, i64 8, !dbg !1778
  store i64 0, ptr %7, align 8, !dbg !1778
  ret void, !dbg !1779

bb1:                                              ; preds = %start
; call core::fmt::Arguments::new_const
  call void @_ZN4core3fmt9Arguments9new_const17h21d8175d0307dd7eE(ptr sret(%"core::fmt::Arguments<'_>") align 8 %_5, ptr align 8 @alloc_af99043bc04c419363a7f04d23183506, i64 1), !dbg !1780
; call core::panicking::panic_fmt
  call void @_ZN4core9panicking9panic_fmt17ha6d62ade15192290E(ptr align 8 %_5, ptr align 8 @alloc_3d28b95801fd55932918b2920be93f48) #20, !dbg !1780
  unreachable, !dbg !1780
}

; core::fmt::Formatter::write_fmt
; Function Attrs: inlinehint uwtable
define internal zeroext i1 @_ZN4core3fmt9Formatter9write_fmt17hac982b22013cdbb7E(ptr align 8 %self, ptr align 8 %fmt) unnamed_addr #1 !dbg !1781 {
start:
  %s.dbg.spill = alloca { ptr, i64 }, align 8
  %self.dbg.spill = alloca ptr, align 8
  %_7 = alloca %"core::fmt::Arguments<'_>", align 8
  %_3 = alloca %"core::option::Option<&str>", align 8
  %_0 = alloca i8, align 1
  store ptr %self, ptr %self.dbg.spill, align 8
  call void @llvm.dbg.declare(metadata ptr %self.dbg.spill, metadata !1786, metadata !DIExpression()), !dbg !1790
  call void @llvm.dbg.declare(metadata ptr %fmt, metadata !1787, metadata !DIExpression()), !dbg !1791
; call core::fmt::Arguments::as_const_str
  %0 = call { ptr, i64 } @_ZN4core3fmt9Arguments12as_const_str17h5b75ce61f9888b67E(ptr align 8 %fmt), !dbg !1792
  %1 = extractvalue { ptr, i64 } %0, 0, !dbg !1792
  %2 = extractvalue { ptr, i64 } %0, 1, !dbg !1792
  store ptr %1, ptr %_3, align 8, !dbg !1792
  %3 = getelementptr inbounds i8, ptr %_3, i64 8, !dbg !1792
  store i64 %2, ptr %3, align 8, !dbg !1792
  %4 = load ptr, ptr %_3, align 8, !dbg !1793, !noundef !26
  %5 = ptrtoint ptr %4 to i64, !dbg !1793
  %6 = icmp eq i64 %5, 0, !dbg !1793
  %_5 = select i1 %6, i64 0, i64 1, !dbg !1793
  %7 = icmp eq i64 %_5, 1, !dbg !1793
  br i1 %7, label %bb2, label %bb3, !dbg !1793

bb2:                                              ; preds = %start
  %s.0 = load ptr, ptr %_3, align 8, !dbg !1794, !nonnull !26, !align !662, !noundef !26
  %8 = getelementptr inbounds i8, ptr %_3, i64 8, !dbg !1794
  %s.1 = load i64, ptr %8, align 8, !dbg !1794, !noundef !26
  store ptr %s.0, ptr %s.dbg.spill, align 8, !dbg !1794
  %9 = getelementptr inbounds i8, ptr %s.dbg.spill, i64 8, !dbg !1794
  store i64 %s.1, ptr %9, align 8, !dbg !1794
  call void @llvm.dbg.declare(metadata ptr %s.dbg.spill, metadata !1788, metadata !DIExpression()), !dbg !1794
  %10 = getelementptr inbounds i8, ptr %self, i64 32, !dbg !1795
  %_8.0 = load ptr, ptr %10, align 8, !dbg !1795, !nonnull !26, !align !662, !noundef !26
  %11 = getelementptr inbounds i8, ptr %10, i64 8, !dbg !1795
  %_8.1 = load ptr, ptr %11, align 8, !dbg !1795, !nonnull !26, !align !1169, !noundef !26
  %12 = getelementptr inbounds ptr, ptr %_8.1, i64 3, !dbg !1795
  %13 = load ptr, ptr %12, align 8, !dbg !1795, !invariant.load !26, !nonnull !26
  %14 = call zeroext i1 %13(ptr align 1 %_8.0, ptr align 1 %s.0, i64 %s.1), !dbg !1795
  %15 = zext i1 %14 to i8, !dbg !1795
  store i8 %15, ptr %_0, align 1, !dbg !1795
  br label %bb5, !dbg !1795

bb3:                                              ; preds = %start
  %16 = getelementptr inbounds i8, ptr %self, i64 32, !dbg !1796
  %_9.0 = load ptr, ptr %16, align 8, !dbg !1796, !nonnull !26, !align !662, !noundef !26
  %17 = getelementptr inbounds i8, ptr %16, i64 8, !dbg !1796
  %_9.1 = load ptr, ptr %17, align 8, !dbg !1796, !nonnull !26, !align !1169, !noundef !26
  call void @llvm.memcpy.p0.p0.i64(ptr align 8 %_7, ptr align 8 %fmt, i64 48, i1 false), !dbg !1797
; call core::fmt::write
  %18 = call zeroext i1 @_ZN4core3fmt5write17hd3417f5223b3b5daE(ptr align 1 %_9.0, ptr align 8 %_9.1, ptr align 8 %_7), !dbg !1798
  %19 = zext i1 %18 to i8, !dbg !1798
  store i8 %19, ptr %_0, align 1, !dbg !1798
  br label %bb5, !dbg !1799

bb5:                                              ; preds = %bb3, %bb2
  %20 = load i8, ptr %_0, align 1, !dbg !1800, !range !279, !noundef !26
  %21 = trunc i8 %20 to i1, !dbg !1800
  ret i1 %21, !dbg !1800

bb6:                                              ; No predecessors!
  unreachable, !dbg !1801
}

; core::num::<impl u32>::to_be_bytes
; Function Attrs: inlinehint uwtable
define internal i32 @"_ZN4core3num21_$LT$impl$u20$u32$GT$11to_be_bytes17h133b0a1ae80cc1c2E"(i32 %self) unnamed_addr #1 !dbg !1802 {
start:
  %self.dbg.spill2 = alloca i32, align 4
  %0 = alloca i32, align 4
  %self.dbg.spill = alloca i32, align 4
  %_0 = alloca [4 x i8], align 1
  store i32 %self, ptr %self.dbg.spill, align 4
  call void @llvm.dbg.declare(metadata ptr %self.dbg.spill, metadata !1810, metadata !DIExpression()), !dbg !1811
  call void @llvm.dbg.declare(metadata ptr %self.dbg.spill, metadata !1812, metadata !DIExpression()), !dbg !1818
  call void @llvm.dbg.declare(metadata ptr %self.dbg.spill, metadata !1820, metadata !DIExpression()), !dbg !1824
  %1 = call i32 @llvm.bswap.i32(i32 %self), !dbg !1826
  store i32 %1, ptr %0, align 4, !dbg !1826
  %self1 = load i32, ptr %0, align 4, !dbg !1826, !noundef !26
  store i32 %self1, ptr %self.dbg.spill2, align 4, !dbg !1826
  call void @llvm.dbg.declare(metadata ptr %self.dbg.spill2, metadata !1827, metadata !DIExpression()), !dbg !1831
  store i32 %self1, ptr %_0, align 1, !dbg !1833
  %2 = load i32, ptr %_0, align 1, !dbg !1834
  ret i32 %2, !dbg !1834
}

; core::num::<impl u64>::to_be_bytes
; Function Attrs: inlinehint uwtable
define internal i64 @"_ZN4core3num21_$LT$impl$u20$u64$GT$11to_be_bytes17h25a1c91fc815f47eE"(i64 %self) unnamed_addr #1 !dbg !1835 {
start:
  %self.dbg.spill2 = alloca i64, align 8
  %0 = alloca i64, align 8
  %self.dbg.spill = alloca i64, align 8
  %_0 = alloca [8 x i8], align 1
  store i64 %self, ptr %self.dbg.spill, align 8
  call void @llvm.dbg.declare(metadata ptr %self.dbg.spill, metadata !1843, metadata !DIExpression()), !dbg !1844
  call void @llvm.dbg.declare(metadata ptr %self.dbg.spill, metadata !1845, metadata !DIExpression()), !dbg !1851
  call void @llvm.dbg.declare(metadata ptr %self.dbg.spill, metadata !1853, metadata !DIExpression()), !dbg !1857
  %1 = call i64 @llvm.bswap.i64(i64 %self), !dbg !1859
  store i64 %1, ptr %0, align 8, !dbg !1859
  %self1 = load i64, ptr %0, align 8, !dbg !1859, !noundef !26
  store i64 %self1, ptr %self.dbg.spill2, align 8, !dbg !1859
  call void @llvm.dbg.declare(metadata ptr %self.dbg.spill2, metadata !1860, metadata !DIExpression()), !dbg !1864
  store i64 %self1, ptr %_0, align 1, !dbg !1866
  %2 = load i64, ptr %_0, align 1, !dbg !1867
  ret i64 %2, !dbg !1867
}

; core::num::<impl u64>::from_be_bytes
; Function Attrs: inlinehint uwtable
define internal i64 @"_ZN4core3num21_$LT$impl$u20$u64$GT$13from_be_bytes17h8eba8c4e8c142104E"(i64 %0) unnamed_addr #1 !dbg !1868 {
start:
  %1 = alloca i64, align 8
  %x.dbg.spill = alloca i64, align 8
  %2 = alloca i64, align 8
  %bytes = alloca [8 x i8], align 1
  store i64 %0, ptr %2, align 8
  call void @llvm.memcpy.p0.p0.i64(ptr align 1 %bytes, ptr align 8 %2, i64 8, i1 false)
  call void @llvm.dbg.declare(metadata ptr %bytes, metadata !1872, metadata !DIExpression()), !dbg !1873
  call void @llvm.dbg.declare(metadata ptr %bytes, metadata !1874, metadata !DIExpression()), !dbg !1878
  %x = load i64, ptr %bytes, align 1, !dbg !1880, !noundef !26
  store i64 %x, ptr %x.dbg.spill, align 8, !dbg !1880
  call void @llvm.dbg.declare(metadata ptr %x.dbg.spill, metadata !1881, metadata !DIExpression()), !dbg !1885
  call void @llvm.dbg.declare(metadata ptr %x.dbg.spill, metadata !1887, metadata !DIExpression()), !dbg !1891
  %3 = call i64 @llvm.bswap.i64(i64 %x), !dbg !1893
  store i64 %3, ptr %1, align 8, !dbg !1893
  %_0 = load i64, ptr %1, align 8, !dbg !1893, !noundef !26
  ret i64 %_0, !dbg !1894
}

; core::num::<impl usize>::checked_add
; Function Attrs: inlinehint uwtable
define internal { i64, i64 } @"_ZN4core3num23_$LT$impl$u20$usize$GT$11checked_add17hba87a6d8bb01b41cE"(i64 %self, i64 %rhs) unnamed_addr #1 !dbg !1895 {
start:
  %0 = alloca i8, align 1
  %a.dbg.spill1 = alloca i64, align 8
  %b.dbg.spill = alloca i8, align 1
  %a.dbg.spill = alloca i64, align 8
  %rhs.dbg.spill = alloca i64, align 8
  %self.dbg.spill = alloca i64, align 8
  %_0 = alloca %"core::option::Option<usize>", align 8
  store i64 %self, ptr %self.dbg.spill, align 8
  call void @llvm.dbg.declare(metadata ptr %self.dbg.spill, metadata !1897, metadata !DIExpression()), !dbg !1902
  call void @llvm.dbg.declare(metadata ptr %self.dbg.spill, metadata !1903, metadata !DIExpression()), !dbg !1911
  store i64 %rhs, ptr %rhs.dbg.spill, align 8
  call void @llvm.dbg.declare(metadata ptr %rhs.dbg.spill, metadata !1898, metadata !DIExpression()), !dbg !1913
  call void @llvm.dbg.declare(metadata ptr %rhs.dbg.spill, metadata !1907, metadata !DIExpression()), !dbg !1914
  %1 = call { i64, i1 } @llvm.uadd.with.overflow.i64(i64 %self, i64 %rhs), !dbg !1915
  %_6.0 = extractvalue { i64, i1 } %1, 0, !dbg !1915
  %_6.1 = extractvalue { i64, i1 } %1, 1, !dbg !1915
  store i64 %_6.0, ptr %a.dbg.spill, align 8, !dbg !1916
  call void @llvm.dbg.declare(metadata ptr %a.dbg.spill, metadata !1908, metadata !DIExpression()), !dbg !1917
  %2 = zext i1 %_6.1 to i8, !dbg !1918
  store i8 %2, ptr %b.dbg.spill, align 1, !dbg !1918
  call void @llvm.dbg.declare(metadata ptr %b.dbg.spill, metadata !1901, metadata !DIExpression()), !dbg !1919
  call void @llvm.dbg.declare(metadata ptr %b.dbg.spill, metadata !1910, metadata !DIExpression()), !dbg !1920
  store i64 %_6.0, ptr %a.dbg.spill1, align 8, !dbg !1921
  call void @llvm.dbg.declare(metadata ptr %a.dbg.spill1, metadata !1899, metadata !DIExpression()), !dbg !1922
  %3 = call i1 @llvm.expect.i1(i1 %_6.1, i1 false), !dbg !1923
  %4 = zext i1 %3 to i8, !dbg !1923
  store i8 %4, ptr %0, align 1, !dbg !1923
  %5 = load i8, ptr %0, align 1, !dbg !1923, !range !279, !noundef !26
  %_3 = trunc i8 %5 to i1, !dbg !1923
  br i1 %_3, label %bb2, label %bb3, !dbg !1923

bb3:                                              ; preds = %start
  %6 = getelementptr inbounds i8, ptr %_0, i64 8, !dbg !1924
  store i64 %_6.0, ptr %6, align 8, !dbg !1924
  store i64 1, ptr %_0, align 8, !dbg !1924
  br label %bb4, !dbg !1925

bb2:                                              ; preds = %start
  %7 = load i64, ptr @0, align 8, !dbg !1926, !range !1927, !noundef !26
  %8 = load i64, ptr getelementptr inbounds (i8, ptr @0, i64 8), align 8, !dbg !1926
  store i64 %7, ptr %_0, align 8, !dbg !1926
  %9 = getelementptr inbounds i8, ptr %_0, i64 8, !dbg !1926
  store i64 %8, ptr %9, align 8, !dbg !1926
  br label %bb4, !dbg !1925

bb4:                                              ; preds = %bb2, %bb3
  %10 = load i64, ptr %_0, align 8, !dbg !1928, !range !1927, !noundef !26
  %11 = getelementptr inbounds i8, ptr %_0, i64 8, !dbg !1928
  %12 = load i64, ptr %11, align 8, !dbg !1928
  %13 = insertvalue { i64, i64 } poison, i64 %10, 0, !dbg !1928
  %14 = insertvalue { i64, i64 } %13, i64 %12, 1, !dbg !1928
  ret { i64, i64 } %14, !dbg !1928
}

; core::num::<impl usize>::checked_mul
; Function Attrs: inlinehint uwtable
define internal { i64, i64 } @"_ZN4core3num23_$LT$impl$u20$usize$GT$11checked_mul17h3b569ac3ac628643E"(i64 %self, i64 %rhs) unnamed_addr #1 !dbg !1929 {
start:
  %0 = alloca i8, align 1
  %a.dbg.spill1 = alloca i64, align 8
  %b.dbg.spill = alloca i8, align 1
  %a.dbg.spill = alloca i64, align 8
  %rhs.dbg.spill = alloca i64, align 8
  %self.dbg.spill = alloca i64, align 8
  %_0 = alloca %"core::option::Option<usize>", align 8
  store i64 %self, ptr %self.dbg.spill, align 8
  call void @llvm.dbg.declare(metadata ptr %self.dbg.spill, metadata !1931, metadata !DIExpression()), !dbg !1936
  call void @llvm.dbg.declare(metadata ptr %self.dbg.spill, metadata !1937, metadata !DIExpression()), !dbg !1945
  store i64 %rhs, ptr %rhs.dbg.spill, align 8
  call void @llvm.dbg.declare(metadata ptr %rhs.dbg.spill, metadata !1932, metadata !DIExpression()), !dbg !1947
  call void @llvm.dbg.declare(metadata ptr %rhs.dbg.spill, metadata !1941, metadata !DIExpression()), !dbg !1948
  %1 = call { i64, i1 } @llvm.umul.with.overflow.i64(i64 %self, i64 %rhs), !dbg !1949
  %_6.0 = extractvalue { i64, i1 } %1, 0, !dbg !1949
  %_6.1 = extractvalue { i64, i1 } %1, 1, !dbg !1949
  store i64 %_6.0, ptr %a.dbg.spill, align 8, !dbg !1950
  call void @llvm.dbg.declare(metadata ptr %a.dbg.spill, metadata !1942, metadata !DIExpression()), !dbg !1951
  %2 = zext i1 %_6.1 to i8, !dbg !1952
  store i8 %2, ptr %b.dbg.spill, align 1, !dbg !1952
  call void @llvm.dbg.declare(metadata ptr %b.dbg.spill, metadata !1935, metadata !DIExpression()), !dbg !1953
  call void @llvm.dbg.declare(metadata ptr %b.dbg.spill, metadata !1944, metadata !DIExpression()), !dbg !1954
  store i64 %_6.0, ptr %a.dbg.spill1, align 8, !dbg !1955
  call void @llvm.dbg.declare(metadata ptr %a.dbg.spill1, metadata !1933, metadata !DIExpression()), !dbg !1956
  %3 = call i1 @llvm.expect.i1(i1 %_6.1, i1 false), !dbg !1957
  %4 = zext i1 %3 to i8, !dbg !1957
  store i8 %4, ptr %0, align 1, !dbg !1957
  %5 = load i8, ptr %0, align 1, !dbg !1957, !range !279, !noundef !26
  %_3 = trunc i8 %5 to i1, !dbg !1957
  br i1 %_3, label %bb2, label %bb3, !dbg !1957

bb3:                                              ; preds = %start
  %6 = getelementptr inbounds i8, ptr %_0, i64 8, !dbg !1958
  store i64 %_6.0, ptr %6, align 8, !dbg !1958
  store i64 1, ptr %_0, align 8, !dbg !1958
  br label %bb4, !dbg !1959

bb2:                                              ; preds = %start
  %7 = load i64, ptr @0, align 8, !dbg !1960, !range !1927, !noundef !26
  %8 = load i64, ptr getelementptr inbounds (i8, ptr @0, i64 8), align 8, !dbg !1960
  store i64 %7, ptr %_0, align 8, !dbg !1960
  %9 = getelementptr inbounds i8, ptr %_0, i64 8, !dbg !1960
  store i64 %8, ptr %9, align 8, !dbg !1960
  br label %bb4, !dbg !1959

bb4:                                              ; preds = %bb2, %bb3
  %10 = load i64, ptr %_0, align 8, !dbg !1961, !range !1927, !noundef !26
  %11 = getelementptr inbounds i8, ptr %_0, i64 8, !dbg !1961
  %12 = load i64, ptr %11, align 8, !dbg !1961
  %13 = insertvalue { i64, i64 } poison, i64 %10, 0, !dbg !1961
  %14 = insertvalue { i64, i64 } %13, i64 %12, 1, !dbg !1961
  ret { i64, i64 } %14, !dbg !1961
}

; core::ops::range::RangeBounds::contains
; Function Attrs: inlinehint uwtable
define zeroext i1 @_ZN4core3ops5range11RangeBounds8contains17h73c184c2922509fbE(ptr align 8 %self, ptr align 8 %0) unnamed_addr #1 !dbg !1962 {
start:
  %other.dbg.spill.i22 = alloca ptr, align 8
  %self.dbg.spill.i23 = alloca ptr, align 8
  %other.dbg.spill.i17 = alloca ptr, align 8
  %self.dbg.spill.i18 = alloca ptr, align 8
  %other.dbg.spill.i12 = alloca ptr, align 8
  %self.dbg.spill.i13 = alloca ptr, align 8
  %other.dbg.spill.i = alloca ptr, align 8
  %self.dbg.spill.i = alloca ptr, align 8
  %other.dbg.spill11 = alloca ptr, align 8
  %self.dbg.spill10 = alloca ptr, align 8
  %end.dbg.spill9 = alloca ptr, align 8
  %other.dbg.spill7 = alloca ptr, align 8
  %self.dbg.spill6 = alloca ptr, align 8
  %end.dbg.spill = alloca ptr, align 8
  %other.dbg.spill5 = alloca ptr, align 8
  %self.dbg.spill4 = alloca ptr, align 8
  %other.dbg.spill = alloca ptr, align 8
  %self.dbg.spill3 = alloca ptr, align 8
  %self.dbg.spill = alloca ptr, align 8
  %_23 = alloca ptr, align 8
  %_19 = alloca ptr, align 8
  %_14 = alloca %"core::ops::range::Bound<&usize>", align 8
  %_13 = alloca ptr, align 8
  %start2 = alloca ptr, align 8
  %_9 = alloca ptr, align 8
  %start1 = alloca ptr, align 8
  %_4 = alloca %"core::ops::range::Bound<&usize>", align 8
  %_3 = alloca i8, align 1
  %_0 = alloca i8, align 1
  %item = alloca ptr, align 8
  store ptr %0, ptr %item, align 8
  store ptr %self, ptr %self.dbg.spill, align 8
  call void @llvm.dbg.declare(metadata ptr %self.dbg.spill, metadata !1967, metadata !DIExpression()), !dbg !1980
  call void @llvm.dbg.declare(metadata ptr %item, metadata !1968, metadata !DIExpression()), !dbg !1981
  call void @llvm.dbg.declare(metadata ptr %start1, metadata !1969, metadata !DIExpression()), !dbg !1982
  call void @llvm.dbg.declare(metadata ptr %start2, metadata !1971, metadata !DIExpression()), !dbg !1983
; call <core::ops::range::RangeInclusive<T> as core::ops::range::RangeBounds<T>>::start_bound
  %1 = call { i64, ptr } @"_ZN100_$LT$core..ops..range..RangeInclusive$LT$T$GT$$u20$as$u20$core..ops..range..RangeBounds$LT$T$GT$$GT$11start_bound17h5d941291100153deE"(ptr align 8 %self), !dbg !1984
  %2 = extractvalue { i64, ptr } %1, 0, !dbg !1984
  %3 = extractvalue { i64, ptr } %1, 1, !dbg !1984
  store i64 %2, ptr %_4, align 8, !dbg !1984
  %4 = getelementptr inbounds i8, ptr %_4, i64 8, !dbg !1984
  store ptr %3, ptr %4, align 8, !dbg !1984
  %_5 = load i64, ptr %_4, align 8, !dbg !1984, !range !273, !noundef !26
  switch i64 %_5, label %bb2 [
    i64 0, label %bb4
    i64 1, label %bb5
    i64 2, label %bb3
  ], !dbg !1985

bb2:                                              ; preds = %bb7, %start
  unreachable, !dbg !1984

bb4:                                              ; preds = %start
  %5 = getelementptr inbounds i8, ptr %_4, i64 8, !dbg !1986
  %6 = load ptr, ptr %5, align 8, !dbg !1986, !nonnull !26, !align !1169, !noundef !26
  store ptr %6, ptr %start1, align 8, !dbg !1986
  store ptr %start1, ptr %self.dbg.spill3, align 8, !dbg !1987
  call void @llvm.dbg.declare(metadata ptr %self.dbg.spill3, metadata !1988, metadata !DIExpression()), !dbg !2002
  %7 = load ptr, ptr %item, align 8, !dbg !2003, !nonnull !26, !align !1169, !noundef !26
  store ptr %7, ptr %_9, align 8, !dbg !2003
  store ptr %_9, ptr %other.dbg.spill, align 8, !dbg !2003
  call void @llvm.dbg.declare(metadata ptr %other.dbg.spill, metadata !1995, metadata !DIExpression()), !dbg !2004
  %_24 = load ptr, ptr %start1, align 8, !dbg !2005, !nonnull !26, !align !1169, !noundef !26
  %_25 = load ptr, ptr %_9, align 8, !dbg !2006, !nonnull !26, !align !1169, !noundef !26
  store ptr %_24, ptr %self.dbg.spill.i13, align 8
  call void @llvm.dbg.declare(metadata ptr %self.dbg.spill.i13, metadata !2007, metadata !DIExpression()), !dbg !2014
  store ptr %_25, ptr %other.dbg.spill.i12, align 8
  call void @llvm.dbg.declare(metadata ptr %other.dbg.spill.i12, metadata !2013, metadata !DIExpression()), !dbg !2016
  %_3.i14 = load i64, ptr %_24, align 8, !dbg !2017, !noundef !26
  %_4.i15 = load i64, ptr %_25, align 8, !dbg !2018, !noundef !26
  %_0.i16 = icmp ule i64 %_3.i14, %_4.i15, !dbg !2017
  %8 = zext i1 %_0.i16 to i8, !dbg !2019
  store i8 %8, ptr %_3, align 1, !dbg !2019
  br label %bb6, !dbg !2020

bb5:                                              ; preds = %start
  %9 = getelementptr inbounds i8, ptr %_4, i64 8, !dbg !2021
  %10 = load ptr, ptr %9, align 8, !dbg !2021, !nonnull !26, !align !1169, !noundef !26
  store ptr %10, ptr %start2, align 8, !dbg !2021
  store ptr %start2, ptr %self.dbg.spill4, align 8, !dbg !2022
  call void @llvm.dbg.declare(metadata ptr %self.dbg.spill4, metadata !2023, metadata !DIExpression()), !dbg !2031
  %11 = load ptr, ptr %item, align 8, !dbg !2032, !nonnull !26, !align !1169, !noundef !26
  store ptr %11, ptr %_13, align 8, !dbg !2032
  store ptr %_13, ptr %other.dbg.spill5, align 8, !dbg !2032
  call void @llvm.dbg.declare(metadata ptr %other.dbg.spill5, metadata !2027, metadata !DIExpression()), !dbg !2033
  %_26 = load ptr, ptr %start2, align 8, !dbg !2034, !nonnull !26, !align !1169, !noundef !26
  %_27 = load ptr, ptr %_13, align 8, !dbg !2035, !nonnull !26, !align !1169, !noundef !26
  store ptr %_26, ptr %self.dbg.spill.i23, align 8
  call void @llvm.dbg.declare(metadata ptr %self.dbg.spill.i23, metadata !2036, metadata !DIExpression()), !dbg !2040
  store ptr %_27, ptr %other.dbg.spill.i22, align 8
  call void @llvm.dbg.declare(metadata ptr %other.dbg.spill.i22, metadata !2039, metadata !DIExpression()), !dbg !2042
  %_3.i24 = load i64, ptr %_26, align 8, !dbg !2043, !noundef !26
  %_4.i25 = load i64, ptr %_27, align 8, !dbg !2044, !noundef !26
  %_0.i26 = icmp ult i64 %_3.i24, %_4.i25, !dbg !2043
  %12 = zext i1 %_0.i26 to i8, !dbg !2045
  store i8 %12, ptr %_3, align 1, !dbg !2045
  br label %bb6, !dbg !2046

bb3:                                              ; preds = %start
  br label %bb7, !dbg !2047

bb6:                                              ; preds = %bb5, %bb4
  %13 = load i8, ptr %_3, align 1, !dbg !1985, !range !279, !noundef !26
  %14 = trunc i8 %13 to i1, !dbg !1985
  br i1 %14, label %bb7, label %bb8, !dbg !1985

bb8:                                              ; preds = %bb6
  store i8 0, ptr %_0, align 1, !dbg !1985
  br label %bb14, !dbg !1985

bb7:                                              ; preds = %bb3, %bb6
; call <core::ops::range::RangeInclusive<T> as core::ops::range::RangeBounds<T>>::end_bound
  %15 = call { i64, ptr } @"_ZN100_$LT$core..ops..range..RangeInclusive$LT$T$GT$$u20$as$u20$core..ops..range..RangeBounds$LT$T$GT$$GT$9end_bound17h9485b721ae87480bE"(ptr align 8 %self), !dbg !2048
  %16 = extractvalue { i64, ptr } %15, 0, !dbg !2048
  %17 = extractvalue { i64, ptr } %15, 1, !dbg !2048
  store i64 %16, ptr %_14, align 8, !dbg !2048
  %18 = getelementptr inbounds i8, ptr %_14, i64 8, !dbg !2048
  store ptr %17, ptr %18, align 8, !dbg !2048
  %_15 = load i64, ptr %_14, align 8, !dbg !2048, !range !273, !noundef !26
  switch i64 %_15, label %bb2 [
    i64 0, label %bb11
    i64 1, label %bb12
    i64 2, label %bb10
  ], !dbg !2049

bb14:                                             ; preds = %bb13, %bb8
  %19 = load i8, ptr %_0, align 1, !dbg !2050, !range !279, !noundef !26
  %20 = trunc i8 %19 to i1, !dbg !2050
  ret i1 %20, !dbg !2050

bb11:                                             ; preds = %bb7
  %21 = getelementptr inbounds i8, ptr %_14, i64 8, !dbg !2051
  %end = load ptr, ptr %21, align 8, !dbg !2051, !nonnull !26, !align !1169, !noundef !26
  store ptr %end, ptr %end.dbg.spill, align 8, !dbg !2051
  call void @llvm.dbg.declare(metadata ptr %end.dbg.spill, metadata !1973, metadata !DIExpression()), !dbg !2052
  store ptr %item, ptr %self.dbg.spill6, align 8, !dbg !2053
  call void @llvm.dbg.declare(metadata ptr %self.dbg.spill6, metadata !1996, metadata !DIExpression()), !dbg !2054
  store ptr %end, ptr %_19, align 8, !dbg !2055
  store ptr %_19, ptr %other.dbg.spill7, align 8, !dbg !2055
  call void @llvm.dbg.declare(metadata ptr %other.dbg.spill7, metadata !1998, metadata !DIExpression()), !dbg !2056
  %_28 = load ptr, ptr %item, align 8, !dbg !2057, !nonnull !26, !align !1169, !noundef !26
  %_29 = load ptr, ptr %_19, align 8, !dbg !2058, !nonnull !26, !align !1169, !noundef !26
  store ptr %_28, ptr %self.dbg.spill.i, align 8
  call void @llvm.dbg.declare(metadata ptr %self.dbg.spill.i, metadata !2007, metadata !DIExpression()), !dbg !2059
  store ptr %_29, ptr %other.dbg.spill.i, align 8
  call void @llvm.dbg.declare(metadata ptr %other.dbg.spill.i, metadata !2013, metadata !DIExpression()), !dbg !2061
  %_3.i = load i64, ptr %_28, align 8, !dbg !2062, !noundef !26
  %_4.i = load i64, ptr %_29, align 8, !dbg !2063, !noundef !26
  %_0.i = icmp ule i64 %_3.i, %_4.i, !dbg !2062
  %22 = zext i1 %_0.i to i8, !dbg !2064
  store i8 %22, ptr %_0, align 1, !dbg !2064
  br label %bb13, !dbg !2065

bb12:                                             ; preds = %bb7
  %23 = getelementptr inbounds i8, ptr %_14, i64 8, !dbg !2066
  %end8 = load ptr, ptr %23, align 8, !dbg !2066, !nonnull !26, !align !1169, !noundef !26
  store ptr %end8, ptr %end.dbg.spill9, align 8, !dbg !2066
  call void @llvm.dbg.declare(metadata ptr %end.dbg.spill9, metadata !1975, metadata !DIExpression()), !dbg !2067
  store ptr %item, ptr %self.dbg.spill10, align 8, !dbg !2068
  call void @llvm.dbg.declare(metadata ptr %self.dbg.spill10, metadata !2028, metadata !DIExpression()), !dbg !2069
  store ptr %end8, ptr %_23, align 8, !dbg !2070
  store ptr %_23, ptr %other.dbg.spill11, align 8, !dbg !2070
  call void @llvm.dbg.declare(metadata ptr %other.dbg.spill11, metadata !2030, metadata !DIExpression()), !dbg !2071
  %_30 = load ptr, ptr %item, align 8, !dbg !2072, !nonnull !26, !align !1169, !noundef !26
  %_31 = load ptr, ptr %_23, align 8, !dbg !2073, !nonnull !26, !align !1169, !noundef !26
  store ptr %_30, ptr %self.dbg.spill.i18, align 8
  call void @llvm.dbg.declare(metadata ptr %self.dbg.spill.i18, metadata !2036, metadata !DIExpression()), !dbg !2074
  store ptr %_31, ptr %other.dbg.spill.i17, align 8
  call void @llvm.dbg.declare(metadata ptr %other.dbg.spill.i17, metadata !2039, metadata !DIExpression()), !dbg !2076
  %_3.i19 = load i64, ptr %_30, align 8, !dbg !2077, !noundef !26
  %_4.i20 = load i64, ptr %_31, align 8, !dbg !2078, !noundef !26
  %_0.i21 = icmp ult i64 %_3.i19, %_4.i20, !dbg !2077
  %24 = zext i1 %_0.i21 to i8, !dbg !2079
  store i8 %24, ptr %_0, align 1, !dbg !2079
  br label %bb13, !dbg !2080

bb10:                                             ; preds = %bb7
  store i8 1, ptr %_0, align 1, !dbg !2081
  br label %bb13, !dbg !2081

bb13:                                             ; preds = %bb10, %bb12, %bb11
  br label %bb14, !dbg !1985
}

; core::ops::range::RangeInclusive<Idx>::contains
; Function Attrs: inlinehint uwtable
define zeroext i1 @"_ZN4core3ops5range25RangeInclusive$LT$Idx$GT$8contains17ha2cefeccd0f45919E"(ptr align 8 %self, ptr align 8 %item) unnamed_addr #1 !dbg !2082 {
start:
  %item.dbg.spill = alloca ptr, align 8
  %self.dbg.spill = alloca ptr, align 8
  store ptr %self, ptr %self.dbg.spill, align 8
  call void @llvm.dbg.declare(metadata ptr %self.dbg.spill, metadata !2086, metadata !DIExpression()), !dbg !2088
  store ptr %item, ptr %item.dbg.spill, align 8
  call void @llvm.dbg.declare(metadata ptr %item.dbg.spill, metadata !2087, metadata !DIExpression()), !dbg !2089
; call core::ops::range::RangeBounds::contains
  %_0 = call zeroext i1 @_ZN4core3ops5range11RangeBounds8contains17h73c184c2922509fbE(ptr align 8 %self, ptr align 8 %item), !dbg !2090
  ret i1 %_0, !dbg !2091
}

; core::ops::function::FnOnce::call_once
; Function Attrs: inlinehint uwtable
define internal i8 @_ZN4core3ops8function6FnOnce9call_once17hfcad6d5433eccf48E(ptr align 8 %0, ptr align 8 %1) unnamed_addr #1 !dbg !2092 {
start:
  %_1.dbg.spill = alloca {}, align 1
  %_2 = alloca { ptr, ptr }, align 8
  store ptr %0, ptr %_2, align 8
  %2 = getelementptr inbounds i8, ptr %_2, i64 8
  store ptr %1, ptr %2, align 8
  call void @llvm.dbg.declare(metadata ptr %_1.dbg.spill, metadata !2099, metadata !DIExpression()), !dbg !2108
  call void @llvm.dbg.declare(metadata ptr %_2, metadata !2100, metadata !DIExpression()), !dbg !2108
  %3 = load ptr, ptr %_2, align 8, !dbg !2108, !nonnull !26, !align !1169, !noundef !26
  %4 = getelementptr inbounds i8, ptr %_2, i64 8, !dbg !2108
  %5 = load ptr, ptr %4, align 8, !dbg !2108, !nonnull !26, !align !1169, !noundef !26
; call core::cmp::impls::<impl core::cmp::Ord for usize>::cmp
  %_0 = call i8 @"_ZN4core3cmp5impls50_$LT$impl$u20$core..cmp..Ord$u20$for$u20$usize$GT$3cmp17h80d7abee3cce234dE"(ptr align 8 %3, ptr align 8 %5), !dbg !2108, !range !1573
  ret i8 %_0, !dbg !2108
}

; core::ptr::read_volatile::precondition_check
; Function Attrs: inlinehint nounwind uwtable
define internal void @_ZN4core3ptr13read_volatile18precondition_check17h6e144a0724ebdc65E(ptr %addr, i64 %align) unnamed_addr #2 personality ptr @rust_eh_personality !dbg !2109 {
start:
  %align.dbg.spill = alloca i64, align 8
  %addr.dbg.spill = alloca ptr, align 8
  store ptr %addr, ptr %addr.dbg.spill, align 8
  call void @llvm.dbg.declare(metadata ptr %addr.dbg.spill, metadata !2112, metadata !DIExpression()), !dbg !2114
  store i64 %align, ptr %align.dbg.spill, align 8
  call void @llvm.dbg.declare(metadata ptr %align.dbg.spill, metadata !2113, metadata !DIExpression()), !dbg !2114
; invoke core::intrinsics::is_aligned_and_not_null
  %_3 = invoke zeroext i1 @_ZN4core10intrinsics23is_aligned_and_not_null17h7eaf322197e26745E(ptr %addr, i64 %align)
          to label %bb1 unwind label %terminate, !dbg !2115

terminate:                                        ; preds = %start
  %0 = landingpad { ptr, i32 }
          filter [0 x ptr] zeroinitializer
  %1 = extractvalue { ptr, i32 } %0, 0
  %2 = extractvalue { ptr, i32 } %0, 1
; call core::panicking::panic_cannot_unwind
  call void @_ZN4core9panicking19panic_cannot_unwind17h3626040c0976c0c3E() #22, !dbg !2117
  unreachable, !dbg !2117

bb1:                                              ; preds = %start
  br i1 %_3, label %bb2, label %bb3, !dbg !2115

bb3:                                              ; preds = %bb1
; call core::panicking::panic_nounwind
  call void @_ZN4core9panicking14panic_nounwind17h50c31e15afde233eE(ptr align 1 @alloc_d4d2a2a8539eafc62756407d946babb3, i64 110) #19, !dbg !2118
  unreachable, !dbg !2118

bb2:                                              ; preds = %bb1
  ret void, !dbg !2119
}

; core::ptr::drop_in_place<usize>
; Function Attrs: inlinehint uwtable
define internal void @"_ZN4core3ptr26drop_in_place$LT$usize$GT$17he37d690ca782b13fE"(ptr align 8 %_1) unnamed_addr #1 !dbg !2120 {
start:
  %_1.dbg.spill = alloca ptr, align 8
  store ptr %_1, ptr %_1.dbg.spill, align 8
  call void @llvm.dbg.declare(metadata ptr %_1.dbg.spill, metadata !2125, metadata !DIExpression()), !dbg !2126
  ret void, !dbg !2126
}

; core::ptr::drop_in_place<&u8>
; Function Attrs: inlinehint uwtable
define internal void @"_ZN4core3ptr27drop_in_place$LT$$RF$u8$GT$17hc339d119e0ed31b4E"(ptr align 8 %_1) unnamed_addr #1 !dbg !2127 {
start:
  %_1.dbg.spill = alloca ptr, align 8
  store ptr %_1, ptr %_1.dbg.spill, align 8
  call void @llvm.dbg.declare(metadata ptr %_1.dbg.spill, metadata !2132, metadata !DIExpression()), !dbg !2133
  ret void, !dbg !2133
}

; core::ptr::drop_in_place<&usize>
; Function Attrs: inlinehint uwtable
define internal void @"_ZN4core3ptr30drop_in_place$LT$$RF$usize$GT$17h0972e0ad45c7fa2eE"(ptr align 8 %_1) unnamed_addr #1 !dbg !2134 {
start:
  %_1.dbg.spill = alloca ptr, align 8
  store ptr %_1, ptr %_1.dbg.spill, align 8
  call void @llvm.dbg.declare(metadata ptr %_1.dbg.spill, metadata !2139, metadata !DIExpression()), !dbg !2140
  ret void, !dbg !2140
}

; core::ptr::drop_in_place<&()>
; Function Attrs: inlinehint uwtable
define internal void @"_ZN4core3ptr33drop_in_place$LT$$RF$$LP$$RP$$GT$17h9096d79bbe735b43E"(ptr align 8 %_1) unnamed_addr #1 !dbg !2141 {
start:
  %_1.dbg.spill = alloca ptr, align 8
  store ptr %_1, ptr %_1.dbg.spill, align 8
  call void @llvm.dbg.declare(metadata ptr %_1.dbg.spill, metadata !2146, metadata !DIExpression()), !dbg !2149
  ret void, !dbg !2149
}

; core::ptr::drop_in_place<base64::decode::DecodeError>
; Function Attrs: inlinehint uwtable
define internal void @"_ZN4core3ptr48drop_in_place$LT$base64..decode..DecodeError$GT$17h66454f38c18f99aeE"(ptr align 8 %_1) unnamed_addr #1 !dbg !2150 {
start:
  %_1.dbg.spill = alloca ptr, align 8
  store ptr %_1, ptr %_1.dbg.spill, align 8
  call void @llvm.dbg.declare(metadata ptr %_1.dbg.spill, metadata !2155, metadata !DIExpression()), !dbg !2156
  ret void, !dbg !2156
}

; core::ptr::drop_in_place<core::str::error::Utf8Error>
; Function Attrs: inlinehint uwtable
define internal void @"_ZN4core3ptr48drop_in_place$LT$core..str..error..Utf8Error$GT$17h25f574cb7461411dE"(ptr align 8 %_1) unnamed_addr #1 !dbg !2157 {
start:
  %_1.dbg.spill = alloca ptr, align 8
  store ptr %_1, ptr %_1.dbg.spill, align 8
  call void @llvm.dbg.declare(metadata ptr %_1.dbg.spill, metadata !2162, metadata !DIExpression()), !dbg !2165
  ret void, !dbg !2165
}

; core::ptr::drop_in_place<core::array::TryFromSliceError>
; Function Attrs: inlinehint uwtable
define internal void @"_ZN4core3ptr51drop_in_place$LT$core..array..TryFromSliceError$GT$17heb0b410bf14c44b8E"(ptr align 1 %_1) unnamed_addr #1 !dbg !2166 {
start:
  %_1.dbg.spill = alloca ptr, align 8
  store ptr %_1, ptr %_1.dbg.spill, align 8
  call void @llvm.dbg.declare(metadata ptr %_1.dbg.spill, metadata !2171, metadata !DIExpression()), !dbg !2174
  ret void, !dbg !2174
}

; core::ptr::drop_in_place<&core::option::Option<u8>>
; Function Attrs: inlinehint uwtable
define internal void @"_ZN4core3ptr55drop_in_place$LT$$RF$core..option..Option$LT$u8$GT$$GT$17he08ca46739c455fbE"(ptr align 8 %_1) unnamed_addr #1 !dbg !2175 {
start:
  %_1.dbg.spill = alloca ptr, align 8
  store ptr %_1, ptr %_1.dbg.spill, align 8
  call void @llvm.dbg.declare(metadata ptr %_1.dbg.spill, metadata !2180, metadata !DIExpression()), !dbg !2183
  ret void, !dbg !2183
}

; core::ptr::non_null::NonNull<T>::new_unchecked::precondition_check
; Function Attrs: inlinehint nounwind uwtable
define internal void @"_ZN4core3ptr8non_null16NonNull$LT$T$GT$13new_unchecked18precondition_check17h19eb405a4b2205dbE"(ptr %ptr) unnamed_addr #2 !dbg !2184 {
start:
  %ptr.dbg.spill1 = alloca ptr, align 8
  %ptr.dbg.spill = alloca ptr, align 8
  store ptr %ptr, ptr %ptr.dbg.spill, align 8
  call void @llvm.dbg.declare(metadata ptr %ptr.dbg.spill, metadata !2190, metadata !DIExpression()), !dbg !2191
  call void @llvm.dbg.declare(metadata ptr %ptr.dbg.spill, metadata !2192, metadata !DIExpression()), !dbg !2198
  store ptr %ptr, ptr %ptr.dbg.spill1, align 8, !dbg !2201
  call void @llvm.dbg.declare(metadata ptr %ptr.dbg.spill1, metadata !2202, metadata !DIExpression()), !dbg !2209
  call void @llvm.dbg.declare(metadata ptr %ptr.dbg.spill1, metadata !2211, metadata !DIExpression()), !dbg !2217
  call void @llvm.dbg.declare(metadata ptr %ptr.dbg.spill1, metadata !2219, metadata !DIExpression()), !dbg !2223
  %_4 = ptrtoint ptr %ptr to i64, !dbg !2225
  %0 = icmp eq i64 %_4, 0, !dbg !2226
  br i1 %0, label %bb1, label %bb2, !dbg !2226

bb1:                                              ; preds = %start
; call core::panicking::panic_nounwind
  call void @_ZN4core9panicking14panic_nounwind17h50c31e15afde233eE(ptr align 1 @alloc_20b3d155afd5c58c42e598b7e6d186ef, i64 93) #19, !dbg !2227
  unreachable, !dbg !2227

bb2:                                              ; preds = %start
  ret void, !dbg !2228
}

; core::ptr::const_ptr::<impl *const T>::sub_ptr
; Function Attrs: inlinehint uwtable
define i64 @"_ZN4core3ptr9const_ptr33_$LT$impl$u20$$BP$const$u20$T$GT$7sub_ptr17h946caa1ded3a8b07E"(ptr %self, ptr %origin) unnamed_addr #1 !dbg !2229 {
start:
  %0 = alloca i64, align 8
  %pointee_size.dbg.spill = alloca i64, align 8
  %origin.dbg.spill = alloca ptr, align 8
  %self.dbg.spill = alloca ptr, align 8
  store ptr %self, ptr %self.dbg.spill, align 8
  call void @llvm.dbg.declare(metadata ptr %self.dbg.spill, metadata !2233, metadata !DIExpression()), !dbg !2237
  store ptr %origin, ptr %origin.dbg.spill, align 8
  call void @llvm.dbg.declare(metadata ptr %origin.dbg.spill, metadata !2234, metadata !DIExpression()), !dbg !2238
  br label %bb1, !dbg !2239

bb1:                                              ; preds = %start
; call core::ptr::const_ptr::<impl *const T>::sub_ptr::precondition_check
  call void @"_ZN4core3ptr9const_ptr33_$LT$impl$u20$$BP$const$u20$T$GT$7sub_ptr18precondition_check17h8e5665176a48332bE"(ptr %self, ptr %origin) #21, !dbg !2239
  br label %bb2, !dbg !2239

bb2:                                              ; preds = %bb1
  store i64 1, ptr %pointee_size.dbg.spill, align 8, !dbg !2240
  call void @llvm.dbg.declare(metadata ptr %pointee_size.dbg.spill, metadata !2235, metadata !DIExpression()), !dbg !2248
  br label %bb3, !dbg !2249

bb3:                                              ; preds = %bb2
  br label %bb4, !dbg !2250

bb4:                                              ; preds = %bb3
  %1 = ptrtoint ptr %self to i64, !dbg !2251
  %2 = ptrtoint ptr %origin to i64, !dbg !2251
  %3 = sub nuw i64 %1, %2, !dbg !2251
  %4 = udiv exact i64 %3, 1, !dbg !2251
  store i64 %4, ptr %0, align 8, !dbg !2251
  %_0 = load i64, ptr %0, align 8, !dbg !2251, !noundef !26
  ret i64 %_0, !dbg !2252

bb5:                                              ; No predecessors!
; call core::panicking::panic
  call void @_ZN4core9panicking5panic17h5884aad3a9044857E(ptr align 1 @alloc_ec595fc0e82ef92fc59bd74f68296eae, i64 73, ptr align 8 @alloc_4e3a3aaf48410eaea90c90938dabe76a) #20, !dbg !2253
  unreachable, !dbg !2253
}

; core::ptr::const_ptr::<impl *const T>::sub_ptr::precondition_check
; Function Attrs: inlinehint nounwind uwtable
define internal void @"_ZN4core3ptr9const_ptr33_$LT$impl$u20$$BP$const$u20$T$GT$7sub_ptr18precondition_check17h8e5665176a48332bE"(ptr %this, ptr %origin) unnamed_addr #2 !dbg !2254 {
start:
  %origin.dbg.spill = alloca ptr, align 8
  %this.dbg.spill = alloca ptr, align 8
  store ptr %this, ptr %this.dbg.spill, align 8
  call void @llvm.dbg.declare(metadata ptr %this.dbg.spill, metadata !2259, metadata !DIExpression()), !dbg !2261
  store ptr %origin, ptr %origin.dbg.spill, align 8
  call void @llvm.dbg.declare(metadata ptr %origin.dbg.spill, metadata !2260, metadata !DIExpression()), !dbg !2261
  %_3 = icmp uge ptr %this, %origin, !dbg !2262
  br i1 %_3, label %bb1, label %bb2, !dbg !2262

bb2:                                              ; preds = %start
; call core::panicking::panic_nounwind
  call void @_ZN4core9panicking14panic_nounwind17h50c31e15afde233eE(ptr align 1 @alloc_7efb3a7632b3620f628ce83a521b4d9b, i64 71) #19, !dbg !2264
  unreachable, !dbg !2264

bb1:                                              ; preds = %start
  ret void, !dbg !2265
}

; core::hint::assert_unchecked::precondition_check
; Function Attrs: inlinehint nounwind uwtable
define internal void @_ZN4core4hint16assert_unchecked18precondition_check17ha25e8e0daa42326bE(i1 zeroext %cond) unnamed_addr #2 !dbg !2266 {
start:
  %cond.dbg.spill = alloca i8, align 1
  %0 = zext i1 %cond to i8
  store i8 %0, ptr %cond.dbg.spill, align 1
  call void @llvm.dbg.declare(metadata ptr %cond.dbg.spill, metadata !2272, metadata !DIExpression()), !dbg !2273
  br i1 %cond, label %bb2, label %bb1, !dbg !2274

bb1:                                              ; preds = %start
; call core::panicking::panic_nounwind
  call void @_ZN4core9panicking14panic_nounwind17h50c31e15afde233eE(ptr align 1 @alloc_ab14703751a9eb3585c49b2e55e9a9e5, i64 104) #19, !dbg !2277
  unreachable, !dbg !2277

bb2:                                              ; preds = %start
  ret void, !dbg !2278
}

; core::iter::range::<impl core::iter::traits::iterator::Iterator for core::ops::range::Range<A>>::next
; Function Attrs: inlinehint uwtable
define { i64, i64 } @"_ZN4core4iter5range101_$LT$impl$u20$core..iter..traits..iterator..Iterator$u20$for$u20$core..ops..range..Range$LT$A$GT$$GT$4next17h8c535e71c6f14647E"(ptr align 8 %self) unnamed_addr #1 !dbg !2279 {
start:
  %self.dbg.spill = alloca ptr, align 8
  store ptr %self, ptr %self.dbg.spill, align 8
  call void @llvm.dbg.declare(metadata ptr %self.dbg.spill, metadata !2285, metadata !DIExpression()), !dbg !2287
; call <core::ops::range::Range<T> as core::iter::range::RangeIteratorImpl>::spec_next
  %0 = call { i64, i64 } @"_ZN89_$LT$core..ops..range..Range$LT$T$GT$$u20$as$u20$core..iter..range..RangeIteratorImpl$GT$9spec_next17hba2bd7cd8fefd577E"(ptr align 8 %self), !dbg !2288
  %_0.0 = extractvalue { i64, i64 } %0, 0, !dbg !2288
  %_0.1 = extractvalue { i64, i64 } %0, 1, !dbg !2288
  %1 = insertvalue { i64, i64 } poison, i64 %_0.0, 0, !dbg !2289
  %2 = insertvalue { i64, i64 } %1, i64 %_0.1, 1, !dbg !2289
  ret { i64, i64 } %2, !dbg !2289
}

; core::iter::traits::iterator::Iterator::enumerate
; Function Attrs: inlinehint uwtable
define void @_ZN4core4iter6traits8iterator8Iterator9enumerate17h4b4b0bd29b0b6013E(ptr sret(%"core::iter::adapters::enumerate::Enumerate<core::slice::iter::ChunksExact<'_, u8>>") align 8 %_0, ptr align 8 %self) unnamed_addr #1 !dbg !2290 {
start:
  call void @llvm.dbg.declare(metadata ptr %self, metadata !2298, metadata !DIExpression()), !dbg !2301
  call void @llvm.dbg.declare(metadata ptr %self, metadata !2302, metadata !DIExpression()), !dbg !2307
  call void @llvm.memcpy.p0.p0.i64(ptr align 8 %_0, ptr align 8 %self, i64 40, i1 false), !dbg !2309
  %0 = getelementptr inbounds i8, ptr %_0, i64 40, !dbg !2309
  store i64 0, ptr %0, align 8, !dbg !2309
  ret void, !dbg !2310
}

; core::iter::traits::iterator::Iterator::enumerate
; Function Attrs: inlinehint uwtable
define void @_ZN4core4iter6traits8iterator8Iterator9enumerate17hd482ee60eb437d71E(ptr sret(%"core::iter::adapters::enumerate::Enumerate<core::slice::iter::Iter<'_, u8>>") align 8 %_0, ptr %self.0, ptr %self.1) unnamed_addr #1 !dbg !2311 {
start:
  %self.dbg.spill = alloca %"core::slice::iter::Iter<'_, u8>", align 8
  store ptr %self.0, ptr %self.dbg.spill, align 8
  %0 = getelementptr inbounds i8, ptr %self.dbg.spill, i64 8
  store ptr %self.1, ptr %0, align 8
  call void @llvm.dbg.declare(metadata ptr %self.dbg.spill, metadata !2315, metadata !DIExpression()), !dbg !2318
  call void @llvm.dbg.declare(metadata ptr %self.dbg.spill, metadata !2319, metadata !DIExpression()), !dbg !2324
  store ptr %self.0, ptr %_0, align 8, !dbg !2326
  %1 = getelementptr inbounds i8, ptr %_0, i64 8, !dbg !2326
  store ptr %self.1, ptr %1, align 8, !dbg !2326
  %2 = getelementptr inbounds i8, ptr %_0, i64 16, !dbg !2326
  store i64 0, ptr %2, align 8, !dbg !2326
  ret void, !dbg !2327
}

; core::alloc::layout::Layout::array::inner
; Function Attrs: inlinehint uwtable
define internal { i64, i64 } @_ZN4core5alloc6layout6Layout5array5inner17h2511187728ddaaf1E(i64 %element_size, i64 %align, i64 %n) unnamed_addr #1 !dbg !2328 {
start:
  %align.dbg.spill1 = alloca i64, align 8
  %array_size.dbg.spill = alloca i64, align 8
  %n.dbg.spill = alloca i64, align 8
  %align.dbg.spill = alloca i64, align 8
  %element_size.dbg.spill = alloca i64, align 8
  %_18 = alloca i64, align 8
  %_13 = alloca i64, align 8
  %_9 = alloca %"core::alloc::layout::Layout", align 8
  %_0 = alloca %"core::result::Result<core::alloc::layout::Layout, core::alloc::layout::LayoutError>", align 8
  store i64 %element_size, ptr %element_size.dbg.spill, align 8
  call void @llvm.dbg.declare(metadata ptr %element_size.dbg.spill, metadata !2361, metadata !DIExpression()), !dbg !2366
  call void @llvm.dbg.declare(metadata ptr %element_size.dbg.spill, metadata !2367, metadata !DIExpression()), !dbg !2373
  store i64 %align, ptr %align.dbg.spill, align 8
  call void @llvm.dbg.declare(metadata ptr %align.dbg.spill, metadata !2362, metadata !DIExpression()), !dbg !2375
  call void @llvm.dbg.declare(metadata ptr %align.dbg.spill, metadata !2376, metadata !DIExpression()), !dbg !2383
  call void @llvm.dbg.declare(metadata ptr %align.dbg.spill, metadata !2385, metadata !DIExpression()), !dbg !2393
  call void @llvm.dbg.declare(metadata ptr %align.dbg.spill, metadata !2391, metadata !DIExpression()), !dbg !2395
  store i64 %n, ptr %n.dbg.spill, align 8
  call void @llvm.dbg.declare(metadata ptr %n.dbg.spill, metadata !2363, metadata !DIExpression()), !dbg !2397
  call void @llvm.dbg.declare(metadata ptr %n.dbg.spill, metadata !2372, metadata !DIExpression()), !dbg !2373
  %0 = icmp eq i64 %element_size, 0, !dbg !2398
  br i1 %0, label %bb5, label %bb1, !dbg !2398

bb5:                                              ; preds = %bb4, %start
  %array_size = mul nuw i64 %element_size, %n, !dbg !2373
  store i64 %array_size, ptr %array_size.dbg.spill, align 8, !dbg !2373
  call void @llvm.dbg.declare(metadata ptr %array_size.dbg.spill, metadata !2364, metadata !DIExpression()), !dbg !2399
  call void @llvm.dbg.declare(metadata ptr %array_size.dbg.spill, metadata !2400, metadata !DIExpression()), !dbg !2408
  store i64 %align, ptr %_18, align 8, !dbg !2410
  %_19 = load i64, ptr %_18, align 8, !dbg !2410, !range !2411, !noundef !26
  %_20 = icmp uge i64 %_19, 1, !dbg !2410
  %_21 = icmp ule i64 %_19, -9223372036854775808, !dbg !2410
  %_22 = and i1 %_20, %_21, !dbg !2410
  store i64 %_19, ptr %align.dbg.spill1, align 8, !dbg !2410
  call void @llvm.dbg.declare(metadata ptr %align.dbg.spill1, metadata !2407, metadata !DIExpression()), !dbg !2412
  call void @llvm.dbg.declare(metadata ptr %align.dbg.spill1, metadata !2413, metadata !DIExpression()), !dbg !2420
  %1 = getelementptr inbounds i8, ptr %_9, i64 8, !dbg !2422
  store i64 %array_size, ptr %1, align 8, !dbg !2422
  store i64 %_19, ptr %_9, align 8, !dbg !2422
  %2 = load i64, ptr %_9, align 8, !dbg !2423, !range !2411, !noundef !26
  %3 = getelementptr inbounds i8, ptr %_9, i64 8, !dbg !2423
  %4 = load i64, ptr %3, align 8, !dbg !2423, !noundef !26
  store i64 %2, ptr %_0, align 8, !dbg !2423
  %5 = getelementptr inbounds i8, ptr %_0, i64 8, !dbg !2423
  store i64 %4, ptr %5, align 8, !dbg !2423
  br label %bb6, !dbg !2424

bb1:                                              ; preds = %start
  store i64 %align, ptr %_13, align 8, !dbg !2425
  %_14 = load i64, ptr %_13, align 8, !dbg !2425, !range !2411, !noundef !26
  %_15 = icmp uge i64 %_14, 1, !dbg !2425
  %_16 = icmp ule i64 %_14, -9223372036854775808, !dbg !2425
  %_17 = and i1 %_15, %_16, !dbg !2425
  %_11 = sub i64 %_14, 1, !dbg !2426
  %_6 = sub i64 9223372036854775807, %_11, !dbg !2427
  %_7 = icmp eq i64 %element_size, 0, !dbg !2384
  %6 = call i1 @llvm.expect.i1(i1 %_7, i1 false), !dbg !2384
  br i1 %6, label %panic, label %bb2, !dbg !2384

bb2:                                              ; preds = %bb1
  %_5 = udiv i64 %_6, %element_size, !dbg !2384
  %_4 = icmp ugt i64 %n, %_5, !dbg !2428
  br i1 %_4, label %bb3, label %bb4, !dbg !2428

panic:                                            ; preds = %bb1
; call core::panicking::panic
  call void @_ZN4core9panicking5panic17h5884aad3a9044857E(ptr align 1 @str.1, i64 25, ptr align 8 @alloc_f68de2cf1ceb450073519dc71a218631) #20, !dbg !2384
  unreachable, !dbg !2384

bb4:                                              ; preds = %bb2
  br label %bb5, !dbg !2429

bb3:                                              ; preds = %bb2
  %7 = load i64, ptr @0, align 8, !dbg !2431, !range !2432, !noundef !26
  %8 = load i64, ptr getelementptr inbounds (i8, ptr @0, i64 8), align 8, !dbg !2431
  store i64 %7, ptr %_0, align 8, !dbg !2431
  %9 = getelementptr inbounds i8, ptr %_0, i64 8, !dbg !2431
  store i64 %8, ptr %9, align 8, !dbg !2431
  br label %bb6, !dbg !2424

bb6:                                              ; preds = %bb3, %bb5
  %10 = load i64, ptr %_0, align 8, !dbg !2424, !range !2432, !noundef !26
  %11 = getelementptr inbounds i8, ptr %_0, i64 8, !dbg !2424
  %12 = load i64, ptr %11, align 8, !dbg !2424
  %13 = insertvalue { i64, i64 } poison, i64 %10, 0, !dbg !2424
  %14 = insertvalue { i64, i64 } %13, i64 %12, 1, !dbg !2424
  ret { i64, i64 } %14, !dbg !2424
}

; core::array::<impl core::ops::index::Index<I> for [T; N]>::index
; Function Attrs: inlinehint uwtable
define { ptr, i64 } @"_ZN4core5array85_$LT$impl$u20$core..ops..index..Index$LT$I$GT$$u20$for$u20$$u5b$T$u3b$$u20$N$u5d$$GT$5index17hd9208f95f1b5f8f2E"(ptr align 1 %self, i64 %index, ptr align 8 %0) unnamed_addr #1 !dbg !2433 {
start:
  %slice.dbg.spill.i.i.i = alloca { ptr, i64 }, align 8
  %self.dbg.spill.i.i.i = alloca %"core::ops::range::Range<usize>", align 8
  %slice.dbg.spill.i.i = alloca { ptr, i64 }, align 8
  %self.dbg.spill.i.i = alloca i64, align 8
  %_3.i.i = alloca %"core::ops::range::Range<usize>", align 8
  %index.dbg.spill.i = alloca i64, align 8
  %self.dbg.spill.i = alloca { ptr, i64 }, align 8
  %index.dbg.spill = alloca i64, align 8
  %self.dbg.spill = alloca ptr, align 8
  store ptr %self, ptr %self.dbg.spill, align 8
  call void @llvm.dbg.declare(metadata ptr %self.dbg.spill, metadata !2440, metadata !DIExpression()), !dbg !2444
  store i64 %index, ptr %index.dbg.spill, align 8
  call void @llvm.dbg.declare(metadata ptr %index.dbg.spill, metadata !2441, metadata !DIExpression()), !dbg !2445
  store ptr %self, ptr %self.dbg.spill.i, align 8
  %1 = getelementptr inbounds i8, ptr %self.dbg.spill.i, i64 8
  store i64 8, ptr %1, align 8
  call void @llvm.dbg.declare(metadata ptr %self.dbg.spill.i, metadata !2446, metadata !DIExpression()), !dbg !2453
  store i64 %index, ptr %index.dbg.spill.i, align 8
  call void @llvm.dbg.declare(metadata ptr %index.dbg.spill.i, metadata !2452, metadata !DIExpression()), !dbg !2455
  store i64 %index, ptr %self.dbg.spill.i.i, align 8
  call void @llvm.dbg.declare(metadata ptr %self.dbg.spill.i.i, metadata !2456, metadata !DIExpression()), !dbg !2462
  store ptr %self, ptr %slice.dbg.spill.i.i, align 8
  %2 = getelementptr inbounds i8, ptr %slice.dbg.spill.i.i, i64 8
  store i64 8, ptr %2, align 8
  call void @llvm.dbg.declare(metadata ptr %slice.dbg.spill.i.i, metadata !2461, metadata !DIExpression()), !dbg !2464
  store i64 0, ptr %_3.i.i, align 8, !dbg !2465
  %3 = getelementptr inbounds i8, ptr %_3.i.i, i64 8, !dbg !2465
  store i64 %index, ptr %3, align 8, !dbg !2465
  %4 = load i64, ptr %_3.i.i, align 8, !dbg !2465, !noundef !26
  %5 = getelementptr inbounds i8, ptr %_3.i.i, i64 8, !dbg !2465
  %6 = load i64, ptr %5, align 8, !dbg !2465, !noundef !26
  store i64 %4, ptr %self.dbg.spill.i.i.i, align 8
  %7 = getelementptr inbounds i8, ptr %self.dbg.spill.i.i.i, i64 8
  store i64 %6, ptr %7, align 8
  call void @llvm.dbg.declare(metadata ptr %self.dbg.spill.i.i.i, metadata !2466, metadata !DIExpression()), !dbg !2472
  store ptr %self, ptr %slice.dbg.spill.i.i.i, align 8
  %8 = getelementptr inbounds i8, ptr %slice.dbg.spill.i.i.i, i64 8
  store i64 8, ptr %8, align 8
  call void @llvm.dbg.declare(metadata ptr %slice.dbg.spill.i.i.i, metadata !2471, metadata !DIExpression()), !dbg !2474
  %_3.i.i.i = icmp ugt i64 %4, %6, !dbg !2475
  br i1 %_3.i.i.i, label %bb1.i.i.i, label %bb2.i.i.i, !dbg !2475

bb2.i.i.i:                                        ; preds = %start
  %_7.i.i.i = icmp ugt i64 %6, 8, !dbg !2476
  br i1 %_7.i.i.i, label %bb3.i.i.i, label %"_ZN4core5slice5index74_$LT$impl$u20$core..ops..index..Index$LT$I$GT$$u20$for$u20$$u5b$T$u5d$$GT$5index17h1f4edc6ef9eba043E.exit", !dbg !2476

bb1.i.i.i:                                        ; preds = %start
; call core::slice::index::slice_index_order_fail
  call void @_ZN4core5slice5index22slice_index_order_fail17hb18c43fcae7a83cbE(i64 %4, i64 %6, ptr align 8 %0) #20, !dbg !2477
  unreachable, !dbg !2477

bb3.i.i.i:                                        ; preds = %bb2.i.i.i
; call core::slice::index::slice_end_index_len_fail
  call void @_ZN4core5slice5index24slice_end_index_len_fail17h86c2fd0bdb9be0ffE(i64 %6, i64 8, ptr align 8 %0) #20, !dbg !2478
  unreachable, !dbg !2478

"_ZN4core5slice5index74_$LT$impl$u20$core..ops..index..Index$LT$I$GT$$u20$for$u20$$u5b$T$u5d$$GT$5index17h1f4edc6ef9eba043E.exit": ; preds = %bb2.i.i.i
; call <core::ops::range::Range<usize> as core::slice::index::SliceIndex<[T]>>::get_unchecked
  %9 = call { ptr, i64 } @"_ZN106_$LT$core..ops..range..Range$LT$usize$GT$$u20$as$u20$core..slice..index..SliceIndex$LT$$u5b$T$u5d$$GT$$GT$13get_unchecked17h3be89a617ac12cbfE"(i64 %4, i64 %6, ptr %self, i64 8), !dbg !2479
  %_11.0.i.i.i = extractvalue { ptr, i64 } %9, 0, !dbg !2479
  %_11.1.i.i.i = extractvalue { ptr, i64 } %9, 1, !dbg !2479
  %_0.0.i.i = extractvalue { ptr, i64 } %9, 0, !dbg !2465
  %_0.1.i.i = extractvalue { ptr, i64 } %9, 1, !dbg !2465
  %_0.0.i = extractvalue { ptr, i64 } %9, 0, !dbg !2480
  %_0.1.i = extractvalue { ptr, i64 } %9, 1, !dbg !2480
  %_0.0 = extractvalue { ptr, i64 } %9, 0, !dbg !2481
  %_0.1 = extractvalue { ptr, i64 } %9, 1, !dbg !2481
  %10 = insertvalue { ptr, i64 } poison, ptr %_0.0, 0, !dbg !2482
  %11 = insertvalue { ptr, i64 } %10, i64 %_0.1, 1, !dbg !2482
  ret { ptr, i64 } %11, !dbg !2482
}

; core::array::<impl core::ops::index::Index<I> for [T; N]>::index
; Function Attrs: inlinehint uwtable
define { ptr, i64 } @"_ZN4core5array85_$LT$impl$u20$core..ops..index..Index$LT$I$GT$$u20$for$u20$$u5b$T$u3b$$u20$N$u5d$$GT$5index17he41ef91a156523bcE"(ptr align 1 %self, i64 %index, ptr align 8 %0) unnamed_addr #1 !dbg !2483 {
start:
  %slice.dbg.spill.i.i.i = alloca { ptr, i64 }, align 8
  %self.dbg.spill.i.i.i = alloca %"core::ops::range::Range<usize>", align 8
  %slice.dbg.spill.i.i = alloca { ptr, i64 }, align 8
  %self.dbg.spill.i.i = alloca i64, align 8
  %_3.i.i = alloca %"core::ops::range::Range<usize>", align 8
  %index.dbg.spill.i = alloca i64, align 8
  %self.dbg.spill.i = alloca { ptr, i64 }, align 8
  %index.dbg.spill = alloca i64, align 8
  %self.dbg.spill = alloca ptr, align 8
  store ptr %self, ptr %self.dbg.spill, align 8
  call void @llvm.dbg.declare(metadata ptr %self.dbg.spill, metadata !2488, metadata !DIExpression()), !dbg !2490
  store i64 %index, ptr %index.dbg.spill, align 8
  call void @llvm.dbg.declare(metadata ptr %index.dbg.spill, metadata !2489, metadata !DIExpression()), !dbg !2491
  store ptr %self, ptr %self.dbg.spill.i, align 8
  %1 = getelementptr inbounds i8, ptr %self.dbg.spill.i, i64 8
  store i64 4, ptr %1, align 8
  call void @llvm.dbg.declare(metadata ptr %self.dbg.spill.i, metadata !2446, metadata !DIExpression()), !dbg !2492
  store i64 %index, ptr %index.dbg.spill.i, align 8
  call void @llvm.dbg.declare(metadata ptr %index.dbg.spill.i, metadata !2452, metadata !DIExpression()), !dbg !2494
  store i64 %index, ptr %self.dbg.spill.i.i, align 8
  call void @llvm.dbg.declare(metadata ptr %self.dbg.spill.i.i, metadata !2456, metadata !DIExpression()), !dbg !2495
  store ptr %self, ptr %slice.dbg.spill.i.i, align 8
  %2 = getelementptr inbounds i8, ptr %slice.dbg.spill.i.i, i64 8
  store i64 4, ptr %2, align 8
  call void @llvm.dbg.declare(metadata ptr %slice.dbg.spill.i.i, metadata !2461, metadata !DIExpression()), !dbg !2497
  store i64 0, ptr %_3.i.i, align 8, !dbg !2498
  %3 = getelementptr inbounds i8, ptr %_3.i.i, i64 8, !dbg !2498
  store i64 %index, ptr %3, align 8, !dbg !2498
  %4 = load i64, ptr %_3.i.i, align 8, !dbg !2498, !noundef !26
  %5 = getelementptr inbounds i8, ptr %_3.i.i, i64 8, !dbg !2498
  %6 = load i64, ptr %5, align 8, !dbg !2498, !noundef !26
  store i64 %4, ptr %self.dbg.spill.i.i.i, align 8
  %7 = getelementptr inbounds i8, ptr %self.dbg.spill.i.i.i, i64 8
  store i64 %6, ptr %7, align 8
  call void @llvm.dbg.declare(metadata ptr %self.dbg.spill.i.i.i, metadata !2466, metadata !DIExpression()), !dbg !2499
  store ptr %self, ptr %slice.dbg.spill.i.i.i, align 8
  %8 = getelementptr inbounds i8, ptr %slice.dbg.spill.i.i.i, i64 8
  store i64 4, ptr %8, align 8
  call void @llvm.dbg.declare(metadata ptr %slice.dbg.spill.i.i.i, metadata !2471, metadata !DIExpression()), !dbg !2501
  %_3.i.i.i = icmp ugt i64 %4, %6, !dbg !2502
  br i1 %_3.i.i.i, label %bb1.i.i.i, label %bb2.i.i.i, !dbg !2502

bb2.i.i.i:                                        ; preds = %start
  %_7.i.i.i = icmp ugt i64 %6, 4, !dbg !2503
  br i1 %_7.i.i.i, label %bb3.i.i.i, label %"_ZN4core5slice5index74_$LT$impl$u20$core..ops..index..Index$LT$I$GT$$u20$for$u20$$u5b$T$u5d$$GT$5index17h1f4edc6ef9eba043E.exit", !dbg !2503

bb1.i.i.i:                                        ; preds = %start
; call core::slice::index::slice_index_order_fail
  call void @_ZN4core5slice5index22slice_index_order_fail17hb18c43fcae7a83cbE(i64 %4, i64 %6, ptr align 8 %0) #20, !dbg !2504
  unreachable, !dbg !2504

bb3.i.i.i:                                        ; preds = %bb2.i.i.i
; call core::slice::index::slice_end_index_len_fail
  call void @_ZN4core5slice5index24slice_end_index_len_fail17h86c2fd0bdb9be0ffE(i64 %6, i64 4, ptr align 8 %0) #20, !dbg !2505
  unreachable, !dbg !2505

"_ZN4core5slice5index74_$LT$impl$u20$core..ops..index..Index$LT$I$GT$$u20$for$u20$$u5b$T$u5d$$GT$5index17h1f4edc6ef9eba043E.exit": ; preds = %bb2.i.i.i
; call <core::ops::range::Range<usize> as core::slice::index::SliceIndex<[T]>>::get_unchecked
  %9 = call { ptr, i64 } @"_ZN106_$LT$core..ops..range..Range$LT$usize$GT$$u20$as$u20$core..slice..index..SliceIndex$LT$$u5b$T$u5d$$GT$$GT$13get_unchecked17h3be89a617ac12cbfE"(i64 %4, i64 %6, ptr %self, i64 4), !dbg !2506
  %_11.0.i.i.i = extractvalue { ptr, i64 } %9, 0, !dbg !2506
  %_11.1.i.i.i = extractvalue { ptr, i64 } %9, 1, !dbg !2506
  %_0.0.i.i = extractvalue { ptr, i64 } %9, 0, !dbg !2498
  %_0.1.i.i = extractvalue { ptr, i64 } %9, 1, !dbg !2498
  %_0.0.i = extractvalue { ptr, i64 } %9, 0, !dbg !2507
  %_0.1.i = extractvalue { ptr, i64 } %9, 1, !dbg !2507
  %_0.0 = extractvalue { ptr, i64 } %9, 0, !dbg !2508
  %_0.1 = extractvalue { ptr, i64 } %9, 1, !dbg !2508
  %10 = insertvalue { ptr, i64 } poison, ptr %_0.0, 0, !dbg !2509
  %11 = insertvalue { ptr, i64 } %10, i64 %_0.1, 1, !dbg !2509
  ret { ptr, i64 } %11, !dbg !2509
}

; core::array::<impl core::convert::TryFrom<&[T]> for [T; N]>::try_from
; Function Attrs: inlinehint uwtable
define void @"_ZN4core5array98_$LT$impl$u20$core..convert..TryFrom$LT$$RF$$u5b$T$u5d$$GT$$u20$for$u20$$u5b$T$u3b$$u20$N$u5d$$GT$8try_from17hea753ef3854817dbE"(ptr sret(%"core::result::Result<[u8; 8], core::array::TryFromSliceError>") align 1 %_0, ptr align 1 %slice.0, i64 %slice.1) unnamed_addr #1 !dbg !2510 {
start:
  %t.dbg.spill = alloca ptr, align 8
  %ptr.dbg.spill = alloca ptr, align 8
  %slice.dbg.spill = alloca { ptr, i64 }, align 8
  %t = alloca [8 x i8], align 1
  %self = alloca ptr, align 8
  %e.dbg.spill = alloca %"core::array::TryFromSliceError", align 1
  %op.dbg.spill = alloca %"{closure@core::result::Result<&[u8; 8], core::array::TryFromSliceError>::copied::{closure#0}}", align 1
  call void @llvm.dbg.declare(metadata ptr %op.dbg.spill, metadata !2532, metadata !DIExpression()), !dbg !2565
  call void @llvm.dbg.declare(metadata ptr %e.dbg.spill, metadata !2563, metadata !DIExpression()), !dbg !2575
  store ptr %slice.0, ptr %slice.dbg.spill, align 8, !dbg !2575
  %0 = getelementptr inbounds i8, ptr %slice.dbg.spill, i64 8, !dbg !2575
  store i64 %slice.1, ptr %0, align 8, !dbg !2575
  call void @llvm.dbg.declare(metadata ptr %slice.dbg.spill, metadata !2531, metadata !DIExpression()), !dbg !2576
  call void @llvm.dbg.declare(metadata ptr %slice.dbg.spill, metadata !2577, metadata !DIExpression()), !dbg !2587
  call void @llvm.dbg.declare(metadata ptr %slice.dbg.spill, metadata !2589, metadata !DIExpression()), !dbg !2597
  call void @llvm.dbg.declare(metadata ptr %self, metadata !2573, metadata !DIExpression()), !dbg !2599
  call void @llvm.dbg.declare(metadata ptr %self, metadata !2560, metadata !DIExpression()), !dbg !2600
  call void @llvm.dbg.declare(metadata ptr %t, metadata !2601, metadata !DIExpression()), !dbg !2608
  %_3 = icmp eq i64 %slice.1, 8, !dbg !2610
  br i1 %_3, label %bb1, label %bb2, !dbg !2610

bb2:                                              ; preds = %start
  store ptr null, ptr %self, align 8, !dbg !2611
  store i8 1, ptr %_0, align 1, !dbg !2612
  br label %bb3, !dbg !2613

bb1:                                              ; preds = %start
  store ptr %slice.0, ptr %ptr.dbg.spill, align 8, !dbg !2614
  call void @llvm.dbg.declare(metadata ptr %ptr.dbg.spill, metadata !2584, metadata !DIExpression()), !dbg !2615
  store ptr %slice.0, ptr %self, align 8, !dbg !2616
  %t1 = load ptr, ptr %self, align 8, !dbg !2617, !nonnull !26, !align !662, !noundef !26
  store ptr %t1, ptr %t.dbg.spill, align 8, !dbg !2617
  call void @llvm.dbg.declare(metadata ptr %t.dbg.spill, metadata !2561, metadata !DIExpression()), !dbg !2618
  %1 = load <8 x i8>, ptr %t1, align 1, !dbg !2619
  store <8 x i8> %1, ptr %t, align 1, !dbg !2619
  %2 = getelementptr inbounds i8, ptr %_0, i64 1, !dbg !2620
  %3 = load <8 x i8>, ptr %t, align 1, !dbg !2620
  store <8 x i8> %3, ptr %2, align 1, !dbg !2620
  store i8 0, ptr %_0, align 1, !dbg !2620
  br label %bb3, !dbg !2621

bb3:                                              ; preds = %bb1, %bb2
  ret void, !dbg !2622
}

; core::error::Error::description
; Function Attrs: uwtable
define { ptr, i64 } @_ZN4core5error5Error11description17h7c2611ffed02fa24E(ptr align 8 %self) unnamed_addr #0 !dbg !2623 {
start:
  %self.dbg.spill = alloca ptr, align 8
  store ptr %self, ptr %self.dbg.spill, align 8
  call void @llvm.dbg.declare(metadata ptr %self.dbg.spill, metadata !2630, metadata !DIExpression()), !dbg !2633
  ret { ptr, i64 } { ptr @alloc_04d7ce44d7c86a9a02b346ab945bf155, i64 40 }, !dbg !2634
}

; core::error::Error::cause
; Function Attrs: uwtable
define { ptr, ptr } @_ZN4core5error5Error5cause17h8d2e62b1d0dcae97E(ptr align 8 %self) unnamed_addr #0 !dbg !2635 {
start:
  %self.dbg.spill = alloca ptr, align 8
  store ptr %self, ptr %self.dbg.spill, align 8
  call void @llvm.dbg.declare(metadata ptr %self.dbg.spill, metadata !2658, metadata !DIExpression()), !dbg !2659
; call core::error::Error::source
  %0 = call { ptr, ptr } @_ZN4core5error5Error6source17hc7a304a8a113718bE(ptr align 8 %self), !dbg !2660
  %_0.0 = extractvalue { ptr, ptr } %0, 0, !dbg !2660
  %_0.1 = extractvalue { ptr, ptr } %0, 1, !dbg !2660
  %1 = insertvalue { ptr, ptr } poison, ptr %_0.0, 0, !dbg !2661
  %2 = insertvalue { ptr, ptr } %1, ptr %_0.1, 1, !dbg !2661
  ret { ptr, ptr } %2, !dbg !2661
}

; core::error::Error::source
; Function Attrs: uwtable
define { ptr, ptr } @_ZN4core5error5Error6source17hc7a304a8a113718bE(ptr align 8 %self) unnamed_addr #0 !dbg !2662 {
start:
  %self.dbg.spill = alloca ptr, align 8
  store ptr %self, ptr %self.dbg.spill, align 8
  call void @llvm.dbg.declare(metadata ptr %self.dbg.spill, metadata !2664, metadata !DIExpression()), !dbg !2665
  %_0.0 = load ptr, ptr @0, align 8, !dbg !2666, !align !662, !noundef !26
  %_0.1 = load ptr, ptr getelementptr inbounds (i8, ptr @0, i64 8), align 8, !dbg !2666
  %0 = insertvalue { ptr, ptr } poison, ptr %_0.0, 0, !dbg !2667
  %1 = insertvalue { ptr, ptr } %0, ptr %_0.1, 1, !dbg !2667
  ret { ptr, ptr } %1, !dbg !2667
}

; core::error::Error::provide
; Function Attrs: uwtable
define void @_ZN4core5error5Error7provide17ha2b1b1cf36b19d3eE(ptr align 8 %self, ptr align 1 %request.0, ptr align 8 %request.1) unnamed_addr #0 !dbg !2668 {
start:
  %request.dbg.spill = alloca { ptr, ptr }, align 8
  %self.dbg.spill = alloca ptr, align 8
  store ptr %self, ptr %self.dbg.spill, align 8
  call void @llvm.dbg.declare(metadata ptr %self.dbg.spill, metadata !2681, metadata !DIExpression()), !dbg !2683
  store ptr %request.0, ptr %request.dbg.spill, align 8
  %0 = getelementptr inbounds i8, ptr %request.dbg.spill, i64 8
  store ptr %request.1, ptr %0, align 8
  call void @llvm.dbg.declare(metadata ptr %request.dbg.spill, metadata !2682, metadata !DIExpression()), !dbg !2684
  ret void, !dbg !2685
}

; core::error::Error::type_id
; Function Attrs: uwtable
define i128 @_ZN4core5error5Error7type_id17hb2dc7eb4bc272675E(ptr align 8 %self) unnamed_addr #0 !dbg !2686 {
start:
  %t.dbg.spill = alloca i128, align 16
  %0 = alloca i128, align 16
  %_2.dbg.spill = alloca %"core::error::private::Internal", align 1
  %self.dbg.spill = alloca ptr, align 8
  %_0 = alloca i128, align 16
  store ptr %self, ptr %self.dbg.spill, align 8
  call void @llvm.dbg.declare(metadata ptr %self.dbg.spill, metadata !2697, metadata !DIExpression()), !dbg !2699
  call void @llvm.dbg.declare(metadata ptr %_2.dbg.spill, metadata !2698, metadata !DIExpression()), !dbg !2700
  store i128 -92819085525834263414049943332763904814, ptr %0, align 16, !dbg !2701
  %t = load i128, ptr %0, align 16, !dbg !2701, !noundef !26
  store i128 %t, ptr %t.dbg.spill, align 16, !dbg !2701
  call void @llvm.dbg.declare(metadata ptr %t.dbg.spill, metadata !2709, metadata !DIExpression()), !dbg !2712
  store i128 %t, ptr %_0, align 16, !dbg !2713
  %1 = load i128, ptr %_0, align 16, !dbg !2714, !noundef !26
  ret i128 %1, !dbg !2714
}

; core::slice::<impl [T]>::chunks_exact
; Function Attrs: inlinehint uwtable
define void @"_ZN4core5slice29_$LT$impl$u20$$u5b$T$u5d$$GT$12chunks_exact17h679abf1ac20885aeE"(ptr sret(%"core::slice::iter::ChunksExact<'_, u8>") align 8 %_0, ptr align 1 %self.0, i64 %self.1, i64 %chunk_size, ptr align 8 %0) unnamed_addr #1 !dbg !2715 {
start:
  %snd.dbg.spill = alloca { ptr, i64 }, align 8
  %fst.dbg.spill = alloca { ptr, i64 }, align 8
  %fst_len.dbg.spill = alloca i64, align 8
  %rem.dbg.spill = alloca i64, align 8
  %pieces.dbg.spill = alloca { ptr, i64 }, align 8
  %chunk_size.dbg.spill = alloca i64, align 8
  %self.dbg.spill = alloca { ptr, i64 }, align 8
  %_13 = alloca { { ptr, i64 }, { ptr, i64 } }, align 8
  %_4 = alloca %"core::fmt::Arguments<'_>", align 8
  store ptr %self.0, ptr %self.dbg.spill, align 8
  %1 = getelementptr inbounds i8, ptr %self.dbg.spill, i64 8
  store i64 %self.1, ptr %1, align 8
  call void @llvm.dbg.declare(metadata ptr %self.dbg.spill, metadata !2719, metadata !DIExpression()), !dbg !2721
  call void @llvm.dbg.declare(metadata ptr %self.dbg.spill, metadata !2722, metadata !DIExpression()), !dbg !2737
  store i64 %chunk_size, ptr %chunk_size.dbg.spill, align 8
  call void @llvm.dbg.declare(metadata ptr %chunk_size.dbg.spill, metadata !2720, metadata !DIExpression()), !dbg !2739
  call void @llvm.dbg.declare(metadata ptr %chunk_size.dbg.spill, metadata !2729, metadata !DIExpression()), !dbg !2740
  %2 = icmp eq i64 %chunk_size, 0, !dbg !2741
  br i1 %2, label %bb2, label %bb1, !dbg !2741

bb2:                                              ; preds = %start
  store ptr @alloc_1f6e2bb373e6c20cda1457c91e8d33ed, ptr %pieces.dbg.spill, align 8, !dbg !2742
  %3 = getelementptr inbounds i8, ptr %pieces.dbg.spill, i64 8, !dbg !2742
  store i64 1, ptr %3, align 8, !dbg !2742
  call void @llvm.dbg.declare(metadata ptr %pieces.dbg.spill, metadata !2743, metadata !DIExpression()), !dbg !2747
  store ptr @alloc_1f6e2bb373e6c20cda1457c91e8d33ed, ptr %_4, align 8, !dbg !2750
  %4 = getelementptr inbounds i8, ptr %_4, i64 8, !dbg !2750
  store i64 1, ptr %4, align 8, !dbg !2750
  %5 = load ptr, ptr @0, align 8, !dbg !2750, !align !1169, !noundef !26
  %6 = load i64, ptr getelementptr inbounds (i8, ptr @0, i64 8), align 8, !dbg !2750
  %7 = getelementptr inbounds i8, ptr %_4, i64 32, !dbg !2750
  store ptr %5, ptr %7, align 8, !dbg !2750
  %8 = getelementptr inbounds i8, ptr %7, i64 8, !dbg !2750
  store i64 %6, ptr %8, align 8, !dbg !2750
  %9 = getelementptr inbounds i8, ptr %_4, i64 16, !dbg !2750
  store ptr @alloc_513570631223a12912d85da2bec3b15a, ptr %9, align 8, !dbg !2750
  %10 = getelementptr inbounds i8, ptr %9, i64 8, !dbg !2750
  store i64 0, ptr %10, align 8, !dbg !2750
; call core::panicking::panic_fmt
  call void @_ZN4core9panicking9panic_fmt17ha6d62ade15192290E(ptr align 8 %_4, ptr align 8 %0) #20, !dbg !2751
  unreachable, !dbg !2751

bb1:                                              ; preds = %start
  %_8 = icmp eq i64 %chunk_size, 0, !dbg !2752
  %11 = call i1 @llvm.expect.i1(i1 %_8, i1 false), !dbg !2752
  br i1 %11, label %panic, label %bb3, !dbg !2752

bb3:                                              ; preds = %bb1
  %rem = urem i64 %self.1, %chunk_size, !dbg !2752
  store i64 %rem, ptr %rem.dbg.spill, align 8, !dbg !2752
  call void @llvm.dbg.declare(metadata ptr %rem.dbg.spill, metadata !2730, metadata !DIExpression()), !dbg !2753
  %fst_len = sub i64 %self.1, %rem, !dbg !2754
  store i64 %fst_len, ptr %fst_len.dbg.spill, align 8, !dbg !2754
  call void @llvm.dbg.declare(metadata ptr %fst_len.dbg.spill, metadata !2732, metadata !DIExpression()), !dbg !2755
; call core::slice::<impl [T]>::split_at_unchecked
  call void @"_ZN4core5slice29_$LT$impl$u20$$u5b$T$u5d$$GT$18split_at_unchecked17h384b818f2d7ca797E"(ptr sret({ { ptr, i64 }, { ptr, i64 } }) align 8 %_13, ptr align 1 %self.0, i64 %self.1, i64 %fst_len), !dbg !2756
  %fst.0 = load ptr, ptr %_13, align 8, !dbg !2757, !nonnull !26, !align !662, !noundef !26
  %12 = getelementptr inbounds i8, ptr %_13, i64 8, !dbg !2757
  %fst.1 = load i64, ptr %12, align 8, !dbg !2757, !noundef !26
  store ptr %fst.0, ptr %fst.dbg.spill, align 8, !dbg !2757
  %13 = getelementptr inbounds i8, ptr %fst.dbg.spill, i64 8, !dbg !2757
  store i64 %fst.1, ptr %13, align 8, !dbg !2757
  call void @llvm.dbg.declare(metadata ptr %fst.dbg.spill, metadata !2734, metadata !DIExpression()), !dbg !2758
  %14 = getelementptr inbounds i8, ptr %_13, i64 16, !dbg !2759
  %snd.0 = load ptr, ptr %14, align 8, !dbg !2759, !nonnull !26, !align !662, !noundef !26
  %15 = getelementptr inbounds i8, ptr %14, i64 8, !dbg !2759
  %snd.1 = load i64, ptr %15, align 8, !dbg !2759, !noundef !26
  store ptr %snd.0, ptr %snd.dbg.spill, align 8, !dbg !2759
  %16 = getelementptr inbounds i8, ptr %snd.dbg.spill, i64 8, !dbg !2759
  store i64 %snd.1, ptr %16, align 8, !dbg !2759
  call void @llvm.dbg.declare(metadata ptr %snd.dbg.spill, metadata !2736, metadata !DIExpression()), !dbg !2760
  store ptr %fst.0, ptr %_0, align 8, !dbg !2761
  %17 = getelementptr inbounds i8, ptr %_0, i64 8, !dbg !2761
  store i64 %fst.1, ptr %17, align 8, !dbg !2761
  %18 = getelementptr inbounds i8, ptr %_0, i64 16, !dbg !2761
  store ptr %snd.0, ptr %18, align 8, !dbg !2761
  %19 = getelementptr inbounds i8, ptr %18, i64 8, !dbg !2761
  store i64 %snd.1, ptr %19, align 8, !dbg !2761
  %20 = getelementptr inbounds i8, ptr %_0, i64 32, !dbg !2761
  store i64 %chunk_size, ptr %20, align 8, !dbg !2761
  ret void, !dbg !2762

panic:                                            ; preds = %bb1
; call core::panicking::panic
  call void @_ZN4core9panicking5panic17h5884aad3a9044857E(ptr align 1 @str.2, i64 57, ptr align 8 @alloc_e948c17f630a84e2075d780ddd21eed0) #20, !dbg !2752
  unreachable, !dbg !2752
}

; core::slice::<impl [T]>::copy_from_slice
; Function Attrs: uwtable
define void @"_ZN4core5slice29_$LT$impl$u20$$u5b$T$u5d$$GT$15copy_from_slice17hc1e2214c320e79dcE"(ptr align 1 %self.0, i64 %self.1, ptr align 1 %src.0, i64 %src.1, ptr align 8 %0) unnamed_addr #0 !dbg !2763 {
start:
  %count.dbg.spill = alloca i64, align 8
  %dst.dbg.spill = alloca ptr, align 8
  %src.dbg.spill1 = alloca ptr, align 8
  %src.dbg.spill = alloca { ptr, i64 }, align 8
  %self.dbg.spill = alloca { ptr, i64 }, align 8
  store ptr %self.0, ptr %self.dbg.spill, align 8
  %1 = getelementptr inbounds i8, ptr %self.dbg.spill, i64 8
  store i64 %self.1, ptr %1, align 8
  call void @llvm.dbg.declare(metadata ptr %self.dbg.spill, metadata !2767, metadata !DIExpression()), !dbg !2769
  call void @llvm.dbg.declare(metadata ptr %self.dbg.spill, metadata !2770, metadata !DIExpression()), !dbg !2776
  store ptr %src.0, ptr %src.dbg.spill, align 8
  %2 = getelementptr inbounds i8, ptr %src.dbg.spill, i64 8
  store i64 %src.1, ptr %2, align 8
  call void @llvm.dbg.declare(metadata ptr %src.dbg.spill, metadata !2768, metadata !DIExpression()), !dbg !2778
  call void @llvm.dbg.declare(metadata ptr %src.dbg.spill, metadata !2779, metadata !DIExpression()), !dbg !2783
  %_3 = icmp ne i64 %self.1, %src.1, !dbg !2785
  br i1 %_3, label %bb1, label %bb2, !dbg !2785

bb2:                                              ; preds = %start
  store ptr %src.0, ptr %src.dbg.spill1, align 8, !dbg !2786
  call void @llvm.dbg.declare(metadata ptr %src.dbg.spill1, metadata !2787, metadata !DIExpression()), !dbg !2795
  store ptr %self.0, ptr %dst.dbg.spill, align 8, !dbg !2797
  call void @llvm.dbg.declare(metadata ptr %dst.dbg.spill, metadata !2793, metadata !DIExpression()), !dbg !2798
  store i64 %self.1, ptr %count.dbg.spill, align 8, !dbg !2799
  call void @llvm.dbg.declare(metadata ptr %count.dbg.spill, metadata !2794, metadata !DIExpression()), !dbg !2800
  br label %bb3, !dbg !2801

bb1:                                              ; preds = %start
; call core::slice::<impl [T]>::copy_from_slice::len_mismatch_fail
  call void @"_ZN4core5slice29_$LT$impl$u20$$u5b$T$u5d$$GT$15copy_from_slice17len_mismatch_fail17h0f6443b251616811E"(i64 %self.1, i64 %src.1, ptr align 8 %0) #20, !dbg !2802
  unreachable, !dbg !2802

bb3:                                              ; preds = %bb2
; call core::intrinsics::copy_nonoverlapping::precondition_check
  call void @_ZN4core10intrinsics19copy_nonoverlapping18precondition_check17h168d8abd2ef0fb81E(ptr %src.0, ptr %self.0, i64 1, i64 1, i64 %self.1) #21, !dbg !2801
  br label %bb4, !dbg !2801

bb4:                                              ; preds = %bb3
  %3 = mul i64 %self.1, 1, !dbg !2803
  call void @llvm.memcpy.p0.p0.i64(ptr align 1 %self.0, ptr align 1 %src.0, i64 %3, i1 false), !dbg !2803
  ret void, !dbg !2804
}

; core::slice::<impl [T]>::split_at_unchecked
; Function Attrs: inlinehint uwtable
define void @"_ZN4core5slice29_$LT$impl$u20$$u5b$T$u5d$$GT$18split_at_unchecked17h384b818f2d7ca797E"(ptr sret({ { ptr, i64 }, { ptr, i64 } }) align 8 %_0, ptr align 1 %self.0, i64 %self.1, i64 %mid) unnamed_addr #1 !dbg !2805 {
start:
  %data_pointer.dbg.spill = alloca ptr, align 8
  %ptr.dbg.spill = alloca ptr, align 8
  %len.dbg.spill = alloca i64, align 8
  %mid.dbg.spill = alloca i64, align 8
  %self.dbg.spill = alloca { ptr, i64 }, align 8
  %_30 = alloca %"core::ptr::metadata::PtrComponents<[u8]>", align 8
  %_29 = alloca %"core::ptr::metadata::PtrRepr<[u8]>", align 8
  %_22 = alloca %"core::ptr::metadata::PtrComponents<[u8]>", align 8
  %_21 = alloca %"core::ptr::metadata::PtrRepr<[u8]>", align 8
  %data_pointer = alloca ptr, align 8
  %_19 = alloca { ptr, i64 }, align 8
  %_18 = alloca i64, align 8
  %_17 = alloca i64, align 8
  %_16 = alloca ptr, align 8
  %len1 = alloca i64, align 8
  %count = alloca i64, align 8
  %data = alloca ptr, align 8
  %len = alloca i64, align 8
  %_8 = alloca { ptr, i64 }, align 8
  store ptr %self.0, ptr %self.dbg.spill, align 8
  %0 = getelementptr inbounds i8, ptr %self.dbg.spill, i64 8
  store i64 %self.1, ptr %0, align 8
  call void @llvm.dbg.declare(metadata ptr %self.dbg.spill, metadata !2813, metadata !DIExpression()), !dbg !2819
