; ModuleID = '298khtjw0gf4p2fb'
source_filename = "298khtjw0gf4p2fb"
target datalayout = "e-m:o-i64:64-i128:128-n32:64-S128"
target triple = "arm64-apple-macosx11.0.0"

%"core::ptr::metadata::PtrComponents<[u8]>" = type { ptr, i64 }
%"core::ptr::metadata::PtrRepr<[u8]>" = type { [2 x i64] }
%"core::slice::iter::Iter<'_, u8>" = type { ptr, ptr, %"core::marker::PhantomData<&u8>" }
%"core::marker::PhantomData<&u8>" = type {}
%"core::fmt::Error" = type {}
%"core::result::Result<core::convert::Infallible, core::fmt::Error>::Err" = type { %"core::fmt::Error" }
%"core::option::Option<usize>" = type { i64, [1 x i64] }
%"core::fmt::Arguments<'_>" = type { { ptr, i64 }, { ptr, i64 }, %"core::option::Option<&[core::fmt::rt::Placeholder]>" }
%"core::option::Option<&[core::fmt::rt::Placeholder]>" = type { ptr, [1 x i64] }
%"core::option::Option<&str>" = type { ptr, [1 x i64] }
%"core::fmt::rt::UnsafeArg" = type { {} }
%"bytes::Bytes" = type { ptr, ptr, i64, %"core::sync::atomic::AtomicPtr<()>" }
%"core::sync::atomic::AtomicPtr<()>" = type { ptr }
%"alloc::vec::Vec<u8>" = type { %"alloc::raw_vec::RawVec<u8>", i64 }
%"alloc::raw_vec::RawVec<u8>" = type { i64, ptr, %"alloc::alloc::Global" }
%"alloc::alloc::Global" = type {}
%"core::ops::range::Bound<&u8>" = type { i64, [1 x i64] }
%"{closure@src/bytes.rs:1002:39: 1002:47}" = type {}
%"{closure@src/bytes.rs:1035:39: 1035:47}" = type {}
%"bytes_mut::BytesMut" = type { ptr, i64, i64, ptr }
%"core::ops::range::RangeFull" = type {}
%"core::sync::atomic::AtomicUsize" = type { i64 }
%"core::result::Result<usize, usize>" = type { i64, [1 x i64] }
%"core::result::Result<*mut (), *mut ()>" = type { i64, [1 x i64] }
%"core::alloc::layout::Layout" = type { i64, i64 }
%"core::result::Result<core::alloc::layout::Layout, core::alloc::layout::LayoutError>" = type { i64, [1 x i64] }
%"core::ptr::non_null::NonNull<[u8]>" = type { { ptr, i64 } }
%"core::ptr::metadata::PtrComponents<[core::mem::maybe_uninit::MaybeUninit<u8>]>" = type { ptr, i64 }
%"core::ptr::metadata::PtrRepr<[core::mem::maybe_uninit::MaybeUninit<u8>]>" = type { [2 x i64] }
%"core::ops::range::Bound<&usize>" = type { i64, [1 x i64] }
%"core::ops::range::Range<usize>" = type { i64, i64 }
%"{closure@core::slice::index::range<core::ops::range::RangeFull>::{closure#1}}" = type {}
%"{closure@core::slice::index::range<core::ops::range::RangeFull>::{closure#0}}" = type {}
%"{closure@core::slice::index::range<core::ops::range::Range<usize>>::{closure#1}}" = type {}
%"{closure@core::slice::index::range<core::ops::range::Range<usize>>::{closure#0}}" = type {}
%"{closure@core::slice::index::range<core::ops::range::RangeTo<usize>>::{closure#1}}" = type {}
%"{closure@core::slice::index::range<core::ops::range::RangeTo<usize>>::{closure#0}}" = type {}
%"alloc::collections::vec_deque::drain::Drain<'_, u8>" = type { ptr, i64, i64, i64, i64, %"core::marker::PhantomData<&u8>" }
%"core::mem::manually_drop::ManuallyDrop<alloc::vec::Vec<u8>>" = type { %"alloc::vec::Vec<u8>" }
%"core::result::Result<core::ptr::non_null::NonNull<[u8]>, core::alloc::AllocError>" = type { ptr, [1 x i64] }
%"core::alloc::AllocError" = type {}
%"core::result::Result<core::convert::Infallible, core::alloc::AllocError>::Err" = type { %"core::alloc::AllocError" }
%"core::ops::control_flow::ControlFlow<core::result::Result<core::convert::Infallible, core::alloc::AllocError>, core::ptr::non_null::NonNull<[u8]>>" = type { ptr, [1 x i64] }
%"alloc::boxed::Box<[u8]>" = type { %"core::ptr::unique::Unique<[u8]>", %"alloc::alloc::Global" }
%"core::ptr::unique::Unique<[u8]>" = type { %"core::ptr::non_null::NonNull<[u8]>", %"core::marker::PhantomData<[u8]>" }
%"core::marker::PhantomData<[u8]>" = type {}
%"core::mem::manually_drop::ManuallyDrop<alloc::boxed::Box<[u8]>>" = type { %"alloc::boxed::Box<[u8]>" }
%"core::ptr::non_null::NonNull<[core::mem::maybe_uninit::MaybeUninit<u8>]>" = type { { ptr, i64 } }
%"alloc::boxed::Box<[core::mem::maybe_uninit::MaybeUninit<u8>]>" = type { %"core::ptr::unique::Unique<[core::mem::maybe_uninit::MaybeUninit<u8>]>", %"alloc::alloc::Global" }
%"core::ptr::unique::Unique<[core::mem::maybe_uninit::MaybeUninit<u8>]>" = type { %"core::ptr::non_null::NonNull<[core::mem::maybe_uninit::MaybeUninit<u8>]>", %"core::marker::PhantomData<[core::mem::maybe_uninit::MaybeUninit<u8>]>" }
%"core::marker::PhantomData<[core::mem::maybe_uninit::MaybeUninit<u8>]>" = type {}
%"core::mem::manually_drop::ManuallyDrop<alloc::boxed::Box<[core::mem::maybe_uninit::MaybeUninit<u8>]>>" = type { %"alloc::boxed::Box<[core::mem::maybe_uninit::MaybeUninit<u8>]>" }
%"core::result::Result<core::ptr::non_null::NonNull<[u8]>, alloc::collections::TryReserveError>" = type { i64, [2 x i64] }
%"alloc::collections::TryReserveErrorKind" = type { i64, [1 x i64] }
%"alloc::collections::TryReserveError" = type { %"alloc::collections::TryReserveErrorKind" }
%"core::result::Result<core::convert::Infallible, alloc::collections::TryReserveErrorKind>::Err" = type { %"alloc::collections::TryReserveErrorKind" }
%"core::result::Result<core::alloc::layout::Layout, alloc::collections::TryReserveErrorKind>" = type { i64, [2 x i64] }
%"core::ops::control_flow::ControlFlow<core::result::Result<core::convert::Infallible, alloc::collections::TryReserveErrorKind>, core::alloc::layout::Layout>" = type { i64, [2 x i64] }
%"core::result::Result<(), alloc::collections::TryReserveError>" = type { i64, [1 x i64] }
%"core::alloc::layout::LayoutError" = type {}
%"{closure@alloc::raw_vec::finish_grow<alloc::alloc::Global>::{closure#0}}" = type {}
%"core::result::Result<(), alloc::collections::TryReserveErrorKind>" = type { i64, [1 x i64] }
%"{closure@alloc::raw_vec::handle_reserve::{closure#0}}" = type {}
%"core::option::Option<(core::ptr::non_null::NonNull<u8>, core::alloc::layout::Layout)>" = type { [1 x i64], i64, [1 x i64] }
%"core::result::Result<core::convert::Infallible, alloc::collections::TryReserveError>::Err" = type { %"alloc::collections::TryReserveError" }
%"core::ops::control_flow::ControlFlow<core::result::Result<core::convert::Infallible, alloc::collections::TryReserveError>, core::ptr::non_null::NonNull<[u8]>>" = type { i64, [2 x i64] }
%"core::result::Result<usize, alloc::collections::TryReserveErrorKind>" = type { i64, [1 x i64] }
%"core::ops::control_flow::ControlFlow<core::result::Result<core::convert::Infallible, alloc::collections::TryReserveErrorKind>, usize>" = type { i64, [1 x i64] }
%"core::result::Result<core::ptr::non_null::NonNull<[u8]>, alloc::collections::TryReserveErrorKind>" = type { i64, [2 x i64] }
%"core::ops::control_flow::ControlFlow<core::result::Result<core::convert::Infallible, alloc::collections::TryReserveErrorKind>, core::ptr::non_null::NonNull<[u8]>>" = type { i64, [2 x i64] }
%"core::mem::manually_drop::ManuallyDrop<alloc::raw_vec::RawVec<u8>>" = type { %"alloc::raw_vec::RawVec<u8>" }
%"buf::iter::IntoIter<bytes_mut::BytesMut>" = type { %"bytes_mut::BytesMut" }
%"buf::iter::IntoIter<bytes::Bytes>" = type { %"bytes::Bytes" }
%"core::fmt::builders::DebugStruct<'_, '_>" = type { ptr, i8, i8, [6 x i8] }
%"core::ptr::metadata::PtrComponents<()>" = type { ptr, {} }
%"core::ptr::metadata::PtrRepr<()>" = type { [1 x i64] }
%"core::fmt::rt::Argument<'_>" = type { ptr, ptr }
%"bytes::Shared" = type { ptr, i64, %"core::sync::atomic::AtomicUsize" }
%"{closure@src/bytes.rs:877:37: 877:43}" = type {}
%"core::mem::manually_drop::ManuallyDrop<bytes::Bytes>" = type { %"bytes::Bytes" }
%"core::option::Option<core::fmt::Arguments<'_>>" = type { ptr, [5 x i64] }
%"{closure@src/bytes.rs:970:42: 970:48}" = type {}
%"{closure@src/bytes.rs:1003:32: 1003:38}" = type {}
%"{closure@src/bytes.rs:1008:19: 1008:27}" = type { ptr, ptr }
%"{closure@src/bytes.rs:1016:46: 1016:52}" = type {}
%"{closure@src/bytes.rs:1039:19: 1039:27}" = type { ptr, ptr }
%"{closure@src/bytes.rs:1147:19: 1147:27}" = type {}
%"core::mem::manually_drop::ManuallyDrop<bytes_mut::BytesMut>" = type { %"bytes_mut::BytesMut" }
%"core::result::Result<(), bytes_mut::BytesMut>" = type { ptr, [3 x i64] }
%"bytes_mut::Shared" = type { %"alloc::vec::Vec<u8>", i64, %"core::sync::atomic::AtomicUsize" }
%"core::ptr::metadata::PtrComponents<u8>" = type { ptr, {} }
%"core::ptr::metadata::PtrRepr<u8>" = type { [1 x i64] }
%"{closure@src/bytes_mut.rs:1736:19: 1736:27}" = type {}
%"core::fmt::rt::Count" = type { i64, [1 x i64] }
%"core::fmt::rt::Placeholder" = type { %"core::fmt::rt::Count", %"core::fmt::rt::Count", i64, i32, i32, i8, [7 x i8] }
%"fmt::BytesRef<'_>" = type { { ptr, i64 } }

@alloc_53973d2fe29b4adba8bb7390b5678745 = private unnamed_addr constant <{ [8 x i8] }> zeroinitializer, align 8
@alloc_424341b75ece3fa20496f1c69b9fb0ac = private unnamed_addr constant <{ [111 x i8] }> <{ [111 x i8] c"unsafe precondition(s) violated: ptr::write_bytes requires that the destination pointer is aligned and non-null" }>, align 1
@alloc_763310d78c99c2c1ad3f8a9821e942f3 = private unnamed_addr constant <{ [61 x i8] }> <{ [61 x i8] c"is_nonoverlapping: `size_of::<T>() * count` overflows a usize" }>, align 1
@alloc_8df0580a595a87d56789d20c7318e185 = private unnamed_addr constant <{ [166 x i8] }> <{ [166 x i8] c"unsafe precondition(s) violated: ptr::copy_nonoverlapping requires that both pointer arguments are aligned and non-null and the specified memory ranges do not overlap" }>, align 1
@alloc_fad0cd83b7d1858a846a172eb260e593 = private unnamed_addr constant <{ [42 x i8] }> <{ [42 x i8] c"is_aligned_to: align is not a power-of-two" }>, align 1
@alloc_041983ee8170efdaaf95ba67fd072d26 = private unnamed_addr constant <{ ptr, [8 x i8] }> <{ ptr @alloc_fad0cd83b7d1858a846a172eb260e593, [8 x i8] c"*\00\00\00\00\00\00\00" }>, align 8
@alloc_513570631223a12912d85da2bec3b15a = private unnamed_addr constant <{}> zeroinitializer, align 8
@0 = private unnamed_addr constant <{ [8 x i8], [8 x i8] }> <{ [8 x i8] zeroinitializer, [8 x i8] undef }>, align 8
@alloc_f1802761b0cba8787ff63a6853b741ad = private unnamed_addr constant <{ [81 x i8] }> <{ [81 x i8] c"/rustc/46b180ec2452d388c5d9c14009442e2e0beb01d7/library/core/src/ptr/const_ptr.rs" }>, align 1
@alloc_33f991fa5bbac1da9d8a778b0f014caf = private unnamed_addr constant <{ ptr, [16 x i8] }> <{ ptr @alloc_f1802761b0cba8787ff63a6853b741ad, [16 x i8] c"Q\00\00\00\00\00\00\00T\06\00\00\0D\00\00\00" }>, align 8
@alloc_91c7fa63c3cfeaa3c795652d5cf060e4 = private unnamed_addr constant <{ [12 x i8] }> <{ [12 x i8] c"invalid args" }>, align 1
@alloc_af99043bc04c419363a7f04d23183506 = private unnamed_addr constant <{ ptr, [8 x i8] }> <{ ptr @alloc_91c7fa63c3cfeaa3c795652d5cf060e4, [8 x i8] c"\0C\00\00\00\00\00\00\00" }>, align 8
@alloc_b471600b253f24fcc8f91ba747bf2f04 = private unnamed_addr constant <{ [75 x i8] }> <{ [75 x i8] c"/rustc/46b180ec2452d388c5d9c14009442e2e0beb01d7/library/core/src/fmt/mod.rs" }>, align 1
@alloc_4ba2c5ddff77a51f3765b0dd5f2851cc = private unnamed_addr constant <{ ptr, [16 x i8] }> <{ ptr @alloc_b471600b253f24fcc8f91ba747bf2f04, [16 x i8] c"K\00\00\00\00\00\00\00U\01\00\00\0D\00\00\00" }>, align 8
@alloc_3d28b95801fd55932918b2920be93f48 = private unnamed_addr constant <{ ptr, [16 x i8] }> <{ ptr @alloc_b471600b253f24fcc8f91ba747bf2f04, [16 x i8] c"K\00\00\00\00\00\00\00K\01\00\00\0D\00\00\00" }>, align 8
@alloc_d4d2a2a8539eafc62756407d946babb3 = private unnamed_addr constant <{ [110 x i8] }> <{ [110 x i8] c"unsafe precondition(s) violated: ptr::read_volatile requires that the pointer argument is aligned and non-null" }>, align 1
@alloc_20b3d155afd5c58c42e598b7e6d186ef = private unnamed_addr constant <{ [93 x i8] }> <{ [93 x i8] c"unsafe precondition(s) violated: NonNull::new_unchecked requires that the pointer is non-null" }>, align 1
@alloc_ec595fc0e82ef92fc59bd74f68296eae = private unnamed_addr constant <{ [73 x i8] }> <{ [73 x i8] c"assertion failed: 0 < pointee_size && pointee_size <= isize::MAX as usize" }>, align 1
@alloc_4e3a3aaf48410eaea90c90938dabe76a = private unnamed_addr constant <{ ptr, [16 x i8] }> <{ ptr @alloc_f1802761b0cba8787ff63a6853b741ad, [16 x i8] c"Q\00\00\00\00\00\00\00:\03\00\00\09\00\00\00" }>, align 8
@alloc_7efb3a7632b3620f628ce83a521b4d9b = private unnamed_addr constant <{ [71 x i8] }> <{ [71 x i8] c"unsafe precondition(s) violated: ptr::sub_ptr requires `self >= origin`" }>, align 1
@alloc_ab14703751a9eb3585c49b2e55e9a9e5 = private unnamed_addr constant <{ [104 x i8] }> <{ [104 x i8] c"unsafe precondition(s) violated: hint::assert_unchecked must never be called when the condition is false" }>, align 1
@alloc_9cd20c3e415f4d39f0ceb012cb758628 = private unnamed_addr constant <{ [40 x i8] }> <{ [40 x i8] c"there is no such thing as a release load" }>, align 1
@alloc_cf8f91dd8bc9347b20052f6ccc905cd7 = private unnamed_addr constant <{ ptr, [8 x i8] }> <{ ptr @alloc_9cd20c3e415f4d39f0ceb012cb758628, [8 x i8] c"(\00\00\00\00\00\00\00" }>, align 8
@alloc_fb04678f0d962c767fbe619d0fb3421c = private unnamed_addr constant <{ [79 x i8] }> <{ [79 x i8] c"/rustc/46b180ec2452d388c5d9c14009442e2e0beb01d7/library/core/src/sync/atomic.rs" }>, align 1
@alloc_8c9cdb58c2f0a4545f7cc326c35c8372 = private unnamed_addr constant <{ ptr, [16 x i8] }> <{ ptr @alloc_fb04678f0d962c767fbe619d0fb3421c, [16 x i8] c"O\00\00\00\00\00\00\00\EE\0C\00\00\18\00\00\00" }>, align 8
@alloc_96ab912d0054b46da785b206a96c9a45 = private unnamed_addr constant <{ [49 x i8] }> <{ [49 x i8] c"there is no such thing as an acquire-release load" }>, align 1
@alloc_7e8e9a1d4bc7d0bbec692f0a50681e22 = private unnamed_addr constant <{ ptr, [8 x i8] }> <{ ptr @alloc_96ab912d0054b46da785b206a96c9a45, [8 x i8] c"1\00\00\00\00\00\00\00" }>, align 8
@alloc_79a5c80227634b987971a232b8e75faa = private unnamed_addr constant <{ ptr, [16 x i8] }> <{ ptr @alloc_fb04678f0d962c767fbe619d0fb3421c, [16 x i8] c"O\00\00\00\00\00\00\00\EF\0C\00\00\17\00\00\00" }>, align 8
@alloc_5a43f8d94dd4505c1dba43832ce73af8 = private unnamed_addr constant <{ [52 x i8] }> <{ [52 x i8] c"there is no such thing as a release failure ordering" }>, align 1
@alloc_04ab601c54c6e0a22ff11d72dc7f4511 = private unnamed_addr constant <{ ptr, [8 x i8] }> <{ ptr @alloc_5a43f8d94dd4505c1dba43832ce73af8, [8 x i8] c"4\00\00\00\00\00\00\00" }>, align 8
@alloc_19270ecf540b1a1f8c2c2e2f9f23d498 = private unnamed_addr constant <{ ptr, [16 x i8] }> <{ ptr @alloc_fb04678f0d962c767fbe619d0fb3421c, [16 x i8] c"O\00\00\00\00\00\00\00C\0D\00\00\1D\00\00\00" }>, align 8
@alloc_7adef5546d83b439c7829602020737c6 = private unnamed_addr constant <{ [61 x i8] }> <{ [61 x i8] c"there is no such thing as an acquire-release failure ordering" }>, align 1
@alloc_dd7d8f77c173bf31726eae321f955bec = private unnamed_addr constant <{ ptr, [8 x i8] }> <{ ptr @alloc_7adef5546d83b439c7829602020737c6, [8 x i8] c"=\00\00\00\00\00\00\00" }>, align 8
@alloc_4d14c61bfb4767046945de79e7109737 = private unnamed_addr constant <{ ptr, [16 x i8] }> <{ ptr @alloc_fb04678f0d962c767fbe619d0fb3421c, [16 x i8] c"O\00\00\00\00\00\00\00B\0D\00\00\1C\00\00\00" }>, align 8
@alloc_ba0874c83e0d5d922dde9777ace7637c = private unnamed_addr constant <{ [80 x i8] }> <{ [80 x i8] c"/rustc/46b180ec2452d388c5d9c14009442e2e0beb01d7/library/core/src/alloc/layout.rs" }>, align 1
@alloc_f68de2cf1ceb450073519dc71a218631 = private unnamed_addr constant <{ ptr, [16 x i8] }> <{ ptr @alloc_ba0874c83e0d5d922dde9777ace7637c, [16 x i8] c"P\00\00\00\00\00\00\00\C1\01\00\00)\00\00\00" }>, align 8
@str.0 = internal unnamed_addr constant [25 x i8] c"attempt to divide by zero"
@alloc_81f9ea5ad36a4fd02db0f8c6040ce6ce = private unnamed_addr constant <{ [78 x i8] }> <{ [78 x i8] c"/rustc/46b180ec2452d388c5d9c14009442e2e0beb01d7/library/core/src/intrinsics.rs" }>, align 1
@alloc_3ddfd615a577a80e66751be046ca7362 = private unnamed_addr constant <{ ptr, [16 x i8] }> <{ ptr @alloc_81f9ea5ad36a4fd02db0f8c6040ce6ce, [16 x i8] c"N\00\00\00\00\00\00\00\E6\0A\00\006\00\00\00" }>, align 8
@alloc_11195730e5236cfdc15ea13be1c301f9 = private unnamed_addr constant <{ [162 x i8] }> <{ [162 x i8] c"unsafe precondition(s) violated: slice::from_raw_parts requires the pointer to be aligned and non-null, and the total size of the slice not to exceed `isize::MAX`" }>, align 1
@alloc_d685bb4d9a1abf4f5af46d1af0d9ef8a = private unnamed_addr constant <{ [166 x i8] }> <{ [166 x i8] c"unsafe precondition(s) violated: slice::from_raw_parts_mut requires the pointer to be aligned and non-null, and the total size of the slice not to exceed `isize::MAX`" }>, align 1
@alloc_4b03f4bbea191ca227ae4641b1e58763 = private unnamed_addr constant <{ [79 x i8] }> <{ [79 x i8] c"/rustc/46b180ec2452d388c5d9c14009442e2e0beb01d7/library/core/src/slice/index.rs" }>, align 1
@alloc_22acbdc11cb7ddaaa26f34a5385922ec = private unnamed_addr constant <{ ptr, [16 x i8] }> <{ ptr @alloc_4b03f4bbea191ca227ae4641b1e58763, [16 x i8] c"O\00\00\00\00\00\00\00\B9\02\00\004\00\00\00" }>, align 8
@alloc_1e6ec19ad3a9e81153f035629b4a46f8 = private unnamed_addr constant <{ ptr, [16 x i8] }> <{ ptr @alloc_4b03f4bbea191ca227ae4641b1e58763, [16 x i8] c"O\00\00\00\00\00\00\00\C1\02\00\002\00\00\00" }>, align 8
@alloc_00ae4b301f7fab8ac9617c03fcbd7274 = private unnamed_addr constant <{ [43 x i8] }> <{ [43 x i8] c"called `Result::unwrap()` on an `Err` value" }>, align 1
@vtable.1 = private constant <{ ptr, [16 x i8], ptr }> <{ ptr @"_ZN4core3ptr53drop_in_place$LT$core..alloc..layout..LayoutError$GT$17h482fec046a604ac3E", [16 x i8] c"\00\00\00\00\00\00\00\00\01\00\00\00\00\00\00\00", ptr @"_ZN69_$LT$core..alloc..layout..LayoutError$u20$as$u20$core..fmt..Debug$GT$3fmt17h4b89f3423251a9d2E" }>, align 8, !dbg !0
@vtable.2 = private constant <{ ptr, [16 x i8], ptr }> <{ ptr @"_ZN4core3ptr30drop_in_place$LT$$RF$usize$GT$17he192f534278b2e57E", [16 x i8] c"\08\00\00\00\00\00\00\00\08\00\00\00\00\00\00\00", ptr @"_ZN42_$LT$$RF$T$u20$as$u20$core..fmt..Debug$GT$3fmt17h6b1bcb3aaf29a5b5E" }>, align 8, !dbg !17
@alloc_5e4070250649c5da18b74da6c3ddae40 = private unnamed_addr constant <{ [94 x i8] }> <{ [94 x i8] c"/rustc/46b180ec2452d388c5d9c14009442e2e0beb01d7/library/alloc/src/collections/vec_deque/mod.rs" }>, align 1
@alloc_bb47c987542b1917470044e1fd4f0e59 = private unnamed_addr constant <{ ptr, [16 x i8] }> <{ ptr @alloc_5e4070250649c5da18b74da6c3ddae40, [16 x i8] c"^\00\00\00\00\00\00\00\E2\04\00\00$\00\00\00" }>, align 8
@alloc_5f8d9f35c56966671103d1e0c08baa60 = private unnamed_addr constant <{ ptr, [16 x i8] }> <{ ptr @alloc_5e4070250649c5da18b74da6c3ddae40, [16 x i8] c"^\00\00\00\00\00\00\00z\05\00\00$\00\00\00" }>, align 8
@__rust_no_alloc_shim_is_unstable = external global i8
@1 = private unnamed_addr constant <{ [8 x i8], [8 x i8] }> <{ [8 x i8] c"\01\00\00\00\00\00\00\80", [8 x i8] undef }>, align 8
@alloc_e32c9f49965bcd982ae19540c5ba95f8 = private unnamed_addr constant <{ [36 x i8] }> <{ [36 x i8] c"Tried to shrink to a larger capacity" }>, align 1
@alloc_c0da18fd55238a9589030c3ae7ac12a5 = private unnamed_addr constant <{ ptr, [8 x i8] }> <{ ptr @alloc_e32c9f49965bcd982ae19540c5ba95f8, [8 x i8] c"$\00\00\00\00\00\00\00" }>, align 8
@alloc_8b13e8ade0f2c86759cdeb492f8bdb18 = private unnamed_addr constant <{ [76 x i8] }> <{ [76 x i8] c"/rustc/46b180ec2452d388c5d9c14009442e2e0beb01d7/library/alloc/src/raw_vec.rs" }>, align 1
@alloc_e3d99dae3565dd1fe8f3b60c46aa6f69 = private unnamed_addr constant <{ ptr, [16 x i8] }> <{ ptr @alloc_8b13e8ade0f2c86759cdeb492f8bdb18, [16 x i8] c"L\00\00\00\00\00\00\00\D0\01\00\00\09\00\00\00" }>, align 8
@alloc_477d6fd19596379e27b9bd4358550877 = private unnamed_addr constant <{ [11 x i8] }> <{ [11 x i8] c"LayoutError" }>, align 1
@2 = private unnamed_addr constant <{ [8 x i8], [8 x i8] }> <{ [8 x i8] c"\02\00\00\00\00\00\00\00", [8 x i8] undef }>, align 8
@alloc_c82fa15a193294172ca2cd0ceb5e6eb1 = private unnamed_addr constant <{ [16 x i8] }> <{ [16 x i8] c"UninitSlice[...]" }>, align 1
@alloc_a40f3afa758d39b0e69a07459fb97f01 = private unnamed_addr constant <{ ptr, ptr, ptr, ptr }> <{ ptr @_ZN5bytes5bytes12static_clone17h8f8143969745ef76E, ptr @_ZN5bytes5bytes13static_to_vec17hcbdae55e186af594E, ptr @_ZN5bytes5bytes16static_is_unique17h94ec6b643d4a37e7E, ptr @_ZN5bytes5bytes11static_drop17h8dbb567daefb1938E }>, align 8
@alloc_d8c648d64635909c0a9b9df166546f23 = private unnamed_addr constant <{ [12 x i8] }> <{ [12 x i8] c"src/bytes.rs" }>, align 1
@alloc_89bb313ee30b788e02bb86014607ece7 = private unnamed_addr constant <{ ptr, [16 x i8] }> <{ ptr @alloc_d8c648d64635909c0a9b9df166546f23, [16 x i8] c"\0C\00\00\00\00\00\00\00\ED\00\00\00\17\00\00\00" }>, align 8
@alloc_5fe11efa58ed2e2f1d7b25f8460d3e2d = private unnamed_addr constant <{ [12 x i8] }> <{ [12 x i8] c"out of range" }>, align 1
@alloc_dfb01bf27cc19462cc003377ea3fc377 = private unnamed_addr constant <{ ptr, [16 x i8] }> <{ ptr @alloc_d8c648d64635909c0a9b9df166546f23, [16 x i8] c"\0C\00\00\00\00\00\00\00\0D\01\00\005\00\00\00" }>, align 8
@alloc_58ef642e8d7f9640e4b565923b62f8c9 = private unnamed_addr constant <{ ptr, [16 x i8] }> <{ ptr @alloc_d8c648d64635909c0a9b9df166546f23, [16 x i8] c"\0C\00\00\00\00\00\00\00\12\01\00\005\00\00\00" }>, align 8
@alloc_e0350bbf08fb5d2722b6b79bd68b8b16 = private unnamed_addr constant <{ [42 x i8] }> <{ [42 x i8] c"range start must not be greater than end: " }>, align 1
@alloc_0d8f95680cb954489259f79349b0e35b = private unnamed_addr constant <{ [4 x i8] }> <{ [4 x i8] c" <= " }>, align 1
@alloc_1cce3899c88de7446b1926f1e124b8f7 = private unnamed_addr constant <{ ptr, [8 x i8], ptr, [8 x i8] }> <{ ptr @alloc_e0350bbf08fb5d2722b6b79bd68b8b16, [8 x i8] c"*\00\00\00\00\00\00\00", ptr @alloc_0d8f95680cb954489259f79349b0e35b, [8 x i8] c"\04\00\00\00\00\00\00\00" }>, align 8
@alloc_33a65f4870b30397d30bd1985498de00 = private unnamed_addr constant <{ ptr, [16 x i8] }> <{ ptr @alloc_d8c648d64635909c0a9b9df166546f23, [16 x i8] c"\0C\00\00\00\00\00\00\00\17\01\00\00\09\00\00\00" }>, align 8
@alloc_b62f96e6bf8487080039fd2b3777b7de = private unnamed_addr constant <{ [25 x i8] }> <{ [25 x i8] c"range end out of bounds: " }>, align 1
@alloc_2a8b93d695dc20589e58de4064196d52 = private unnamed_addr constant <{ ptr, [8 x i8], ptr, [8 x i8] }> <{ ptr @alloc_b62f96e6bf8487080039fd2b3777b7de, [8 x i8] c"\19\00\00\00\00\00\00\00", ptr @alloc_0d8f95680cb954489259f79349b0e35b, [8 x i8] c"\04\00\00\00\00\00\00\00" }>, align 8
@alloc_883ac26f1d8893d360af2d05937d3d01 = private unnamed_addr constant <{ ptr, [16 x i8] }> <{ ptr @alloc_d8c648d64635909c0a9b9df166546f23, [16 x i8] c"\0C\00\00\00\00\00\00\00\1D\01\00\00\09\00\00\00" }>, align 8
@alloc_12afdd16c04d332facadcf920911fff1 = private unnamed_addr constant <{ ptr, [16 x i8] }> <{ ptr @alloc_d8c648d64635909c0a9b9df166546f23, [16 x i8] c"\0C\00\00\00\00\00\00\00*\01\00\00\13\00\00\00" }>, align 8
@str.3 = internal unnamed_addr constant [33 x i8] c"attempt to subtract with overflow"
@alloc_824a88181c451191eee20b2597899456 = private unnamed_addr constant <{ [16 x i8] }> <{ [16 x i8] c"subset pointer (" }>, align 1
@alloc_028a6faaaa2b00a662ff1a817af46c35 = private unnamed_addr constant <{ [32 x i8] }> <{ [32 x i8] c") is smaller than self pointer (" }>, align 1
@alloc_9e3f62b0e6490cc45676dc85f910c2d0 = private unnamed_addr constant <{ [1 x i8] }> <{ [1 x i8] c")" }>, align 1
@alloc_f8a91be0581474e41aa14ae42c85df0c = private unnamed_addr constant <{ ptr, [8 x i8], ptr, [8 x i8], ptr, [8 x i8] }> <{ ptr @alloc_824a88181c451191eee20b2597899456, [8 x i8] c"\10\00\00\00\00\00\00\00", ptr @alloc_028a6faaaa2b00a662ff1a817af46c35, [8 x i8] c" \00\00\00\00\00\00\00", ptr @alloc_9e3f62b0e6490cc45676dc85f910c2d0, [8 x i8] c"\01\00\00\00\00\00\00\00" }>, align 8
@alloc_8146395b7f671dc6d9c71f179557df22 = private unnamed_addr constant <{ ptr, [16 x i8] }> <{ ptr @alloc_d8c648d64635909c0a9b9df166546f23, [16 x i8] c"\0C\00\00\00\00\00\00\00V\01\00\00\09\00\00\00" }>, align 8
@alloc_3c9faa5e077c2e6df6a9e0434353dadd = private unnamed_addr constant <{ ptr, [16 x i8] }> <{ ptr @alloc_d8c648d64635909c0a9b9df166546f23, [16 x i8] c"\0C\00\00\00\00\00\00\00]\01\00\00\0D\00\00\00" }>, align 8
@str.4 = internal unnamed_addr constant [28 x i8] c"attempt to add with overflow"
@alloc_e3cee88310e31fea1c0d94561473d05b = private unnamed_addr constant <{ ptr, [16 x i8] }> <{ ptr @alloc_d8c648d64635909c0a9b9df166546f23, [16 x i8] c"\0C\00\00\00\00\00\00\00]\01\00\00 \00\00\00" }>, align 8
@alloc_66c01b79ee4ee70709884cb747c64783 = private unnamed_addr constant <{ [33 x i8] }> <{ [33 x i8] c"subset is out of bounds: self = (" }>, align 1
@alloc_94b00be069aafad82a2c6df764237b82 = private unnamed_addr constant <{ [2 x i8] }> <{ [2 x i8] c", " }>, align 1
@alloc_abd40d0637ac5697d2a8c0e56a3695b1 = private unnamed_addr constant <{ [13 x i8] }> <{ [13 x i8] c"), subset = (" }>, align 1
@alloc_6899f5ff026b43e1ae01f4c84cd3ad16 = private unnamed_addr constant <{ ptr, [8 x i8], ptr, [8 x i8], ptr, [8 x i8], ptr, [8 x i8], ptr, [8 x i8] }> <{ ptr @alloc_66c01b79ee4ee70709884cb747c64783, [8 x i8] c"!\00\00\00\00\00\00\00", ptr @alloc_94b00be069aafad82a2c6df764237b82, [8 x i8] c"\02\00\00\00\00\00\00\00", ptr @alloc_abd40d0637ac5697d2a8c0e56a3695b1, [8 x i8] c"\0D\00\00\00\00\00\00\00", ptr @alloc_94b00be069aafad82a2c6df764237b82, [8 x i8] c"\02\00\00\00\00\00\00\00", ptr @alloc_9e3f62b0e6490cc45676dc85f910c2d0, [8 x i8] c"\01\00\00\00\00\00\00\00" }>, align 8
@alloc_0c2ff4cc04cda394bb1099cc4f75b1b0 = private unnamed_addr constant <{ ptr, [16 x i8] }> <{ ptr @alloc_d8c648d64635909c0a9b9df166546f23, [16 x i8] c"\0C\00\00\00\00\00\00\00\\\01\00\00\09\00\00\00" }>, align 8
@alloc_c2467d7832160ff3c39fe0f81bdb8e71 = private unnamed_addr constant <{ ptr, [16 x i8] }> <{ ptr @alloc_d8c648d64635909c0a9b9df166546f23, [16 x i8] c"\0C\00\00\00\00\00\00\00e\01\00\00\1A\00\00\00" }>, align 8
@alloc_28d79f3a961c769cd8ce537be55e43ea = private unnamed_addr constant <{ ptr, [16 x i8] }> <{ ptr @alloc_d8c648d64635909c0a9b9df166546f23, [16 x i8] c"\0C\00\00\00\00\00\00\00g\01\00\00 \00\00\00" }>, align 8
@alloc_fee5ae1a8b520be114eb1779f80ba7c7 = private unnamed_addr constant <{ [25 x i8] }> <{ [25 x i8] c"split_off out of bounds: " }>, align 1
@alloc_c189d4c49e712b39f41af503b83ba43d = private unnamed_addr constant <{ ptr, [8 x i8], ptr, [8 x i8] }> <{ ptr @alloc_fee5ae1a8b520be114eb1779f80ba7c7, [8 x i8] c"\19\00\00\00\00\00\00\00", ptr @alloc_0d8f95680cb954489259f79349b0e35b, [8 x i8] c"\04\00\00\00\00\00\00\00" }>, align 8
@alloc_51270ef2ffe1f8e5eb11da6d2c21e4bb = private unnamed_addr constant <{ ptr, [16 x i8] }> <{ ptr @alloc_d8c648d64635909c0a9b9df166546f23, [16 x i8] c"\0C\00\00\00\00\00\00\00\83\01\00\00\09\00\00\00" }>, align 8
@alloc_ae739b9561f423faaaea2d02e95be3dd = private unnamed_addr constant <{ [24 x i8] }> <{ [24 x i8] c"split_to out of bounds: " }>, align 1
@alloc_c8897511ca59ecfb1f6bedf3e8f0cc59 = private unnamed_addr constant <{ ptr, [8 x i8], ptr, [8 x i8] }> <{ ptr @alloc_ae739b9561f423faaaea2d02e95be3dd, [8 x i8] c"\18\00\00\00\00\00\00\00", ptr @alloc_0d8f95680cb954489259f79349b0e35b, [8 x i8] c"\04\00\00\00\00\00\00\00" }>, align 8
@alloc_0bee552e8e07593d7cf23095a49a9de4 = private unnamed_addr constant <{ ptr, [16 x i8] }> <{ ptr @alloc_d8c648d64635909c0a9b9df166546f23, [16 x i8] c"\0C\00\00\00\00\00\00\00\B4\01\00\00\09\00\00\00" }>, align 8
@alloc_53d26f9eb585a89b4f964be139b476c5 = private unnamed_addr constant <{ [33 x i8] }> <{ [33 x i8] c"internal: inc_start out of bounds" }>, align 1
@alloc_dc836f5ed16fd7b94ede2e09a3c7c41c = private unnamed_addr constant <{ ptr, [16 x i8] }> <{ ptr @alloc_d8c648d64635909c0a9b9df166546f23, [16 x i8] c"\0C\00\00\00\00\00\00\00\16\02\00\00\09\00\00\00" }>, align 8
@alloc_e1e3ff902ae6f5f555e49bfd5f1daf9f = private unnamed_addr constant <{ ptr, [16 x i8] }> <{ ptr @alloc_d8c648d64635909c0a9b9df166546f23, [16 x i8] c"\0C\00\00\00\00\00\00\00\17\02\00\00\09\00\00\00" }>, align 8
@alloc_de9dca4728756795b3becc85746864e7 = private unnamed_addr constant <{ [33 x i8] }> <{ [33 x i8] c"cannot advance past `remaining`: " }>, align 1
@alloc_6bfdfb8bcd23c0b92c7ad94f83aa7a1b = private unnamed_addr constant <{ ptr, [8 x i8], ptr, [8 x i8] }> <{ ptr @alloc_de9dca4728756795b3becc85746864e7, [8 x i8] c"!\00\00\00\00\00\00\00", ptr @alloc_0d8f95680cb954489259f79349b0e35b, [8 x i8] c"\04\00\00\00\00\00\00\00" }>, align 8
@alloc_3b6682554b269f3f5cc752ddaca21e7d = private unnamed_addr constant <{ ptr, [16 x i8] }> <{ ptr @alloc_d8c648d64635909c0a9b9df166546f23, [16 x i8] c"\0C\00\00\00\00\00\00\00;\02\00\00\09\00\00\00" }>, align 8
@alloc_112f445bbacfa41b703c8d12a4a88016 = private unnamed_addr constant <{ ptr, [16 x i8] }> <{ ptr @alloc_d8c648d64635909c0a9b9df166546f23, [16 x i8] c"\0C\00\00\00\00\00\00\00\D1\02\00\00\17\00\00\00" }>, align 8
@alloc_f9895b01339bd7bf8b6d8d9a51dc3153 = private unnamed_addr constant <{ ptr, [16 x i8] }> <{ ptr @alloc_d8c648d64635909c0a9b9df166546f23, [16 x i8] c"\0C\00\00\00\00\00\00\00\D7\02\00\00+\00\00\00" }>, align 8
@alloc_ee1954bf9a87da0f42b93bfd98d8c022 = private unnamed_addr constant <{ ptr, [16 x i8] }> <{ ptr @alloc_d8c648d64635909c0a9b9df166546f23, [16 x i8] c"\0C\00\00\00\00\00\00\00\E9\02\00\00\17\00\00\00" }>, align 8
@alloc_260471cc4963c8d1d3fd5098929c1d4a = private unnamed_addr constant <{ [52 x i8] }> <{ [52 x i8] c"internal: Box<Shared> should have an aligned pointer" }>, align 1
@alloc_0f90876e9047ec53673627ea24f71145 = private unnamed_addr constant <{ ptr, [16 x i8] }> <{ ptr @alloc_d8c648d64635909c0a9b9df166546f23, [16 x i8] c"\0C\00\00\00\00\00\00\00S\03\00\00\09\00\00\00" }>, align 8
@alloc_c34b60a547705fd4250e66a96d65d6e9 = private unnamed_addr constant <{ [6 x i8] }> <{ [6 x i8] c"Vtable" }>, align 1
@alloc_7eab753df349d7fd1aecd63c50e80021 = private unnamed_addr constant <{ [5 x i8] }> <{ [5 x i8] c"clone" }>, align 1
@vtable.5 = private constant <{ ptr, [16 x i8], ptr }> <{ ptr @"_ZN4core3ptr43drop_in_place$LT$$BP$const$u20$$LP$$RP$$GT$17hefba5650d3bdc9dcE", [16 x i8] c"\08\00\00\00\00\00\00\00\08\00\00\00\00\00\00\00", ptr @"_ZN52_$LT$$BP$const$u20$T$u20$as$u20$core..fmt..Debug$GT$3fmt17h14b714430a40c238E" }>, align 8, !dbg !26
@alloc_bae392b842f752aea5f08c681783b48b = private unnamed_addr constant <{ [4 x i8] }> <{ [4 x i8] c"drop" }>, align 1
@_ZN5bytes5bytes22PROMOTABLE_EVEN_VTABLE17hd5e694a94ef007deE = constant <{ ptr, ptr, ptr, ptr }> <{ ptr @_ZN5bytes5bytes21promotable_even_clone17he0ae9c006fe4b70cE, ptr @_ZN5bytes5bytes22promotable_even_to_vec17hc45cf28b67a2e02bE, ptr @_ZN5bytes5bytes20promotable_is_unique17h2d16abe3b1d33abfE, ptr @_ZN5bytes5bytes20promotable_even_drop17h6a3e5159e7a4ad2cE }>, align 8, !dbg !34
@_ZN5bytes5bytes21PROMOTABLE_ODD_VTABLE17h66e36e8ae3c7f584E = constant <{ ptr, ptr, ptr, ptr }> <{ ptr @_ZN5bytes5bytes20promotable_odd_clone17h05a1498be4950901E, ptr @_ZN5bytes5bytes21promotable_odd_to_vec17h422f5b4ff49c5066E, ptr @_ZN5bytes5bytes20promotable_is_unique17h2d16abe3b1d33abfE, ptr @_ZN5bytes5bytes19promotable_odd_drop17hdf1061938ae3a0b8E }>, align 8, !dbg !116
@alloc_edb3ed16ed07237eac14eb16826c52e0 = private unnamed_addr constant <{ [8 x i8] }> <{ [8 x i8] c"\01\00\00\00\00\00\00\00" }>, align 8
@alloc_ab521bc9051d74c334ddb535a92a2407 = private unnamed_addr constant <{ ptr, [16 x i8] }> <{ ptr @alloc_d8c648d64635909c0a9b9df166546f23, [16 x i8] c"\0C\00\00\00\00\00\00\00\C9\03\00\00\09\00\00\00" }>, align 8
@alloc_f5429a677f5e922c2da0d86948ca9cdc = private unnamed_addr constant <{ ptr, [16 x i8] }> <{ ptr @alloc_d8c648d64635909c0a9b9df166546f23, [16 x i8] c"\0C\00\00\00\00\00\00\00\DC\03\00\00\09\00\00\00" }>, align 8
@alloc_b6bebda3219423511f3cbd359c0ae1b7 = private unnamed_addr constant <{ ptr, [16 x i8] }> <{ ptr @alloc_d8c648d64635909c0a9b9df166546f23, [16 x i8] c"\0C\00\00\00\00\00\00\00\E0\03\00\00\13\00\00\00" }>, align 8
@alloc_1e40e85a77cd2f13611935a0b8010481 = private unnamed_addr constant <{ ptr, [16 x i8] }> <{ ptr @alloc_d8c648d64635909c0a9b9df166546f23, [16 x i8] c"\0C\00\00\00\00\00\00\00\F7\03\00\00\0D\00\00\00" }>, align 8
@alloc_2787932d8dfa799325690d2cd3a0c3cd = private unnamed_addr constant <{ ptr, [16 x i8] }> <{ ptr @alloc_d8c648d64635909c0a9b9df166546f23, [16 x i8] c"\0C\00\00\00\00\00\00\00\05\04\00\00\09\00\00\00" }>, align 8
@alloc_03ce445dccb2e4c7284b8f8f836af808 = private unnamed_addr constant <{ ptr, [16 x i8] }> <{ ptr @alloc_d8c648d64635909c0a9b9df166546f23, [16 x i8] c"\0C\00\00\00\00\00\00\00\16\04\00\00\0D\00\00\00" }>, align 8
@alloc_23781ce79b9ff365d5ad418492bf7b2d = private unnamed_addr constant <{ ptr, [16 x i8] }> <{ ptr @alloc_d8c648d64635909c0a9b9df166546f23, [16 x i8] c"\0C\00\00\00\00\00\00\00*\04\00\00\0F\00\00\00" }>, align 8
@alloc_c8cbb0702a277041a6beee3a5aae5c1b = private unnamed_addr constant <{ ptr, [16 x i8] }> <{ ptr @alloc_d8c648d64635909c0a9b9df166546f23, [16 x i8] c"\0C\00\00\00\00\00\00\00+\04\00\002\00\00\00" }>, align 8
@alloc_3a600f5a81592f7242d54385e47a4764 = private unnamed_addr constant <{ ptr, [16 x i8] }> <{ ptr @alloc_d8c648d64635909c0a9b9df166546f23, [16 x i8] c"\0C\00\00\00\00\00\00\009\04\00\00I\00\00\00" }>, align 8
@_ZN5bytes5bytes13SHARED_VTABLE17h0c9ff62309450a48E = internal constant <{ ptr, ptr, ptr, ptr }> <{ ptr @_ZN5bytes5bytes12shared_clone17hdcad12af0fdcb713E, ptr @_ZN5bytes5bytes13shared_to_vec17h8333c0751ec24590E, ptr @_ZN5bytes5bytes16shared_is_unique17hb8bad4a85e332337E, ptr @_ZN5bytes5bytes11shared_drop17h2c9e5542d6a61a41E }>, align 8, !dbg !118
@alloc_b60207b8e60539ad59fe9feb38f85977 = private unnamed_addr constant <{ ptr, [16 x i8] }> <{ ptr @alloc_d8c648d64635909c0a9b9df166546f23, [16 x i8] c"\0C\00\00\00\00\00\00\00_\04\00\00\13\00\00\00" }>, align 8
@alloc_7ee4fe9006ac2ee684501f68c822d93a = private unnamed_addr constant <{ ptr, [16 x i8] }> <{ ptr @alloc_d8c648d64635909c0a9b9df166546f23, [16 x i8] c"\0C\00\00\00\00\00\00\00`\04\00\00\13\00\00\00" }>, align 8
@alloc_fec0a2e94910f027315f6d993d2185c4 = private unnamed_addr constant <{ ptr, [16 x i8] }> <{ ptr @alloc_d8c648d64635909c0a9b9df166546f23, [16 x i8] c"\0C\00\00\00\00\00\00\00\A4\04\00\00\0E\00\00\00" }>, align 8
@alloc_10cca9d63365e71b7503abe7b4c5ea6f = private unnamed_addr constant <{ [49 x i8] }> <{ [49 x i8] c"assertion failed: actual as usize == ptr as usize" }>, align 1
@alloc_827e3c5174b4100aaf83eb7a46ce27cb = private unnamed_addr constant <{ ptr, [16 x i8] }> <{ ptr @alloc_d8c648d64635909c0a9b9df166546f23, [16 x i8] c"\0C\00\00\00\00\00\00\00\BF\04\00\00\0D\00\00\00" }>, align 8
@alloc_07c1d35154fac311aa43f321f8de7de5 = private unnamed_addr constant <{ ptr, [16 x i8] }> <{ ptr @alloc_d8c648d64635909c0a9b9df166546f23, [16 x i8] c"\0C\00\00\00\00\00\00\00\CE\04\00\00\19\00\00\00" }>, align 8
@alloc_58b7036f5873691772733d54911dd1c0 = private unnamed_addr constant <{ ptr, [16 x i8] }> <{ ptr @alloc_d8c648d64635909c0a9b9df166546f23, [16 x i8] c"\0C\00\00\00\00\00\00\00\AF\04\00\00\05\00\00\00" }>, align 8
@alloc_2382c0e0014a865a240ab784bfee65fd = private unnamed_addr constant <{ [16 x i8] }> <{ [16 x i8] c"src/bytes_mut.rs" }>, align 1
@alloc_20e2111b601b588de30ce852926b837e = private unnamed_addr constant <{ ptr, [16 x i8] }> <{ ptr @alloc_2382c0e0014a865a240ab784bfee65fd, [16 x i8] c"\10\00\00\00\00\00\00\00\02\01\00\00\0D\00\00\00" }>, align 8
@alloc_c6fef77d3766a888f686459f70cd532c = private unnamed_addr constant <{ ptr, [16 x i8] }> <{ ptr @alloc_2382c0e0014a865a240ab784bfee65fd, [16 x i8] c"\10\00\00\00\00\00\00\00\FD\00\00\00(\00\00\00" }>, align 8
@alloc_f099f3a9758665c46f18af59d311875c = private unnamed_addr constant <{ ptr, [16 x i8] }> <{ ptr @alloc_2382c0e0014a865a240ab784bfee65fd, [16 x i8] c"\10\00\00\00\00\00\00\007\01\00\00\09\00\00\00" }>, align 8
@alloc_cd5a02bb4433d27b893c009ae2e16983 = private unnamed_addr constant <{ ptr, [16 x i8] }> <{ ptr @alloc_2382c0e0014a865a240ab784bfee65fd, [16 x i8] c"\10\00\00\00\00\00\00\00\82\01\00\00\09\00\00\00" }>, align 8
@alloc_1863b14a32ffd69d0a5a4b34b1534379 = private unnamed_addr constant <{ ptr, [16 x i8] }> <{ ptr @alloc_2382c0e0014a865a240ab784bfee65fd, [16 x i8] c"\10\00\00\00\00\00\00\00\D8\01\00\00\1E\00\00\00" }>, align 8
@alloc_9684b5e7477e48483c83c0a07d30cf7b = private unnamed_addr constant <{ [21 x i8] }> <{ [21 x i8] c"set_len out of bounds" }>, align 1
@alloc_272fb70221f6c781152a79c5003d819d = private unnamed_addr constant <{ ptr, [16 x i8] }> <{ ptr @alloc_2382c0e0014a865a240ab784bfee65fd, [16 x i8] c"\10\00\00\00\00\00\00\00\FF\01\00\00\09\00\00\00" }>, align 8
@alloc_49dc181b75ca1223f9bebd056a08d2a5 = private unnamed_addr constant <{ ptr, [16 x i8] }> <{ ptr @alloc_2382c0e0014a865a240ab784bfee65fd, [16 x i8] c"\10\00\00\00\00\00\00\00@\02\00\00\13\00\00\00" }>, align 8
@alloc_d0df6742df1bcac4957229573f51de2b = private unnamed_addr constant <{ ptr, [16 x i8] }> <{ ptr @alloc_2382c0e0014a865a240ab784bfee65fd, [16 x i8] c"\10\00\00\00\00\00\00\00\8A\02\00\00\09\00\00\00" }>, align 8
@alloc_ba7c5867f1e4ad88a0ad2a64b2400b74 = private unnamed_addr constant <{ [8 x i8] }> <{ [8 x i8] c"overflow" }>, align 1
@alloc_7e2f0fa2d6807e32c9dd624f8f7d4218 = private unnamed_addr constant <{ ptr, [16 x i8] }> <{ ptr @alloc_2382c0e0014a865a240ab784bfee65fd, [16 x i8] c"\10\00\00\00\00\00\00\00\91\02\00\007\00\00\00" }>, align 8
@alloc_e7f03d63f7391976a81f015aa52b5cdf = private unnamed_addr constant <{ ptr, [16 x i8] }> <{ ptr @alloc_2382c0e0014a865a240ab784bfee65fd, [16 x i8] c"\10\00\00\00\00\00\00\00\DA\02\00\00/\00\00\00" }>, align 8
@alloc_c08b450d4c27b24a1c492e31b82ee1f6 = private unnamed_addr constant <{ ptr, [16 x i8] }> <{ ptr @alloc_2382c0e0014a865a240ab784bfee65fd, [16 x i8] c"\10\00\00\00\00\00\00\00\A3\02\00\00\22\00\00\00" }>, align 8
@alloc_f277d7ebad2549fb75dcf9468c0838cb = private unnamed_addr constant <{ ptr, [16 x i8] }> <{ ptr @alloc_2382c0e0014a865a240ab784bfee65fd, [16 x i8] c"\10\00\00\00\00\00\00\00\B1\02\00\00\1F\00\00\00" }>, align 8
@alloc_ffa50b6218732ff1fca4376659a28d17 = private unnamed_addr constant <{ ptr, [16 x i8] }> <{ ptr @alloc_2382c0e0014a865a240ab784bfee65fd, [16 x i8] c"\10\00\00\00\00\00\00\00\B7\02\00\008\00\00\00" }>, align 8
@alloc_3d4375d8ea93014472421b196430f2d9 = private unnamed_addr constant <{ ptr, [16 x i8] }> <{ ptr @alloc_2382c0e0014a865a240ab784bfee65fd, [16 x i8] c"\10\00\00\00\00\00\00\00\CD\02\00\00#\00\00\00" }>, align 8
@alloc_91fcee4c522bbe84a9b393d6aca9893a = private unnamed_addr constant <{ [43 x i8] }> <{ [43 x i8] c"assertion failed: off + len <= v.capacity()" }>, align 1
@alloc_87280c7fd2cbb4e90002bd4ce84b407d = private unnamed_addr constant <{ ptr, [16 x i8] }> <{ ptr @alloc_2382c0e0014a865a240ab784bfee65fd, [16 x i8] c"\10\00\00\00\00\00\00\00\CD\02\00\00\15\00\00\00" }>, align 8
@alloc_84a53dbdf646ab1a1dd4a0fad9c8e114 = private unnamed_addr constant <{ ptr, [16 x i8] }> <{ ptr @alloc_2382c0e0014a865a240ab784bfee65fd, [16 x i8] c"\10\00\00\00\00\00\00\00\CE\02\00\00\1F\00\00\00" }>, align 8
@alloc_22c96598e9eab31aa109ff2baf65d612 = private unnamed_addr constant <{ ptr, [16 x i8] }> <{ ptr @alloc_2382c0e0014a865a240ab784bfee65fd, [16 x i8] c"\10\00\00\00\00\00\00\00\CF\02\00\00\1F\00\00\00" }>, align 8
@alloc_17c21bf5bd9985bebccad035a534dec2 = private unnamed_addr constant <{ ptr, [16 x i8] }> <{ ptr @alloc_2382c0e0014a865a240ab784bfee65fd, [16 x i8] c"\10\00\00\00\00\00\00\00\D3\02\00\00 \00\00\00" }>, align 8
@alloc_28a1d49f5eb680c209758098866d228b = private unnamed_addr constant <{ ptr, [16 x i8] }> <{ ptr @alloc_2382c0e0014a865a240ab784bfee65fd, [16 x i8] c"\10\00\00\00\00\00\00\00j\02\00\00\14\00\00\00" }>, align 8
@alloc_e9f4045accf204872662aca1efb6df61 = private unnamed_addr constant <{ ptr, [16 x i8] }> <{ ptr @alloc_2382c0e0014a865a240ab784bfee65fd, [16 x i8] c"\10\00\00\00\00\00\00\00\82\02\00\00 \00\00\00" }>, align 8
@alloc_ceee15b0fe82ab1998dd192f88147cb0 = private unnamed_addr constant <{ ptr, [16 x i8] }> <{ ptr @alloc_2382c0e0014a865a240ab784bfee65fd, [16 x i8] c"\10\00\00\00\00\00\00\00\83\02\00\00 \00\00\00" }>, align 8
@alloc_04ee88f552a3c985f44628ff5eae6096 = private unnamed_addr constant <{ ptr, [16 x i8] }> <{ ptr @alloc_2382c0e0014a865a240ab784bfee65fd, [16 x i8] c"\10\00\00\00\00\00\00\00x\02\00\00\15\00\00\00" }>, align 8
@alloc_4d5024ac9ad8f0d077e481a3b516049f = private unnamed_addr constant <{ [34 x i8] }> <{ [34 x i8] c"assertion failed: dst.len() >= cnt" }>, align 1
@alloc_d0259d199433c7beff9411819ae93b5c = private unnamed_addr constant <{ ptr, [16 x i8] }> <{ ptr @alloc_2382c0e0014a865a240ab784bfee65fd, [16 x i8] c"\10\00\00\00\00\00\00\00\09\03\00\00\0D\00\00\00" }>, align 8
@alloc_221645aeb6a732e6dca31d9c7d9bfb5c = private unnamed_addr constant <{ [33 x i8] }> <{ [33 x i8] c"internal: set_start out of bounds" }>, align 1
@alloc_25fbd136d07cb45fed3039b6dd4dda20 = private unnamed_addr constant <{ ptr, [16 x i8] }> <{ ptr @alloc_2382c0e0014a865a240ab784bfee65fd, [16 x i8] c"\10\00\00\00\00\00\00\00f\03\00\00\09\00\00\00" }>, align 8
@alloc_20b7325d4fde983165464fb6e239cb60 = private unnamed_addr constant <{ ptr, [16 x i8] }> <{ ptr @alloc_2382c0e0014a865a240ab784bfee65fd, [16 x i8] c"\10\00\00\00\00\00\00\00o\03\00\00\17\00\00\00" }>, align 8
@alloc_811397ab46bfd7fbad4b643137cc36ff = private unnamed_addr constant <{ ptr, [16 x i8] }> <{ ptr @alloc_2382c0e0014a865a240ab784bfee65fd, [16 x i8] c"\10\00\00\00\00\00\00\00\81\03\00\00\09\00\00\00" }>, align 8
@alloc_51f2236a80cf306ce6e9e6734fa2ec1e = private unnamed_addr constant <{ ptr, [16 x i8] }> <{ ptr @alloc_2382c0e0014a865a240ab784bfee65fd, [16 x i8] c"\10\00\00\00\00\00\00\00\90\03\00\00\0D\00\00\00" }>, align 8
@alloc_0730702c12f05352aebaac39de1843d0 = private unnamed_addr constant <{ ptr, [16 x i8] }> <{ ptr @alloc_2382c0e0014a865a240ab784bfee65fd, [16 x i8] c"\10\00\00\00\00\00\00\00\91\03\00\00\0D\00\00\00" }>, align 8
@alloc_ef20c57352ee430a2799b6992b68d295 = private unnamed_addr constant <{ ptr, [16 x i8] }> <{ ptr @alloc_2382c0e0014a865a240ab784bfee65fd, [16 x i8] c"\10\00\00\00\00\00\00\00\9E\03\00\00\09\00\00\00" }>, align 8
@alloc_0a7610243d8cbec29031aee8c3e816b6 = private unnamed_addr constant <{ ptr, [16 x i8] }> <{ ptr @alloc_2382c0e0014a865a240ab784bfee65fd, [16 x i8] c"\10\00\00\00\00\00\00\00\B9\03\00\00\09\00\00\00" }>, align 8
@alloc_3d64e911fa10cd4ace47846b6819f341 = private unnamed_addr constant <{ [46 x i8] }> <{ [46 x i8] c"assertion failed: ref_cnt == 1 || ref_cnt == 2" }>, align 1
@alloc_60379ec63ef26a4766f1b210746f7206 = private unnamed_addr constant <{ ptr, [16 x i8] }> <{ ptr @alloc_2382c0e0014a865a240ab784bfee65fd, [16 x i8] c"\10\00\00\00\00\00\00\00\9F\03\00\00\09\00\00\00" }>, align 8
@alloc_cd4402ad6b46513b3c9ee52a96d20147 = private unnamed_addr constant <{ ptr, [16 x i8] }> <{ ptr @alloc_2382c0e0014a865a240ab784bfee65fd, [16 x i8] c"\10\00\00\00\00\00\00\00\D1\03\00\00\09\00\00\00" }>, align 8
@alloc_d79e8d887437299012382b202223b2de = private unnamed_addr constant <{ ptr, [16 x i8] }> <{ ptr @alloc_2382c0e0014a865a240ab784bfee65fd, [16 x i8] c"\10\00\00\00\00\00\00\00\D8\03\00\00\09\00\00\00" }>, align 8
@alloc_562c954d76ebab221c3089b909c9cccd = private unnamed_addr constant <{ [36 x i8] }> <{ [36 x i8] c"assertion failed: pos <= MAX_VEC_POS" }>, align 1
@alloc_eff79a90b2247338187d903e4e91f846 = private unnamed_addr constant <{ ptr, [16 x i8] }> <{ ptr @alloc_2382c0e0014a865a240ab784bfee65fd, [16 x i8] c"\10\00\00\00\00\00\00\00\D9\03\00\00\09\00\00\00" }>, align 8
@alloc_abd8033c3dff57eb93ffb70fbb4e177d = private unnamed_addr constant <{ ptr, [16 x i8] }> <{ ptr @alloc_2382c0e0014a865a240ab784bfee65fd, [16 x i8] c"\10\00\00\00\00\00\00\00\FF\03\00\00\17\00\00\00" }>, align 8
@alloc_abeb43b21c8889ad8832b5c976445b7c = private unnamed_addr constant <{ ptr, [16 x i8] }> <{ ptr @alloc_2382c0e0014a865a240ab784bfee65fd, [16 x i8] c"\10\00\00\00\00\00\00\00>\04\00\00\19\00\00\00" }>, align 8
@alloc_e491863d5b5f39c0b20ba4abe185ce9b = private unnamed_addr constant <{ ptr, [16 x i8] }> <{ ptr @alloc_2382c0e0014a865a240ab784bfee65fd, [16 x i8] c"\10\00\00\00\00\00\00\00C\04\00\00\14\00\00\00" }>, align 8
@alloc_54428b93a2546239be35b86dc93b9ef3 = private unnamed_addr constant <{ ptr, [16 x i8] }> <{ ptr @alloc_2382c0e0014a865a240ab784bfee65fd, [16 x i8] c"\10\00\00\00\00\00\00\00K\04\00\00#\00\00\00" }>, align 8
@alloc_277e6df3f47a1075f6bd9cafbbe47b99 = private unnamed_addr constant <{ ptr, [16 x i8] }> <{ ptr @alloc_2382c0e0014a865a240ab784bfee65fd, [16 x i8] c"\10\00\00\00\00\00\00\00f\04\00\00\0D\00\00\00" }>, align 8
@alloc_c522e0b51b7343dfb295e10d67fe4c8c = private unnamed_addr constant <{ ptr, [16 x i8] }> <{ ptr @alloc_2382c0e0014a865a240ab784bfee65fd, [16 x i8] c"\10\00\00\00\00\00\00\00\E3\04\00\00\1D\00\00\00" }>, align 8
@alloc_16ad775dc53c1775d5cf28f72aa0dd89 = private unnamed_addr constant <{ ptr, [16 x i8] }> <{ ptr @alloc_2382c0e0014a865a240ab784bfee65fd, [16 x i8] c"\10\00\00\00\00\00\00\00k\05\00\00\11\00\00\00" }>, align 8
@alloc_cf24b0c17489891c01b263c98dc64171 = private unnamed_addr constant <{ ptr, [16 x i8] }> <{ ptr @alloc_2382c0e0014a865a240ab784bfee65fd, [16 x i8] c"\10\00\00\00\00\00\00\00w\05\00\00\0A\00\00\00" }>, align 8
@alloc_1c4a5d2791b875e2503acb21f3c5517d = private unnamed_addr constant <{ ptr, [16 x i8] }> <{ ptr @alloc_2382c0e0014a865a240ab784bfee65fd, [16 x i8] c"\10\00\00\00\00\00\00\00w\05\00\00\05\00\00\00" }>, align 8
@str.6 = internal unnamed_addr constant [35 x i8] c"attempt to shift left with overflow"
@alloc_563f69e0b820e490fabef79d84d43f7e = private unnamed_addr constant <{ ptr, [16 x i8] }> <{ ptr @alloc_2382c0e0014a865a240ab784bfee65fd, [16 x i8] c"\10\00\00\00\00\00\00\00\EB\05\00\00\17\00\00\00" }>, align 8
@alloc_6b96cc8086124a39edac60d722a9678e = private unnamed_addr constant <{ ptr, [16 x i8] }> <{ ptr @alloc_2382c0e0014a865a240ab784bfee65fd, [16 x i8] c"\10\00\00\00\00\00\00\00\F1\05\00\00$\00\00\00" }>, align 8
@alloc_343f7d7bbd816f3708941b759b81f898 = private unnamed_addr constant <{ ptr, [16 x i8] }> <{ ptr @alloc_2382c0e0014a865a240ab784bfee65fd, [16 x i8] c"\10\00\00\00\00\00\00\00\03\06\00\00\17\00\00\00" }>, align 8
@alloc_ca0a2c4baa75a67998b3fea222a425e5 = private unnamed_addr constant <{ ptr, [16 x i8] }> <{ ptr @alloc_2382c0e0014a865a240ab784bfee65fd, [16 x i8] c"\10\00\00\00\00\00\00\00E\06\00\00\0E\00\00\00" }>, align 8
@alloc_805d82959bd0a3a7e12c3934471b3072 = private unnamed_addr constant <{ ptr, [16 x i8] }> <{ ptr @alloc_2382c0e0014a865a240ab784bfee65fd, [16 x i8] c"\10\00\00\00\00\00\00\00E\06\00\00\1A\00\00\00" }>, align 8
@alloc_a75c13d3dd426779b3683d105ea66cf8 = private unnamed_addr constant <{ ptr, [16 x i8] }> <{ ptr @alloc_2382c0e0014a865a240ab784bfee65fd, [16 x i8] c"\10\00\00\00\00\00\00\00K\06\00\00\0E\00\00\00" }>, align 8
@alloc_843534a75e3b33623307c8979dc6a4a7 = private unnamed_addr constant <{ ptr, [16 x i8] }> <{ ptr @alloc_2382c0e0014a865a240ab784bfee65fd, [16 x i8] c"\10\00\00\00\00\00\00\00K\06\00\00\1A\00\00\00" }>, align 8
@alloc_3d6ac477fe4d8f9d13a5b7669a0d8147 = private unnamed_addr constant <{ [30 x i8] }> <{ [30 x i8] c"Vec pointer should be non-null" }>, align 1
@alloc_31af955b6bd9db7d0e8e52e117077a33 = private unnamed_addr constant <{ ptr, [16 x i8] }> <{ ptr @alloc_2382c0e0014a865a240ab784bfee65fd, [16 x i8] c"\10\00\00\00\00\00\00\00u\06\00\00\1B\00\00\00" }>, align 8
@alloc_afb8f3588441d86839eb0f15d1adaa4d = private unnamed_addr constant <{ ptr, [16 x i8] }> <{ ptr @alloc_2382c0e0014a865a240ab784bfee65fd, [16 x i8] c"\10\00\00\00\00\00\00\00\83\06\00\00\05\00\00\00" }>, align 8
@alloc_01d47fe6916700d3c3518c07f5597d61 = private unnamed_addr constant <{ [33 x i8] }> <{ [33 x i8] c"assertion failed: dst >= original" }>, align 1
@alloc_1d8ec0968c4ec1162d962b781f86f38d = private unnamed_addr constant <{ ptr, [16 x i8] }> <{ ptr @alloc_2382c0e0014a865a240ab784bfee65fd, [16 x i8] c"\10\00\00\00\00\00\00\00\93\06\00\00\05\00\00\00" }>, align 8
@alloc_8ea04cdec5acb8fa5b9134a57c3ceeec = private unnamed_addr constant <{ ptr, [16 x i8] }> <{ ptr @alloc_2382c0e0014a865a240ab784bfee65fd, [16 x i8] c"\10\00\00\00\00\00\00\00\95\06\00\00\05\00\00\00" }>, align 8
@alloc_f0ae11782d859959c322b76b12f07a63 = private unnamed_addr constant <{ ptr, [16 x i8] }> <{ ptr @alloc_2382c0e0014a865a240ab784bfee65fd, [16 x i8] c"\10\00\00\00\00\00\00\00\9A\06\00\00\05\00\00\00" }>, align 8
@alloc_63d09bf6128a348df7de2401dc16f72c = private unnamed_addr constant <{ ptr, [16 x i8] }> <{ ptr @alloc_2382c0e0014a865a240ab784bfee65fd, [16 x i8] c"\10\00\00\00\00\00\00\00\9B\06\00\00\05\00\00\00" }>, align 8
@_ZN5bytes9bytes_mut13SHARED_VTABLE17hbddc8020eccc0865E = constant <{ ptr, ptr, ptr, ptr }> <{ ptr @_ZN5bytes9bytes_mut14shared_v_clone17hcff420951ee53ea0E, ptr @_ZN5bytes9bytes_mut15shared_v_to_vec17h9107b817cdab4466E, ptr @_ZN5bytes5bytes16shared_is_unique17hb8bad4a85e332337E, ptr @_ZN5bytes9bytes_mut13shared_v_drop17ha14daeb18f32d93fE }>, align 8, !dbg !120
@alloc_3050fe490e20e8ca0b126453c1f93f49 = private unnamed_addr constant <{ [2 x i8] }> <{ [2 x i8] c"b\22" }>, align 1
@alloc_3139a9728ae64213c00d40e9e9fc7a6b = private unnamed_addr constant <{ ptr, [8 x i8] }> <{ ptr @alloc_3050fe490e20e8ca0b126453c1f93f49, [8 x i8] c"\02\00\00\00\00\00\00\00" }>, align 8
@alloc_cf46f026acc4d198a9acedc9bd1a66b2 = private unnamed_addr constant <{ [1 x i8] }> <{ [1 x i8] c"\22" }>, align 1
@alloc_098692a14fe8a21e7e7151d2776baff1 = private unnamed_addr constant <{ ptr, [8 x i8] }> <{ ptr @alloc_cf46f026acc4d198a9acedc9bd1a66b2, [8 x i8] c"\01\00\00\00\00\00\00\00" }>, align 8
@alloc_250956f27149a8010bf316c25915fa08 = private unnamed_addr constant <{ [16 x i8] }> <{ [16 x i8] c"src/fmt/debug.rs" }>, align 1
@alloc_fcdb55f63caff86f56c4f9f0d3454f97 = private unnamed_addr constant <{ ptr, [16 x i8] }> <{ ptr @alloc_250956f27149a8010bf316c25915fa08, [16 x i8] c"\10\00\00\00\00\00\00\00\22\00\00\00\09\00\00\00" }>, align 8
@alloc_3881d9bec5de5a4c65f8cbef37283713 = private unnamed_addr constant <{ [2 x i8] }> <{ [2 x i8] c"\\n" }>, align 1
@alloc_7fe39c45e909edff5cdad678165c2dbd = private unnamed_addr constant <{ ptr, [8 x i8] }> <{ ptr @alloc_3881d9bec5de5a4c65f8cbef37283713, [8 x i8] c"\02\00\00\00\00\00\00\00" }>, align 8
@alloc_784a6a53aaa1e2839605374fcd3d260c = private unnamed_addr constant <{ ptr, [16 x i8] }> <{ ptr @alloc_250956f27149a8010bf316c25915fa08, [16 x i8] c"\10\00\00\00\00\00\00\00\12\00\00\00\11\00\00\00" }>, align 8
@alloc_84e26d65b99f72a64848d9745fc88101 = private unnamed_addr constant <{ [2 x i8] }> <{ [2 x i8] c"\\r" }>, align 1
@alloc_69ffffb76244f9e667863c23c17c64d1 = private unnamed_addr constant <{ ptr, [8 x i8] }> <{ ptr @alloc_84e26d65b99f72a64848d9745fc88101, [8 x i8] c"\02\00\00\00\00\00\00\00" }>, align 8
@alloc_795e0e1d5acdef4e9576331332baf08e = private unnamed_addr constant <{ ptr, [16 x i8] }> <{ ptr @alloc_250956f27149a8010bf316c25915fa08, [16 x i8] c"\10\00\00\00\00\00\00\00\14\00\00\00\11\00\00\00" }>, align 8
@alloc_d60793667b48d8597496d3dbc89c8177 = private unnamed_addr constant <{ [2 x i8] }> <{ [2 x i8] c"\\t" }>, align 1
@alloc_a5fd1e3dd6a8cba8af6b8297e7ad9579 = private unnamed_addr constant <{ ptr, [8 x i8] }> <{ ptr @alloc_d60793667b48d8597496d3dbc89c8177, [8 x i8] c"\02\00\00\00\00\00\00\00" }>, align 8
@alloc_bf7ad7988354708da2ff3b51eca6c8f1 = private unnamed_addr constant <{ ptr, [16 x i8] }> <{ ptr @alloc_250956f27149a8010bf316c25915fa08, [16 x i8] c"\10\00\00\00\00\00\00\00\16\00\00\00\11\00\00\00" }>, align 8
@alloc_954c69793a5b8641aa85a79946995fdd = private unnamed_addr constant <{ [1 x i8] }> <{ [1 x i8] c"\\" }>, align 1
@alloc_010560c34515a1304ce13f3ad79363c7 = private unnamed_addr constant <{ ptr, [8 x i8] }> <{ ptr @alloc_954c69793a5b8641aa85a79946995fdd, [8 x i8] c"\01\00\00\00\00\00\00\00" }>, align 8
@alloc_20366d5e5792a5f07a2040e799af68aa = private unnamed_addr constant <{ ptr, [16 x i8] }> <{ ptr @alloc_250956f27149a8010bf316c25915fa08, [16 x i8] c"\10\00\00\00\00\00\00\00\18\00\00\00\11\00\00\00" }>, align 8
@alloc_d555b1c9aff03f19dcb511ac1ac8841e = private unnamed_addr constant <{ [2 x i8] }> <{ [2 x i8] c"\\0" }>, align 1
@alloc_481fd686b0452e16ae36157bba0e0f82 = private unnamed_addr constant <{ ptr, [8 x i8] }> <{ ptr @alloc_d555b1c9aff03f19dcb511ac1ac8841e, [8 x i8] c"\02\00\00\00\00\00\00\00" }>, align 8
@alloc_ca3ef59332775fd9948dad1d04bdc53b = private unnamed_addr constant <{ ptr, [16 x i8] }> <{ ptr @alloc_250956f27149a8010bf316c25915fa08, [16 x i8] c"\10\00\00\00\00\00\00\00\1A\00\00\00\11\00\00\00" }>, align 8
@alloc_c4f8449598e294bd0bd74021160bc174 = private unnamed_addr constant <{ [2 x i8] }> <{ [2 x i8] c" \7F" }>, align 1
@alloc_37ea2f75ed88fba5dc9d844fc43ee990 = private unnamed_addr constant <{ [2 x i8] }> <{ [2 x i8] c"\\x" }>, align 1
@alloc_f3b6d8e642063abee154656dd60b1eda = private unnamed_addr constant <{ ptr, [8 x i8] }> <{ ptr @alloc_37ea2f75ed88fba5dc9d844fc43ee990, [8 x i8] c"\02\00\00\00\00\00\00\00" }>, align 8
@alloc_c70fd74a12750eee3a65fd8e4001bc0a = private unnamed_addr constant <{ ptr, [16 x i8] }> <{ ptr @alloc_250956f27149a8010bf316c25915fa08, [16 x i8] c"\10\00\00\00\00\00\00\00\1F\00\00\00\11\00\00\00" }>, align 8
@alloc_b99730e73100e73a81f4fbfe74b3821d = private unnamed_addr constant <{ ptr, [8 x i8] }> <{ ptr @alloc_513570631223a12912d85da2bec3b15a, [8 x i8] zeroinitializer }>, align 8
@alloc_cfc2be1358c2012fea5483f0eef2e254 = private unnamed_addr constant <{ ptr, [16 x i8] }> <{ ptr @alloc_250956f27149a8010bf316c25915fa08, [16 x i8] c"\10\00\00\00\00\00\00\00\1D\00\00\00\11\00\00\00" }>, align 8
@alloc_0de8493a40762af8209a2e10330eeb59 = private unnamed_addr constant <{ ptr, [16 x i8] }> <{ ptr @alloc_250956f27149a8010bf316c25915fa08, [16 x i8] c"\10\00\00\00\00\00\00\00\0E\00\00\00\09\00\00\00" }>, align 8
@alloc_b9015da193f6c160596eaa4ce59bec82 = private unnamed_addr constant <{ [14 x i8] }> <{ [14 x i8] c"src/fmt/hex.rs" }>, align 1
@alloc_f4dd8229e4c09c4d8956e7c8314987f0 = private unnamed_addr constant <{ ptr, [16 x i8] }> <{ ptr @alloc_b9015da193f6c160596eaa4ce59bec82, [16 x i8] c"\0E\00\00\00\00\00\00\00\09\00\00\00\0D\00\00\00" }>, align 8
@alloc_79a5d4878e1b9d04034bed67d3e35ce4 = private unnamed_addr constant <{ ptr, [16 x i8] }> <{ ptr @alloc_b9015da193f6c160596eaa4ce59bec82, [16 x i8] c"\0E\00\00\00\00\00\00\00\12\00\00\00\0D\00\00\00" }>, align 8
@alloc_edae14957b456a5af285c95cdd4f9321 = private unnamed_addr constant <{ [34 x i8] }> <{ [34 x i8] c"advance out of bounds: the len is " }>, align 1
@alloc_cf7e168e9200ef781bb495bb99b6c147 = private unnamed_addr constant <{ [18 x i8] }> <{ [18 x i8] c" but advancing by " }>, align 1
@alloc_3bca13f5a62dc6c58fe856f4a4cf97d7 = private unnamed_addr constant <{ ptr, [8 x i8], ptr, [8 x i8] }> <{ ptr @alloc_edae14957b456a5af285c95cdd4f9321, [8 x i8] c"\22\00\00\00\00\00\00\00", ptr @alloc_cf7e168e9200ef781bb495bb99b6c147, [8 x i8] c"\12\00\00\00\00\00\00\00" }>, align 8
@alloc_f5ffd2fd1476bab43ad89fb40c72d0c5 = private unnamed_addr constant <{ [10 x i8] }> <{ [10 x i8] c"src/lib.rs" }>, align 1
@alloc_7f4dc9160dcf43932b3a6aa26cbedae4 = private unnamed_addr constant <{ ptr, [16 x i8] }> <{ ptr @alloc_f5ffd2fd1476bab43ad89fb40c72d0c5, [16 x i8] c"\0A\00\00\00\00\00\00\00\89\00\00\00\05\00\00\00" }>, align 8
@alloc_2ccb42983123b7754c757d219e6ece92 = private unnamed_addr constant <{ [41 x i8] }> <{ [41 x i8] c"size too large: the integer type can fit " }>, align 1
@alloc_000a4d23905edf70ba4b56c429084857 = private unnamed_addr constant <{ [22 x i8] }> <{ [22 x i8] c" bytes, but nbytes is " }>, align 1
@alloc_9c4cea7add4ecc866ecc1eb3a5a07f76 = private unnamed_addr constant <{ ptr, [8 x i8], ptr, [8 x i8] }> <{ ptr @alloc_2ccb42983123b7754c757d219e6ece92, [8 x i8] c")\00\00\00\00\00\00\00", ptr @alloc_000a4d23905edf70ba4b56c429084857, [8 x i8] c"\16\00\00\00\00\00\00\00" }>, align 8
@alloc_e95c1bfb9ea18035c92a6b3a197f9c74 = private unnamed_addr constant <{ ptr, [16 x i8] }> <{ ptr @alloc_f5ffd2fd1476bab43ad89fb40c72d0c5, [16 x i8] c"\0A\00\00\00\00\00\00\00\91\00\00\00\05\00\00\00" }>, align 8

; <alloc::vec::Vec<T,A> as alloc::vec::spec_extend::SpecExtend<&T,core::slice::iter::Iter<T>>>::spec_extend
; Function Attrs: uwtable
define void @"_ZN132_$LT$alloc..vec..Vec$LT$T$C$A$GT$$u20$as$u20$alloc..vec..spec_extend..SpecExtend$LT$$RF$T$C$core..slice..iter..Iter$LT$T$GT$$GT$$GT$11spec_extend17h19725ec67f136170E"(ptr align 8 %self, ptr %0, ptr %1) unnamed_addr #0 !dbg !232 {
start:
  %data_pointer.dbg.spill.i = alloca ptr, align 8
  %end.dbg.spill.i = alloca ptr, align 8
  %self.dbg.spill4.i = alloca ptr, align 8
  %data.dbg.spill.i = alloca ptr, align 8
  %self.dbg.spill2.i = alloca ptr, align 8
  %self.dbg.spill.i = alloca ptr, align 8
  %_21.i = alloca %"core::ptr::metadata::PtrComponents<[u8]>", align 8
  %_20.i = alloca %"core::ptr::metadata::PtrRepr<[u8]>", align 8
  %len.i = alloca i64, align 8
  %slice.dbg.spill = alloca { ptr, i64 }, align 8
  %self.dbg.spill1 = alloca ptr, align 8
  %self.dbg.spill = alloca ptr, align 8
  %iterator = alloca %"core::slice::iter::Iter<'_, u8>", align 8
  store ptr %0, ptr %iterator, align 8
  %2 = getelementptr inbounds i8, ptr %iterator, i64 8
  store ptr %1, ptr %2, align 8
  store ptr %self, ptr %self.dbg.spill, align 8
  call void @llvm.dbg.declare(metadata ptr %self.dbg.spill, metadata !251, metadata !DIExpression()), !dbg !260
  call void @llvm.dbg.declare(metadata ptr %iterator, metadata !252, metadata !DIExpression()), !dbg !261
  store ptr %iterator, ptr %self.dbg.spill1, align 8, !dbg !262
  call void @llvm.dbg.declare(metadata ptr %self.dbg.spill1, metadata !263, metadata !DIExpression()), !dbg !272
  store ptr %iterator, ptr %self.dbg.spill.i, align 8
  call void @llvm.dbg.declare(metadata ptr %self.dbg.spill.i, metadata !274, metadata !DIExpression()), !dbg !283
  call void @llvm.dbg.declare(metadata ptr %len.i, metadata !285, metadata !DIExpression()), !dbg !294
  call void @llvm.dbg.declare(metadata ptr %len.i, metadata !296, metadata !DIExpression()), !dbg !308
  call void @llvm.dbg.declare(metadata ptr %len.i, metadata !310, metadata !DIExpression()), !dbg !319
  %self1.i = load ptr, ptr %iterator, align 8, !dbg !321, !nonnull !16, !noundef !16
  store ptr %self1.i, ptr %self.dbg.spill2.i, align 8, !dbg !321
  call void @llvm.dbg.declare(metadata ptr %self.dbg.spill2.i, metadata !322, metadata !DIExpression()), !dbg !331
  call void @llvm.dbg.declare(metadata ptr %self.dbg.spill2.i, metadata !333, metadata !DIExpression()), !dbg !341
  store ptr %self1.i, ptr %data.dbg.spill.i, align 8, !dbg !343
  call void @llvm.dbg.declare(metadata ptr %data.dbg.spill.i, metadata !293, metadata !DIExpression()), !dbg !344
  call void @llvm.dbg.declare(metadata ptr %data.dbg.spill.i, metadata !307, metadata !DIExpression()), !dbg !345
  call void @llvm.dbg.declare(metadata ptr %data.dbg.spill.i, metadata !346, metadata !DIExpression()), !dbg !359
  %self3.i = getelementptr inbounds i8, ptr %iterator, i64 8, !dbg !361
  store ptr %self3.i, ptr %self.dbg.spill4.i, align 8, !dbg !361
  call void @llvm.dbg.declare(metadata ptr %self.dbg.spill4.i, metadata !362, metadata !DIExpression()), !dbg !373
  %end.i = load ptr, ptr %self3.i, align 8, !dbg !361, !nonnull !16, !noundef !16
  store ptr %end.i, ptr %end.dbg.spill.i, align 8, !dbg !361
  call void @llvm.dbg.declare(metadata ptr %end.dbg.spill.i, metadata !281, metadata !DIExpression()), !dbg !375
  call void @llvm.dbg.declare(metadata ptr %end.dbg.spill.i, metadata !340, metadata !DIExpression()), !dbg !376
; call core::ptr::const_ptr::<impl *const T>::sub_ptr
  %3 = call i64 @"_ZN4core3ptr9const_ptr33_$LT$impl$u20$$BP$const$u20$T$GT$7sub_ptr17hf9c16b4ab2a41c9dE"(ptr %end.i, ptr %self1.i), !dbg !377
  store i64 %3, ptr %len.i, align 8, !dbg !377
  %4 = load i64, ptr %len.i, align 8, !dbg !378, !noundef !16
; call core::slice::raw::from_raw_parts::precondition_check
  call void @_ZN4core5slice3raw14from_raw_parts18precondition_check17h4f6654c572eba62aE(ptr %self1.i, i64 1, i64 1, i64 %4) #19, !dbg !378
  store ptr %self1.i, ptr %data_pointer.dbg.spill.i, align 8, !dbg !379
  call void @llvm.dbg.declare(metadata ptr %data_pointer.dbg.spill.i, metadata !318, metadata !DIExpression()), !dbg !380
  store ptr %self1.i, ptr %_21.i, align 8, !dbg !381
  %5 = load i64, ptr %len.i, align 8, !dbg !381, !noundef !16
  %6 = getelementptr inbounds i8, ptr %_21.i, i64 8, !dbg !381
  store i64 %5, ptr %6, align 8, !dbg !381
  %7 = load ptr, ptr %_21.i, align 8, !dbg !382, !noundef !16
  %8 = getelementptr inbounds i8, ptr %_21.i, i64 8, !dbg !382
  %9 = load i64, ptr %8, align 8, !dbg !382, !noundef !16
  store ptr %7, ptr %_20.i, align 8, !dbg !382
  %10 = getelementptr inbounds i8, ptr %_20.i, i64 8, !dbg !382
  store i64 %9, ptr %10, align 8, !dbg !382
  %_18.0.i = load ptr, ptr %_20.i, align 8, !dbg !382, !noundef !16
  %11 = getelementptr inbounds i8, ptr %_20.i, i64 8, !dbg !382
  %_18.1.i = load i64, ptr %11, align 8, !dbg !382, !noundef !16
  %12 = insertvalue { ptr, i64 } poison, ptr %_18.0.i, 0, !dbg !383
  %13 = insertvalue { ptr, i64 } %12, i64 %_18.1.i, 1, !dbg !383
  %slice.0 = extractvalue { ptr, i64 } %13, 0, !dbg !384
  %slice.1 = extractvalue { ptr, i64 } %13, 1, !dbg !384
  store ptr %slice.0, ptr %slice.dbg.spill, align 8, !dbg !384
  %14 = getelementptr inbounds i8, ptr %slice.dbg.spill, i64 8, !dbg !384
  store i64 %slice.1, ptr %14, align 8, !dbg !384
  call void @llvm.dbg.declare(metadata ptr %slice.dbg.spill, metadata !253, metadata !DIExpression()), !dbg !385
; call alloc::vec::Vec<T,A>::append_elements
  call void @"_ZN5alloc3vec16Vec$LT$T$C$A$GT$15append_elements17hcef51cefabcd028fE"(ptr align 8 %self, ptr %slice.0, i64 %slice.1), !dbg !386
  ret void, !dbg !387
}

; <core::result::Result<T,F> as core::ops::try_trait::FromResidual<core::result::Result<core::convert::Infallible,E>>>::from_residual
; Function Attrs: inlinehint uwtable
define zeroext i1 @"_ZN153_$LT$core..result..Result$LT$T$C$F$GT$$u20$as$u20$core..ops..try_trait..FromResidual$LT$core..result..Result$LT$core..convert..Infallible$C$E$GT$$GT$$GT$13from_residual17hbdb693e96377b157E"(ptr align 8 %0) unnamed_addr #1 !dbg !388 {
start:
  %e.dbg.spill = alloca %"core::fmt::Error", align 1
  %residual.dbg.spill = alloca %"core::result::Result<core::convert::Infallible, core::fmt::Error>::Err", align 1
  %_0 = alloca i8, align 1
  call void @llvm.dbg.declare(metadata ptr %residual.dbg.spill, metadata !442, metadata !DIExpression()), !dbg !447
  call void @llvm.dbg.declare(metadata ptr %e.dbg.spill, metadata !443, metadata !DIExpression()), !dbg !448
  call void @llvm.dbg.declare(metadata ptr undef, metadata !449, metadata !DIExpression()), !dbg !458
  store i8 1, ptr %_0, align 1, !dbg !460
  %1 = load i8, ptr %_0, align 1, !dbg !461, !range !462, !noundef !16
  %2 = trunc i8 %1 to i1, !dbg !461
  ret i1 %2, !dbg !461
}

; <<alloc::collections::vec_deque::drain::Drain<T,A> as core::ops::drop::Drop>::drop::DropGuard<T,A> as core::ops::drop::Drop>::drop
; Function Attrs: inlinehint uwtable
define void @"_ZN169_$LT$$LT$alloc..collections..vec_deque..drain..Drain$LT$T$C$A$GT$$u20$as$u20$core..ops..drop..Drop$GT$..drop..DropGuard$LT$T$C$A$GT$$u20$as$u20$core..ops..drop..Drop$GT$4drop17h5b9406fc4e71904dE"(ptr align 8 %self) unnamed_addr #1 !dbg !463 {
start:
  %tail_len.dbg.spill = alloca i64, align 8
  %head_len.dbg.spill = alloca i64, align 8
  %new_len.dbg.spill = alloca i64, align 8
  %drain_len.dbg.spill = alloca i64, align 8
  %source_deque.dbg.spill = alloca ptr, align 8
  %self.dbg.spill3 = alloca ptr, align 8
  %self.dbg.spill1 = alloca ptr, align 8
  %back.dbg.spill = alloca { ptr, i64 }, align 8
  %front.dbg.spill = alloca { ptr, i64 }, align 8
  %0 = alloca i8, align 1
  %self.dbg.spill = alloca ptr, align 8
  %_6 = alloca { { ptr, i64 }, { ptr, i64 } }, align 8
  store ptr %self, ptr %self.dbg.spill, align 8
  call void @llvm.dbg.declare(metadata ptr %self.dbg.spill, metadata !498, metadata !DIExpression()), !dbg !517
  store i8 0, ptr %0, align 1, !dbg !518
  %1 = load i8, ptr %0, align 1, !dbg !518, !range !462, !noundef !16
  %_2 = trunc i8 %1 to i1, !dbg !518
  br i1 %_2, label %bb1, label %bb6, !dbg !525

bb6:                                              ; preds = %bb2, %bb5, %start
  %_23 = load ptr, ptr %self, align 8, !dbg !526, !nonnull !16, !align !527, !noundef !16
  store ptr %_23, ptr %self.dbg.spill1, align 8, !dbg !526
  call void @llvm.dbg.declare(metadata ptr %self.dbg.spill1, metadata !528, metadata !DIExpression()), !dbg !537
  %self2 = load ptr, ptr %_23, align 8, !dbg !539, !nonnull !16, !noundef !16
  store ptr %self2, ptr %self.dbg.spill3, align 8, !dbg !539
  call void @llvm.dbg.declare(metadata ptr %self.dbg.spill3, metadata !540, metadata !DIExpression()), !dbg !547
  store ptr %self2, ptr %source_deque.dbg.spill, align 8, !dbg !549
  call void @llvm.dbg.declare(metadata ptr %source_deque.dbg.spill, metadata !506, metadata !DIExpression()), !dbg !550
  %_24 = load ptr, ptr %self, align 8, !dbg !551, !nonnull !16, !align !527, !noundef !16
  %2 = getelementptr inbounds i8, ptr %_24, i64 8, !dbg !551
  %drain_len = load i64, ptr %2, align 8, !dbg !551, !noundef !16
  store i64 %drain_len, ptr %drain_len.dbg.spill, align 8, !dbg !551
  call void @llvm.dbg.declare(metadata ptr %drain_len.dbg.spill, metadata !509, metadata !DIExpression()), !dbg !552
  %_25 = load ptr, ptr %self, align 8, !dbg !553, !nonnull !16, !align !527, !noundef !16
  %3 = getelementptr inbounds i8, ptr %_25, i64 24, !dbg !553
  %new_len = load i64, ptr %3, align 8, !dbg !553, !noundef !16
  store i64 %new_len, ptr %new_len.dbg.spill, align 8, !dbg !553
  call void @llvm.dbg.declare(metadata ptr %new_len.dbg.spill, metadata !511, metadata !DIExpression()), !dbg !554
  br label %bb8, !dbg !555

bb1:                                              ; preds = %start
  %_21 = load ptr, ptr %self, align 8, !dbg !556, !nonnull !16, !align !527, !noundef !16
  %4 = getelementptr inbounds i8, ptr %_21, i64 32, !dbg !556
  %_3 = load i64, ptr %4, align 8, !dbg !556, !noundef !16
  %5 = icmp eq i64 %_3, 0, !dbg !556
  br i1 %5, label %bb5, label %bb2, !dbg !556

bb5:                                              ; preds = %bb1
  br label %bb6, !dbg !557

bb2:                                              ; preds = %bb1
  %_22 = load ptr, ptr %self, align 8, !dbg !560, !nonnull !16, !align !527, !noundef !16
; call alloc::collections::vec_deque::drain::Drain<T,A>::as_slices
  call void @"_ZN5alloc11collections9vec_deque5drain18Drain$LT$T$C$A$GT$9as_slices17hb6d3dbb63a18a36dE"(ptr sret({ { ptr, i64 }, { ptr, i64 } }) align 8 %_6, ptr align 8 %_22), !dbg !560
  %front.0 = load ptr, ptr %_6, align 8, !dbg !561, !noundef !16
  %6 = getelementptr inbounds i8, ptr %_6, i64 8, !dbg !561
  %front.1 = load i64, ptr %6, align 8, !dbg !561, !noundef !16
  store ptr %front.0, ptr %front.dbg.spill, align 8, !dbg !561
  %7 = getelementptr inbounds i8, ptr %front.dbg.spill, i64 8, !dbg !561
  store i64 %front.1, ptr %7, align 8, !dbg !561
  call void @llvm.dbg.declare(metadata ptr %front.dbg.spill, metadata !499, metadata !DIExpression()), !dbg !562
  %8 = getelementptr inbounds i8, ptr %_6, i64 16, !dbg !563
  %back.0 = load ptr, ptr %8, align 8, !dbg !563, !noundef !16
  %9 = getelementptr inbounds i8, ptr %8, i64 8, !dbg !563
  %back.1 = load i64, ptr %9, align 8, !dbg !563, !noundef !16
  store ptr %back.0, ptr %back.dbg.spill, align 8, !dbg !563
  %10 = getelementptr inbounds i8, ptr %back.dbg.spill, i64 8, !dbg !563
  store i64 %back.1, ptr %10, align 8, !dbg !563
  call void @llvm.dbg.declare(metadata ptr %back.dbg.spill, metadata !505, metadata !DIExpression()), !dbg !564
  br label %bb6, !dbg !565

bb8:                                              ; preds = %bb6
  %11 = getelementptr inbounds i8, ptr %self2, i64 24, !dbg !566
  %head_len = load i64, ptr %11, align 8, !dbg !566, !noundef !16
  store i64 %head_len, ptr %head_len.dbg.spill, align 8, !dbg !566
  call void @llvm.dbg.declare(metadata ptr %head_len.dbg.spill, metadata !513, metadata !DIExpression()), !dbg !567
  %tail_len = sub i64 %new_len, %head_len, !dbg !568
  store i64 %tail_len, ptr %tail_len.dbg.spill, align 8, !dbg !568
  call void @llvm.dbg.declare(metadata ptr %tail_len.dbg.spill, metadata !515, metadata !DIExpression()), !dbg !569
  %12 = icmp eq i64 %head_len, 0, !dbg !570
  br i1 %12, label %bb12, label %bb9, !dbg !570

bb12:                                             ; preds = %bb10, %bb9, %bb8
  %13 = icmp eq i64 %new_len, 0, !dbg !571
  br i1 %13, label %bb13, label %bb14, !dbg !571

bb9:                                              ; preds = %bb8
  %14 = icmp eq i64 %tail_len, 0, !dbg !572
  br i1 %14, label %bb12, label %bb10, !dbg !572

bb10:                                             ; preds = %bb9
; call <<alloc::collections::vec_deque::drain::Drain<T,A> as core::ops::drop::Drop>::drop::DropGuard<T,A> as core::ops::drop::Drop>::drop::join_head_and_tail_wrapping
  call void @"_ZN169_$LT$$LT$alloc..collections..vec_deque..drain..Drain$LT$T$C$A$GT$$u20$as$u20$core..ops..drop..Drop$GT$..drop..DropGuard$LT$T$C$A$GT$$u20$as$u20$core..ops..drop..Drop$GT$4drop27join_head_and_tail_wrapping17h8260f3c4a5de3c34E"(ptr align 8 %self2, i64 %drain_len, i64 %head_len, i64 %tail_len), !dbg !573
  br label %bb12, !dbg !574

bb13:                                             ; preds = %bb12
  %15 = getelementptr inbounds i8, ptr %self2, i64 16, !dbg !575
  store i64 0, ptr %15, align 8, !dbg !575
  br label %bb18, !dbg !576

bb14:                                             ; preds = %bb12
  %_18 = icmp ult i64 %head_len, %tail_len, !dbg !577
  br i1 %_18, label %bb15, label %bb17, !dbg !577

bb18:                                             ; preds = %bb17, %bb13
  %16 = getelementptr inbounds i8, ptr %self2, i64 24, !dbg !578
  store i64 %new_len, ptr %16, align 8, !dbg !578
  br label %bb19, !dbg !579

bb17:                                             ; preds = %bb15, %bb14
  br label %bb18, !dbg !576

bb15:                                             ; preds = %bb14
; call alloc::collections::vec_deque::VecDeque<T,A>::to_physical_idx
  %_19 = call i64 @"_ZN5alloc11collections9vec_deque21VecDeque$LT$T$C$A$GT$15to_physical_idx17hdf70f327cf224480E"(ptr align 8 %self2, i64 %drain_len), !dbg !580
  %17 = getelementptr inbounds i8, ptr %self2, i64 16, !dbg !581
  store i64 %_19, ptr %17, align 8, !dbg !581
  br label %bb17, !dbg !582

bb19:                                             ; preds = %bb7, %bb18
  ret void, !dbg !579

bb7:                                              ; No predecessors!
  %18 = getelementptr inbounds i8, ptr %self2, i64 24, !dbg !583
  store i64 %new_len, ptr %18, align 8, !dbg !583
  br label %bb19, !dbg !579
}

; <<alloc::collections::vec_deque::drain::Drain<T,A> as core::ops::drop::Drop>::drop::DropGuard<T,A> as core::ops::drop::Drop>::drop::join_head_and_tail_wrapping
; Function Attrs: cold uwtable
define void @"_ZN169_$LT$$LT$alloc..collections..vec_deque..drain..Drain$LT$T$C$A$GT$$u20$as$u20$core..ops..drop..Drop$GT$..drop..DropGuard$LT$T$C$A$GT$$u20$as$u20$core..ops..drop..Drop$GT$4drop27join_head_and_tail_wrapping17h8260f3c4a5de3c34E"(ptr align 8 %source_deque, i64 %drain_len, i64 %head_len, i64 %tail_len) unnamed_addr #2 !dbg !584 {
start:
  %tail_len.dbg.spill = alloca i64, align 8
  %head_len.dbg.spill = alloca i64, align 8
  %drain_len.dbg.spill = alloca i64, align 8
  %source_deque.dbg.spill = alloca ptr, align 8
  %len = alloca i64, align 8
  %dst = alloca i64, align 8
  %src = alloca i64, align 8
  store ptr %source_deque, ptr %source_deque.dbg.spill, align 8
  call void @llvm.dbg.declare(metadata ptr %source_deque.dbg.spill, metadata !589, metadata !DIExpression()), !dbg !597
  store i64 %drain_len, ptr %drain_len.dbg.spill, align 8
  call void @llvm.dbg.declare(metadata ptr %drain_len.dbg.spill, metadata !590, metadata !DIExpression()), !dbg !598
  store i64 %head_len, ptr %head_len.dbg.spill, align 8
  call void @llvm.dbg.declare(metadata ptr %head_len.dbg.spill, metadata !591, metadata !DIExpression()), !dbg !599
  store i64 %tail_len, ptr %tail_len.dbg.spill, align 8
  call void @llvm.dbg.declare(metadata ptr %tail_len.dbg.spill, metadata !592, metadata !DIExpression()), !dbg !600
  call void @llvm.dbg.declare(metadata ptr %src, metadata !593, metadata !DIExpression()), !dbg !601
  call void @llvm.dbg.declare(metadata ptr %dst, metadata !595, metadata !DIExpression()), !dbg !602
  call void @llvm.dbg.declare(metadata ptr %len, metadata !596, metadata !DIExpression()), !dbg !603
  %_8 = icmp ult i64 %head_len, %tail_len, !dbg !604
  br i1 %_8, label %bb1, label %bb3, !dbg !604

bb3:                                              ; preds = %start
  %_14 = add i64 %head_len, %drain_len, !dbg !605
; call alloc::collections::vec_deque::VecDeque<T,A>::to_physical_idx
  %_12 = call i64 @"_ZN5alloc11collections9vec_deque21VecDeque$LT$T$C$A$GT$15to_physical_idx17hdf70f327cf224480E"(ptr align 8 %source_deque, i64 %_14), !dbg !606
  store i64 %_12, ptr %src, align 8, !dbg !607
; call alloc::collections::vec_deque::VecDeque<T,A>::to_physical_idx
  %_15 = call i64 @"_ZN5alloc11collections9vec_deque21VecDeque$LT$T$C$A$GT$15to_physical_idx17hdf70f327cf224480E"(ptr align 8 %source_deque, i64 %head_len), !dbg !608
  store i64 %_15, ptr %dst, align 8, !dbg !609
  store i64 %tail_len, ptr %len, align 8, !dbg !610
  br label %bb6, !dbg !611

bb1:                                              ; preds = %start
  %0 = getelementptr inbounds i8, ptr %source_deque, i64 16, !dbg !612
  %_9 = load i64, ptr %0, align 8, !dbg !612, !noundef !16
  store i64 %_9, ptr %src, align 8, !dbg !613
; call alloc::collections::vec_deque::VecDeque<T,A>::to_physical_idx
  %_10 = call i64 @"_ZN5alloc11collections9vec_deque21VecDeque$LT$T$C$A$GT$15to_physical_idx17hdf70f327cf224480E"(ptr align 8 %source_deque, i64 %drain_len), !dbg !614
  store i64 %_10, ptr %dst, align 8, !dbg !615
  store i64 %head_len, ptr %len, align 8, !dbg !616
  br label %bb6, !dbg !611

bb6:                                              ; preds = %bb1, %bb3
  %_18 = load i64, ptr %src, align 8, !dbg !617, !noundef !16
  %_19 = load i64, ptr %dst, align 8, !dbg !618, !noundef !16
  %_20 = load i64, ptr %len, align 8, !dbg !619, !noundef !16
; call alloc::collections::vec_deque::VecDeque<T,A>::wrap_copy
  call void @"_ZN5alloc11collections9vec_deque21VecDeque$LT$T$C$A$GT$9wrap_copy17h0ba7d0ff1042b8e7E"(ptr align 8 %source_deque, i64 %_18, i64 %_19, i64 %_20), !dbg !620
  ret void, !dbg !621
}

; <&T as core::fmt::Debug>::fmt
; Function Attrs: uwtable
define zeroext i1 @"_ZN42_$LT$$RF$T$u20$as$u20$core..fmt..Debug$GT$3fmt17h6b1bcb3aaf29a5b5E"(ptr align 8 %self, ptr align 8 %f) unnamed_addr #0 !dbg !622 {
start:
  %f.dbg.spill = alloca ptr, align 8
  %self.dbg.spill = alloca ptr, align 8
  store ptr %self, ptr %self.dbg.spill, align 8
  call void @llvm.dbg.declare(metadata ptr %self.dbg.spill, metadata !663, metadata !DIExpression()), !dbg !665
  store ptr %f, ptr %f.dbg.spill, align 8
  call void @llvm.dbg.declare(metadata ptr %f.dbg.spill, metadata !664, metadata !DIExpression()), !dbg !666
  %_3 = load ptr, ptr %self, align 8, !dbg !667, !nonnull !16, !align !527, !noundef !16
; call core::fmt::num::<impl core::fmt::Debug for usize>::fmt
  %_0 = call zeroext i1 @"_ZN4core3fmt3num52_$LT$impl$u20$core..fmt..Debug$u20$for$u20$usize$GT$3fmt17hcf060cdaa3d89f2dE"(ptr align 8 %_3, ptr align 8 %f), !dbg !668
  ret i1 %_0, !dbg !669
}

; <u8 as core::slice::cmp::SliceOrd>::compare
; Function Attrs: inlinehint uwtable
define internal i8 @"_ZN49_$LT$u8$u20$as$u20$core..slice..cmp..SliceOrd$GT$7compare17h2020e9639943a95eE"(ptr align 1 %left.0, i64 %left.1, ptr align 1 %right.0, i64 %right.1) unnamed_addr #1 !dbg !670 {
start:
  %self.dbg.spill = alloca ptr, align 8
  %0 = alloca i32, align 4
  %diff.dbg.spill = alloca i64, align 8
  %right.dbg.spill = alloca { ptr, i64 }, align 8
  %left.dbg.spill = alloca { ptr, i64 }, align 8
  %order = alloca i64, align 8
  %len = alloca i64, align 8
  %_0 = alloca i8, align 1
  %other.dbg.spill = alloca ptr, align 8
  store ptr @alloc_53973d2fe29b4adba8bb7390b5678745, ptr %other.dbg.spill, align 8, !dbg !686
  call void @llvm.dbg.declare(metadata ptr %other.dbg.spill, metadata !697, metadata !DIExpression()), !dbg !686
  store ptr %left.0, ptr %left.dbg.spill, align 8, !dbg !686
  %1 = getelementptr inbounds i8, ptr %left.dbg.spill, i64 8, !dbg !686
  store i64 %left.1, ptr %1, align 8, !dbg !686
  call void @llvm.dbg.declare(metadata ptr %left.dbg.spill, metadata !677, metadata !DIExpression()), !dbg !699
  call void @llvm.dbg.declare(metadata ptr %left.dbg.spill, metadata !700, metadata !DIExpression()), !dbg !710
  store ptr %right.0, ptr %right.dbg.spill, align 8, !dbg !686
  %2 = getelementptr inbounds i8, ptr %right.dbg.spill, i64 8, !dbg !686
  store i64 %right.1, ptr %2, align 8, !dbg !686
  call void @llvm.dbg.declare(metadata ptr %right.dbg.spill, metadata !678, metadata !DIExpression()), !dbg !712
  call void @llvm.dbg.declare(metadata ptr %right.dbg.spill, metadata !708, metadata !DIExpression()), !dbg !713
  call void @llvm.dbg.declare(metadata ptr %len, metadata !682, metadata !DIExpression()), !dbg !715
  call void @llvm.dbg.declare(metadata ptr %order, metadata !684, metadata !DIExpression()), !dbg !716
  %diff = sub i64 %left.1, %right.1, !dbg !717
  store i64 %diff, ptr %diff.dbg.spill, align 8, !dbg !717
  call void @llvm.dbg.declare(metadata ptr %diff.dbg.spill, metadata !679, metadata !DIExpression()), !dbg !718
  %_9 = icmp ult i64 %left.1, %right.1, !dbg !719
  br i1 %_9, label %bb1, label %bb2, !dbg !719

bb2:                                              ; preds = %start
  store i64 %right.1, ptr %len, align 8, !dbg !720
  br label %bb3, !dbg !721

bb1:                                              ; preds = %start
  store i64 %left.1, ptr %len, align 8, !dbg !722
  br label %bb3, !dbg !721

bb3:                                              ; preds = %bb1, %bb2
  %_14 = load i64, ptr %len, align 8, !dbg !723, !noundef !16
  %3 = call i32 @memcmp(ptr %left.0, ptr %right.0, i64 %_14), !dbg !724
  store i32 %3, ptr %0, align 4, !dbg !724
  %_11 = load i32, ptr %0, align 4, !dbg !724, !noundef !16
  %4 = sext i32 %_11 to i64, !dbg !724
  store i64 %4, ptr %order, align 8, !dbg !724
  %_15 = load i64, ptr %order, align 8, !dbg !725, !noundef !16
  %5 = icmp eq i64 %_15, 0, !dbg !725
  br i1 %5, label %bb5, label %bb6, !dbg !725

bb5:                                              ; preds = %bb3
  store i64 %diff, ptr %order, align 8, !dbg !726
  br label %bb7, !dbg !727

bb6:                                              ; preds = %bb3
  br label %bb7, !dbg !727

bb7:                                              ; preds = %bb6, %bb5
  store ptr %order, ptr %self.dbg.spill, align 8, !dbg !728
  call void @llvm.dbg.declare(metadata ptr %self.dbg.spill, metadata !696, metadata !DIExpression()), !dbg !686
  %_20 = load i64, ptr %order, align 8, !dbg !686, !noundef !16
  %_19 = icmp slt i64 %_20, 0, !dbg !686
  br i1 %_19, label %bb8, label %bb9, !dbg !686

bb9:                                              ; preds = %bb7
  %6 = icmp eq i64 %_20, 0, !dbg !686
  br i1 %6, label %bb10, label %bb11, !dbg !686

bb8:                                              ; preds = %bb7
  store i8 -1, ptr %_0, align 1, !dbg !686
  br label %bb13, !dbg !686

bb10:                                             ; preds = %bb9
  store i8 0, ptr %_0, align 1, !dbg !686
  br label %bb12, !dbg !686

bb11:                                             ; preds = %bb9
  store i8 1, ptr %_0, align 1, !dbg !686
  br label %bb12, !dbg !686

bb12:                                             ; preds = %bb11, %bb10
  br label %bb13, !dbg !686

bb13:                                             ; preds = %bb8, %bb12
  %7 = load i8, ptr %_0, align 1, !dbg !729, !range !730, !noundef !16
  ret i8 %7, !dbg !729
}

; core::intrinsics::write_bytes::precondition_check
; Function Attrs: inlinehint nounwind uwtable
define internal void @_ZN4core10intrinsics11write_bytes18precondition_check17h30a50553496628c5E(ptr %addr, i64 %align) unnamed_addr #3 personality ptr @rust_eh_personality !dbg !731 {
start:
  %align.dbg.spill = alloca i64, align 8
  %addr.dbg.spill = alloca ptr, align 8
  store ptr %addr, ptr %addr.dbg.spill, align 8
  call void @llvm.dbg.declare(metadata ptr %addr.dbg.spill, metadata !738, metadata !DIExpression()), !dbg !740
  store i64 %align, ptr %align.dbg.spill, align 8
  call void @llvm.dbg.declare(metadata ptr %align.dbg.spill, metadata !739, metadata !DIExpression()), !dbg !740
; invoke core::intrinsics::is_aligned_and_not_null
  %_3 = invoke zeroext i1 @_ZN4core10intrinsics23is_aligned_and_not_null17h75524cf5e835e5f8E(ptr %addr, i64 %align)
          to label %bb1 unwind label %terminate, !dbg !741

terminate:                                        ; preds = %start
  %0 = landingpad { ptr, i32 }
          filter [0 x ptr] zeroinitializer
  %1 = extractvalue { ptr, i32 } %0, 0
  %2 = extractvalue { ptr, i32 } %0, 1
; call core::panicking::panic_cannot_unwind
  call void @_ZN4core9panicking19panic_cannot_unwind17h3626040c0976c0c3E() #20, !dbg !742
  unreachable, !dbg !742

bb1:                                              ; preds = %start
  br i1 %_3, label %bb2, label %bb3, !dbg !741

bb3:                                              ; preds = %bb1
; call core::panicking::panic_nounwind
  call void @_ZN4core9panicking14panic_nounwind17h50c31e15afde233eE(ptr align 1 @alloc_424341b75ece3fa20496f1c69b9fb0ac, i64 111) #21, !dbg !743
  unreachable, !dbg !743

bb2:                                              ; preds = %bb1
  ret void, !dbg !744
}

; core::intrinsics::is_nonoverlapping
; Function Attrs: inlinehint uwtable
define internal zeroext i1 @_ZN4core10intrinsics17is_nonoverlapping17h2f6533ec4683b2e8E(ptr %src, ptr %dst, i64 %size, i64 %count) unnamed_addr #1 !dbg !745 {
start:
  %size.dbg.spill3 = alloca i64, align 8
  %0 = alloca i8, align 1
  %a.dbg.spill1 = alloca i64, align 8
  %b.dbg.spill = alloca i8, align 1
  %a.dbg.spill = alloca i64, align 8
  %dst_usize.dbg.spill = alloca i64, align 8
  %src_usize.dbg.spill = alloca i64, align 8
  %count.dbg.spill = alloca i64, align 8
  %size.dbg.spill = alloca i64, align 8
  %dst.dbg.spill = alloca ptr, align 8
  %src.dbg.spill = alloca ptr, align 8
  %diff = alloca i64, align 8
  %_9 = alloca %"core::option::Option<usize>", align 8
  store ptr %src, ptr %src.dbg.spill, align 8
  call void @llvm.dbg.declare(metadata ptr %src.dbg.spill, metadata !749, metadata !DIExpression()), !dbg !761
  call void @llvm.dbg.declare(metadata ptr %src.dbg.spill, metadata !762, metadata !DIExpression()), !dbg !770
  call void @llvm.dbg.declare(metadata ptr %src.dbg.spill, metadata !772, metadata !DIExpression()), !dbg !781
  store ptr %dst, ptr %dst.dbg.spill, align 8
  call void @llvm.dbg.declare(metadata ptr %dst.dbg.spill, metadata !750, metadata !DIExpression()), !dbg !783
  call void @llvm.dbg.declare(metadata ptr %dst.dbg.spill, metadata !768, metadata !DIExpression()), !dbg !784
  call void @llvm.dbg.declare(metadata ptr %dst.dbg.spill, metadata !778, metadata !DIExpression()), !dbg !786
  store i64 %size, ptr %size.dbg.spill, align 8
  call void @llvm.dbg.declare(metadata ptr %size.dbg.spill, metadata !751, metadata !DIExpression()), !dbg !788
  call void @llvm.dbg.declare(metadata ptr %size.dbg.spill, metadata !789, metadata !DIExpression()), !dbg !805
  call void @llvm.dbg.declare(metadata ptr %size.dbg.spill, metadata !807, metadata !DIExpression()), !dbg !823
  store i64 %count, ptr %count.dbg.spill, align 8
  call void @llvm.dbg.declare(metadata ptr %count.dbg.spill, metadata !752, metadata !DIExpression()), !dbg !825
  call void @llvm.dbg.declare(metadata ptr %count.dbg.spill, metadata !800, metadata !DIExpression()), !dbg !805
  call void @llvm.dbg.declare(metadata ptr %count.dbg.spill, metadata !818, metadata !DIExpression()), !dbg !823
  call void @llvm.dbg.declare(metadata ptr %diff, metadata !759, metadata !DIExpression()), !dbg !826
  %src_usize = ptrtoint ptr %src to i64, !dbg !827
  store i64 %src_usize, ptr %src_usize.dbg.spill, align 8, !dbg !827
  call void @llvm.dbg.declare(metadata ptr %src_usize.dbg.spill, metadata !753, metadata !DIExpression()), !dbg !828
  call void @llvm.dbg.declare(metadata ptr %src_usize.dbg.spill, metadata !829, metadata !DIExpression()), !dbg !837
  %dst_usize = ptrtoint ptr %dst to i64, !dbg !839
  store i64 %dst_usize, ptr %dst_usize.dbg.spill, align 8, !dbg !839
  call void @llvm.dbg.declare(metadata ptr %dst_usize.dbg.spill, metadata !755, metadata !DIExpression()), !dbg !840
  call void @llvm.dbg.declare(metadata ptr %dst_usize.dbg.spill, metadata !836, metadata !DIExpression()), !dbg !837
  %1 = call { i64, i1 } @llvm.umul.with.overflow.i64(i64 %size, i64 %count), !dbg !823
  %_15.0 = extractvalue { i64, i1 } %1, 0, !dbg !823
  %_15.1 = extractvalue { i64, i1 } %1, 1, !dbg !823
  store i64 %_15.0, ptr %a.dbg.spill, align 8, !dbg !823
  call void @llvm.dbg.declare(metadata ptr %a.dbg.spill, metadata !819, metadata !DIExpression()), !dbg !841
  %2 = zext i1 %_15.1 to i8, !dbg !823
  store i8 %2, ptr %b.dbg.spill, align 1, !dbg !823
  call void @llvm.dbg.declare(metadata ptr %b.dbg.spill, metadata !804, metadata !DIExpression()), !dbg !842
  call void @llvm.dbg.declare(metadata ptr %b.dbg.spill, metadata !822, metadata !DIExpression()), !dbg !841
  store i64 %_15.0, ptr %a.dbg.spill1, align 8, !dbg !841
  call void @llvm.dbg.declare(metadata ptr %a.dbg.spill1, metadata !801, metadata !DIExpression()), !dbg !842
  %3 = call i1 @llvm.expect.i1(i1 %_15.1, i1 false), !dbg !842
  %4 = zext i1 %3 to i8, !dbg !842
  store i8 %4, ptr %0, align 1, !dbg !842
  %5 = load i8, ptr %0, align 1, !dbg !842, !range !462, !noundef !16
  %_12 = trunc i8 %5 to i1, !dbg !842
  br i1 %_12, label %bb2, label %bb3, !dbg !842

bb3:                                              ; preds = %start
  %6 = getelementptr inbounds i8, ptr %_9, i64 8, !dbg !842
  store i64 %_15.0, ptr %6, align 8, !dbg !842
  store i64 1, ptr %_9, align 8, !dbg !842
  %7 = getelementptr inbounds i8, ptr %_9, i64 8, !dbg !843
  %size2 = load i64, ptr %7, align 8, !dbg !843, !noundef !16
  store i64 %size2, ptr %size.dbg.spill3, align 8, !dbg !843
  call void @llvm.dbg.declare(metadata ptr %size.dbg.spill3, metadata !757, metadata !DIExpression()), !dbg !844
  %_22 = icmp ult i64 %src_usize, %dst_usize, !dbg !837
  br i1 %_22, label %bb4, label %bb5, !dbg !837

bb2:                                              ; preds = %start
; call core::panicking::panic_nounwind
  call void @_ZN4core9panicking14panic_nounwind17h50c31e15afde233eE(ptr align 1 @alloc_763310d78c99c2c1ad3f8a9821e942f3, i64 61) #21, !dbg !845
  unreachable, !dbg !845

bb5:                                              ; preds = %bb3
  %8 = sub i64 %src_usize, %dst_usize, !dbg !837
  store i64 %8, ptr %diff, align 8, !dbg !837
  br label %bb6, !dbg !837

bb4:                                              ; preds = %bb3
  %9 = sub i64 %dst_usize, %src_usize, !dbg !837
  store i64 %9, ptr %diff, align 8, !dbg !837
  br label %bb6, !dbg !837

bb6:                                              ; preds = %bb4, %bb5
  %_11 = load i64, ptr %diff, align 8, !dbg !846, !noundef !16
  %_0 = icmp uge i64 %_11, %size2, !dbg !846
  ret i1 %_0, !dbg !847
}

; core::intrinsics::copy_nonoverlapping::precondition_check
; Function Attrs: inlinehint nounwind uwtable
define internal void @_ZN4core10intrinsics19copy_nonoverlapping18precondition_check17h53c7bbaa28bed0feE(ptr %src, ptr %dst, i64 %size, i64 %align, i64 %count) unnamed_addr #3 personality ptr @rust_eh_personality !dbg !848 {
start:
  %count.dbg.spill = alloca i64, align 8
  %align.dbg.spill = alloca i64, align 8
  %size.dbg.spill = alloca i64, align 8
  %dst.dbg.spill = alloca ptr, align 8
  %src.dbg.spill = alloca ptr, align 8
  store ptr %src, ptr %src.dbg.spill, align 8
  call void @llvm.dbg.declare(metadata ptr %src.dbg.spill, metadata !853, metadata !DIExpression()), !dbg !858
  store ptr %dst, ptr %dst.dbg.spill, align 8
  call void @llvm.dbg.declare(metadata ptr %dst.dbg.spill, metadata !854, metadata !DIExpression()), !dbg !858
  store i64 %size, ptr %size.dbg.spill, align 8
  call void @llvm.dbg.declare(metadata ptr %size.dbg.spill, metadata !855, metadata !DIExpression()), !dbg !858
  store i64 %align, ptr %align.dbg.spill, align 8
  call void @llvm.dbg.declare(metadata ptr %align.dbg.spill, metadata !856, metadata !DIExpression()), !dbg !858
  store i64 %count, ptr %count.dbg.spill, align 8
  call void @llvm.dbg.declare(metadata ptr %count.dbg.spill, metadata !857, metadata !DIExpression()), !dbg !858
; invoke core::intrinsics::is_aligned_and_not_null
  %_6 = invoke zeroext i1 @_ZN4core10intrinsics23is_aligned_and_not_null17h75524cf5e835e5f8E(ptr %src, i64 %align)
          to label %bb1 unwind label %terminate, !dbg !859

terminate:                                        ; preds = %bb4, %bb2, %start
  %0 = landingpad { ptr, i32 }
          filter [0 x ptr] zeroinitializer
  %1 = extractvalue { ptr, i32 } %0, 0
  %2 = extractvalue { ptr, i32 } %0, 1
; call core::panicking::panic_cannot_unwind
  call void @_ZN4core9panicking19panic_cannot_unwind17h3626040c0976c0c3E() #20, !dbg !860
  unreachable, !dbg !860

bb1:                                              ; preds = %start
  br i1 %_6, label %bb2, label %bb7, !dbg !859

bb7:                                              ; preds = %bb5, %bb3, %bb1
; call core::panicking::panic_nounwind
  call void @_ZN4core9panicking14panic_nounwind17h50c31e15afde233eE(ptr align 1 @alloc_8df0580a595a87d56789d20c7318e185, i64 166) #21, !dbg !861
  unreachable, !dbg !861

bb2:                                              ; preds = %bb1
; invoke core::intrinsics::is_aligned_and_not_null
  %_7 = invoke zeroext i1 @_ZN4core10intrinsics23is_aligned_and_not_null17h75524cf5e835e5f8E(ptr %dst, i64 %align)
          to label %bb3 unwind label %terminate, !dbg !862

bb3:                                              ; preds = %bb2
  br i1 %_7, label %bb4, label %bb7, !dbg !862

bb4:                                              ; preds = %bb3
; invoke core::intrinsics::is_nonoverlapping
  %_9 = invoke zeroext i1 @_ZN4core10intrinsics17is_nonoverlapping17h2f6533ec4683b2e8E(ptr %src, ptr %dst, i64 %size, i64 %count)
          to label %bb5 unwind label %terminate, !dbg !863

bb5:                                              ; preds = %bb4
  br i1 %_9, label %bb6, label %bb7, !dbg !863

bb6:                                              ; preds = %bb5
  ret void, !dbg !864
}

; core::intrinsics::is_aligned_and_not_null
; Function Attrs: inlinehint uwtable
define internal zeroext i1 @_ZN4core10intrinsics23is_aligned_and_not_null17h75524cf5e835e5f8E(ptr %ptr, i64 %align) unnamed_addr #1 !dbg !865 {
start:
  %pieces.dbg.spill = alloca { ptr, i64 }, align 8
  %0 = alloca i64, align 8
  %ptr.dbg.spill1 = alloca ptr, align 8
  %align.dbg.spill = alloca i64, align 8
  %ptr.dbg.spill = alloca ptr, align 8
  %_6 = alloca %"core::fmt::Arguments<'_>", align 8
  %_0 = alloca i8, align 1
  store ptr %ptr, ptr %ptr.dbg.spill, align 8
  call void @llvm.dbg.declare(metadata ptr %ptr.dbg.spill, metadata !869, metadata !DIExpression()), !dbg !871
  call void @llvm.dbg.declare(metadata ptr %ptr.dbg.spill, metadata !872, metadata !DIExpression()), !dbg !878
  call void @llvm.dbg.declare(metadata ptr %ptr.dbg.spill, metadata !880, metadata !DIExpression()), !dbg !885
  call void @llvm.dbg.declare(metadata ptr %ptr.dbg.spill, metadata !887, metadata !DIExpression()), !dbg !893
  call void @llvm.dbg.declare(metadata ptr %ptr.dbg.spill, metadata !895, metadata !DIExpression()), !dbg !901
  call void @llvm.dbg.declare(metadata ptr %ptr.dbg.spill, metadata !903, metadata !DIExpression()), !dbg !907
  call void @llvm.dbg.declare(metadata ptr %ptr.dbg.spill, metadata !891, metadata !DIExpression()), !dbg !909
  store i64 %align, ptr %align.dbg.spill, align 8
  call void @llvm.dbg.declare(metadata ptr %align.dbg.spill, metadata !870, metadata !DIExpression()), !dbg !911
  call void @llvm.dbg.declare(metadata ptr %align.dbg.spill, metadata !884, metadata !DIExpression()), !dbg !912
  call void @llvm.dbg.declare(metadata ptr %align.dbg.spill, metadata !913, metadata !DIExpression()), !dbg !920
  call void @llvm.dbg.declare(metadata ptr %align.dbg.spill, metadata !922, metadata !DIExpression()), !dbg !929
  call void @llvm.dbg.declare(metadata ptr %align.dbg.spill, metadata !900, metadata !DIExpression()), !dbg !931
  store ptr %ptr, ptr %ptr.dbg.spill1, align 8, !dbg !932
  call void @llvm.dbg.declare(metadata ptr %ptr.dbg.spill1, metadata !933, metadata !DIExpression()), !dbg !940
  call void @llvm.dbg.declare(metadata ptr %ptr.dbg.spill1, metadata !942, metadata !DIExpression()), !dbg !948
  call void @llvm.dbg.declare(metadata ptr %ptr.dbg.spill1, metadata !950, metadata !DIExpression()), !dbg !954
  %_4 = ptrtoint ptr %ptr to i64, !dbg !956
  %1 = icmp eq i64 %_4, 0, !dbg !957
  br i1 %1, label %bb1, label %bb2, !dbg !957

bb1:                                              ; preds = %start
  store i8 0, ptr %_0, align 1, !dbg !958
  br label %bb3, !dbg !958

bb2:                                              ; preds = %start
  %2 = call i64 @llvm.ctpop.i64(i64 %align), !dbg !929
  store i64 %2, ptr %0, align 8, !dbg !929
  %_9 = load i64, ptr %0, align 8, !dbg !929, !noundef !16
  %_8 = trunc i64 %_9 to i32, !dbg !929
  %3 = icmp eq i32 %_8, 1, !dbg !959
  br i1 %3, label %bb4, label %bb5, !dbg !959

bb3:                                              ; preds = %bb4, %bb1
  %4 = load i8, ptr %_0, align 1, !dbg !960, !range !462, !noundef !16
  %5 = trunc i8 %4 to i1, !dbg !960
  ret i1 %5, !dbg !960

bb4:                                              ; preds = %bb2
  %_13 = sub i64 %align, 1, !dbg !961
  %_12 = and i64 %_4, %_13, !dbg !962
  %6 = icmp eq i64 %_12, 0, !dbg !962
  %7 = zext i1 %6 to i8, !dbg !962
  store i8 %7, ptr %_0, align 1, !dbg !962
  br label %bb3, !dbg !958

bb5:                                              ; preds = %bb2
  store ptr @alloc_041983ee8170efdaaf95ba67fd072d26, ptr %pieces.dbg.spill, align 8, !dbg !963
  %8 = getelementptr inbounds i8, ptr %pieces.dbg.spill, i64 8, !dbg !963
  store i64 1, ptr %8, align 8, !dbg !963
  call void @llvm.dbg.declare(metadata ptr %pieces.dbg.spill, metadata !964, metadata !DIExpression()), !dbg !1037
  store ptr @alloc_041983ee8170efdaaf95ba67fd072d26, ptr %_6, align 8, !dbg !1041
  %9 = getelementptr inbounds i8, ptr %_6, i64 8, !dbg !1041
  store i64 1, ptr %9, align 8, !dbg !1041
  %10 = load ptr, ptr @0, align 8, !dbg !1041, !align !527, !noundef !16
  %11 = load i64, ptr getelementptr inbounds (i8, ptr @0, i64 8), align 8, !dbg !1041
  %12 = getelementptr inbounds i8, ptr %_6, i64 32, !dbg !1041
  store ptr %10, ptr %12, align 8, !dbg !1041
  %13 = getelementptr inbounds i8, ptr %12, i64 8, !dbg !1041
  store i64 %11, ptr %13, align 8, !dbg !1041
  %14 = getelementptr inbounds i8, ptr %_6, i64 16, !dbg !1041
  store ptr @alloc_513570631223a12912d85da2bec3b15a, ptr %14, align 8, !dbg !1041
  %15 = getelementptr inbounds i8, ptr %14, i64 8, !dbg !1041
  store i64 0, ptr %15, align 8, !dbg !1041
; call core::panicking::panic_fmt
  call void @_ZN4core9panicking9panic_fmt17ha6d62ade15192290E(ptr align 8 %_6, ptr align 8 @alloc_33f991fa5bbac1da9d8a778b0f014caf) #22, !dbg !1042
  unreachable, !dbg !1042
}

; core::intrinsics::is_val_statically_known
; Function Attrs: nounwind uwtable
define zeroext i1 @_ZN4core10intrinsics23is_val_statically_known17h6e303e14ad24178cE(i1 zeroext %_arg) unnamed_addr #4 !dbg !1043 {
start:
  %_arg.dbg.spill = alloca i8, align 1
  %0 = zext i1 %_arg to i8
  store i8 %0, ptr %_arg.dbg.spill, align 1
  call void @llvm.dbg.declare(metadata ptr %_arg.dbg.spill, metadata !1047, metadata !DIExpression()), !dbg !1050
  ret i1 false, !dbg !1051
}

; core::intrinsics::copy::precondition_check
; Function Attrs: inlinehint nounwind uwtable
define internal void @_ZN4core10intrinsics4copy18precondition_check17h79047b660b0a3a22E(ptr %src, ptr %dst, i64 %align) unnamed_addr #3 personality ptr @rust_eh_personality !dbg !1052 {
start:
  %align.dbg.spill = alloca i64, align 8
  %dst.dbg.spill = alloca ptr, align 8
  %src.dbg.spill = alloca ptr, align 8
  store ptr %src, ptr %src.dbg.spill, align 8
  call void @llvm.dbg.declare(metadata ptr %src.dbg.spill, metadata !1057, metadata !DIExpression()), !dbg !1060
  store ptr %dst, ptr %dst.dbg.spill, align 8
  call void @llvm.dbg.declare(metadata ptr %dst.dbg.spill, metadata !1058, metadata !DIExpression()), !dbg !1060
  store i64 %align, ptr %align.dbg.spill, align 8
  call void @llvm.dbg.declare(metadata ptr %align.dbg.spill, metadata !1059, metadata !DIExpression()), !dbg !1060
; invoke core::intrinsics::is_aligned_and_not_null
  %_4 = invoke zeroext i1 @_ZN4core10intrinsics23is_aligned_and_not_null17h75524cf5e835e5f8E(ptr %src, i64 %align)
          to label %bb1 unwind label %terminate, !dbg !1061

terminate:                                        ; preds = %bb2, %start
  %0 = landingpad { ptr, i32 }
          filter [0 x ptr] zeroinitializer
  %1 = extractvalue { ptr, i32 } %0, 0
  %2 = extractvalue { ptr, i32 } %0, 1
; call core::panicking::panic_cannot_unwind
  call void @_ZN4core9panicking19panic_cannot_unwind17h3626040c0976c0c3E() #20, !dbg !1062
  unreachable, !dbg !1062

bb1:                                              ; preds = %start
  br i1 %_4, label %bb2, label %bb6, !dbg !1061

bb6:                                              ; preds = %bb5, %bb1
; call core::panicking::panic_nounwind
  call void @_ZN4core9panicking14panic_nounwind17h50c31e15afde233eE(ptr align 1 @alloc_8df0580a595a87d56789d20c7318e185, i64 166) #21, !dbg !1063
  unreachable, !dbg !1063

bb2:                                              ; preds = %bb1
; invoke core::intrinsics::is_aligned_and_not_null
  %_5 = invoke zeroext i1 @_ZN4core10intrinsics23is_aligned_and_not_null17h75524cf5e835e5f8E(ptr %dst, i64 %align)
          to label %bb3 unwind label %terminate, !dbg !1064

bb3:                                              ; preds = %bb2
  br i1 %_5, label %bb4, label %bb5, !dbg !1064

bb5:                                              ; preds = %bb3
  br label %bb6, !dbg !1065

bb4:                                              ; preds = %bb3
  ret void, !dbg !1067
}

; core::intrinsics::unlikely
; Function Attrs: nounwind uwtable
define internal zeroext i1 @_ZN4core10intrinsics8unlikely17hcfd2100ac65181b4E(i1 zeroext %b) unnamed_addr #4 !dbg !1068 {
start:
  %b.dbg.spill = alloca i8, align 1
  %0 = zext i1 %b to i8
  store i8 %0, ptr %b.dbg.spill, align 1
  call void @llvm.dbg.declare(metadata ptr %b.dbg.spill, metadata !1070, metadata !DIExpression()), !dbg !1071
  ret i1 %b, !dbg !1072
}

; core::cmp::Ord::max
; Function Attrs: inlinehint uwtable
define i64 @_ZN4core3cmp3Ord3max17h00b50c0a9fcb86bdE(i64 %self, i64 %other) unnamed_addr #1 !dbg !1073 {
start:
  %other.dbg.spill = alloca i64, align 8
  %self.dbg.spill = alloca i64, align 8
  store i64 %self, ptr %self.dbg.spill, align 8
  call void @llvm.dbg.declare(metadata ptr %self.dbg.spill, metadata !1076, metadata !DIExpression()), !dbg !1080
  store i64 %other, ptr %other.dbg.spill, align 8
  call void @llvm.dbg.declare(metadata ptr %other.dbg.spill, metadata !1077, metadata !DIExpression()), !dbg !1081
; call core::cmp::max_by
  %_0 = call i64 @_ZN4core3cmp6max_by17hd8283997075c3be5E(i64 %self, i64 %other), !dbg !1082
  ret i64 %_0, !dbg !1083
}

; core::cmp::Ord::min
; Function Attrs: inlinehint uwtable
define i64 @_ZN4core3cmp3Ord3min17h946780f3b26e5ed6E(i64 %self, i64 %other) unnamed_addr #1 !dbg !1084 {
start:
  %other.dbg.spill = alloca i64, align 8
  %self.dbg.spill = alloca i64, align 8
  store i64 %self, ptr %self.dbg.spill, align 8
  call void @llvm.dbg.declare(metadata ptr %self.dbg.spill, metadata !1086, metadata !DIExpression()), !dbg !1088
  store i64 %other, ptr %other.dbg.spill, align 8
  call void @llvm.dbg.declare(metadata ptr %other.dbg.spill, metadata !1087, metadata !DIExpression()), !dbg !1089
; call core::cmp::min_by
  %_0 = call i64 @_ZN4core3cmp6min_by17h7e6b7fb0138ce07bE(i64 %self, i64 %other), !dbg !1090
  ret i64 %_0, !dbg !1091
}

; core::cmp::max
; Function Attrs: inlinehint uwtable
define i64 @_ZN4core3cmp3max17hd3afe0deed91125cE(i64 %v1, i64 %v2) unnamed_addr #1 !dbg !1092 {
start:
  %v2.dbg.spill = alloca i64, align 8
  %v1.dbg.spill = alloca i64, align 8
  store i64 %v1, ptr %v1.dbg.spill, align 8
  call void @llvm.dbg.declare(metadata ptr %v1.dbg.spill, metadata !1094, metadata !DIExpression()), !dbg !1096
  store i64 %v2, ptr %v2.dbg.spill, align 8
  call void @llvm.dbg.declare(metadata ptr %v2.dbg.spill, metadata !1095, metadata !DIExpression()), !dbg !1097
; call core::cmp::Ord::max
  %_0 = call i64 @_ZN4core3cmp3Ord3max17h00b50c0a9fcb86bdE(i64 %v1, i64 %v2), !dbg !1098
  ret i64 %_0, !dbg !1099
}

; core::cmp::min
; Function Attrs: inlinehint uwtable
define i64 @_ZN4core3cmp3min17h90e4c052e2ba4118E(i64 %v1, i64 %v2) unnamed_addr #1 !dbg !1100 {
start:
  %v2.dbg.spill = alloca i64, align 8
  %v1.dbg.spill = alloca i64, align 8
  store i64 %v1, ptr %v1.dbg.spill, align 8
  call void @llvm.dbg.declare(metadata ptr %v1.dbg.spill, metadata !1102, metadata !DIExpression()), !dbg !1104
  store i64 %v2, ptr %v2.dbg.spill, align 8
  call void @llvm.dbg.declare(metadata ptr %v2.dbg.spill, metadata !1103, metadata !DIExpression()), !dbg !1105
; call core::cmp::Ord::min
  %_0 = call i64 @_ZN4core3cmp3Ord3min17h946780f3b26e5ed6E(i64 %v1, i64 %v2), !dbg !1106
  ret i64 %_0, !dbg !1107
}

; core::cmp::impls::<impl core::cmp::Ord for usize>::cmp
; Function Attrs: inlinehint uwtable
define internal i8 @"_ZN4core3cmp5impls50_$LT$impl$u20$core..cmp..Ord$u20$for$u20$usize$GT$3cmp17hc5545b0fc82a41c5E"(ptr align 8 %self, ptr align 8 %other) unnamed_addr #1 !dbg !1108 {
start:
  %other.dbg.spill = alloca ptr, align 8
  %self.dbg.spill = alloca ptr, align 8
  %_0 = alloca i8, align 1
  store ptr %self, ptr %self.dbg.spill, align 8
  call void @llvm.dbg.declare(metadata ptr %self.dbg.spill, metadata !1113, metadata !DIExpression()), !dbg !1115
  store ptr %other, ptr %other.dbg.spill, align 8
  call void @llvm.dbg.declare(metadata ptr %other.dbg.spill, metadata !1114, metadata !DIExpression()), !dbg !1116
  %_4 = load i64, ptr %self, align 8, !dbg !1117, !noundef !16
  %_5 = load i64, ptr %other, align 8, !dbg !1118, !noundef !16
  %_3 = icmp ult i64 %_4, %_5, !dbg !1117
  br i1 %_3, label %bb1, label %bb2, !dbg !1117

bb2:                                              ; preds = %start
  %_6 = icmp eq i64 %_4, %_5, !dbg !1119
  br i1 %_6, label %bb3, label %bb4, !dbg !1119

bb1:                                              ; preds = %start
  store i8 -1, ptr %_0, align 1, !dbg !1120
  br label %bb6, !dbg !1121

bb4:                                              ; preds = %bb2
  store i8 1, ptr %_0, align 1, !dbg !1122
  br label %bb5, !dbg !1123

bb3:                                              ; preds = %bb2
  store i8 0, ptr %_0, align 1, !dbg !1124
  br label %bb5, !dbg !1123

bb5:                                              ; preds = %bb3, %bb4
  br label %bb6, !dbg !1121

bb6:                                              ; preds = %bb1, %bb5
  %0 = load i8, ptr %_0, align 1, !dbg !1125, !range !730, !noundef !16
  ret i8 %0, !dbg !1125
}

; core::cmp::impls::<impl core::cmp::PartialEq<&B> for &A>::eq
; Function Attrs: inlinehint uwtable
define zeroext i1 @"_ZN4core3cmp5impls69_$LT$impl$u20$core..cmp..PartialEq$LT$$RF$B$GT$$u20$for$u20$$RF$A$GT$2eq17hcfdec7b051632224E"(ptr align 8 %self, ptr align 8 %other) unnamed_addr #1 !dbg !1126 {
start:
  %other.dbg.spill = alloca ptr, align 8
  %self.dbg.spill = alloca ptr, align 8
  store ptr %self, ptr %self.dbg.spill, align 8
  call void @llvm.dbg.declare(metadata ptr %self.dbg.spill, metadata !1132, metadata !DIExpression()), !dbg !1137
  store ptr %other, ptr %other.dbg.spill, align 8
  call void @llvm.dbg.declare(metadata ptr %other.dbg.spill, metadata !1133, metadata !DIExpression()), !dbg !1138
  %_3.0 = load ptr, ptr %self, align 8, !dbg !1139, !nonnull !16, !align !1140, !noundef !16
  %0 = getelementptr inbounds i8, ptr %self, i64 8, !dbg !1139
  %_3.1 = load i64, ptr %0, align 8, !dbg !1139, !noundef !16
  %_4.0 = load ptr, ptr %other, align 8, !dbg !1141, !nonnull !16, !align !1140, !noundef !16
  %1 = getelementptr inbounds i8, ptr %other, i64 8, !dbg !1141
  %_4.1 = load i64, ptr %1, align 8, !dbg !1141, !noundef !16
; call core::slice::cmp::<impl core::cmp::PartialEq<[U]> for [T]>::eq
  %_0 = call zeroext i1 @"_ZN4core5slice3cmp81_$LT$impl$u20$core..cmp..PartialEq$LT$$u5b$U$u5d$$GT$$u20$for$u20$$u5b$T$u5d$$GT$2eq17hc3f51b0ece81347dE"(ptr align 1 %_3.0, i64 %_3.1, ptr align 1 %_4.0, i64 %_4.1), !dbg !1142
  ret i1 %_0, !dbg !1143
}

; core::cmp::max_by
; Function Attrs: inlinehint uwtable
define i64 @_ZN4core3cmp6max_by17hd8283997075c3be5E(i64 %0, i64 %1) unnamed_addr #1 personality ptr @rust_eh_personality !dbg !1144 {
start:
  %2 = alloca { ptr, i32, [1 x i32] }, align 8
  %compare.dbg.spill = alloca {}, align 1
  %_9 = alloca i8, align 1
  %_5 = alloca { ptr, ptr }, align 8
  %_4 = alloca i8, align 1
  %_0 = alloca i64, align 8
  %v2 = alloca i64, align 8
  %v1 = alloca i64, align 8
  store i64 %0, ptr %v1, align 8
  store i64 %1, ptr %v2, align 8
  call void @llvm.dbg.declare(metadata ptr %v1, metadata !1149, metadata !DIExpression()), !dbg !1154
  call void @llvm.dbg.declare(metadata ptr %v2, metadata !1150, metadata !DIExpression()), !dbg !1155
  call void @llvm.dbg.declare(metadata ptr %compare.dbg.spill, metadata !1151, metadata !DIExpression()), !dbg !1156
  store i8 1, ptr %_9, align 1, !dbg !1157
  store ptr %v1, ptr %_5, align 8, !dbg !1157
  %3 = getelementptr inbounds i8, ptr %_5, i64 8, !dbg !1157
  store ptr %v2, ptr %3, align 8, !dbg !1157
  %4 = load ptr, ptr %_5, align 8, !dbg !1157, !nonnull !16, !align !527, !noundef !16
  %5 = getelementptr inbounds i8, ptr %_5, i64 8, !dbg !1157
  %6 = load ptr, ptr %5, align 8, !dbg !1157, !nonnull !16, !align !527, !noundef !16
; invoke core::ops::function::FnOnce::call_once
  %7 = invoke i8 @_ZN4core3ops8function6FnOnce9call_once17hdbd4f98ef885e977E(ptr align 8 %4, ptr align 8 %6)
          to label %bb1 unwind label %cleanup, !dbg !1157, !range !730

bb6:                                              ; preds = %cleanup
  br label %bb10, !dbg !1158

cleanup:                                          ; preds = %start
  %8 = landingpad { ptr, i32 }
          cleanup
  %9 = extractvalue { ptr, i32 } %8, 0
  %10 = extractvalue { ptr, i32 } %8, 1
  store ptr %9, ptr %2, align 8
  %11 = getelementptr inbounds i8, ptr %2, i64 8
  store i32 %10, ptr %11, align 8
  br label %bb6

bb1:                                              ; preds = %start
  store i8 %7, ptr %_4, align 1, !dbg !1157
  %_8 = load i8, ptr %_4, align 1, !dbg !1157, !range !730, !noundef !16
  switch i8 %_8, label %bb2 [
    i8 -1, label %bb4
    i8 0, label %bb4
    i8 1, label %bb3
  ], !dbg !1159

bb2:                                              ; preds = %bb1
  unreachable, !dbg !1157

bb4:                                              ; preds = %bb1, %bb1
  %12 = load i64, ptr %v2, align 8, !dbg !1160, !noundef !16
  store i64 %12, ptr %_0, align 8, !dbg !1160
  %13 = load i8, ptr %_9, align 1, !dbg !1158, !range !462, !noundef !16
  %14 = trunc i8 %13 to i1, !dbg !1158
  br i1 %14, label %bb8, label %bb5, !dbg !1158

bb3:                                              ; preds = %bb1
  store i8 0, ptr %_9, align 1, !dbg !1161
  %15 = load i64, ptr %v1, align 8, !dbg !1161, !noundef !16
  store i64 %15, ptr %_0, align 8, !dbg !1161
  br label %bb5, !dbg !1158

bb5:                                              ; preds = %bb3, %bb8, %bb4
  %16 = load i64, ptr %_0, align 8, !dbg !1162, !noundef !16
  ret i64 %16, !dbg !1162

bb8:                                              ; preds = %bb4
  br label %bb5, !dbg !1158

bb10:                                             ; preds = %bb6
  %17 = load i8, ptr %_9, align 1, !dbg !1158, !range !462, !noundef !16
  %18 = trunc i8 %17 to i1, !dbg !1158
  br i1 %18, label %bb9, label %bb7, !dbg !1158

bb7:                                              ; preds = %bb9, %bb10
  %19 = load ptr, ptr %2, align 8, !dbg !1163, !noundef !16
  %20 = getelementptr inbounds i8, ptr %2, i64 8, !dbg !1163
  %21 = load i32, ptr %20, align 8, !dbg !1163, !noundef !16
  %22 = insertvalue { ptr, i32 } poison, ptr %19, 0, !dbg !1163
  %23 = insertvalue { ptr, i32 } %22, i32 %21, 1, !dbg !1163
  resume { ptr, i32 } %23, !dbg !1163

bb9:                                              ; preds = %bb10
  br label %bb7, !dbg !1158
}

; core::cmp::min_by
; Function Attrs: inlinehint uwtable
define i64 @_ZN4core3cmp6min_by17h7e6b7fb0138ce07bE(i64 %0, i64 %1) unnamed_addr #1 personality ptr @rust_eh_personality !dbg !1164 {
start:
  %2 = alloca { ptr, i32, [1 x i32] }, align 8
  %compare.dbg.spill = alloca {}, align 1
  %_10 = alloca i8, align 1
  %_5 = alloca { ptr, ptr }, align 8
  %_4 = alloca i8, align 1
  %_0 = alloca i64, align 8
  %v2 = alloca i64, align 8
  %v1 = alloca i64, align 8
  store i64 %0, ptr %v1, align 8
  store i64 %1, ptr %v2, align 8
  call void @llvm.dbg.declare(metadata ptr %v1, metadata !1166, metadata !DIExpression()), !dbg !1169
  call void @llvm.dbg.declare(metadata ptr %v2, metadata !1167, metadata !DIExpression()), !dbg !1170
  call void @llvm.dbg.declare(metadata ptr %compare.dbg.spill, metadata !1168, metadata !DIExpression()), !dbg !1171
  store i8 1, ptr %_10, align 1, !dbg !1172
  store ptr %v1, ptr %_5, align 8, !dbg !1172
  %3 = getelementptr inbounds i8, ptr %_5, i64 8, !dbg !1172
  store ptr %v2, ptr %3, align 8, !dbg !1172
  %4 = load ptr, ptr %_5, align 8, !dbg !1172, !nonnull !16, !align !527, !noundef !16
  %5 = getelementptr inbounds i8, ptr %_5, i64 8, !dbg !1172
  %6 = load ptr, ptr %5, align 8, !dbg !1172, !nonnull !16, !align !527, !noundef !16
; invoke core::ops::function::FnOnce::call_once
  %7 = invoke i8 @_ZN4core3ops8function6FnOnce9call_once17hdbd4f98ef885e977E(ptr align 8 %4, ptr align 8 %6)
          to label %bb1 unwind label %cleanup, !dbg !1172, !range !730

bb7:                                              ; preds = %cleanup
  br label %bb12, !dbg !1173

cleanup:                                          ; preds = %start
  %8 = landingpad { ptr, i32 }
          cleanup
  %9 = extractvalue { ptr, i32 } %8, 0
  %10 = extractvalue { ptr, i32 } %8, 1
  store ptr %9, ptr %2, align 8
  %11 = getelementptr inbounds i8, ptr %2, i64 8
  store i32 %10, ptr %11, align 8
  br label %bb7

bb1:                                              ; preds = %start
  store i8 %7, ptr %_4, align 1, !dbg !1172
  %_8 = load i8, ptr %_4, align 1, !dbg !1172, !range !730, !noundef !16
  switch i8 %_8, label %bb2 [
    i8 -1, label %bb4
    i8 0, label %bb4
    i8 1, label %bb3
  ], !dbg !1174

bb2:                                              ; preds = %bb1
  unreachable, !dbg !1172

bb4:                                              ; preds = %bb1, %bb1
  store i8 0, ptr %_10, align 1, !dbg !1175
  %12 = load i64, ptr %v1, align 8, !dbg !1175, !noundef !16
  store i64 %12, ptr %_0, align 8, !dbg !1175
  br label %bb9, !dbg !1173

bb3:                                              ; preds = %bb1
  %13 = load i64, ptr %v2, align 8, !dbg !1176, !noundef !16
  store i64 %13, ptr %_0, align 8, !dbg !1176
  br label %bb5, !dbg !1173

bb9:                                              ; preds = %bb4
  br label %bb6, !dbg !1173

bb6:                                              ; preds = %bb10, %bb5, %bb9
  %14 = load i64, ptr %_0, align 8, !dbg !1177, !noundef !16
  ret i64 %14, !dbg !1177

bb5:                                              ; preds = %bb3
  %15 = load i8, ptr %_10, align 1, !dbg !1173, !range !462, !noundef !16
  %16 = trunc i8 %15 to i1, !dbg !1173
  br i1 %16, label %bb10, label %bb6, !dbg !1173

bb10:                                             ; preds = %bb5
  br label %bb6, !dbg !1173

bb12:                                             ; preds = %bb7
  %17 = load i8, ptr %_10, align 1, !dbg !1173, !range !462, !noundef !16
  %18 = trunc i8 %17 to i1, !dbg !1173
  br i1 %18, label %bb11, label %bb8, !dbg !1173

bb8:                                              ; preds = %bb11, %bb12
  %19 = load ptr, ptr %2, align 8, !dbg !1178, !noundef !16
  %20 = getelementptr inbounds i8, ptr %2, i64 8, !dbg !1178
  %21 = load i32, ptr %20, align 8, !dbg !1178, !noundef !16
  %22 = insertvalue { ptr, i32 } poison, ptr %19, 0, !dbg !1178
  %23 = insertvalue { ptr, i32 } %22, i32 %21, 1, !dbg !1178
  resume { ptr, i32 } %23, !dbg !1178

bb11:                                             ; preds = %bb12
  br label %bb8, !dbg !1173
}

; core::fmt::num::<impl core::fmt::Debug for usize>::fmt
; Function Attrs: inlinehint uwtable
define internal zeroext i1 @"_ZN4core3fmt3num52_$LT$impl$u20$core..fmt..Debug$u20$for$u20$usize$GT$3fmt17hcf060cdaa3d89f2dE"(ptr align 8 %self, ptr align 8 %f) unnamed_addr #1 !dbg !1179 {
start:
  %f.dbg.spill = alloca ptr, align 8
  %self.dbg.spill = alloca ptr, align 8
  %_0 = alloca i8, align 1
  store ptr %self, ptr %self.dbg.spill, align 8
  call void @llvm.dbg.declare(metadata ptr %self.dbg.spill, metadata !1186, metadata !DIExpression()), !dbg !1188
  store ptr %f, ptr %f.dbg.spill, align 8
  call void @llvm.dbg.declare(metadata ptr %f.dbg.spill, metadata !1187, metadata !DIExpression()), !dbg !1189
  call void @llvm.dbg.declare(metadata ptr %f.dbg.spill, metadata !1190, metadata !DIExpression()), !dbg !1198
  call void @llvm.dbg.declare(metadata ptr %f.dbg.spill, metadata !1200, metadata !DIExpression()), !dbg !1205
  %0 = getelementptr inbounds i8, ptr %f, i64 52, !dbg !1207
  %_4 = load i32, ptr %0, align 4, !dbg !1207, !noundef !16
  %_3 = and i32 %_4, 16, !dbg !1207
  %1 = icmp eq i32 %_3, 0, !dbg !1208
  br i1 %1, label %bb2, label %bb1, !dbg !1208

bb2:                                              ; preds = %start
  %2 = getelementptr inbounds i8, ptr %f, i64 52, !dbg !1209
  %_6 = load i32, ptr %2, align 4, !dbg !1209, !noundef !16
  %_5 = and i32 %_6, 32, !dbg !1209
  %3 = icmp eq i32 %_5, 0, !dbg !1210
  br i1 %3, label %bb4, label %bb3, !dbg !1210

bb1:                                              ; preds = %start
; call core::fmt::num::<impl core::fmt::LowerHex for usize>::fmt
  %4 = call zeroext i1 @"_ZN4core3fmt3num55_$LT$impl$u20$core..fmt..LowerHex$u20$for$u20$usize$GT$3fmt17h47ab34c38f234db6E"(ptr align 8 %self, ptr align 8 %f), !dbg !1211
  %5 = zext i1 %4 to i8, !dbg !1211
  store i8 %5, ptr %_0, align 1, !dbg !1211
  br label %bb6, !dbg !1211

bb4:                                              ; preds = %bb2
; call core::fmt::num::imp::<impl core::fmt::Display for usize>::fmt
  %6 = call zeroext i1 @"_ZN4core3fmt3num3imp54_$LT$impl$u20$core..fmt..Display$u20$for$u20$usize$GT$3fmt17h5159b867faf653c2E"(ptr align 8 %self, ptr align 8 %f), !dbg !1212
  %7 = zext i1 %6 to i8, !dbg !1212
  store i8 %7, ptr %_0, align 1, !dbg !1212
  br label %bb5, !dbg !1212

bb3:                                              ; preds = %bb2
; call core::fmt::num::<impl core::fmt::UpperHex for usize>::fmt
  %8 = call zeroext i1 @"_ZN4core3fmt3num55_$LT$impl$u20$core..fmt..UpperHex$u20$for$u20$usize$GT$3fmt17h95d968ee1c330b2cE"(ptr align 8 %self, ptr align 8 %f), !dbg !1213
  %9 = zext i1 %8 to i8, !dbg !1213
  store i8 %9, ptr %_0, align 1, !dbg !1213
  br label %bb5, !dbg !1213

bb5:                                              ; preds = %bb3, %bb4
  br label %bb6, !dbg !1214

bb6:                                              ; preds = %bb1, %bb5
  %10 = load i8, ptr %_0, align 1, !dbg !1215, !range !462, !noundef !16
  %11 = trunc i8 %10 to i1, !dbg !1215
  ret i1 %11, !dbg !1215
}

; core::fmt::Arguments::as_const_str
; Function Attrs: inlinehint uwtable
define internal { ptr, i64 } @_ZN4core3fmt9Arguments12as_const_str17h07045bd635a18f20E(ptr align 8 %self) unnamed_addr #1 !dbg !1216 {
start:
  %0 = alloca i8, align 1
  %self.dbg.spill2 = alloca ptr, align 8
  %s.dbg.spill = alloca ptr, align 8
  %self.dbg.spill = alloca ptr, align 8
  %_4 = alloca i8, align 1
  %s = alloca %"core::option::Option<&str>", align 8
  %_0 = alloca %"core::option::Option<&str>", align 8
  store ptr %self, ptr %self.dbg.spill, align 8
  call void @llvm.dbg.declare(metadata ptr %self.dbg.spill, metadata !1235, metadata !DIExpression()), !dbg !1238
  call void @llvm.dbg.declare(metadata ptr %self.dbg.spill, metadata !1239, metadata !DIExpression()), !dbg !1247
  call void @llvm.dbg.declare(metadata ptr %s, metadata !1236, metadata !DIExpression()), !dbg !1249
  %_6.0 = load ptr, ptr %self, align 8, !dbg !1250, !nonnull !16, !align !527, !noundef !16
  %1 = getelementptr inbounds i8, ptr %self, i64 8, !dbg !1250
  %_6.1 = load i64, ptr %1, align 8, !dbg !1250, !noundef !16
  %2 = getelementptr inbounds i8, ptr %self, i64 16, !dbg !1251
  %_7.0 = load ptr, ptr %2, align 8, !dbg !1251, !nonnull !16, !align !527, !noundef !16
  %3 = getelementptr inbounds i8, ptr %2, i64 8, !dbg !1251
  %_7.1 = load i64, ptr %3, align 8, !dbg !1251, !noundef !16
  %4 = icmp eq i64 %_6.1, 0, !dbg !1252
  br i1 %4, label %bb7, label %bb8, !dbg !1252

bb7:                                              ; preds = %start
  %5 = icmp eq i64 %_7.1, 0, !dbg !1253
  br i1 %5, label %bb10, label %bb6, !dbg !1253

bb8:                                              ; preds = %start
  %6 = icmp eq i64 %_6.1, 1, !dbg !1254
  br i1 %6, label %bb9, label %bb6, !dbg !1254

bb10:                                             ; preds = %bb7
  store ptr @alloc_513570631223a12912d85da2bec3b15a, ptr %s, align 8, !dbg !1255
  %7 = getelementptr inbounds i8, ptr %s, i64 8, !dbg !1255
  store i64 0, ptr %7, align 8, !dbg !1255
  br label %bb5, !dbg !1256

bb6:                                              ; preds = %bb9, %bb8, %bb7
  %8 = load ptr, ptr @0, align 8, !dbg !1257, !align !1140, !noundef !16
  %9 = load i64, ptr getelementptr inbounds (i8, ptr @0, i64 8), align 8, !dbg !1257
  store ptr %8, ptr %s, align 8, !dbg !1257
  %10 = getelementptr inbounds i8, ptr %s, i64 8, !dbg !1257
  store i64 %9, ptr %10, align 8, !dbg !1257
  br label %bb5, !dbg !1257

bb5:                                              ; preds = %bb6, %bb11, %bb10
  store ptr %s, ptr %self.dbg.spill2, align 8, !dbg !1258
  call void @llvm.dbg.declare(metadata ptr %self.dbg.spill2, metadata !1259, metadata !DIExpression()), !dbg !1268
  %11 = load ptr, ptr %s, align 8, !dbg !1270, !noundef !16
  %12 = ptrtoint ptr %11 to i64, !dbg !1270
  %13 = icmp eq i64 %12, 0, !dbg !1270
  %_14 = select i1 %13, i64 0, i64 1, !dbg !1270
  %14 = icmp eq i64 %_14, 1, !dbg !1271
  br i1 %14, label %bb14, label %bb13, !dbg !1271

bb9:                                              ; preds = %bb8
  %15 = icmp eq i64 %_7.1, 0, !dbg !1272
  br i1 %15, label %bb11, label %bb6, !dbg !1272

bb11:                                             ; preds = %bb9
  %s1 = getelementptr inbounds [0 x { ptr, i64 }], ptr %_6.0, i64 0, i64 0, !dbg !1273
  store ptr %s1, ptr %s.dbg.spill, align 8, !dbg !1273
  call void @llvm.dbg.declare(metadata ptr %s.dbg.spill, metadata !1244, metadata !DIExpression()), !dbg !1274
  %16 = getelementptr inbounds [0 x { ptr, i64 }], ptr %_6.0, i64 0, i64 0, !dbg !1275
  %_13.0 = load ptr, ptr %16, align 8, !dbg !1275, !nonnull !16, !align !1140, !noundef !16
  %17 = getelementptr inbounds i8, ptr %16, i64 8, !dbg !1275
  %_13.1 = load i64, ptr %17, align 8, !dbg !1275, !noundef !16
  store ptr %_13.0, ptr %s, align 8, !dbg !1276
  %18 = getelementptr inbounds i8, ptr %s, i64 8, !dbg !1276
  store i64 %_13.1, ptr %18, align 8, !dbg !1276
  br label %bb5, !dbg !1277

bb14:                                             ; preds = %bb5
  store i8 1, ptr %_4, align 1, !dbg !1271
  br label %bb12, !dbg !1271

bb13:                                             ; preds = %bb5
  store i8 0, ptr %_4, align 1, !dbg !1271
  br label %bb12, !dbg !1271

bb12:                                             ; preds = %bb13, %bb14
  %19 = load i8, ptr %_4, align 1, !dbg !1278, !range !462, !noundef !16
  %20 = trunc i8 %19 to i1, !dbg !1278
  %21 = call i1 @llvm.is.constant.i1(i1 %20), !dbg !1278
  %22 = zext i1 %21 to i8, !dbg !1278
  store i8 %22, ptr %0, align 1, !dbg !1278
  %23 = load i8, ptr %0, align 1, !dbg !1278, !range !462, !noundef !16
  %_3 = trunc i8 %23 to i1, !dbg !1278
  br i1 %_3, label %bb2, label %bb3, !dbg !1278

bb3:                                              ; preds = %bb12
  %24 = load ptr, ptr @0, align 8, !dbg !1279, !align !1140, !noundef !16
  %25 = load i64, ptr getelementptr inbounds (i8, ptr @0, i64 8), align 8, !dbg !1279
  store ptr %24, ptr %_0, align 8, !dbg !1279
  %26 = getelementptr inbounds i8, ptr %_0, i64 8, !dbg !1279
  store i64 %25, ptr %26, align 8, !dbg !1279
  br label %bb4, !dbg !1280

bb2:                                              ; preds = %bb12
  %27 = load ptr, ptr %s, align 8, !dbg !1281, !align !1140, !noundef !16
  %28 = getelementptr inbounds i8, ptr %s, i64 8, !dbg !1281
  %29 = load i64, ptr %28, align 8, !dbg !1281
  store ptr %27, ptr %_0, align 8, !dbg !1281
  %30 = getelementptr inbounds i8, ptr %_0, i64 8, !dbg !1281
  store i64 %29, ptr %30, align 8, !dbg !1281
  br label %bb4, !dbg !1280

bb4:                                              ; preds = %bb2, %bb3
  %31 = load ptr, ptr %_0, align 8, !dbg !1282, !align !1140, !noundef !16
  %32 = getelementptr inbounds i8, ptr %_0, i64 8, !dbg !1282
  %33 = load i64, ptr %32, align 8, !dbg !1282
  %34 = insertvalue { ptr, i64 } poison, ptr %31, 0, !dbg !1282
  %35 = insertvalue { ptr, i64 } %34, i64 %33, 1, !dbg !1282
  ret { ptr, i64 } %35, !dbg !1282

bb15:                                             ; No predecessors!
  unreachable, !dbg !1283
}

; core::fmt::Arguments::new_v1_formatted
; Function Attrs: inlinehint uwtable
define internal void @_ZN4core3fmt9Arguments16new_v1_formatted17h57af05cc3eecaf61E(ptr sret(%"core::fmt::Arguments<'_>") align 8 %_0, ptr align 8 %pieces.0, i64 %pieces.1, ptr align 8 %args.0, i64 %args.1, ptr align 8 %fmt.0, i64 %fmt.1) unnamed_addr #1 !dbg !1284 {
start:
  %_4.dbg.spill = alloca %"core::fmt::rt::UnsafeArg", align 1
  %fmt.dbg.spill = alloca { ptr, i64 }, align 8
  %args.dbg.spill = alloca { ptr, i64 }, align 8
  %pieces.dbg.spill = alloca { ptr, i64 }, align 8
  %_5 = alloca %"core::option::Option<&[core::fmt::rt::Placeholder]>", align 8
  %_unsafe_arg.dbg.spill = alloca %"core::fmt::rt::UnsafeArg", align 1
  call void @llvm.dbg.declare(metadata ptr %_unsafe_arg.dbg.spill, metadata !1295, metadata !DIExpression()), !dbg !1297
  store ptr %pieces.0, ptr %pieces.dbg.spill, align 8, !dbg !1297
  %0 = getelementptr inbounds i8, ptr %pieces.dbg.spill, i64 8, !dbg !1297
  store i64 %pieces.1, ptr %0, align 8, !dbg !1297
  call void @llvm.dbg.declare(metadata ptr %pieces.dbg.spill, metadata !1292, metadata !DIExpression()), !dbg !1298
  store ptr %args.0, ptr %args.dbg.spill, align 8, !dbg !1297
  %1 = getelementptr inbounds i8, ptr %args.dbg.spill, i64 8, !dbg !1297
  store i64 %args.1, ptr %1, align 8, !dbg !1297
  call void @llvm.dbg.declare(metadata ptr %args.dbg.spill, metadata !1293, metadata !DIExpression()), !dbg !1299
  store ptr %fmt.0, ptr %fmt.dbg.spill, align 8, !dbg !1297
  %2 = getelementptr inbounds i8, ptr %fmt.dbg.spill, i64 8, !dbg !1297
  store i64 %fmt.1, ptr %2, align 8, !dbg !1297
  call void @llvm.dbg.declare(metadata ptr %fmt.dbg.spill, metadata !1294, metadata !DIExpression()), !dbg !1300
  call void @llvm.dbg.declare(metadata ptr %_4.dbg.spill, metadata !1296, metadata !DIExpression()), !dbg !1297
  store ptr %fmt.0, ptr %_5, align 8, !dbg !1301
  %3 = getelementptr inbounds i8, ptr %_5, i64 8, !dbg !1301
  store i64 %fmt.1, ptr %3, align 8, !dbg !1301
  store ptr %pieces.0, ptr %_0, align 8, !dbg !1302
  %4 = getelementptr inbounds i8, ptr %_0, i64 8, !dbg !1302
  store i64 %pieces.1, ptr %4, align 8, !dbg !1302
  %5 = load ptr, ptr %_5, align 8, !dbg !1302, !align !527, !noundef !16
  %6 = getelementptr inbounds i8, ptr %_5, i64 8, !dbg !1302
  %7 = load i64, ptr %6, align 8, !dbg !1302
  %8 = getelementptr inbounds i8, ptr %_0, i64 32, !dbg !1302
  store ptr %5, ptr %8, align 8, !dbg !1302
  %9 = getelementptr inbounds i8, ptr %8, i64 8, !dbg !1302
  store i64 %7, ptr %9, align 8, !dbg !1302
  %10 = getelementptr inbounds i8, ptr %_0, i64 16, !dbg !1302
  store ptr %args.0, ptr %10, align 8, !dbg !1302
  %11 = getelementptr inbounds i8, ptr %10, i64 8, !dbg !1302
  store i64 %args.1, ptr %11, align 8, !dbg !1302
  ret void, !dbg !1303
}

; core::fmt::Arguments::new_v1
; Function Attrs: inlinehint uwtable
define internal void @_ZN4core3fmt9Arguments6new_v117h2fb5ede2f315fdf9E(ptr sret(%"core::fmt::Arguments<'_>") align 8 %_0, ptr align 8 %pieces.0, i64 %pieces.1, ptr align 8 %args.0, i64 %args.1) unnamed_addr #1 !dbg !1304 {
start:
  %pieces.dbg.spill1 = alloca { ptr, i64 }, align 8
  %args.dbg.spill = alloca { ptr, i64 }, align 8
  %pieces.dbg.spill = alloca { ptr, i64 }, align 8
  %_9 = alloca %"core::fmt::Arguments<'_>", align 8
  store ptr %pieces.0, ptr %pieces.dbg.spill, align 8
  %0 = getelementptr inbounds i8, ptr %pieces.dbg.spill, i64 8
  store i64 %pieces.1, ptr %0, align 8
  call void @llvm.dbg.declare(metadata ptr %pieces.dbg.spill, metadata !1309, metadata !DIExpression()), !dbg !1311
  store ptr %args.0, ptr %args.dbg.spill, align 8
  %1 = getelementptr inbounds i8, ptr %args.dbg.spill, i64 8
  store i64 %args.1, ptr %1, align 8
  call void @llvm.dbg.declare(metadata ptr %args.dbg.spill, metadata !1310, metadata !DIExpression()), !dbg !1312
  %_3 = icmp ult i64 %pieces.1, %args.1, !dbg !1313
  br i1 %_3, label %bb3, label %bb1, !dbg !1313

bb1:                                              ; preds = %start
  %_7 = add i64 %args.1, 1, !dbg !1314
  %_6 = icmp ugt i64 %pieces.1, %_7, !dbg !1315
  br i1 %_6, label %bb2, label %bb4, !dbg !1315

bb3:                                              ; preds = %bb2, %start
  store ptr @alloc_af99043bc04c419363a7f04d23183506, ptr %pieces.dbg.spill1, align 8, !dbg !1316
  %2 = getelementptr inbounds i8, ptr %pieces.dbg.spill1, i64 8, !dbg !1316
  store i64 1, ptr %2, align 8, !dbg !1316
  call void @llvm.dbg.declare(metadata ptr %pieces.dbg.spill1, metadata !1317, metadata !DIExpression()), !dbg !1321
  store ptr @alloc_af99043bc04c419363a7f04d23183506, ptr %_9, align 8, !dbg !1324
  %3 = getelementptr inbounds i8, ptr %_9, i64 8, !dbg !1324
  store i64 1, ptr %3, align 8, !dbg !1324
  %4 = load ptr, ptr @0, align 8, !dbg !1324, !align !527, !noundef !16
  %5 = load i64, ptr getelementptr inbounds (i8, ptr @0, i64 8), align 8, !dbg !1324
  %6 = getelementptr inbounds i8, ptr %_9, i64 32, !dbg !1324
  store ptr %4, ptr %6, align 8, !dbg !1324
  %7 = getelementptr inbounds i8, ptr %6, i64 8, !dbg !1324
  store i64 %5, ptr %7, align 8, !dbg !1324
  %8 = getelementptr inbounds i8, ptr %_9, i64 16, !dbg !1324
  store ptr @alloc_513570631223a12912d85da2bec3b15a, ptr %8, align 8, !dbg !1324
  %9 = getelementptr inbounds i8, ptr %8, i64 8, !dbg !1324
  store i64 0, ptr %9, align 8, !dbg !1324
; call core::panicking::panic_fmt
  call void @_ZN4core9panicking9panic_fmt17ha6d62ade15192290E(ptr align 8 %_9, ptr align 8 @alloc_4ba2c5ddff77a51f3765b0dd5f2851cc) #22, !dbg !1325
  unreachable, !dbg !1325

bb4:                                              ; preds = %bb1
  store ptr %pieces.0, ptr %_0, align 8, !dbg !1326
  %10 = getelementptr inbounds i8, ptr %_0, i64 8, !dbg !1326
  store i64 %pieces.1, ptr %10, align 8, !dbg !1326
  %11 = load ptr, ptr @0, align 8, !dbg !1326, !align !527, !noundef !16
  %12 = load i64, ptr getelementptr inbounds (i8, ptr @0, i64 8), align 8, !dbg !1326
  %13 = getelementptr inbounds i8, ptr %_0, i64 32, !dbg !1326
  store ptr %11, ptr %13, align 8, !dbg !1326
  %14 = getelementptr inbounds i8, ptr %13, i64 8, !dbg !1326
  store i64 %12, ptr %14, align 8, !dbg !1326
  %15 = getelementptr inbounds i8, ptr %_0, i64 16, !dbg !1326
  store ptr %args.0, ptr %15, align 8, !dbg !1326
  %16 = getelementptr inbounds i8, ptr %15, i64 8, !dbg !1326
  store i64 %args.1, ptr %16, align 8, !dbg !1326
  ret void, !dbg !1327

bb2:                                              ; preds = %bb1
  br label %bb3, !dbg !1328
}

; core::fmt::Arguments::new_const
; Function Attrs: inlinehint uwtable
define internal void @_ZN4core3fmt9Arguments9new_const17hd85e94d977d0da7cE(ptr sret(%"core::fmt::Arguments<'_>") align 8 %_0, ptr align 8 %pieces.0, i64 %pieces.1) unnamed_addr #1 !dbg !1329 {
start:
  %pieces.dbg.spill = alloca { ptr, i64 }, align 8
  %_5 = alloca %"core::fmt::Arguments<'_>", align 8
  store ptr %pieces.0, ptr %pieces.dbg.spill, align 8
  %0 = getelementptr inbounds i8, ptr %pieces.dbg.spill, i64 8
  store i64 %pieces.1, ptr %0, align 8
  call void @llvm.dbg.declare(metadata ptr %pieces.dbg.spill, metadata !1331, metadata !DIExpression()), !dbg !1332
  %_2 = icmp ugt i64 %pieces.1, 1, !dbg !1333
  br i1 %_2, label %bb1, label %bb3, !dbg !1333

bb3:                                              ; preds = %start
  store ptr %pieces.0, ptr %_0, align 8, !dbg !1334
  %1 = getelementptr inbounds i8, ptr %_0, i64 8, !dbg !1334
  store i64 %pieces.1, ptr %1, align 8, !dbg !1334
  %2 = load ptr, ptr @0, align 8, !dbg !1334, !align !527, !noundef !16
  %3 = load i64, ptr getelementptr inbounds (i8, ptr @0, i64 8), align 8, !dbg !1334
  %4 = getelementptr inbounds i8, ptr %_0, i64 32, !dbg !1334
  store ptr %2, ptr %4, align 8, !dbg !1334
  %5 = getelementptr inbounds i8, ptr %4, i64 8, !dbg !1334
  store i64 %3, ptr %5, align 8, !dbg !1334
  %6 = getelementptr inbounds i8, ptr %_0, i64 16, !dbg !1334
  store ptr @alloc_513570631223a12912d85da2bec3b15a, ptr %6, align 8, !dbg !1334
  %7 = getelementptr inbounds i8, ptr %6, i64 8, !dbg !1334
  store i64 0, ptr %7, align 8, !dbg !1334
  ret void, !dbg !1335

bb1:                                              ; preds = %start
; call core::fmt::Arguments::new_const
  call void @_ZN4core3fmt9Arguments9new_const17hd85e94d977d0da7cE(ptr sret(%"core::fmt::Arguments<'_>") align 8 %_5, ptr align 8 @alloc_af99043bc04c419363a7f04d23183506, i64 1), !dbg !1336
; call core::panicking::panic_fmt
  call void @_ZN4core9panicking9panic_fmt17ha6d62ade15192290E(ptr align 8 %_5, ptr align 8 @alloc_3d28b95801fd55932918b2920be93f48) #22, !dbg !1336
  unreachable, !dbg !1336
}

; core::fmt::Formatter::write_fmt
; Function Attrs: inlinehint uwtable
define internal zeroext i1 @_ZN4core3fmt9Formatter9write_fmt17h5e9efd1985b9439dE(ptr align 8 %self, ptr align 8 %fmt) unnamed_addr #1 !dbg !1337 {
start:
  %s.dbg.spill = alloca { ptr, i64 }, align 8
  %self.dbg.spill = alloca ptr, align 8
  %_7 = alloca %"core::fmt::Arguments<'_>", align 8
  %_3 = alloca %"core::option::Option<&str>", align 8
  %_0 = alloca i8, align 1
  store ptr %self, ptr %self.dbg.spill, align 8
  call void @llvm.dbg.declare(metadata ptr %self.dbg.spill, metadata !1342, metadata !DIExpression()), !dbg !1346
  call void @llvm.dbg.declare(metadata ptr %fmt, metadata !1343, metadata !DIExpression()), !dbg !1347
; call core::fmt::Arguments::as_const_str
  %0 = call { ptr, i64 } @_ZN4core3fmt9Arguments12as_const_str17h07045bd635a18f20E(ptr align 8 %fmt), !dbg !1348
  %1 = extractvalue { ptr, i64 } %0, 0, !dbg !1348
  %2 = extractvalue { ptr, i64 } %0, 1, !dbg !1348
  store ptr %1, ptr %_3, align 8, !dbg !1348
  %3 = getelementptr inbounds i8, ptr %_3, i64 8, !dbg !1348
  store i64 %2, ptr %3, align 8, !dbg !1348
  %4 = load ptr, ptr %_3, align 8, !dbg !1349, !noundef !16
  %5 = ptrtoint ptr %4 to i64, !dbg !1349
  %6 = icmp eq i64 %5, 0, !dbg !1349
  %_5 = select i1 %6, i64 0, i64 1, !dbg !1349
  %7 = icmp eq i64 %_5, 1, !dbg !1349
  br i1 %7, label %bb2, label %bb3, !dbg !1349

bb2:                                              ; preds = %start
  %s.0 = load ptr, ptr %_3, align 8, !dbg !1350, !nonnull !16, !align !1140, !noundef !16
  %8 = getelementptr inbounds i8, ptr %_3, i64 8, !dbg !1350
  %s.1 = load i64, ptr %8, align 8, !dbg !1350, !noundef !16
  store ptr %s.0, ptr %s.dbg.spill, align 8, !dbg !1350
  %9 = getelementptr inbounds i8, ptr %s.dbg.spill, i64 8, !dbg !1350
  store i64 %s.1, ptr %9, align 8, !dbg !1350
  call void @llvm.dbg.declare(metadata ptr %s.dbg.spill, metadata !1344, metadata !DIExpression()), !dbg !1350
  %10 = getelementptr inbounds i8, ptr %self, i64 32, !dbg !1351
  %_8.0 = load ptr, ptr %10, align 8, !dbg !1351, !nonnull !16, !align !1140, !noundef !16
  %11 = getelementptr inbounds i8, ptr %10, i64 8, !dbg !1351
  %_8.1 = load ptr, ptr %11, align 8, !dbg !1351, !nonnull !16, !align !527, !noundef !16
  %12 = getelementptr inbounds ptr, ptr %_8.1, i64 3, !dbg !1351
  %13 = load ptr, ptr %12, align 8, !dbg !1351, !invariant.load !16, !nonnull !16
  %14 = call zeroext i1 %13(ptr align 1 %_8.0, ptr align 1 %s.0, i64 %s.1), !dbg !1351
  %15 = zext i1 %14 to i8, !dbg !1351
  store i8 %15, ptr %_0, align 1, !dbg !1351
  br label %bb5, !dbg !1351

bb3:                                              ; preds = %start
  %16 = getelementptr inbounds i8, ptr %self, i64 32, !dbg !1352
  %_9.0 = load ptr, ptr %16, align 8, !dbg !1352, !nonnull !16, !align !1140, !noundef !16
  %17 = getelementptr inbounds i8, ptr %16, i64 8, !dbg !1352
  %_9.1 = load ptr, ptr %17, align 8, !dbg !1352, !nonnull !16, !align !527, !noundef !16
  call void @llvm.memcpy.p0.p0.i64(ptr align 8 %_7, ptr align 8 %fmt, i64 48, i1 false), !dbg !1353
; call core::fmt::write
  %18 = call zeroext i1 @_ZN4core3fmt5write17hd3417f5223b3b5daE(ptr align 1 %_9.0, ptr align 8 %_9.1, ptr align 8 %_7), !dbg !1354
  %19 = zext i1 %18 to i8, !dbg !1354
  store i8 %19, ptr %_0, align 1, !dbg !1354
  br label %bb5, !dbg !1355

bb5:                                              ; preds = %bb3, %bb2
  %20 = load i8, ptr %_0, align 1, !dbg !1356, !range !462, !noundef !16
  %21 = trunc i8 %20 to i1, !dbg !1356
  ret i1 %21, !dbg !1356

bb6:                                              ; No predecessors!
  unreachable, !dbg !1357
}

; core::mem::drop
; Function Attrs: inlinehint uwtable
define void @_ZN4core3mem4drop17h02fffb4e8d962e1eE(ptr align 8 %0) unnamed_addr #1 !dbg !1358 {
start:
  %_x = alloca ptr, align 8
  store ptr %0, ptr %_x, align 8
  call void @llvm.dbg.declare(metadata ptr %_x, metadata !1374, metadata !DIExpression()), !dbg !1377
; call core::ptr::drop_in_place<alloc::boxed::Box<bytes::bytes::Shared>>
  call void @"_ZN4core3ptr66drop_in_place$LT$alloc..boxed..Box$LT$bytes..bytes..Shared$GT$$GT$17ha056805ec2ca3c37E"(ptr align 8 %_x), !dbg !1378
  ret void, !dbg !1379
}

; core::mem::drop
; Function Attrs: inlinehint uwtable
define void @_ZN4core3mem4drop17h46fa0c9a4b4a1b9eE(ptr align 8 %0) unnamed_addr #1 !dbg !1380 {
start:
  %_x = alloca ptr, align 8
  store ptr %0, ptr %_x, align 8
  call void @llvm.dbg.declare(metadata ptr %_x, metadata !1391, metadata !DIExpression()), !dbg !1394
; call core::ptr::drop_in_place<alloc::boxed::Box<core::mem::manually_drop::ManuallyDrop<bytes::bytes::Shared>>>
  call void @"_ZN4core3ptr112drop_in_place$LT$alloc..boxed..Box$LT$core..mem..manually_drop..ManuallyDrop$LT$bytes..bytes..Shared$GT$$GT$$GT$17hfc396dac9c6ec5dbE"(ptr align 8 %_x), !dbg !1395
  ret void, !dbg !1396
}

; core::mem::drop
; Function Attrs: inlinehint uwtable
define void @_ZN4core3mem4drop17hff5a56c92ae7f60fE(ptr align 8 %0) unnamed_addr #1 !dbg !1397 {
start:
  %_x = alloca ptr, align 8
  store ptr %0, ptr %_x, align 8
  call void @llvm.dbg.declare(metadata ptr %_x, metadata !1407, metadata !DIExpression()), !dbg !1410
; call core::ptr::drop_in_place<alloc::boxed::Box<bytes::bytes_mut::Shared>>
  call void @"_ZN4core3ptr70drop_in_place$LT$alloc..boxed..Box$LT$bytes..bytes_mut..Shared$GT$$GT$17h5161dc5411b0f11bE"(ptr align 8 %_x), !dbg !1411
  ret void, !dbg !1412
}

; core::mem::forget
; Function Attrs: inlinehint uwtable
define void @_ZN4core3mem6forget17hdb78c05bc4f3c2e5E(ptr align 8 %t) unnamed_addr #1 !dbg !1413 {
start:
  call void @llvm.dbg.declare(metadata ptr %t, metadata !1417, metadata !DIExpression()), !dbg !1420
  call void @llvm.dbg.declare(metadata ptr %t, metadata !1421, metadata !DIExpression()), !dbg !1432
  ret void, !dbg !1434
}

; core::mem::forget
; Function Attrs: inlinehint uwtable
define void @_ZN4core3mem6forget17hde6f5c711c90a8b8E(ptr align 8 %t) unnamed_addr #1 !dbg !1435 {
start:
  call void @llvm.dbg.declare(metadata ptr %t, metadata !1439, metadata !DIExpression()), !dbg !1440
  call void @llvm.dbg.declare(metadata ptr %t, metadata !1441, metadata !DIExpression()), !dbg !1448
  ret void, !dbg !1450
}

; core::mem::replace
; Function Attrs: inlinehint uwtable
define void @_ZN4core3mem7replace17hf59d1fe7f27e4239E(ptr sret(%"bytes::Bytes") align 8 %result, ptr align 8 %dest, ptr align 8 %src) unnamed_addr #1 !dbg !1451 {
start:
  %dest.dbg.spill = alloca ptr, align 8, !dbg !1462
  call void @llvm.dbg.declare(metadata ptr %result, metadata !1458, metadata !DIExpression()), !dbg !1462
  store ptr %dest, ptr %dest.dbg.spill, align 8
  call void @llvm.dbg.declare(metadata ptr %dest.dbg.spill, metadata !1456, metadata !DIExpression()), !dbg !1463
  call void @llvm.dbg.declare(metadata ptr %dest.dbg.spill, metadata !1464, metadata !DIExpression()), !dbg !1471
  call void @llvm.dbg.declare(metadata ptr %dest.dbg.spill, metadata !1473, metadata !DIExpression()), !dbg !1481
  call void @llvm.dbg.declare(metadata ptr %src, metadata !1457, metadata !DIExpression()), !dbg !1483
  call void @llvm.dbg.declare(metadata ptr %src, metadata !1480, metadata !DIExpression()), !dbg !1484
  call void @llvm.memcpy.p0.p0.i64(ptr align 8 %result, ptr align 8 %dest, i64 32, i1 false), !dbg !1485
  call void @llvm.memcpy.p0.p0.i64(ptr align 8 %dest, ptr align 8 %src, i64 32, i1 false), !dbg !1486
  ret void, !dbg !1487
}

; core::mem::replace
; Function Attrs: inlinehint uwtable
define void @_ZN4core3mem7replace17hf7e2c563f3f998d7E(ptr sret(%"alloc::vec::Vec<u8>") align 8 %result, ptr align 8 %dest, ptr align 8 %src) unnamed_addr #1 !dbg !1488 {
start:
  %dest.dbg.spill = alloca ptr, align 8, !dbg !1496
  call void @llvm.dbg.declare(metadata ptr %result, metadata !1494, metadata !DIExpression()), !dbg !1496
  store ptr %dest, ptr %dest.dbg.spill, align 8
  call void @llvm.dbg.declare(metadata ptr %dest.dbg.spill, metadata !1492, metadata !DIExpression()), !dbg !1497
  call void @llvm.dbg.declare(metadata ptr %dest.dbg.spill, metadata !1498, metadata !DIExpression()), !dbg !1505
  call void @llvm.dbg.declare(metadata ptr %dest.dbg.spill, metadata !1507, metadata !DIExpression()), !dbg !1515
  call void @llvm.dbg.declare(metadata ptr %src, metadata !1493, metadata !DIExpression()), !dbg !1517
  call void @llvm.dbg.declare(metadata ptr %src, metadata !1514, metadata !DIExpression()), !dbg !1518
  call void @llvm.memcpy.p0.p0.i64(ptr align 8 %result, ptr align 8 %dest, i64 24, i1 false), !dbg !1519
  call void @llvm.memcpy.p0.p0.i64(ptr align 8 %dest, ptr align 8 %src, i64 24, i1 false), !dbg !1520
  ret void, !dbg !1521
}

; core::num::<impl usize>::checked_add
; Function Attrs: inlinehint uwtable
define internal { i64, i64 } @"_ZN4core3num23_$LT$impl$u20$usize$GT$11checked_add17hc4c16b70eefc587dE"(i64 %self, i64 %rhs) unnamed_addr #1 !dbg !1522 {
start:
  %0 = alloca i8, align 1
  %a.dbg.spill1 = alloca i64, align 8
  %b.dbg.spill = alloca i8, align 1
  %a.dbg.spill = alloca i64, align 8
  %rhs.dbg.spill = alloca i64, align 8
  %self.dbg.spill = alloca i64, align 8
  %_0 = alloca %"core::option::Option<usize>", align 8
  store i64 %self, ptr %self.dbg.spill, align 8
  call void @llvm.dbg.declare(metadata ptr %self.dbg.spill, metadata !1524, metadata !DIExpression()), !dbg !1529
  call void @llvm.dbg.declare(metadata ptr %self.dbg.spill, metadata !1530, metadata !DIExpression()), !dbg !1538
  store i64 %rhs, ptr %rhs.dbg.spill, align 8
  call void @llvm.dbg.declare(metadata ptr %rhs.dbg.spill, metadata !1525, metadata !DIExpression()), !dbg !1540
  call void @llvm.dbg.declare(metadata ptr %rhs.dbg.spill, metadata !1534, metadata !DIExpression()), !dbg !1541
  %1 = call { i64, i1 } @llvm.uadd.with.overflow.i64(i64 %self, i64 %rhs), !dbg !1542
  %_6.0 = extractvalue { i64, i1 } %1, 0, !dbg !1542
  %_6.1 = extractvalue { i64, i1 } %1, 1, !dbg !1542
  store i64 %_6.0, ptr %a.dbg.spill, align 8, !dbg !1543
  call void @llvm.dbg.declare(metadata ptr %a.dbg.spill, metadata !1535, metadata !DIExpression()), !dbg !1544
  %2 = zext i1 %_6.1 to i8, !dbg !1545
  store i8 %2, ptr %b.dbg.spill, align 1, !dbg !1545
  call void @llvm.dbg.declare(metadata ptr %b.dbg.spill, metadata !1528, metadata !DIExpression()), !dbg !1546
  call void @llvm.dbg.declare(metadata ptr %b.dbg.spill, metadata !1537, metadata !DIExpression()), !dbg !1547
  store i64 %_6.0, ptr %a.dbg.spill1, align 8, !dbg !1548
  call void @llvm.dbg.declare(metadata ptr %a.dbg.spill1, metadata !1526, metadata !DIExpression()), !dbg !1549
  %3 = call i1 @llvm.expect.i1(i1 %_6.1, i1 false), !dbg !1550
  %4 = zext i1 %3 to i8, !dbg !1550
  store i8 %4, ptr %0, align 1, !dbg !1550
  %5 = load i8, ptr %0, align 1, !dbg !1550, !range !462, !noundef !16
  %_3 = trunc i8 %5 to i1, !dbg !1550
  br i1 %_3, label %bb2, label %bb3, !dbg !1550

bb3:                                              ; preds = %start
  %6 = getelementptr inbounds i8, ptr %_0, i64 8, !dbg !1551
  store i64 %_6.0, ptr %6, align 8, !dbg !1551
  store i64 1, ptr %_0, align 8, !dbg !1551
  br label %bb4, !dbg !1552

bb2:                                              ; preds = %start
  %7 = load i64, ptr @0, align 8, !dbg !1553, !range !1554, !noundef !16
  %8 = load i64, ptr getelementptr inbounds (i8, ptr @0, i64 8), align 8, !dbg !1553
  store i64 %7, ptr %_0, align 8, !dbg !1553
  %9 = getelementptr inbounds i8, ptr %_0, i64 8, !dbg !1553
  store i64 %8, ptr %9, align 8, !dbg !1553
  br label %bb4, !dbg !1552

bb4:                                              ; preds = %bb2, %bb3
  %10 = load i64, ptr %_0, align 8, !dbg !1555, !range !1554, !noundef !16
  %11 = getelementptr inbounds i8, ptr %_0, i64 8, !dbg !1555
  %12 = load i64, ptr %11, align 8, !dbg !1555
  %13 = insertvalue { i64, i64 } poison, i64 %10, 0, !dbg !1555
  %14 = insertvalue { i64, i64 } %13, i64 %12, 1, !dbg !1555
  ret { i64, i64 } %14, !dbg !1555
}

; core::num::<impl usize>::checked_shl
; Function Attrs: inlinehint uwtable
define internal { i64, i64 } @"_ZN4core3num23_$LT$impl$u20$usize$GT$11checked_shl17hb10903fb050da54cE"(i64 %self, i32 %rhs) unnamed_addr #1 !dbg !1556 {
start:
  %0 = alloca i8, align 1
  %b.dbg.spill = alloca i8, align 1
  %a.dbg.spill = alloca i64, align 8
  %rhs.dbg.spill2 = alloca i32, align 4
  %rhs.dbg.spill = alloca i32, align 4
  %self.dbg.spill = alloca i64, align 8
  %_0 = alloca %"core::option::Option<usize>", align 8
  store i64 %self, ptr %self.dbg.spill, align 8
  call void @llvm.dbg.declare(metadata ptr %self.dbg.spill, metadata !1560, metadata !DIExpression()), !dbg !1565
  call void @llvm.dbg.declare(metadata ptr %self.dbg.spill, metadata !1566, metadata !DIExpression()), !dbg !1573
  call void @llvm.dbg.declare(metadata ptr %self.dbg.spill, metadata !1575, metadata !DIExpression()), !dbg !1582
  call void @llvm.dbg.declare(metadata ptr %self.dbg.spill, metadata !1584, metadata !DIExpression()), !dbg !1589
  store i32 %rhs, ptr %rhs.dbg.spill, align 4
  call void @llvm.dbg.declare(metadata ptr %rhs.dbg.spill, metadata !1561, metadata !DIExpression()), !dbg !1591
  call void @llvm.dbg.declare(metadata ptr %rhs.dbg.spill, metadata !1572, metadata !DIExpression()), !dbg !1592
  call void @llvm.dbg.declare(metadata ptr %rhs.dbg.spill, metadata !1581, metadata !DIExpression()), !dbg !1593
  %rhs1 = and i32 %rhs, 63, !dbg !1594
  store i32 %rhs1, ptr %rhs.dbg.spill2, align 4, !dbg !1594
  call void @llvm.dbg.declare(metadata ptr %rhs.dbg.spill2, metadata !1588, metadata !DIExpression()), !dbg !1595
  %_7 = zext i32 %rhs1 to i64, !dbg !1596
  %a = shl i64 %self, %_7, !dbg !1597
  store i64 %a, ptr %a.dbg.spill, align 8, !dbg !1597
  call void @llvm.dbg.declare(metadata ptr %a.dbg.spill, metadata !1562, metadata !DIExpression()), !dbg !1598
  %b = icmp uge i32 %rhs, 64, !dbg !1599
  %1 = zext i1 %b to i8, !dbg !1599
  store i8 %1, ptr %b.dbg.spill, align 1, !dbg !1599
  call void @llvm.dbg.declare(metadata ptr %b.dbg.spill, metadata !1564, metadata !DIExpression()), !dbg !1600
  %2 = call i1 @llvm.expect.i1(i1 %b, i1 false), !dbg !1601
  %3 = zext i1 %2 to i8, !dbg !1601
  store i8 %3, ptr %0, align 1, !dbg !1601
  %4 = load i8, ptr %0, align 1, !dbg !1601, !range !462, !noundef !16
  %_3 = trunc i8 %4 to i1, !dbg !1601
  br i1 %_3, label %bb2, label %bb3, !dbg !1601

bb3:                                              ; preds = %start
  %5 = getelementptr inbounds i8, ptr %_0, i64 8, !dbg !1602
  store i64 %a, ptr %5, align 8, !dbg !1602
  store i64 1, ptr %_0, align 8, !dbg !1602
  br label %bb4, !dbg !1603

bb2:                                              ; preds = %start
  %6 = load i64, ptr @0, align 8, !dbg !1604, !range !1554, !noundef !16
  %7 = load i64, ptr getelementptr inbounds (i8, ptr @0, i64 8), align 8, !dbg !1604
  store i64 %6, ptr %_0, align 8, !dbg !1604
  %8 = getelementptr inbounds i8, ptr %_0, i64 8, !dbg !1604
  store i64 %7, ptr %8, align 8, !dbg !1604
  br label %bb4, !dbg !1603

bb4:                                              ; preds = %bb2, %bb3
  %9 = load i64, ptr %_0, align 8, !dbg !1605, !range !1554, !noundef !16
  %10 = getelementptr inbounds i8, ptr %_0, i64 8, !dbg !1605
  %11 = load i64, ptr %10, align 8, !dbg !1605
  %12 = insertvalue { i64, i64 } poison, i64 %9, 0, !dbg !1605
  %13 = insertvalue { i64, i64 } %12, i64 %11, 1, !dbg !1605
  ret { i64, i64 } %13, !dbg !1605
}

; core::num::<impl usize>::checked_sub
; Function Attrs: inlinehint uwtable
define internal { i64, i64 } @"_ZN4core3num23_$LT$impl$u20$usize$GT$11checked_sub17h861c4811c86b2680E"(i64 %self, i64 %rhs) unnamed_addr #1 !dbg !1606 {
start:
  %0 = alloca i8, align 1
  %a.dbg.spill1 = alloca i64, align 8
  %b.dbg.spill = alloca i8, align 1
  %a.dbg.spill = alloca i64, align 8
  %rhs.dbg.spill = alloca i64, align 8
  %self.dbg.spill = alloca i64, align 8
  %_0 = alloca %"core::option::Option<usize>", align 8
  store i64 %self, ptr %self.dbg.spill, align 8
  call void @llvm.dbg.declare(metadata ptr %self.dbg.spill, metadata !1608, metadata !DIExpression()), !dbg !1613
  call void @llvm.dbg.declare(metadata ptr %self.dbg.spill, metadata !1614, metadata !DIExpression()), !dbg !1622
  store i64 %rhs, ptr %rhs.dbg.spill, align 8
  call void @llvm.dbg.declare(metadata ptr %rhs.dbg.spill, metadata !1609, metadata !DIExpression()), !dbg !1624
  call void @llvm.dbg.declare(metadata ptr %rhs.dbg.spill, metadata !1618, metadata !DIExpression()), !dbg !1625
  %_6.0 = sub i64 %self, %rhs, !dbg !1626
  %_6.1 = icmp ult i64 %self, %rhs, !dbg !1626
  store i64 %_6.0, ptr %a.dbg.spill, align 8, !dbg !1627
  call void @llvm.dbg.declare(metadata ptr %a.dbg.spill, metadata !1619, metadata !DIExpression()), !dbg !1628
  %1 = zext i1 %_6.1 to i8, !dbg !1629
  store i8 %1, ptr %b.dbg.spill, align 1, !dbg !1629
  call void @llvm.dbg.declare(metadata ptr %b.dbg.spill, metadata !1612, metadata !DIExpression()), !dbg !1630
  call void @llvm.dbg.declare(metadata ptr %b.dbg.spill, metadata !1621, metadata !DIExpression()), !dbg !1631
  store i64 %_6.0, ptr %a.dbg.spill1, align 8, !dbg !1632
  call void @llvm.dbg.declare(metadata ptr %a.dbg.spill1, metadata !1610, metadata !DIExpression()), !dbg !1633
  %2 = call i1 @llvm.expect.i1(i1 %_6.1, i1 false), !dbg !1634
  %3 = zext i1 %2 to i8, !dbg !1634
  store i8 %3, ptr %0, align 1, !dbg !1634
  %4 = load i8, ptr %0, align 1, !dbg !1634, !range !462, !noundef !16
  %_3 = trunc i8 %4 to i1, !dbg !1634
  br i1 %_3, label %bb2, label %bb3, !dbg !1634

bb3:                                              ; preds = %start
  %5 = getelementptr inbounds i8, ptr %_0, i64 8, !dbg !1635
  store i64 %_6.0, ptr %5, align 8, !dbg !1635
  store i64 1, ptr %_0, align 8, !dbg !1635
  br label %bb4, !dbg !1636

bb2:                                              ; preds = %start
  %6 = load i64, ptr @0, align 8, !dbg !1637, !range !1554, !noundef !16
  %7 = load i64, ptr getelementptr inbounds (i8, ptr @0, i64 8), align 8, !dbg !1637
  store i64 %6, ptr %_0, align 8, !dbg !1637
  %8 = getelementptr inbounds i8, ptr %_0, i64 8, !dbg !1637
  store i64 %7, ptr %8, align 8, !dbg !1637
  br label %bb4, !dbg !1636

bb4:                                              ; preds = %bb2, %bb3
  %9 = load i64, ptr %_0, align 8, !dbg !1638, !range !1554, !noundef !16
  %10 = getelementptr inbounds i8, ptr %_0, i64 8, !dbg !1638
  %11 = load i64, ptr %10, align 8, !dbg !1638
  %12 = insertvalue { i64, i64 } poison, i64 %9, 0, !dbg !1638
  %13 = insertvalue { i64, i64 } %12, i64 %11, 1, !dbg !1638
  ret { i64, i64 } %13, !dbg !1638
}

; core::ops::range::RangeBounds::contains
; Function Attrs: inlinehint uwtable
define zeroext i1 @_ZN4core3ops5range11RangeBounds8contains17h2136883d4986c790E(ptr align 1 %self, ptr align 1 %0) unnamed_addr #1 !dbg !1639 {
start:
  %other.dbg.spill.i22 = alloca ptr, align 8
  %self.dbg.spill.i23 = alloca ptr, align 8
  %other.dbg.spill.i17 = alloca ptr, align 8
  %self.dbg.spill.i18 = alloca ptr, align 8
  %other.dbg.spill.i12 = alloca ptr, align 8
  %self.dbg.spill.i13 = alloca ptr, align 8
  %other.dbg.spill.i = alloca ptr, align 8
  %self.dbg.spill.i = alloca ptr, align 8
  %other.dbg.spill11 = alloca ptr, align 8
  %self.dbg.spill10 = alloca ptr, align 8
  %end.dbg.spill9 = alloca ptr, align 8
  %other.dbg.spill7 = alloca ptr, align 8
  %self.dbg.spill6 = alloca ptr, align 8
  %end.dbg.spill = alloca ptr, align 8
  %other.dbg.spill5 = alloca ptr, align 8
  %self.dbg.spill4 = alloca ptr, align 8
  %other.dbg.spill = alloca ptr, align 8
  %self.dbg.spill3 = alloca ptr, align 8
  %self.dbg.spill = alloca ptr, align 8
  %_23 = alloca ptr, align 8
  %_19 = alloca ptr, align 8
  %_14 = alloca %"core::ops::range::Bound<&u8>", align 8
  %_13 = alloca ptr, align 8
  %start2 = alloca ptr, align 8
  %_9 = alloca ptr, align 8
  %start1 = alloca ptr, align 8
  %_4 = alloca %"core::ops::range::Bound<&u8>", align 8
  %_3 = alloca i8, align 1
  %_0 = alloca i8, align 1
  %item = alloca ptr, align 8
  store ptr %0, ptr %item, align 8
  store ptr %self, ptr %self.dbg.spill, align 8
  call void @llvm.dbg.declare(metadata ptr %self.dbg.spill, metadata !1654, metadata !DIExpression()), !dbg !1667
  call void @llvm.dbg.declare(metadata ptr %item, metadata !1655, metadata !DIExpression()), !dbg !1668
  call void @llvm.dbg.declare(metadata ptr %start1, metadata !1656, metadata !DIExpression()), !dbg !1669
  call void @llvm.dbg.declare(metadata ptr %start2, metadata !1658, metadata !DIExpression()), !dbg !1670
; call <core::ops::range::Range<T> as core::ops::range::RangeBounds<T>>::start_bound
  %1 = call { i64, ptr } @"_ZN91_$LT$core..ops..range..Range$LT$T$GT$$u20$as$u20$core..ops..range..RangeBounds$LT$T$GT$$GT$11start_bound17h2903794aa51579b7E"(ptr align 1 %self), !dbg !1671
  %2 = extractvalue { i64, ptr } %1, 0, !dbg !1671
  %3 = extractvalue { i64, ptr } %1, 1, !dbg !1671
  store i64 %2, ptr %_4, align 8, !dbg !1671
  %4 = getelementptr inbounds i8, ptr %_4, i64 8, !dbg !1671
  store ptr %3, ptr %4, align 8, !dbg !1671
  %_5 = load i64, ptr %_4, align 8, !dbg !1671, !range !1672, !noundef !16
  switch i64 %_5, label %bb2 [
    i64 0, label %bb4
    i64 1, label %bb5
    i64 2, label %bb3
  ], !dbg !1673

bb2:                                              ; preds = %bb7, %start
  unreachable, !dbg !1671

bb4:                                              ; preds = %start
  %5 = getelementptr inbounds i8, ptr %_4, i64 8, !dbg !1674
  %6 = load ptr, ptr %5, align 8, !dbg !1674, !nonnull !16, !align !1140, !noundef !16
  store ptr %6, ptr %start1, align 8, !dbg !1674
  store ptr %start1, ptr %self.dbg.spill3, align 8, !dbg !1675
  call void @llvm.dbg.declare(metadata ptr %self.dbg.spill3, metadata !1676, metadata !DIExpression()), !dbg !1688
  %7 = load ptr, ptr %item, align 8, !dbg !1689, !nonnull !16, !align !1140, !noundef !16
  store ptr %7, ptr %_9, align 8, !dbg !1689
  store ptr %_9, ptr %other.dbg.spill, align 8, !dbg !1689
  call void @llvm.dbg.declare(metadata ptr %other.dbg.spill, metadata !1684, metadata !DIExpression()), !dbg !1690
  %_24 = load ptr, ptr %start1, align 8, !dbg !1691, !nonnull !16, !align !1140, !noundef !16
  %_25 = load ptr, ptr %_9, align 8, !dbg !1692, !nonnull !16, !align !1140, !noundef !16
  store ptr %_24, ptr %self.dbg.spill.i13, align 8
  call void @llvm.dbg.declare(metadata ptr %self.dbg.spill.i13, metadata !1693, metadata !DIExpression()), !dbg !1700
  store ptr %_25, ptr %other.dbg.spill.i12, align 8
  call void @llvm.dbg.declare(metadata ptr %other.dbg.spill.i12, metadata !1699, metadata !DIExpression()), !dbg !1702
  %_3.i14 = load i8, ptr %_24, align 1, !dbg !1703, !noundef !16
  %_4.i15 = load i8, ptr %_25, align 1, !dbg !1704, !noundef !16
  %_0.i16 = icmp ule i8 %_3.i14, %_4.i15, !dbg !1703
  %8 = zext i1 %_0.i16 to i8, !dbg !1705
  store i8 %8, ptr %_3, align 1, !dbg !1705
  br label %bb6, !dbg !1706

bb5:                                              ; preds = %start
  %9 = getelementptr inbounds i8, ptr %_4, i64 8, !dbg !1707
  %10 = load ptr, ptr %9, align 8, !dbg !1707, !nonnull !16, !align !1140, !noundef !16
  store ptr %10, ptr %start2, align 8, !dbg !1707
  store ptr %start2, ptr %self.dbg.spill4, align 8, !dbg !1708
  call void @llvm.dbg.declare(metadata ptr %self.dbg.spill4, metadata !1709, metadata !DIExpression()), !dbg !1717
  %11 = load ptr, ptr %item, align 8, !dbg !1718, !nonnull !16, !align !1140, !noundef !16
  store ptr %11, ptr %_13, align 8, !dbg !1718
  store ptr %_13, ptr %other.dbg.spill5, align 8, !dbg !1718
  call void @llvm.dbg.declare(metadata ptr %other.dbg.spill5, metadata !1713, metadata !DIExpression()), !dbg !1719
  %_26 = load ptr, ptr %start2, align 8, !dbg !1720, !nonnull !16, !align !1140, !noundef !16
  %_27 = load ptr, ptr %_13, align 8, !dbg !1721, !nonnull !16, !align !1140, !noundef !16
  store ptr %_26, ptr %self.dbg.spill.i23, align 8
  call void @llvm.dbg.declare(metadata ptr %self.dbg.spill.i23, metadata !1722, metadata !DIExpression()), !dbg !1726
  store ptr %_27, ptr %other.dbg.spill.i22, align 8
  call void @llvm.dbg.declare(metadata ptr %other.dbg.spill.i22, metadata !1725, metadata !DIExpression()), !dbg !1728
  %_3.i24 = load i8, ptr %_26, align 1, !dbg !1729, !noundef !16
  %_4.i25 = load i8, ptr %_27, align 1, !dbg !1730, !noundef !16
  %_0.i26 = icmp ult i8 %_3.i24, %_4.i25, !dbg !1729
  %12 = zext i1 %_0.i26 to i8, !dbg !1731
  store i8 %12, ptr %_3, align 1, !dbg !1731
  br label %bb6, !dbg !1732

bb3:                                              ; preds = %start
  br label %bb7, !dbg !1733

bb6:                                              ; preds = %bb5, %bb4
  %13 = load i8, ptr %_3, align 1, !dbg !1673, !range !462, !noundef !16
  %14 = trunc i8 %13 to i1, !dbg !1673
  br i1 %14, label %bb7, label %bb8, !dbg !1673

bb8:                                              ; preds = %bb6
  store i8 0, ptr %_0, align 1, !dbg !1673
  br label %bb14, !dbg !1673

bb7:                                              ; preds = %bb3, %bb6
; call <core::ops::range::Range<T> as core::ops::range::RangeBounds<T>>::end_bound
  %15 = call { i64, ptr } @"_ZN91_$LT$core..ops..range..Range$LT$T$GT$$u20$as$u20$core..ops..range..RangeBounds$LT$T$GT$$GT$9end_bound17ha53fe927e02d7cd6E"(ptr align 1 %self), !dbg !1734
  %16 = extractvalue { i64, ptr } %15, 0, !dbg !1734
  %17 = extractvalue { i64, ptr } %15, 1, !dbg !1734
  store i64 %16, ptr %_14, align 8, !dbg !1734
  %18 = getelementptr inbounds i8, ptr %_14, i64 8, !dbg !1734
  store ptr %17, ptr %18, align 8, !dbg !1734
  %_15 = load i64, ptr %_14, align 8, !dbg !1734, !range !1672, !noundef !16
  switch i64 %_15, label %bb2 [
    i64 0, label %bb11
    i64 1, label %bb12
    i64 2, label %bb10
  ], !dbg !1735

bb14:                                             ; preds = %bb13, %bb8
  %19 = load i8, ptr %_0, align 1, !dbg !1736, !range !462, !noundef !16
  %20 = trunc i8 %19 to i1, !dbg !1736
  ret i1 %20, !dbg !1736

bb11:                                             ; preds = %bb7
  %21 = getelementptr inbounds i8, ptr %_14, i64 8, !dbg !1737
  %end = load ptr, ptr %21, align 8, !dbg !1737, !nonnull !16, !align !1140, !noundef !16
  store ptr %end, ptr %end.dbg.spill, align 8, !dbg !1737
  call void @llvm.dbg.declare(metadata ptr %end.dbg.spill, metadata !1660, metadata !DIExpression()), !dbg !1738
  store ptr %item, ptr %self.dbg.spill6, align 8, !dbg !1739
  call void @llvm.dbg.declare(metadata ptr %self.dbg.spill6, metadata !1685, metadata !DIExpression()), !dbg !1740
  store ptr %end, ptr %_19, align 8, !dbg !1741
  store ptr %_19, ptr %other.dbg.spill7, align 8, !dbg !1741
  call void @llvm.dbg.declare(metadata ptr %other.dbg.spill7, metadata !1687, metadata !DIExpression()), !dbg !1742
  %_28 = load ptr, ptr %item, align 8, !dbg !1743, !nonnull !16, !align !1140, !noundef !16
  %_29 = load ptr, ptr %_19, align 8, !dbg !1744, !nonnull !16, !align !1140, !noundef !16
  store ptr %_28, ptr %self.dbg.spill.i, align 8
  call void @llvm.dbg.declare(metadata ptr %self.dbg.spill.i, metadata !1693, metadata !DIExpression()), !dbg !1745
  store ptr %_29, ptr %other.dbg.spill.i, align 8
  call void @llvm.dbg.declare(metadata ptr %other.dbg.spill.i, metadata !1699, metadata !DIExpression()), !dbg !1747
  %_3.i = load i8, ptr %_28, align 1, !dbg !1748, !noundef !16
  %_4.i = load i8, ptr %_29, align 1, !dbg !1749, !noundef !16
  %_0.i = icmp ule i8 %_3.i, %_4.i, !dbg !1748
  %22 = zext i1 %_0.i to i8, !dbg !1750
  store i8 %22, ptr %_0, align 1, !dbg !1750
  br label %bb13, !dbg !1751

bb12:                                             ; preds = %bb7
  %23 = getelementptr inbounds i8, ptr %_14, i64 8, !dbg !1752
  %end8 = load ptr, ptr %23, align 8, !dbg !1752, !nonnull !16, !align !1140, !noundef !16
  store ptr %end8, ptr %end.dbg.spill9, align 8, !dbg !1752
  call void @llvm.dbg.declare(metadata ptr %end.dbg.spill9, metadata !1662, metadata !DIExpression()), !dbg !1753
  store ptr %item, ptr %self.dbg.spill10, align 8, !dbg !1754
  call void @llvm.dbg.declare(metadata ptr %self.dbg.spill10, metadata !1714, metadata !DIExpression()), !dbg !1755
  store ptr %end8, ptr %_23, align 8, !dbg !1756
  store ptr %_23, ptr %other.dbg.spill11, align 8, !dbg !1756
  call void @llvm.dbg.declare(metadata ptr %other.dbg.spill11, metadata !1716, metadata !DIExpression()), !dbg !1757
  %_30 = load ptr, ptr %item, align 8, !dbg !1758, !nonnull !16, !align !1140, !noundef !16
  %_31 = load ptr, ptr %_23, align 8, !dbg !1759, !nonnull !16, !align !1140, !noundef !16
  store ptr %_30, ptr %self.dbg.spill.i18, align 8
  call void @llvm.dbg.declare(metadata ptr %self.dbg.spill.i18, metadata !1722, metadata !DIExpression()), !dbg !1760
  store ptr %_31, ptr %other.dbg.spill.i17, align 8
  call void @llvm.dbg.declare(metadata ptr %other.dbg.spill.i17, metadata !1725, metadata !DIExpression()), !dbg !1762
  %_3.i19 = load i8, ptr %_30, align 1, !dbg !1763, !noundef !16
  %_4.i20 = load i8, ptr %_31, align 1, !dbg !1764, !noundef !16
  %_0.i21 = icmp ult i8 %_3.i19, %_4.i20, !dbg !1763
  %24 = zext i1 %_0.i21 to i8, !dbg !1765
  store i8 %24, ptr %_0, align 1, !dbg !1765
  br label %bb13, !dbg !1766

bb10:                                             ; preds = %bb7
  store i8 1, ptr %_0, align 1, !dbg !1767
  br label %bb13, !dbg !1767

bb13:                                             ; preds = %bb10, %bb12, %bb11
  br label %bb14, !dbg !1673
}

; core::ops::range::Range<Idx>::contains
; Function Attrs: inlinehint uwtable
define zeroext i1 @"_ZN4core3ops5range16Range$LT$Idx$GT$8contains17hd03b31bed2a8e079E"(ptr align 1 %self, ptr align 1 %item) unnamed_addr #1 !dbg !1768 {
start:
  %item.dbg.spill = alloca ptr, align 8
  %self.dbg.spill = alloca ptr, align 8
  store ptr %self, ptr %self.dbg.spill, align 8
  call void @llvm.dbg.declare(metadata ptr %self.dbg.spill, metadata !1772, metadata !DIExpression()), !dbg !1774
  store ptr %item, ptr %item.dbg.spill, align 8
  call void @llvm.dbg.declare(metadata ptr %item.dbg.spill, metadata !1773, metadata !DIExpression()), !dbg !1775
; call core::ops::range::RangeBounds::contains
  %_0 = call zeroext i1 @_ZN4core3ops5range11RangeBounds8contains17h2136883d4986c790E(ptr align 1 %self, ptr align 1 %item), !dbg !1776
  ret i1 %_0, !dbg !1777
}

; core::ops::function::FnOnce::call_once
; Function Attrs: inlinehint uwtable
define internal ptr @_ZN4core3ops8function6FnOnce9call_once17h247c2c8fd7a5f7f8E(ptr %0) unnamed_addr #1 personality ptr @rust_eh_personality !dbg !1778 {
start:
  %1 = alloca { ptr, i32, [1 x i32] }, align 8
  %_2 = alloca ptr, align 8
  %_1 = alloca %"{closure@src/bytes.rs:1002:39: 1002:47}", align 1
  store ptr %0, ptr %_2, align 8
  call void @llvm.dbg.declare(metadata ptr %_1, metadata !1787, metadata !DIExpression()), !dbg !1795
  call void @llvm.dbg.declare(metadata ptr %_2, metadata !1788, metadata !DIExpression()), !dbg !1795
  %2 = load ptr, ptr %_2, align 8, !dbg !1795, !noundef !16
; invoke bytes::bytes::promotable_even_to_vec::{{closure}}
  %_0 = invoke ptr @"_ZN5bytes5bytes22promotable_even_to_vec28_$u7b$$u7b$closure$u7d$$u7d$17hb9116a4da4593822E"(ptr align 1 %_1, ptr %2)
          to label %bb1 unwind label %cleanup, !dbg !1795

bb3:                                              ; preds = %cleanup
  %3 = load ptr, ptr %1, align 8, !dbg !1795, !noundef !16
  %4 = getelementptr inbounds i8, ptr %1, i64 8, !dbg !1795
  %5 = load i32, ptr %4, align 8, !dbg !1795, !noundef !16
  %6 = insertvalue { ptr, i32 } poison, ptr %3, 0, !dbg !1795
  %7 = insertvalue { ptr, i32 } %6, i32 %5, 1, !dbg !1795
  resume { ptr, i32 } %7, !dbg !1795

cleanup:                                          ; preds = %start
  %8 = landingpad { ptr, i32 }
          cleanup
  %9 = extractvalue { ptr, i32 } %8, 0
  %10 = extractvalue { ptr, i32 } %8, 1
  store ptr %9, ptr %1, align 8
  %11 = getelementptr inbounds i8, ptr %1, i64 8
  store i32 %10, ptr %11, align 8
  br label %bb3

bb1:                                              ; preds = %start
  ret ptr %_0, !dbg !1795
}

; core::ops::function::FnOnce::call_once
; Function Attrs: inlinehint uwtable
define internal i8 @_ZN4core3ops8function6FnOnce9call_once17hdbd4f98ef885e977E(ptr align 8 %0, ptr align 8 %1) unnamed_addr #1 !dbg !1796 {
start:
  %_1.dbg.spill = alloca {}, align 1
  %_2 = alloca { ptr, ptr }, align 8
  store ptr %0, ptr %_2, align 8
  %2 = getelementptr inbounds i8, ptr %_2, i64 8
  store ptr %1, ptr %2, align 8
  call void @llvm.dbg.declare(metadata ptr %_1.dbg.spill, metadata !1800, metadata !DIExpression()), !dbg !1809
  call void @llvm.dbg.declare(metadata ptr %_2, metadata !1801, metadata !DIExpression()), !dbg !1809
  %3 = load ptr, ptr %_2, align 8, !dbg !1809, !nonnull !16, !align !527, !noundef !16
  %4 = getelementptr inbounds i8, ptr %_2, i64 8, !dbg !1809
  %5 = load ptr, ptr %4, align 8, !dbg !1809, !nonnull !16, !align !527, !noundef !16
; call core::cmp::impls::<impl core::cmp::Ord for usize>::cmp
  %_0 = call i8 @"_ZN4core3cmp5impls50_$LT$impl$u20$core..cmp..Ord$u20$for$u20$usize$GT$3cmp17hc5545b0fc82a41c5E"(ptr align 8 %3, ptr align 8 %5), !dbg !1809, !range !730
  ret i8 %_0, !dbg !1809
}

; core::ops::function::FnOnce::call_once
; Function Attrs: inlinehint uwtable
define internal ptr @_ZN4core3ops8function6FnOnce9call_once17hf8ee7a86badd3306E(ptr %0) unnamed_addr #1 personality ptr @rust_eh_personality !dbg !1810 {
start:
  %1 = alloca { ptr, i32, [1 x i32] }, align 8
  %_2 = alloca ptr, align 8
  %_1 = alloca %"{closure@src/bytes.rs:1035:39: 1035:47}", align 1
  store ptr %0, ptr %_2, align 8
  call void @llvm.dbg.declare(metadata ptr %_1, metadata !1816, metadata !DIExpression()), !dbg !1820
  call void @llvm.dbg.declare(metadata ptr %_2, metadata !1817, metadata !DIExpression()), !dbg !1820
  %2 = load ptr, ptr %_2, align 8, !dbg !1820, !noundef !16
; invoke bytes::bytes::promotable_odd_to_vec::{{closure}}
  %_0 = invoke ptr @"_ZN5bytes5bytes21promotable_odd_to_vec28_$u7b$$u7b$closure$u7d$$u7d$17hd61ae2aed6c67282E"(ptr align 1 %_1, ptr %2)
          to label %bb1 unwind label %cleanup, !dbg !1820

bb3:                                              ; preds = %cleanup
  %3 = load ptr, ptr %1, align 8, !dbg !1820, !noundef !16
  %4 = getelementptr inbounds i8, ptr %1, i64 8, !dbg !1820
  %5 = load i32, ptr %4, align 8, !dbg !1820, !noundef !16
  %6 = insertvalue { ptr, i32 } poison, ptr %3, 0, !dbg !1820
  %7 = insertvalue { ptr, i32 } %6, i32 %5, 1, !dbg !1820
  resume { ptr, i32 } %7, !dbg !1820

cleanup:                                          ; preds = %start
  %8 = landingpad { ptr, i32 }
          cleanup
  %9 = extractvalue { ptr, i32 } %8, 0
  %10 = extractvalue { ptr, i32 } %8, 1
  store ptr %9, ptr %1, align 8
  %11 = getelementptr inbounds i8, ptr %1, i64 8
  store i32 %10, ptr %11, align 8
  br label %bb3

bb1:                                              ; preds = %start
  ret ptr %_0, !dbg !1820
}

; core::ptr::drop_in_place<alloc::boxed::Box<core::mem::manually_drop::ManuallyDrop<bytes::bytes::Shared>>>
; Function Attrs: uwtable
define void @"_ZN4core3ptr112drop_in_place$LT$alloc..boxed..Box$LT$core..mem..manually_drop..ManuallyDrop$LT$bytes..bytes..Shared$GT$$GT$$GT$17hfc396dac9c6ec5dbE"(ptr align 8 %_1) unnamed_addr #0 personality ptr @rust_eh_personality !dbg !1821 {
start:
  %0 = alloca { ptr, i32, [1 x i32] }, align 8
  %_1.dbg.spill = alloca ptr, align 8
  store ptr %_1, ptr %_1.dbg.spill, align 8
  call void @llvm.dbg.declare(metadata ptr %_1.dbg.spill, metadata !1826, metadata !DIExpression()), !dbg !1827
  %_6 = load ptr, ptr %_1, align 8, !dbg !1827, !noundef !16
  br label %bb3, !dbg !1827

bb3:                                              ; preds = %start
; call <alloc::boxed::Box<T,A> as core::ops::drop::Drop>::drop
  call void @"_ZN72_$LT$alloc..boxed..Box$LT$T$C$A$GT$$u20$as$u20$core..ops..drop..Drop$GT$4drop17ha2b2250d037c4730E"(ptr align 8 %_1), !dbg !1827
  ret void, !dbg !1827

bb4:                                              ; No predecessors!
; invoke <alloc::boxed::Box<T,A> as core::ops::drop::Drop>::drop
  invoke void @"_ZN72_$LT$alloc..boxed..Box$LT$T$C$A$GT$$u20$as$u20$core..ops..drop..Drop$GT$4drop17ha2b2250d037c4730E"(ptr align 8 %_1) #23
          to label %bb1 unwind label %terminate, !dbg !1827

terminate:                                        ; preds = %bb4
  %1 = landingpad { ptr, i32 }
          filter [0 x ptr] zeroinitializer
  %2 = extractvalue { ptr, i32 } %1, 0
  %3 = extractvalue { ptr, i32 } %1, 1
; call core::panicking::panic_in_cleanup
  call void @_ZN4core9panicking16panic_in_cleanup17hb45215b029b98411E() #20, !dbg !1827
  unreachable, !dbg !1827

bb1:                                              ; preds = %bb4
  %4 = load ptr, ptr %0, align 8, !dbg !1827, !noundef !16
  %5 = getelementptr inbounds i8, ptr %0, i64 8, !dbg !1827
  %6 = load i32, ptr %5, align 8, !dbg !1827, !noundef !16
  %7 = insertvalue { ptr, i32 } poison, ptr %4, 0, !dbg !1827
  %8 = insertvalue { ptr, i32 } %7, i32 %6, 1, !dbg !1827
  resume { ptr, i32 } %8, !dbg !1827
}

; core::ptr::read_volatile::precondition_check
; Function Attrs: inlinehint nounwind uwtable
define internal void @_ZN4core3ptr13read_volatile18precondition_check17h9b0dd0fefcc4dea6E(ptr %addr, i64 %align) unnamed_addr #3 personality ptr @rust_eh_personality !dbg !1828 {
start:
  %align.dbg.spill = alloca i64, align 8
  %addr.dbg.spill = alloca ptr, align 8
  store ptr %addr, ptr %addr.dbg.spill, align 8
  call void @llvm.dbg.declare(metadata ptr %addr.dbg.spill, metadata !1831, metadata !DIExpression()), !dbg !1833
  store i64 %align, ptr %align.dbg.spill, align 8
  call void @llvm.dbg.declare(metadata ptr %align.dbg.spill, metadata !1832, metadata !DIExpression()), !dbg !1833
; invoke core::intrinsics::is_aligned_and_not_null
  %_3 = invoke zeroext i1 @_ZN4core10intrinsics23is_aligned_and_not_null17h75524cf5e835e5f8E(ptr %addr, i64 %align)
          to label %bb1 unwind label %terminate, !dbg !1834

terminate:                                        ; preds = %start
  %0 = landingpad { ptr, i32 }
          filter [0 x ptr] zeroinitializer
  %1 = extractvalue { ptr, i32 } %0, 0
  %2 = extractvalue { ptr, i32 } %0, 1
; call core::panicking::panic_cannot_unwind
  call void @_ZN4core9panicking19panic_cannot_unwind17h3626040c0976c0c3E() #20, !dbg !1836
  unreachable, !dbg !1836

bb1:                                              ; preds = %start
  br i1 %_3, label %bb2, label %bb3, !dbg !1834

bb3:                                              ; preds = %bb1
; call core::panicking::panic_nounwind
  call void @_ZN4core9panicking14panic_nounwind17h50c31e15afde233eE(ptr align 1 @alloc_d4d2a2a8539eafc62756407d946babb3, i64 110) #21, !dbg !1837
  unreachable, !dbg !1837

bb2:                                              ; preds = %bb1
  ret void, !dbg !1838
}

; core::ptr::drop_in_place<<alloc::collections::vec_deque::drain::Drain<T,A> as core::ops::drop::Drop>::drop::DropGuard<u8,alloc::alloc::Global>>
; Function Attrs: uwtable
define void @"_ZN4core3ptr168drop_in_place$LT$$LT$alloc..collections..vec_deque..drain..Drain$LT$T$C$A$GT$$u20$as$u20$core..ops..drop..Drop$GT$..drop..DropGuard$LT$u8$C$alloc..alloc..Global$GT$$GT$17hf42e5e03f62bf555E"(ptr align 8 %_1) unnamed_addr #0 !dbg !1839 {
start:
  %_1.dbg.spill = alloca ptr, align 8
  store ptr %_1, ptr %_1.dbg.spill, align 8
  call void @llvm.dbg.declare(metadata ptr %_1.dbg.spill, metadata !1844, metadata !DIExpression()), !dbg !1847
; call <<alloc::collections::vec_deque::drain::Drain<T,A> as core::ops::drop::Drop>::drop::DropGuard<T,A> as core::ops::drop::Drop>::drop
  call void @"_ZN169_$LT$$LT$alloc..collections..vec_deque..drain..Drain$LT$T$C$A$GT$$u20$as$u20$core..ops..drop..Drop$GT$..drop..DropGuard$LT$T$C$A$GT$$u20$as$u20$core..ops..drop..Drop$GT$4drop17h5b9406fc4e71904dE"(ptr align 8 %_1), !dbg !1847
  ret void, !dbg !1847
}

; core::ptr::drop_in_place<&usize>
; Function Attrs: inlinehint uwtable
define internal void @"_ZN4core3ptr30drop_in_place$LT$$RF$usize$GT$17he192f534278b2e57E"(ptr align 8 %_1) unnamed_addr #1 !dbg !1848 {
start:
  %_1.dbg.spill = alloca ptr, align 8
  store ptr %_1, ptr %_1.dbg.spill, align 8
  call void @llvm.dbg.declare(metadata ptr %_1.dbg.spill, metadata !1853, metadata !DIExpression()), !dbg !1856
  ret void, !dbg !1856
}

; core::ptr::drop_in_place<bytes::bytes::Bytes>
; Function Attrs: uwtable
define void @"_ZN4core3ptr40drop_in_place$LT$bytes..bytes..Bytes$GT$17h3786920becbaecacE"(ptr align 8 %_1) unnamed_addr #0 !dbg !1857 {
start:
  %_1.dbg.spill = alloca ptr, align 8
  store ptr %_1, ptr %_1.dbg.spill, align 8
  call void @llvm.dbg.declare(metadata ptr %_1.dbg.spill, metadata !1861, metadata !DIExpression()), !dbg !1862
; call <bytes::bytes::Bytes as core::ops::drop::Drop>::drop
  call void @"_ZN61_$LT$bytes..bytes..Bytes$u20$as$u20$core..ops..drop..Drop$GT$4drop17ha45ee586b203817dE"(ptr align 8 %_1), !dbg !1862
  ret void, !dbg !1862
}

; core::ptr::drop_in_place<bytes::bytes::Shared>
; Function Attrs: uwtable
define void @"_ZN4core3ptr41drop_in_place$LT$bytes..bytes..Shared$GT$17h7c0214fa9c6d3196E"(ptr align 8 %_1) unnamed_addr #0 !dbg !1863 {
start:
  %_1.dbg.spill = alloca ptr, align 8
  store ptr %_1, ptr %_1.dbg.spill, align 8
  call void @llvm.dbg.declare(metadata ptr %_1.dbg.spill, metadata !1868, metadata !DIExpression()), !dbg !1869
; call <bytes::bytes::Shared as core::ops::drop::Drop>::drop
  call void @"_ZN62_$LT$bytes..bytes..Shared$u20$as$u20$core..ops..drop..Drop$GT$4drop17h0ac0573d03c47b8dE"(ptr align 8 %_1), !dbg !1869
  ret void, !dbg !1869
}

; core::ptr::drop_in_place<*const ()>
; Function Attrs: inlinehint uwtable
define internal void @"_ZN4core3ptr43drop_in_place$LT$$BP$const$u20$$LP$$RP$$GT$17hefba5650d3bdc9dcE"(ptr align 8 %_1) unnamed_addr #1 !dbg !1870 {
start:
  %_1.dbg.spill = alloca ptr, align 8
  store ptr %_1, ptr %_1.dbg.spill, align 8
  call void @llvm.dbg.declare(metadata ptr %_1.dbg.spill, metadata !1875, metadata !DIExpression()), !dbg !1878
  ret void, !dbg !1878
}

; core::ptr::drop_in_place<bytes::bytes_mut::Shared>
; Function Attrs: uwtable
define void @"_ZN4core3ptr45drop_in_place$LT$bytes..bytes_mut..Shared$GT$17h58eed4bbef12dc02E"(ptr align 8 %_1) unnamed_addr #0 !dbg !1879 {
start:
  %_1.dbg.spill = alloca ptr, align 8
  store ptr %_1, ptr %_1.dbg.spill, align 8
  call void @llvm.dbg.declare(metadata ptr %_1.dbg.spill, metadata !1884, metadata !DIExpression()), !dbg !1887
; call core::ptr::drop_in_place<alloc::vec::Vec<u8>>
  call void @"_ZN4core3ptr46drop_in_place$LT$alloc..vec..Vec$LT$u8$GT$$GT$17hc5d71d23c825b6dbE"(ptr align 8 %_1), !dbg !1887
  ret void, !dbg !1887
}

; core::ptr::drop_in_place<alloc::vec::Vec<u8>>
; Function Attrs: uwtable
define void @"_ZN4core3ptr46drop_in_place$LT$alloc..vec..Vec$LT$u8$GT$$GT$17hc5d71d23c825b6dbE"(ptr align 8 %_1) unnamed_addr #0 personality ptr @rust_eh_personality !dbg !1888 {
start:
  %0 = alloca { ptr, i32, [1 x i32] }, align 8
  %_1.dbg.spill = alloca ptr, align 8
  store ptr %_1, ptr %_1.dbg.spill, align 8
  call void @llvm.dbg.declare(metadata ptr %_1.dbg.spill, metadata !1892, metadata !DIExpression()), !dbg !1893
; invoke <alloc::vec::Vec<T,A> as core::ops::drop::Drop>::drop
  invoke void @"_ZN70_$LT$alloc..vec..Vec$LT$T$C$A$GT$$u20$as$u20$core..ops..drop..Drop$GT$4drop17h7ca2d5ce9454a764E"(ptr align 8 %_1)
          to label %bb4 unwind label %cleanup, !dbg !1893

bb3:                                              ; preds = %cleanup
; invoke core::ptr::drop_in_place<alloc::raw_vec::RawVec<u8>>
  invoke void @"_ZN4core3ptr53drop_in_place$LT$alloc..raw_vec..RawVec$LT$u8$GT$$GT$17ha856f9153b5a6012E"(ptr align 8 %_1) #23
          to label %bb1 unwind label %terminate, !dbg !1893

cleanup:                                          ; preds = %start
  %1 = landingpad { ptr, i32 }
          cleanup
  %2 = extractvalue { ptr, i32 } %1, 0
  %3 = extractvalue { ptr, i32 } %1, 1
  store ptr %2, ptr %0, align 8
  %4 = getelementptr inbounds i8, ptr %0, i64 8
  store i32 %3, ptr %4, align 8
  br label %bb3

bb4:                                              ; preds = %start
; call core::ptr::drop_in_place<alloc::raw_vec::RawVec<u8>>
  call void @"_ZN4core3ptr53drop_in_place$LT$alloc..raw_vec..RawVec$LT$u8$GT$$GT$17ha856f9153b5a6012E"(ptr align 8 %_1), !dbg !1893
  ret void, !dbg !1893

terminate:                                        ; preds = %bb3
  %5 = landingpad { ptr, i32 }
          filter [0 x ptr] zeroinitializer
  %6 = extractvalue { ptr, i32 } %5, 0
  %7 = extractvalue { ptr, i32 } %5, 1
; call core::panicking::panic_in_cleanup
  call void @_ZN4core9panicking16panic_in_cleanup17hb45215b029b98411E() #20, !dbg !1893
  unreachable, !dbg !1893

bb1:                                              ; preds = %bb3
  %8 = load ptr, ptr %0, align 8, !dbg !1893, !noundef !16
  %9 = getelementptr inbounds i8, ptr %0, i64 8, !dbg !1893
  %10 = load i32, ptr %9, align 8, !dbg !1893, !noundef !16
  %11 = insertvalue { ptr, i32 } poison, ptr %8, 0, !dbg !1893
  %12 = insertvalue { ptr, i32 } %11, i32 %10, 1, !dbg !1893
  resume { ptr, i32 } %12, !dbg !1893
}

; core::ptr::drop_in_place<bytes::bytes_mut::BytesMut>
; Function Attrs: uwtable
define void @"_ZN4core3ptr47drop_in_place$LT$bytes..bytes_mut..BytesMut$GT$17h44105296c813263eE"(ptr align 8 %_1) unnamed_addr #0 !dbg !1894 {
start:
  %_1.dbg.spill = alloca ptr, align 8
  store ptr %_1, ptr %_1.dbg.spill, align 8
  call void @llvm.dbg.declare(metadata ptr %_1.dbg.spill, metadata !1905, metadata !DIExpression()), !dbg !1908
; call <bytes::bytes_mut::BytesMut as core::ops::drop::Drop>::drop
  call void @"_ZN68_$LT$bytes..bytes_mut..BytesMut$u20$as$u20$core..ops..drop..Drop$GT$4drop17ha2c7d4059a23e628E"(ptr align 8 %_1), !dbg !1908
  ret void, !dbg !1908
}

; core::ptr::read
; Function Attrs: inlinehint uwtable
define void @_ZN4core3ptr4read17h20ad58ff300ae0bdE(ptr sret(%"bytes_mut::BytesMut") align 8 %_0, ptr %src) unnamed_addr #1 !dbg !1909 {
start:
  %src.dbg.spill = alloca ptr, align 8
  store ptr %src, ptr %src.dbg.spill, align 8
  call void @llvm.dbg.declare(metadata ptr %src.dbg.spill, metadata !1914, metadata !DIExpression()), !dbg !1915
  call void @llvm.memcpy.p0.p0.i64(ptr align 8 %_0, ptr align 8 %src, i64 32, i1 false), !dbg !1916
  ret void, !dbg !1917
}

; core::ptr::drop_in_place<alloc::raw_vec::RawVec<u8>>
; Function Attrs: uwtable
define void @"_ZN4core3ptr53drop_in_place$LT$alloc..raw_vec..RawVec$LT$u8$GT$$GT$17ha856f9153b5a6012E"(ptr align 8 %_1) unnamed_addr #0 !dbg !1918 {
start:
  %_1.dbg.spill = alloca ptr, align 8
  store ptr %_1, ptr %_1.dbg.spill, align 8
  call void @llvm.dbg.declare(metadata ptr %_1.dbg.spill, metadata !1923, metadata !DIExpression()), !dbg !1926
; call <alloc::raw_vec::RawVec<T,A> as core::ops::drop::Drop>::drop
  call void @"_ZN77_$LT$alloc..raw_vec..RawVec$LT$T$C$A$GT$$u20$as$u20$core..ops..drop..Drop$GT$4drop17hf1d10d09904092a2E"(ptr align 8 %_1), !dbg !1926
  ret void, !dbg !1926
}

; core::ptr::drop_in_place<core::alloc::layout::LayoutError>
; Function Attrs: inlinehint uwtable
define internal void @"_ZN4core3ptr53drop_in_place$LT$core..alloc..layout..LayoutError$GT$17h482fec046a604ac3E"(ptr align 1 %_1) unnamed_addr #1 !dbg !1927 {
start:
  %_1.dbg.spill = alloca ptr, align 8
  store ptr %_1, ptr %_1.dbg.spill, align 8
  call void @llvm.dbg.declare(metadata ptr %_1.dbg.spill, metadata !1932, metadata !DIExpression()), !dbg !1935
  ret void, !dbg !1935
}

; core::ptr::drop_in_place<alloc::boxed::Box<[u8]>>
; Function Attrs: uwtable
define void @"_ZN4core3ptr58drop_in_place$LT$alloc..boxed..Box$LT$$u5b$u8$u5d$$GT$$GT$17hd4762bc48879e343E"(ptr align 8 %_1) unnamed_addr #0 personality ptr @rust_eh_personality !dbg !1936 {
start:
  %0 = alloca { ptr, i32, [1 x i32] }, align 8
  %_1.dbg.spill = alloca ptr, align 8
  store ptr %_1, ptr %_1.dbg.spill, align 8
  call void @llvm.dbg.declare(metadata ptr %_1.dbg.spill, metadata !1945, metadata !DIExpression()), !dbg !1948
  %_6.0 = load ptr, ptr %_1, align 8, !dbg !1948, !noundef !16
  %1 = getelementptr inbounds i8, ptr %_1, i64 8, !dbg !1948
  %_6.1 = load i64, ptr %1, align 8, !dbg !1948, !noundef !16
  br label %bb3, !dbg !1948

bb3:                                              ; preds = %start
; call <alloc::boxed::Box<T,A> as core::ops::drop::Drop>::drop
  call void @"_ZN72_$LT$alloc..boxed..Box$LT$T$C$A$GT$$u20$as$u20$core..ops..drop..Drop$GT$4drop17h8fd8cb6d597f684dE"(ptr align 8 %_1), !dbg !1948
  ret void, !dbg !1948

bb4:                                              ; No predecessors!
; invoke <alloc::boxed::Box<T,A> as core::ops::drop::Drop>::drop
  invoke void @"_ZN72_$LT$alloc..boxed..Box$LT$T$C$A$GT$$u20$as$u20$core..ops..drop..Drop$GT$4drop17h8fd8cb6d597f684dE"(ptr align 8 %_1) #23
          to label %bb1 unwind label %terminate, !dbg !1948

terminate:                                        ; preds = %bb4
  %2 = landingpad { ptr, i32 }
          filter [0 x ptr] zeroinitializer
  %3 = extractvalue { ptr, i32 } %2, 0
  %4 = extractvalue { ptr, i32 } %2, 1
; call core::panicking::panic_in_cleanup
  call void @_ZN4core9panicking16panic_in_cleanup17hb45215b029b98411E() #20, !dbg !1948
  unreachable, !dbg !1948

bb1:                                              ; preds = %bb4
  %5 = load ptr, ptr %0, align 8, !dbg !1948, !noundef !16
  %6 = getelementptr inbounds i8, ptr %0, i64 8, !dbg !1948
  %7 = load i32, ptr %6, align 8, !dbg !1948, !noundef !16
  %8 = insertvalue { ptr, i32 } poison, ptr %5, 0, !dbg !1948
  %9 = insertvalue { ptr, i32 } %8, i32 %7, 1, !dbg !1948
  resume { ptr, i32 } %9, !dbg !1948
}

; core::ptr::drop_in_place<alloc::boxed::Box<bytes::bytes::Shared>>
; Function Attrs: uwtable
define void @"_ZN4core3ptr66drop_in_place$LT$alloc..boxed..Box$LT$bytes..bytes..Shared$GT$$GT$17ha056805ec2ca3c37E"(ptr align 8 %_1) unnamed_addr #0 personality ptr @rust_eh_personality !dbg !1949 {
start:
  %0 = alloca { ptr, i32, [1 x i32] }, align 8
  %_1.dbg.spill = alloca ptr, align 8
  store ptr %_1, ptr %_1.dbg.spill, align 8
  call void @llvm.dbg.declare(metadata ptr %_1.dbg.spill, metadata !1954, metadata !DIExpression()), !dbg !1955
  %_6 = load ptr, ptr %_1, align 8, !dbg !1955, !noundef !16
; invoke core::ptr::drop_in_place<bytes::bytes::Shared>
  invoke void @"_ZN4core3ptr41drop_in_place$LT$bytes..bytes..Shared$GT$17h7c0214fa9c6d3196E"(ptr align 8 %_6)
          to label %bb3 unwind label %cleanup, !dbg !1955

bb4:                                              ; preds = %cleanup
; invoke <alloc::boxed::Box<T,A> as core::ops::drop::Drop>::drop
  invoke void @"_ZN72_$LT$alloc..boxed..Box$LT$T$C$A$GT$$u20$as$u20$core..ops..drop..Drop$GT$4drop17h61011251f627f5a6E"(ptr align 8 %_1) #23
          to label %bb1 unwind label %terminate, !dbg !1955

cleanup:                                          ; preds = %start
  %1 = landingpad { ptr, i32 }
          cleanup
  %2 = extractvalue { ptr, i32 } %1, 0
  %3 = extractvalue { ptr, i32 } %1, 1
  store ptr %2, ptr %0, align 8
  %4 = getelementptr inbounds i8, ptr %0, i64 8
  store i32 %3, ptr %4, align 8
  br label %bb4

bb3:                                              ; preds = %start
; call <alloc::boxed::Box<T,A> as core::ops::drop::Drop>::drop
  call void @"_ZN72_$LT$alloc..boxed..Box$LT$T$C$A$GT$$u20$as$u20$core..ops..drop..Drop$GT$4drop17h61011251f627f5a6E"(ptr align 8 %_1), !dbg !1955
  ret void, !dbg !1955

terminate:                                        ; preds = %bb4
  %5 = landingpad { ptr, i32 }
          filter [0 x ptr] zeroinitializer
  %6 = extractvalue { ptr, i32 } %5, 0
  %7 = extractvalue { ptr, i32 } %5, 1
; call core::panicking::panic_in_cleanup
  call void @_ZN4core9panicking16panic_in_cleanup17hb45215b029b98411E() #20, !dbg !1955
  unreachable, !dbg !1955

bb1:                                              ; preds = %bb4
  %8 = load ptr, ptr %0, align 8, !dbg !1955, !noundef !16
  %9 = getelementptr inbounds i8, ptr %0, i64 8, !dbg !1955
  %10 = load i32, ptr %9, align 8, !dbg !1955, !noundef !16
  %11 = insertvalue { ptr, i32 } poison, ptr %8, 0, !dbg !1955
  %12 = insertvalue { ptr, i32 } %11, i32 %10, 1, !dbg !1955
  resume { ptr, i32 } %12, !dbg !1955
}

; core::ptr::drop_in_place<alloc::boxed::Box<bytes::bytes_mut::Shared>>
; Function Attrs: uwtable
define void @"_ZN4core3ptr70drop_in_place$LT$alloc..boxed..Box$LT$bytes..bytes_mut..Shared$GT$$GT$17h5161dc5411b0f11bE"(ptr align 8 %_1) unnamed_addr #0 personality ptr @rust_eh_personality !dbg !1956 {
start:
  %0 = alloca { ptr, i32, [1 x i32] }, align 8
  %_1.dbg.spill = alloca ptr, align 8
  store ptr %_1, ptr %_1.dbg.spill, align 8
  call void @llvm.dbg.declare(metadata ptr %_1.dbg.spill, metadata !1961, metadata !DIExpression()), !dbg !1962
  %_6 = load ptr, ptr %_1, align 8, !dbg !1962, !noundef !16
; invoke core::ptr::drop_in_place<bytes::bytes_mut::Shared>
  invoke void @"_ZN4core3ptr45drop_in_place$LT$bytes..bytes_mut..Shared$GT$17h58eed4bbef12dc02E"(ptr align 8 %_6)
          to label %bb3 unwind label %cleanup, !dbg !1962

bb4:                                              ; preds = %cleanup
; invoke <alloc::boxed::Box<T,A> as core::ops::drop::Drop>::drop
  invoke void @"_ZN72_$LT$alloc..boxed..Box$LT$T$C$A$GT$$u20$as$u20$core..ops..drop..Drop$GT$4drop17h20c727c0e4b06008E"(ptr align 8 %_1) #23
          to label %bb1 unwind label %terminate, !dbg !1962

cleanup:                                          ; preds = %start
  %1 = landingpad { ptr, i32 }
          cleanup
  %2 = extractvalue { ptr, i32 } %1, 0
  %3 = extractvalue { ptr, i32 } %1, 1
  store ptr %2, ptr %0, align 8
  %4 = getelementptr inbounds i8, ptr %0, i64 8
  store i32 %3, ptr %4, align 8
  br label %bb4

bb3:                                              ; preds = %start
; call <alloc::boxed::Box<T,A> as core::ops::drop::Drop>::drop
  call void @"_ZN72_$LT$alloc..boxed..Box$LT$T$C$A$GT$$u20$as$u20$core..ops..drop..Drop$GT$4drop17h20c727c0e4b06008E"(ptr align 8 %_1), !dbg !1962
  ret void, !dbg !1962

terminate:                                        ; preds = %bb4
  %5 = landingpad { ptr, i32 }
          filter [0 x ptr] zeroinitializer
  %6 = extractvalue { ptr, i32 } %5, 0
  %7 = extractvalue { ptr, i32 } %5, 1
; call core::panicking::panic_in_cleanup
  call void @_ZN4core9panicking16panic_in_cleanup17hb45215b029b98411E() #20, !dbg !1962
  unreachable, !dbg !1962

bb1:                                              ; preds = %bb4
  %8 = load ptr, ptr %0, align 8, !dbg !1962, !noundef !16
  %9 = getelementptr inbounds i8, ptr %0, i64 8, !dbg !1962
  %10 = load i32, ptr %9, align 8, !dbg !1962, !noundef !16
  %11 = insertvalue { ptr, i32 } poison, ptr %8, 0, !dbg !1962
  %12 = insertvalue { ptr, i32 } %11, i32 %10, 1, !dbg !1962
  resume { ptr, i32 } %12, !dbg !1962
}

; core::ptr::drop_in_place<alloc::collections::vec_deque::drain::Drain<u8>>
; Function Attrs: uwtable
define void @"_ZN4core3ptr74drop_in_place$LT$alloc..collections..vec_deque..drain..Drain$LT$u8$GT$$GT$17he36b9233eed0df8fE"(ptr align 8 %_1) unnamed_addr #0 !dbg !1963 {
start:
  %_1.dbg.spill = alloca ptr, align 8
  store ptr %_1, ptr %_1.dbg.spill, align 8
  call void @llvm.dbg.declare(metadata ptr %_1.dbg.spill, metadata !1968, metadata !DIExpression()), !dbg !1971
; call <alloc::collections::vec_deque::drain::Drain<T,A> as core::ops::drop::Drop>::drop
  call void @"_ZN98_$LT$alloc..collections..vec_deque..drain..Drain$LT$T$C$A$GT$$u20$as$u20$core..ops..drop..Drop$GT$4drop17h04403dd678f74d1eE"(ptr align 8 %_1), !dbg !1971
  ret void, !dbg !1971
}

; core::ptr::non_null::NonNull<T>::new_unchecked
; Function Attrs: inlinehint uwtable
define ptr @"_ZN4core3ptr8non_null16NonNull$LT$T$GT$13new_unchecked17h4ed1a961dd7686e0E"(ptr %ptr) unnamed_addr #1 !dbg !1972 {
start:
  %ptr.dbg.spill = alloca ptr, align 8
  %_0 = alloca ptr, align 8
  store ptr %ptr, ptr %ptr.dbg.spill, align 8
  call void @llvm.dbg.declare(metadata ptr %ptr.dbg.spill, metadata !1977, metadata !DIExpression()), !dbg !1978
  br label %bb1, !dbg !1979

bb1:                                              ; preds = %start
; call core::ptr::non_null::NonNull<T>::new_unchecked::precondition_check
  call void @"_ZN4core3ptr8non_null16NonNull$LT$T$GT$13new_unchecked18precondition_check17ha744677e102ddc6cE"(ptr %ptr) #19, !dbg !1979
  br label %bb2, !dbg !1979

bb2:                                              ; preds = %bb1
  store ptr %ptr, ptr %_0, align 8, !dbg !1980
  %0 = load ptr, ptr %_0, align 8, !dbg !1981, !nonnull !16, !noundef !16
  ret ptr %0, !dbg !1981
}

; core::ptr::non_null::NonNull<T>::new_unchecked::precondition_check
; Function Attrs: inlinehint nounwind uwtable
define internal void @"_ZN4core3ptr8non_null16NonNull$LT$T$GT$13new_unchecked18precondition_check17ha744677e102ddc6cE"(ptr %ptr) unnamed_addr #3 !dbg !1982 {
start:
  %ptr.dbg.spill1 = alloca ptr, align 8
  %ptr.dbg.spill = alloca ptr, align 8
  store ptr %ptr, ptr %ptr.dbg.spill, align 8
  call void @llvm.dbg.declare(metadata ptr %ptr.dbg.spill, metadata !1988, metadata !DIExpression()), !dbg !1989
  call void @llvm.dbg.declare(metadata ptr %ptr.dbg.spill, metadata !1990, metadata !DIExpression()), !dbg !1999
  store ptr %ptr, ptr %ptr.dbg.spill1, align 8, !dbg !2002
  call void @llvm.dbg.declare(metadata ptr %ptr.dbg.spill1, metadata !2003, metadata !DIExpression()), !dbg !2010
  call void @llvm.dbg.declare(metadata ptr %ptr.dbg.spill1, metadata !2012, metadata !DIExpression()), !dbg !2018
  call void @llvm.dbg.declare(metadata ptr %ptr.dbg.spill1, metadata !2020, metadata !DIExpression()), !dbg !2026
  %_4 = ptrtoint ptr %ptr to i64, !dbg !2028
  %0 = icmp eq i64 %_4, 0, !dbg !2029
  br i1 %0, label %bb1, label %bb2, !dbg !2029

bb1:                                              ; preds = %start
; call core::panicking::panic_nounwind
  call void @_ZN4core9panicking14panic_nounwind17h50c31e15afde233eE(ptr align 1 @alloc_20b3d155afd5c58c42e598b7e6d186ef, i64 93) #21, !dbg !2030
  unreachable, !dbg !2030

bb2:                                              ; preds = %start
  ret void, !dbg !2031
}

; core::ptr::non_null::NonNull<T>::new
; Function Attrs: inlinehint uwtable
define ptr @"_ZN4core3ptr8non_null16NonNull$LT$T$GT$3new17hd920c56f41ee90d8E"(ptr %ptr) unnamed_addr #1 !dbg !2032 {
start:
  %ptr.dbg.spill1 = alloca ptr, align 8
  %ptr.dbg.spill = alloca ptr, align 8
  %_2 = alloca ptr, align 8
  %_0 = alloca ptr, align 8
  store ptr %ptr, ptr %ptr.dbg.spill, align 8
  call void @llvm.dbg.declare(metadata ptr %ptr.dbg.spill, metadata !2050, metadata !DIExpression()), !dbg !2051
  call void @llvm.dbg.declare(metadata ptr %ptr.dbg.spill, metadata !2052, metadata !DIExpression()), !dbg !2056
  call void @llvm.dbg.declare(metadata ptr %ptr.dbg.spill, metadata !2058, metadata !DIExpression()), !dbg !2062
  store ptr %ptr, ptr %ptr.dbg.spill1, align 8, !dbg !2064
  call void @llvm.dbg.declare(metadata ptr %ptr.dbg.spill1, metadata !2065, metadata !DIExpression()), !dbg !2069
  call void @llvm.dbg.declare(metadata ptr %ptr.dbg.spill1, metadata !2071, metadata !DIExpression()), !dbg !2075
  call void @llvm.dbg.declare(metadata ptr %ptr.dbg.spill1, metadata !2077, metadata !DIExpression()), !dbg !2081
  %_4 = ptrtoint ptr %ptr to i64, !dbg !2083
  %0 = icmp eq i64 %_4, 0, !dbg !2084
  br i1 %0, label %bb1, label %bb2, !dbg !2084

bb1:                                              ; preds = %start
  store ptr null, ptr %_0, align 8, !dbg !2085
  br label %bb3, !dbg !2086

bb2:                                              ; preds = %start
  br label %bb4, !dbg !2087

bb3:                                              ; preds = %bb5, %bb1
  %1 = load ptr, ptr %_0, align 8, !dbg !2088, !noundef !16
  ret ptr %1, !dbg !2088

bb4:                                              ; preds = %bb2
; call core::ptr::non_null::NonNull<T>::new_unchecked::precondition_check
  call void @"_ZN4core3ptr8non_null16NonNull$LT$T$GT$13new_unchecked18precondition_check17ha744677e102ddc6cE"(ptr %ptr) #19, !dbg !2087
  br label %bb5, !dbg !2087

bb5:                                              ; preds = %bb4
  store ptr %ptr, ptr %_2, align 8, !dbg !2089
  %2 = load ptr, ptr %_2, align 8, !dbg !2090, !nonnull !16, !noundef !16
  store ptr %2, ptr %_0, align 8, !dbg !2090
  br label %bb3, !dbg !2086
}

; core::ptr::const_ptr::<impl *const T>::sub_ptr
; Function Attrs: inlinehint uwtable
define i64 @"_ZN4core3ptr9const_ptr33_$LT$impl$u20$$BP$const$u20$T$GT$7sub_ptr17hf9c16b4ab2a41c9dE"(ptr %self, ptr %origin) unnamed_addr #1 !dbg !2091 {
start:
  %0 = alloca i64, align 8
  %pointee_size.dbg.spill = alloca i64, align 8
  %origin.dbg.spill = alloca ptr, align 8
  %self.dbg.spill = alloca ptr, align 8
  store ptr %self, ptr %self.dbg.spill, align 8
  call void @llvm.dbg.declare(metadata ptr %self.dbg.spill, metadata !2095, metadata !DIExpression()), !dbg !2099
  store ptr %origin, ptr %origin.dbg.spill, align 8
  call void @llvm.dbg.declare(metadata ptr %origin.dbg.spill, metadata !2096, metadata !DIExpression()), !dbg !2100
  br label %bb1, !dbg !2101

bb1:                                              ; preds = %start
; call core::ptr::const_ptr::<impl *const T>::sub_ptr::precondition_check
  call void @"_ZN4core3ptr9const_ptr33_$LT$impl$u20$$BP$const$u20$T$GT$7sub_ptr18precondition_check17he761798ae17cbf36E"(ptr %self, ptr %origin) #19, !dbg !2101
  br label %bb2, !dbg !2101

bb2:                                              ; preds = %bb1
  store i64 1, ptr %pointee_size.dbg.spill, align 8, !dbg !2102
  call void @llvm.dbg.declare(metadata ptr %pointee_size.dbg.spill, metadata !2097, metadata !DIExpression()), !dbg !2108
  br label %bb3, !dbg !2109

bb3:                                              ; preds = %bb2
  br label %bb4, !dbg !2110

bb4:                                              ; preds = %bb3
  %1 = ptrtoint ptr %self to i64, !dbg !2111
  %2 = ptrtoint ptr %origin to i64, !dbg !2111
  %3 = sub nuw i64 %1, %2, !dbg !2111
  %4 = udiv exact i64 %3, 1, !dbg !2111
  store i64 %4, ptr %0, align 8, !dbg !2111
  %_0 = load i64, ptr %0, align 8, !dbg !2111, !noundef !16
  ret i64 %_0, !dbg !2112

bb5:                                              ; No predecessors!
; call core::panicking::panic
  call void @_ZN4core9panicking5panic17h5884aad3a9044857E(ptr align 1 @alloc_ec595fc0e82ef92fc59bd74f68296eae, i64 73, ptr align 8 @alloc_4e3a3aaf48410eaea90c90938dabe76a) #22, !dbg !2113
  unreachable, !dbg !2113
}

; core::ptr::const_ptr::<impl *const T>::sub_ptr::precondition_check
; Function Attrs: inlinehint nounwind uwtable
define internal void @"_ZN4core3ptr9const_ptr33_$LT$impl$u20$$BP$const$u20$T$GT$7sub_ptr18precondition_check17he761798ae17cbf36E"(ptr %this, ptr %origin) unnamed_addr #3 !dbg !2114 {
start:
  %origin.dbg.spill = alloca ptr, align 8
  %this.dbg.spill = alloca ptr, align 8
  store ptr %this, ptr %this.dbg.spill, align 8
  call void @llvm.dbg.declare(metadata ptr %this.dbg.spill, metadata !2119, metadata !DIExpression()), !dbg !2121
  store ptr %origin, ptr %origin.dbg.spill, align 8
  call void @llvm.dbg.declare(metadata ptr %origin.dbg.spill, metadata !2120, metadata !DIExpression()), !dbg !2121
  %_3 = icmp uge ptr %this, %origin, !dbg !2122
  br i1 %_3, label %bb1, label %bb2, !dbg !2122

bb2:                                              ; preds = %start
; call core::panicking::panic_nounwind
  call void @_ZN4core9panicking14panic_nounwind17h50c31e15afde233eE(ptr align 1 @alloc_7efb3a7632b3620f628ce83a521b4d9b, i64 71) #21, !dbg !2124
  unreachable, !dbg !2124

bb1:                                              ; preds = %start
  ret void, !dbg !2125
}

; core::str::traits::<impl core::slice::index::SliceIndex<str> for core::ops::range::RangeFull>::index
; Function Attrs: inlinehint uwtable
define internal { ptr, i64 } @"_ZN4core3str6traits99_$LT$impl$u20$core..slice..index..SliceIndex$LT$str$GT$$u20$for$u20$core..ops..range..RangeFull$GT$5index17hd366918a5931213cE"(ptr align 1 %slice.0, i64 %slice.1, ptr align 8 %0) unnamed_addr #1 !dbg !2126 {
start:
  %slice.dbg.spill = alloca { ptr, i64 }, align 8
  %_1.dbg.spill = alloca %"core::ops::range::RangeFull", align 1
  %self.dbg.spill = alloca %"core::ops::range::RangeFull", align 1
  call void @llvm.dbg.declare(metadata ptr %self.dbg.spill, metadata !2135, metadata !DIExpression()), !dbg !2138
  call void @llvm.dbg.declare(metadata ptr %_1.dbg.spill, metadata !2137, metadata !DIExpression()), !dbg !2138
  store ptr %slice.0, ptr %slice.dbg.spill, align 8, !dbg !2138
  %1 = getelementptr inbounds i8, ptr %slice.dbg.spill, i64 8, !dbg !2138
  store i64 %slice.1, ptr %1, align 8, !dbg !2138
  call void @llvm.dbg.declare(metadata ptr %slice.dbg.spill, metadata !2136, metadata !DIExpression()), !dbg !2139
  %2 = insertvalue { ptr, i64 } poison, ptr %slice.0, 0, !dbg !2140
  %3 = insertvalue { ptr, i64 } %2, i64 %slice.1, 1, !dbg !2140
  ret { ptr, i64 } %3, !dbg !2140
}

; core::hint::assert_unchecked::precondition_check
; Function Attrs: inlinehint nounwind uwtable
define internal void @_ZN4core4hint16assert_unchecked18precondition_check17h3786df2b5a247e02E(i1 zeroext %cond) unnamed_addr #3 !dbg !2141 {
start:
  %cond.dbg.spill = alloca i8, align 1
  %0 = zext i1 %cond to i8
  store i8 %0, ptr %cond.dbg.spill, align 1
  call void @llvm.dbg.declare(metadata ptr %cond.dbg.spill, metadata !2147, metadata !DIExpression()), !dbg !2148
  br i1 %cond, label %bb2, label %bb1, !dbg !2149

bb1:                                              ; preds = %start
; call core::panicking::panic_nounwind
  call void @_ZN4core9panicking14panic_nounwind17h50c31e15afde233eE(ptr align 1 @alloc_ab14703751a9eb3585c49b2e55e9a9e5, i64 104) #21, !dbg !2152
  unreachable, !dbg !2152

bb2:                                              ; preds = %start
  ret void, !dbg !2153
}

; core::sync::atomic::AtomicUsize::compare_exchange
; Function Attrs: inlinehint uwtable
define internal { i64, i64 } @_ZN4core4sync6atomic11AtomicUsize16compare_exchange17h1b39eb08a8718080E(ptr align 8 %self, i64 %current, i64 %new, i8 %success, i8 %failure) unnamed_addr #1 !dbg !2154 {
start:
  %self.dbg.spill1 = alloca ptr, align 8
  %failure.dbg.spill = alloca i8, align 1
  %success.dbg.spill = alloca i8, align 1
  %new.dbg.spill = alloca i64, align 8
  %current.dbg.spill = alloca i64, align 8
  %self.dbg.spill = alloca ptr, align 8
  store ptr %self, ptr %self.dbg.spill, align 8
  call void @llvm.dbg.declare(metadata ptr %self.dbg.spill, metadata !2176, metadata !DIExpression()), !dbg !2181
  store i64 %current, ptr %current.dbg.spill, align 8
  call void @llvm.dbg.declare(metadata ptr %current.dbg.spill, metadata !2177, metadata !DIExpression()), !dbg !2182
  store i64 %new, ptr %new.dbg.spill, align 8
  call void @llvm.dbg.declare(metadata ptr %new.dbg.spill, metadata !2178, metadata !DIExpression()), !dbg !2183
  store i8 %success, ptr %success.dbg.spill, align 1
  call void @llvm.dbg.declare(metadata ptr %success.dbg.spill, metadata !2179, metadata !DIExpression()), !dbg !2184
  store i8 %failure, ptr %failure.dbg.spill, align 1
  call void @llvm.dbg.declare(metadata ptr %failure.dbg.spill, metadata !2180, metadata !DIExpression()), !dbg !2185
  store ptr %self, ptr %self.dbg.spill1, align 8, !dbg !2186
  call void @llvm.dbg.declare(metadata ptr %self.dbg.spill1, metadata !2187, metadata !DIExpression()), !dbg !2197
; call core::sync::atomic::atomic_compare_exchange
  %0 = call { i64, i64 } @_ZN4core4sync6atomic23atomic_compare_exchange17h522e277fa7403062E(ptr %self, i64 %current, i64 %new, i8 %success, i8 %failure), !dbg !2199
  %_0.0 = extractvalue { i64, i64 } %0, 0, !dbg !2199
  %_0.1 = extractvalue { i64, i64 } %0, 1, !dbg !2199
  %1 = insertvalue { i64, i64 } poison, i64 %_0.0, 0, !dbg !2200
  %2 = insertvalue { i64, i64 } %1, i64 %_0.1, 1, !dbg !2200
  ret { i64, i64 } %2, !dbg !2200
}

; core::sync::atomic::AtomicUsize::new
; Function Attrs: inlinehint uwtable
define internal i64 @_ZN4core4sync6atomic11AtomicUsize3new17h12b90f07450ae6cdE(i64 %v) unnamed_addr #1 !dbg !2201 {
start:
  %v.dbg.spill = alloca i64, align 8
  %_2 = alloca i64, align 8
  %_0 = alloca %"core::sync::atomic::AtomicUsize", align 8
  store i64 %v, ptr %v.dbg.spill, align 8
  call void @llvm.dbg.declare(metadata ptr %v.dbg.spill, metadata !2206, metadata !DIExpression()), !dbg !2207
  call void @llvm.dbg.declare(metadata ptr %v.dbg.spill, metadata !2208, metadata !DIExpression()), !dbg !2215
  store i64 %v, ptr %_2, align 8, !dbg !2217
  %0 = load i64, ptr %_2, align 8, !dbg !2218, !noundef !16
  store i64 %0, ptr %_0, align 8, !dbg !2218
  %1 = load i64, ptr %_0, align 8, !dbg !2219
  ret i64 %1, !dbg !2219
}

; core::sync::atomic::AtomicUsize::load
; Function Attrs: inlinehint uwtable
define internal i64 @_ZN4core4sync6atomic11AtomicUsize4load17h578ce8f4177e5c61E(ptr align 8 %self, i8 %order) unnamed_addr #1 !dbg !2220 {
start:
  %self.dbg.spill1 = alloca ptr, align 8
  %order.dbg.spill = alloca i8, align 1
  %self.dbg.spill = alloca ptr, align 8
  store ptr %self, ptr %self.dbg.spill, align 8
  call void @llvm.dbg.declare(metadata ptr %self.dbg.spill, metadata !2225, metadata !DIExpression()), !dbg !2227
  store i8 %order, ptr %order.dbg.spill, align 1
  call void @llvm.dbg.declare(metadata ptr %order.dbg.spill, metadata !2226, metadata !DIExpression()), !dbg !2228
  store ptr %self, ptr %self.dbg.spill1, align 8, !dbg !2229
  call void @llvm.dbg.declare(metadata ptr %self.dbg.spill1, metadata !2230, metadata !DIExpression()), !dbg !2234
; call core::sync::atomic::atomic_load
  %_0 = call i64 @_ZN4core4sync6atomic11atomic_load17h0c2e021a02681bb3E(ptr %self, i8 %order), !dbg !2236
  ret i64 %_0, !dbg !2237
}

; core::sync::atomic::AtomicUsize::fetch_add
; Function Attrs: inlinehint uwtable
define internal i64 @_ZN4core4sync6atomic11AtomicUsize9fetch_add17h0d4bdc3e95665acfE(ptr align 8 %self, i64 %val, i8 %0) unnamed_addr #1 !dbg !2238 {
start:
  %dst.dbg.spill = alloca ptr, align 8
  %self.dbg.spill1 = alloca ptr, align 8
  %val.dbg.spill = alloca i64, align 8
  %self.dbg.spill = alloca ptr, align 8
  %_0 = alloca i64, align 8
  %order = alloca i8, align 1
  store i8 %0, ptr %order, align 1
  store ptr %self, ptr %self.dbg.spill, align 8
  call void @llvm.dbg.declare(metadata ptr %self.dbg.spill, metadata !2243, metadata !DIExpression()), !dbg !2246
  store i64 %val, ptr %val.dbg.spill, align 8
  call void @llvm.dbg.declare(metadata ptr %val.dbg.spill, metadata !2244, metadata !DIExpression()), !dbg !2247
  call void @llvm.dbg.declare(metadata ptr %val.dbg.spill, metadata !2248, metadata !DIExpression()), !dbg !2256
  call void @llvm.dbg.declare(metadata ptr %order, metadata !2245, metadata !DIExpression()), !dbg !2258
  call void @llvm.dbg.declare(metadata ptr %order, metadata !2255, metadata !DIExpression()), !dbg !2259
  store ptr %self, ptr %self.dbg.spill1, align 8, !dbg !2260
  call void @llvm.dbg.declare(metadata ptr %self.dbg.spill1, metadata !2261, metadata !DIExpression()), !dbg !2265
  store ptr %self, ptr %dst.dbg.spill, align 8, !dbg !2267
  call void @llvm.dbg.declare(metadata ptr %dst.dbg.spill, metadata !2254, metadata !DIExpression()), !dbg !2268
  %1 = load i8, ptr %order, align 1, !dbg !2269, !range !2270, !noundef !16
  %_7 = zext i8 %1 to i64, !dbg !2269
  switch i64 %_7, label %bb2 [
    i64 0, label %bb4
    i64 1, label %bb6
    i64 2, label %bb5
    i64 3, label %bb7
    i64 4, label %bb3
  ], !dbg !2271

bb2:                                              ; preds = %start
  unreachable, !dbg !2269

bb4:                                              ; preds = %start
  %2 = atomicrmw add ptr %self, i64 %val monotonic, align 8, !dbg !2272
  store i64 %2, ptr %_0, align 8, !dbg !2272
  br label %bb1, !dbg !2272

bb6:                                              ; preds = %start
  %3 = atomicrmw add ptr %self, i64 %val release, align 8, !dbg !2273
  store i64 %3, ptr %_0, align 8, !dbg !2273
  br label %bb1, !dbg !2273

bb5:                                              ; preds = %start
  %4 = atomicrmw add ptr %self, i64 %val acquire, align 8, !dbg !2274
  store i64 %4, ptr %_0, align 8, !dbg !2274
  br label %bb1, !dbg !2274

bb7:                                              ; preds = %start
  %5 = atomicrmw add ptr %self, i64 %val acq_rel, align 8, !dbg !2275
  store i64 %5, ptr %_0, align 8, !dbg !2275
  br label %bb1, !dbg !2275

bb3:                                              ; preds = %start
  %6 = atomicrmw add ptr %self, i64 %val seq_cst, align 8, !dbg !2276
  store i64 %6, ptr %_0, align 8, !dbg !2276
  br label %bb1, !dbg !2276

bb1:                                              ; preds = %bb3, %bb7, %bb5, %bb6, %bb4
  %7 = load i64, ptr %_0, align 8, !dbg !2277, !noundef !16
  ret i64 %7, !dbg !2277
}

; core::sync::atomic::AtomicUsize::fetch_sub
; Function Attrs: inlinehint uwtable
define internal i64 @_ZN4core4sync6atomic11AtomicUsize9fetch_sub17hf82c2d7b6874cf77E(ptr align 8 %self, i64 %val, i8 %0) unnamed_addr #1 !dbg !2278 {
start:
  %dst.dbg.spill = alloca ptr, align 8
  %self.dbg.spill1 = alloca ptr, align 8
  %val.dbg.spill = alloca i64, align 8
  %self.dbg.spill = alloca ptr, align 8
  %_0 = alloca i64, align 8
  %order = alloca i8, align 1
  store i8 %0, ptr %order, align 1
  store ptr %self, ptr %self.dbg.spill, align 8
  call void @llvm.dbg.declare(metadata ptr %self.dbg.spill, metadata !2281, metadata !DIExpression()), !dbg !2284
  store i64 %val, ptr %val.dbg.spill, align 8
  call void @llvm.dbg.declare(metadata ptr %val.dbg.spill, metadata !2282, metadata !DIExpression()), !dbg !2285
  call void @llvm.dbg.declare(metadata ptr %val.dbg.spill, metadata !2286, metadata !DIExpression()), !dbg !2292
  call void @llvm.dbg.declare(metadata ptr %order, metadata !2283, metadata !DIExpression()), !dbg !2294
  call void @llvm.dbg.declare(metadata ptr %order, metadata !2291, metadata !DIExpression()), !dbg !2295
  store ptr %self, ptr %self.dbg.spill1, align 8, !dbg !2296
  call void @llvm.dbg.declare(metadata ptr %self.dbg.spill1, metadata !2297, metadata !DIExpression()), !dbg !2301
  store ptr %self, ptr %dst.dbg.spill, align 8, !dbg !2303
  call void @llvm.dbg.declare(metadata ptr %dst.dbg.spill, metadata !2290, metadata !DIExpression()), !dbg !2304
  %1 = load i8, ptr %order, align 1, !dbg !2305, !range !2270, !noundef !16
  %_7 = zext i8 %1 to i64, !dbg !2305
  switch i64 %_7, label %bb2 [
    i64 0, label %bb4
    i64 1, label %bb6
    i64 2, label %bb5
    i64 3, label %bb7
    i64 4, label %bb3
  ], !dbg !2306

bb2:                                              ; preds = %start
  unreachable, !dbg !2305

bb4:                                              ; preds = %start
  %2 = atomicrmw sub ptr %self, i64 %val monotonic, align 8, !dbg !2307
  store i64 %2, ptr %_0, align 8, !dbg !2307
  br label %bb1, !dbg !2307

bb6:                                              ; preds = %start
  %3 = atomicrmw sub ptr %self, i64 %val release, align 8, !dbg !2308
  store i64 %3, ptr %_0, align 8, !dbg !2308
  br label %bb1, !dbg !2308

bb5:                                              ; preds = %start
  %4 = atomicrmw sub ptr %self, i64 %val acquire, align 8, !dbg !2309
  store i64 %4, ptr %_0, align 8, !dbg !2309
  br label %bb1, !dbg !2309

bb7:                                              ; preds = %start
  %5 = atomicrmw sub ptr %self, i64 %val acq_rel, align 8, !dbg !2310
  store i64 %5, ptr %_0, align 8, !dbg !2310
  br label %bb1, !dbg !2310

bb3:                                              ; preds = %start
  %6 = atomicrmw sub ptr %self, i64 %val seq_cst, align 8, !dbg !2311
  store i64 %6, ptr %_0, align 8, !dbg !2311
  br label %bb1, !dbg !2311

bb1:                                              ; preds = %bb3, %bb7, %bb5, %bb6, %bb4
  %7 = load i64, ptr %_0, align 8, !dbg !2312, !noundef !16
  ret i64 %7, !dbg !2312
}

; core::sync::atomic::atomic_load
; Function Attrs: inlinehint uwtable
define i64 @_ZN4core4sync6atomic11atomic_load17h0c2e021a02681bb3E(ptr %dst, i8 %0) unnamed_addr #1 !dbg !2313 {
start:
  %pieces.dbg.spill1 = alloca { ptr, i64 }, align 8
  %pieces.dbg.spill = alloca { ptr, i64 }, align 8
  %dst.dbg.spill = alloca ptr, align 8
  %_8 = alloca %"core::fmt::Arguments<'_>", align 8
  %_5 = alloca %"core::fmt::Arguments<'_>", align 8
  %_0 = alloca i64, align 8
  %order = alloca i8, align 1
  store i8 %0, ptr %order, align 1
  store ptr %dst, ptr %dst.dbg.spill, align 8
  call void @llvm.dbg.declare(metadata ptr %dst.dbg.spill, metadata !2318, metadata !DIExpression()), !dbg !2320
  call void @llvm.dbg.declare(metadata ptr %order, metadata !2319, metadata !DIExpression()), !dbg !2321
  %1 = load i8, ptr %order, align 1, !dbg !2322, !range !2270, !noundef !16
  %_3 = zext i8 %1 to i64, !dbg !2322
  switch i64 %_3, label %bb1 [
    i64 0, label %bb3
    i64 1, label %bb6
    i64 2, label %bb4
    i64 3, label %bb2
    i64 4, label %bb5
  ], !dbg !2323

bb1:                                              ; preds = %start
  unreachable, !dbg !2322

bb3:                                              ; preds = %start
  %2 = load atomic i64, ptr %dst monotonic, align 8, !dbg !2324
  store i64 %2, ptr %_0, align 8, !dbg !2324
  br label %bb7, !dbg !2324

bb6:                                              ; preds = %start
  store ptr @alloc_cf8f91dd8bc9347b20052f6ccc905cd7, ptr %pieces.dbg.spill, align 8, !dbg !2325
  %3 = getelementptr inbounds i8, ptr %pieces.dbg.spill, i64 8, !dbg !2325
  store i64 1, ptr %3, align 8, !dbg !2325
  call void @llvm.dbg.declare(metadata ptr %pieces.dbg.spill, metadata !2326, metadata !DIExpression()), !dbg !2332
  store ptr @alloc_cf8f91dd8bc9347b20052f6ccc905cd7, ptr %_5, align 8, !dbg !2335
  %4 = getelementptr inbounds i8, ptr %_5, i64 8, !dbg !2335
  store i64 1, ptr %4, align 8, !dbg !2335
  %5 = load ptr, ptr @0, align 8, !dbg !2335, !align !527, !noundef !16
  %6 = load i64, ptr getelementptr inbounds (i8, ptr @0, i64 8), align 8, !dbg !2335
  %7 = getelementptr inbounds i8, ptr %_5, i64 32, !dbg !2335
  store ptr %5, ptr %7, align 8, !dbg !2335
  %8 = getelementptr inbounds i8, ptr %7, i64 8, !dbg !2335
  store i64 %6, ptr %8, align 8, !dbg !2335
  %9 = getelementptr inbounds i8, ptr %_5, i64 16, !dbg !2335
  store ptr @alloc_513570631223a12912d85da2bec3b15a, ptr %9, align 8, !dbg !2335
  %10 = getelementptr inbounds i8, ptr %9, i64 8, !dbg !2335
  store i64 0, ptr %10, align 8, !dbg !2335
; call core::panicking::panic_fmt
  call void @_ZN4core9panicking9panic_fmt17ha6d62ade15192290E(ptr align 8 %_5, ptr align 8 @alloc_8c9cdb58c2f0a4545f7cc326c35c8372) #22, !dbg !2336
  unreachable, !dbg !2336

bb4:                                              ; preds = %start
  %11 = load atomic i64, ptr %dst acquire, align 8, !dbg !2337
  store i64 %11, ptr %_0, align 8, !dbg !2337
  br label %bb7, !dbg !2337

bb2:                                              ; preds = %start
  store ptr @alloc_7e8e9a1d4bc7d0bbec692f0a50681e22, ptr %pieces.dbg.spill1, align 8, !dbg !2338
  %12 = getelementptr inbounds i8, ptr %pieces.dbg.spill1, i64 8, !dbg !2338
  store i64 1, ptr %12, align 8, !dbg !2338
  call void @llvm.dbg.declare(metadata ptr %pieces.dbg.spill1, metadata !2330, metadata !DIExpression()), !dbg !2339
  store ptr @alloc_7e8e9a1d4bc7d0bbec692f0a50681e22, ptr %_8, align 8, !dbg !2340
  %13 = getelementptr inbounds i8, ptr %_8, i64 8, !dbg !2340
  store i64 1, ptr %13, align 8, !dbg !2340
  %14 = load ptr, ptr @0, align 8, !dbg !2340, !align !527, !noundef !16
  %15 = load i64, ptr getelementptr inbounds (i8, ptr @0, i64 8), align 8, !dbg !2340
  %16 = getelementptr inbounds i8, ptr %_8, i64 32, !dbg !2340
  store ptr %14, ptr %16, align 8, !dbg !2340
  %17 = getelementptr inbounds i8, ptr %16, i64 8, !dbg !2340
  store i64 %15, ptr %17, align 8, !dbg !2340
  %18 = getelementptr inbounds i8, ptr %_8, i64 16, !dbg !2340
  store ptr @alloc_513570631223a12912d85da2bec3b15a, ptr %18, align 8, !dbg !2340
  %19 = getelementptr inbounds i8, ptr %18, i64 8, !dbg !2340
  store i64 0, ptr %19, align 8, !dbg !2340
; call core::panicking::panic_fmt
  call void @_ZN4core9panicking9panic_fmt17ha6d62ade15192290E(ptr align 8 %_8, ptr align 8 @alloc_79a5c80227634b987971a232b8e75faa) #22, !dbg !2341
  unreachable, !dbg !2341

bb5:                                              ; preds = %start
  %20 = load atomic i64, ptr %dst seq_cst, align 8, !dbg !2342
  store i64 %20, ptr %_0, align 8, !dbg !2342
  br label %bb7, !dbg !2342

bb7:                                              ; preds = %bb5, %bb4, %bb3
  %21 = load i64, ptr %_0, align 8, !dbg !2343, !noundef !16
  ret i64 %21, !dbg !2343
}

; core::sync::atomic::atomic_load
; Function Attrs: inlinehint uwtable
define ptr @_ZN4core4sync6atomic11atomic_load17ha5c37a53ad6704cbE(ptr %dst, i8 %0) unnamed_addr #1 !dbg !2344 {
start:
  %pieces.dbg.spill1 = alloca { ptr, i64 }, align 8
  %pieces.dbg.spill = alloca { ptr, i64 }, align 8
  %dst.dbg.spill = alloca ptr, align 8
  %_8 = alloca %"core::fmt::Arguments<'_>", align 8
  %_5 = alloca %"core::fmt::Arguments<'_>", align 8
  %_0 = alloca ptr, align 8
  %order = alloca i8, align 1
  store i8 %0, ptr %order, align 1
  store ptr %dst, ptr %dst.dbg.spill, align 8
  call void @llvm.dbg.declare(metadata ptr %dst.dbg.spill, metadata !2349, metadata !DIExpression()), !dbg !2351
  call void @llvm.dbg.declare(metadata ptr %order, metadata !2350, metadata !DIExpression()), !dbg !2352
  %1 = load i8, ptr %order, align 1, !dbg !2353, !range !2270, !noundef !16
  %_3 = zext i8 %1 to i64, !dbg !2353
  switch i64 %_3, label %bb1 [
    i64 0, label %bb3
    i64 1, label %bb6
    i64 2, label %bb4
    i64 3, label %bb2
    i64 4, label %bb5
  ], !dbg !2354

bb1:                                              ; preds = %start
  unreachable, !dbg !2353

bb3:                                              ; preds = %start
  %2 = load atomic i64, ptr %dst monotonic, align 8, !dbg !2355
  %3 = inttoptr i64 %2 to ptr, !dbg !2355
  store ptr %3, ptr %_0, align 8, !dbg !2355
  br label %bb7, !dbg !2355

bb6:                                              ; preds = %start
  store ptr @alloc_cf8f91dd8bc9347b20052f6ccc905cd7, ptr %pieces.dbg.spill, align 8, !dbg !2356
  %4 = getelementptr inbounds i8, ptr %pieces.dbg.spill, i64 8, !dbg !2356
  store i64 1, ptr %4, align 8, !dbg !2356
  call void @llvm.dbg.declare(metadata ptr %pieces.dbg.spill, metadata !2357, metadata !DIExpression()), !dbg !2363
  store ptr @alloc_cf8f91dd8bc9347b20052f6ccc905cd7, ptr %_5, align 8, !dbg !2366
  %5 = getelementptr inbounds i8, ptr %_5, i64 8, !dbg !2366
  store i64 1, ptr %5, align 8, !dbg !2366
  %6 = load ptr, ptr @0, align 8, !dbg !2366, !align !527, !noundef !16
  %7 = load i64, ptr getelementptr inbounds (i8, ptr @0, i64 8), align 8, !dbg !2366
  %8 = getelementptr inbounds i8, ptr %_5, i64 32, !dbg !2366
  store ptr %6, ptr %8, align 8, !dbg !2366
  %9 = getelementptr inbounds i8, ptr %8, i64 8, !dbg !2366
  store i64 %7, ptr %9, align 8, !dbg !2366
  %10 = getelementptr inbounds i8, ptr %_5, i64 16, !dbg !2366
  store ptr @alloc_513570631223a12912d85da2bec3b15a, ptr %10, align 8, !dbg !2366
  %11 = getelementptr inbounds i8, ptr %10, i64 8, !dbg !2366
  store i64 0, ptr %11, align 8, !dbg !2366
; call core::panicking::panic_fmt
  call void @_ZN4core9panicking9panic_fmt17ha6d62ade15192290E(ptr align 8 %_5, ptr align 8 @alloc_8c9cdb58c2f0a4545f7cc326c35c8372) #22, !dbg !2367
  unreachable, !dbg !2367

bb4:                                              ; preds = %start
  %12 = load atomic i64, ptr %dst acquire, align 8, !dbg !2368
  %13 = inttoptr i64 %12 to ptr, !dbg !2368
  store ptr %13, ptr %_0, align 8, !dbg !2368
  br label %bb7, !dbg !2368

bb2:                                              ; preds = %start
  store ptr @alloc_7e8e9a1d4bc7d0bbec692f0a50681e22, ptr %pieces.dbg.spill1, align 8, !dbg !2369
  %14 = getelementptr inbounds i8, ptr %pieces.dbg.spill1, i64 8, !dbg !2369
  store i64 1, ptr %14, align 8, !dbg !2369
  call void @llvm.dbg.declare(metadata ptr %pieces.dbg.spill1, metadata !2361, metadata !DIExpression()), !dbg !2370
  store ptr @alloc_7e8e9a1d4bc7d0bbec692f0a50681e22, ptr %_8, align 8, !dbg !2371
  %15 = getelementptr inbounds i8, ptr %_8, i64 8, !dbg !2371
  store i64 1, ptr %15, align 8, !dbg !2371
  %16 = load ptr, ptr @0, align 8, !dbg !2371, !align !527, !noundef !16
  %17 = load i64, ptr getelementptr inbounds (i8, ptr @0, i64 8), align 8, !dbg !2371
  %18 = getelementptr inbounds i8, ptr %_8, i64 32, !dbg !2371
  store ptr %16, ptr %18, align 8, !dbg !2371
  %19 = getelementptr inbounds i8, ptr %18, i64 8, !dbg !2371
  store i64 %17, ptr %19, align 8, !dbg !2371
  %20 = getelementptr inbounds i8, ptr %_8, i64 16, !dbg !2371
  store ptr @alloc_513570631223a12912d85da2bec3b15a, ptr %20, align 8, !dbg !2371
  %21 = getelementptr inbounds i8, ptr %20, i64 8, !dbg !2371
  store i64 0, ptr %21, align 8, !dbg !2371
; call core::panicking::panic_fmt
  call void @_ZN4core9panicking9panic_fmt17ha6d62ade15192290E(ptr align 8 %_8, ptr align 8 @alloc_79a5c80227634b987971a232b8e75faa) #22, !dbg !2372
  unreachable, !dbg !2372

bb5:                                              ; preds = %start
  %22 = load atomic i64, ptr %dst seq_cst, align 8, !dbg !2373
  %23 = inttoptr i64 %22 to ptr, !dbg !2373
  store ptr %23, ptr %_0, align 8, !dbg !2373
  br label %bb7, !dbg !2373

bb7:                                              ; preds = %bb5, %bb4, %bb3
  %24 = load ptr, ptr %_0, align 8, !dbg !2374, !noundef !16
  ret ptr %24, !dbg !2374
}

; core::sync::atomic::AtomicPtr<T>::compare_exchange
; Function Attrs: inlinehint uwtable
define { i64, ptr } @"_ZN4core4sync6atomic18AtomicPtr$LT$T$GT$16compare_exchange17h7baccd79737c8367E"(ptr align 8 %self, ptr %current, ptr %new, i8 %success, i8 %failure) unnamed_addr #1 !dbg !2375 {
start:
  %self.dbg.spill1 = alloca ptr, align 8
  %failure.dbg.spill = alloca i8, align 1
  %success.dbg.spill = alloca i8, align 1
  %new.dbg.spill = alloca ptr, align 8
  %current.dbg.spill = alloca ptr, align 8
  %self.dbg.spill = alloca ptr, align 8
  store ptr %self, ptr %self.dbg.spill, align 8
  call void @llvm.dbg.declare(metadata ptr %self.dbg.spill, metadata !2395, metadata !DIExpression()), !dbg !2400
  store ptr %current, ptr %current.dbg.spill, align 8
  call void @llvm.dbg.declare(metadata ptr %current.dbg.spill, metadata !2396, metadata !DIExpression()), !dbg !2401
  store ptr %new, ptr %new.dbg.spill, align 8
  call void @llvm.dbg.declare(metadata ptr %new.dbg.spill, metadata !2397, metadata !DIExpression()), !dbg !2402
  store i8 %success, ptr %success.dbg.spill, align 1
  call void @llvm.dbg.declare(metadata ptr %success.dbg.spill, metadata !2398, metadata !DIExpression()), !dbg !2403
  store i8 %failure, ptr %failure.dbg.spill, align 1
  call void @llvm.dbg.declare(metadata ptr %failure.dbg.spill, metadata !2399, metadata !DIExpression()), !dbg !2404
  store ptr %self, ptr %self.dbg.spill1, align 8, !dbg !2405
  call void @llvm.dbg.declare(metadata ptr %self.dbg.spill1, metadata !2406, metadata !DIExpression()), !dbg !2415
; call core::sync::atomic::atomic_compare_exchange
  %0 = call { i64, ptr } @_ZN4core4sync6atomic23atomic_compare_exchange17hdebd443599f707fbE(ptr %self, ptr %current, ptr %new, i8 %success, i8 %failure), !dbg !2417
  %_0.0 = extractvalue { i64, ptr } %0, 0, !dbg !2417
  %_0.1 = extractvalue { i64, ptr } %0, 1, !dbg !2417
  %1 = insertvalue { i64, ptr } poison, i64 %_0.0, 0, !dbg !2418
  %2 = insertvalue { i64, ptr } %1, ptr %_0.1, 1, !dbg !2418
  ret { i64, ptr } %2, !dbg !2418
}

; core::sync::atomic::AtomicPtr<T>::new
; Function Attrs: inlinehint uwtable
define i64 @"_ZN4core4sync6atomic18AtomicPtr$LT$T$GT$3new17had2851fed45d1dc1E"(ptr %p) unnamed_addr #1 !dbg !2419 {
start:
  %p.dbg.spill = alloca ptr, align 8
  %_2 = alloca ptr, align 8
  %_0 = alloca %"core::sync::atomic::AtomicPtr<()>", align 8
  store ptr %p, ptr %p.dbg.spill, align 8
  call void @llvm.dbg.declare(metadata ptr %p.dbg.spill, metadata !2424, metadata !DIExpression()), !dbg !2425
  call void @llvm.dbg.declare(metadata ptr %p.dbg.spill, metadata !2426, metadata !DIExpression()), !dbg !2433
  store ptr %p, ptr %_2, align 8, !dbg !2435
  %0 = load ptr, ptr %_2, align 8, !dbg !2436, !noundef !16
  store ptr %0, ptr %_0, align 8, !dbg !2436
  %1 = load i64, ptr %_0, align 8, !dbg !2437
  ret i64 %1, !dbg !2437
}

; core::sync::atomic::AtomicPtr<T>::load
; Function Attrs: inlinehint uwtable
define ptr @"_ZN4core4sync6atomic18AtomicPtr$LT$T$GT$4load17ha6181f0f43e5a407E"(ptr align 8 %self, i8 %order) unnamed_addr #1 !dbg !2438 {
start:
  %self.dbg.spill1 = alloca ptr, align 8
  %order.dbg.spill = alloca i8, align 1
  %self.dbg.spill = alloca ptr, align 8
  store ptr %self, ptr %self.dbg.spill, align 8
  call void @llvm.dbg.declare(metadata ptr %self.dbg.spill, metadata !2443, metadata !DIExpression()), !dbg !2445
  store i8 %order, ptr %order.dbg.spill, align 1
  call void @llvm.dbg.declare(metadata ptr %order.dbg.spill, metadata !2444, metadata !DIExpression()), !dbg !2446
  store ptr %self, ptr %self.dbg.spill1, align 8, !dbg !2447
  call void @llvm.dbg.declare(metadata ptr %self.dbg.spill1, metadata !2448, metadata !DIExpression()), !dbg !2452
; call core::sync::atomic::atomic_load
  %_0 = call ptr @_ZN4core4sync6atomic11atomic_load17ha5c37a53ad6704cbE(ptr %self, i8 %order), !dbg !2454
  ret ptr %_0, !dbg !2455
}

; core::sync::atomic::AtomicPtr<T>::get_mut
; Function Attrs: inlinehint uwtable
define align 8 ptr @"_ZN4core4sync6atomic18AtomicPtr$LT$T$GT$7get_mut17h5e486f5c8f49d77dE"(ptr align 8 %self) unnamed_addr #1 !dbg !2456 {
start:
  %self.dbg.spill1 = alloca ptr, align 8
  %self.dbg.spill = alloca ptr, align 8
  store ptr %self, ptr %self.dbg.spill, align 8
  call void @llvm.dbg.declare(metadata ptr %self.dbg.spill, metadata !2462, metadata !DIExpression()), !dbg !2463
  store ptr %self, ptr %self.dbg.spill1, align 8, !dbg !2464
  call void @llvm.dbg.declare(metadata ptr %self.dbg.spill1, metadata !2465, metadata !DIExpression()), !dbg !2473
  ret ptr %self, !dbg !2475
}

; core::sync::atomic::atomic_compare_exchange
; Function Attrs: inlinehint uwtable
define { i64, i64 } @_ZN4core4sync6atomic23atomic_compare_exchange17h522e277fa7403062E(ptr %dst, i64 %old, i64 %new, i8 %0, i8 %1) unnamed_addr #1 !dbg !2476 {
start:
  %pieces.dbg.spill1 = alloca { ptr, i64 }, align 8
  %pieces.dbg.spill = alloca { ptr, i64 }, align 8
  %ok.dbg.spill = alloca i8, align 1
  %val.dbg.spill = alloca i64, align 8
  %new.dbg.spill = alloca i64, align 8
  %old.dbg.spill = alloca i64, align 8
  %dst.dbg.spill = alloca ptr, align 8
  %_20 = alloca %"core::fmt::Arguments<'_>", align 8
  %_17 = alloca %"core::fmt::Arguments<'_>", align 8
  %_8 = alloca { i64, i8, [7 x i8] }, align 8
  %_0 = alloca %"core::result::Result<usize, usize>", align 8
  %failure = alloca i8, align 1
  %success = alloca i8, align 1
  store i8 %0, ptr %success, align 1
  store i8 %1, ptr %failure, align 1
  store ptr %dst, ptr %dst.dbg.spill, align 8
  call void @llvm.dbg.declare(metadata ptr %dst.dbg.spill, metadata !2480, metadata !DIExpression()), !dbg !2488
  store i64 %old, ptr %old.dbg.spill, align 8
  call void @llvm.dbg.declare(metadata ptr %old.dbg.spill, metadata !2481, metadata !DIExpression()), !dbg !2489
  store i64 %new, ptr %new.dbg.spill, align 8
  call void @llvm.dbg.declare(metadata ptr %new.dbg.spill, metadata !2482, metadata !DIExpression()), !dbg !2490
  call void @llvm.dbg.declare(metadata ptr %success, metadata !2483, metadata !DIExpression()), !dbg !2491
  call void @llvm.dbg.declare(metadata ptr %failure, metadata !2484, metadata !DIExpression()), !dbg !2492
  %2 = load i8, ptr %success, align 1, !dbg !2493, !range !2270, !noundef !16
  %_15 = zext i8 %2 to i64, !dbg !2493
  switch i64 %_15, label %bb1 [
    i64 0, label %bb4
    i64 1, label %bb5
    i64 2, label %bb6
    i64 3, label %bb7
    i64 4, label %bb8
  ], !dbg !2494

bb1:                                              ; preds = %start
  unreachable, !dbg !2493

bb4:                                              ; preds = %start
  %3 = load i8, ptr %failure, align 1, !dbg !2493, !range !2270, !noundef !16
  %_10 = zext i8 %3 to i64, !dbg !2493
  switch i64 %_10, label %bb2 [
    i64 0, label %bb9
    i64 2, label %bb10
    i64 4, label %bb11
  ], !dbg !2494

bb5:                                              ; preds = %start
  %4 = load i8, ptr %failure, align 1, !dbg !2493, !range !2270, !noundef !16
  %_11 = zext i8 %4 to i64, !dbg !2493
  switch i64 %_11, label %bb2 [
    i64 0, label %bb15
    i64 2, label %bb16
    i64 4, label %bb17
  ], !dbg !2494

bb6:                                              ; preds = %start
  %5 = load i8, ptr %failure, align 1, !dbg !2493, !range !2270, !noundef !16
  %_12 = zext i8 %5 to i64, !dbg !2493
  switch i64 %_12, label %bb2 [
    i64 0, label %bb12
    i64 2, label %bb13
    i64 4, label %bb14
  ], !dbg !2494

bb7:                                              ; preds = %start
  %6 = load i8, ptr %failure, align 1, !dbg !2493, !range !2270, !noundef !16
  %_13 = zext i8 %6 to i64, !dbg !2493
  switch i64 %_13, label %bb2 [
    i64 0, label %bb18
    i64 2, label %bb19
    i64 4, label %bb20
  ], !dbg !2494

bb8:                                              ; preds = %start
  %7 = load i8, ptr %failure, align 1, !dbg !2493, !range !2270, !noundef !16
  %_14 = zext i8 %7 to i64, !dbg !2493
  switch i64 %_14, label %bb2 [
    i64 0, label %bb21
    i64 2, label %bb22
    i64 4, label %bb23
  ], !dbg !2494

bb2:                                              ; preds = %bb8, %bb7, %bb6, %bb5, %bb4
  %8 = load i8, ptr %failure, align 1, !dbg !2493, !range !2270, !noundef !16
  %_9 = zext i8 %8 to i64, !dbg !2493
  %9 = icmp eq i64 %_9, 1, !dbg !2494
  br i1 %9, label %bb3, label %bb24, !dbg !2494

bb9:                                              ; preds = %bb4
  %10 = cmpxchg ptr %dst, i64 %old, i64 %new monotonic monotonic, align 8, !dbg !2495
  %11 = extractvalue { i64, i1 } %10, 0, !dbg !2495
  %12 = extractvalue { i64, i1 } %10, 1, !dbg !2495
  %13 = zext i1 %12 to i8, !dbg !2495
  store i64 %11, ptr %_8, align 8, !dbg !2495
  %14 = getelementptr inbounds i8, ptr %_8, i64 8, !dbg !2495
  store i8 %13, ptr %14, align 8, !dbg !2495
  br label %bb25, !dbg !2495

bb10:                                             ; preds = %bb4
  %15 = cmpxchg ptr %dst, i64 %old, i64 %new monotonic acquire, align 8, !dbg !2496
  %16 = extractvalue { i64, i1 } %15, 0, !dbg !2496
  %17 = extractvalue { i64, i1 } %15, 1, !dbg !2496
  %18 = zext i1 %17 to i8, !dbg !2496
  store i64 %16, ptr %_8, align 8, !dbg !2496
  %19 = getelementptr inbounds i8, ptr %_8, i64 8, !dbg !2496
  store i8 %18, ptr %19, align 8, !dbg !2496
  br label %bb25, !dbg !2496

bb11:                                             ; preds = %bb4
  %20 = cmpxchg ptr %dst, i64 %old, i64 %new monotonic seq_cst, align 8, !dbg !2497
  %21 = extractvalue { i64, i1 } %20, 0, !dbg !2497
  %22 = extractvalue { i64, i1 } %20, 1, !dbg !2497
  %23 = zext i1 %22 to i8, !dbg !2497
  store i64 %21, ptr %_8, align 8, !dbg !2497
  %24 = getelementptr inbounds i8, ptr %_8, i64 8, !dbg !2497
  store i8 %23, ptr %24, align 8, !dbg !2497
  br label %bb25, !dbg !2497

bb25:                                             ; preds = %bb23, %bb22, %bb21, %bb20, %bb19, %bb18, %bb14, %bb13, %bb12, %bb17, %bb16, %bb15, %bb11, %bb10, %bb9
  %val = load i64, ptr %_8, align 8, !dbg !2498, !noundef !16
  store i64 %val, ptr %val.dbg.spill, align 8, !dbg !2498
  call void @llvm.dbg.declare(metadata ptr %val.dbg.spill, metadata !2485, metadata !DIExpression()), !dbg !2499
  %25 = getelementptr inbounds i8, ptr %_8, i64 8, !dbg !2500
  %26 = load i8, ptr %25, align 8, !dbg !2500, !range !462, !noundef !16
  %ok = trunc i8 %26 to i1, !dbg !2500
  %27 = zext i1 %ok to i8, !dbg !2500
  store i8 %27, ptr %ok.dbg.spill, align 1, !dbg !2500
  call void @llvm.dbg.declare(metadata ptr %ok.dbg.spill, metadata !2487, metadata !DIExpression()), !dbg !2501
  br i1 %ok, label %bb26, label %bb27, !dbg !2502

bb15:                                             ; preds = %bb5
  %28 = cmpxchg ptr %dst, i64 %old, i64 %new release monotonic, align 8, !dbg !2503
  %29 = extractvalue { i64, i1 } %28, 0, !dbg !2503
  %30 = extractvalue { i64, i1 } %28, 1, !dbg !2503
  %31 = zext i1 %30 to i8, !dbg !2503
  store i64 %29, ptr %_8, align 8, !dbg !2503
  %32 = getelementptr inbounds i8, ptr %_8, i64 8, !dbg !2503
  store i8 %31, ptr %32, align 8, !dbg !2503
  br label %bb25, !dbg !2503

bb16:                                             ; preds = %bb5
  %33 = cmpxchg ptr %dst, i64 %old, i64 %new release acquire, align 8, !dbg !2504
  %34 = extractvalue { i64, i1 } %33, 0, !dbg !2504
  %35 = extractvalue { i64, i1 } %33, 1, !dbg !2504
  %36 = zext i1 %35 to i8, !dbg !2504
  store i64 %34, ptr %_8, align 8, !dbg !2504
  %37 = getelementptr inbounds i8, ptr %_8, i64 8, !dbg !2504
  store i8 %36, ptr %37, align 8, !dbg !2504
  br label %bb25, !dbg !2504

bb17:                                             ; preds = %bb5
  %38 = cmpxchg ptr %dst, i64 %old, i64 %new release seq_cst, align 8, !dbg !2505
  %39 = extractvalue { i64, i1 } %38, 0, !dbg !2505
  %40 = extractvalue { i64, i1 } %38, 1, !dbg !2505
  %41 = zext i1 %40 to i8, !dbg !2505
  store i64 %39, ptr %_8, align 8, !dbg !2505
  %42 = getelementptr inbounds i8, ptr %_8, i64 8, !dbg !2505
  store i8 %41, ptr %42, align 8, !dbg !2505
  br label %bb25, !dbg !2505

bb12:                                             ; preds = %bb6
  %43 = cmpxchg ptr %dst, i64 %old, i64 %new acquire monotonic, align 8, !dbg !2506
  %44 = extractvalue { i64, i1 } %43, 0, !dbg !2506
  %45 = extractvalue { i64, i1 } %43, 1, !dbg !2506
  %46 = zext i1 %45 to i8, !dbg !2506
  store i64 %44, ptr %_8, align 8, !dbg !2506
  %47 = getelementptr inbounds i8, ptr %_8, i64 8, !dbg !2506
  store i8 %46, ptr %47, align 8, !dbg !2506
  br label %bb25, !dbg !2506

bb13:                                             ; preds = %bb6
  %48 = cmpxchg ptr %dst, i64 %old, i64 %new acquire acquire, align 8, !dbg !2507
  %49 = extractvalue { i64, i1 } %48, 0, !dbg !2507
  %50 = extractvalue { i64, i1 } %48, 1, !dbg !2507
  %51 = zext i1 %50 to i8, !dbg !2507
  store i64 %49, ptr %_8, align 8, !dbg !2507
  %52 = getelementptr inbounds i8, ptr %_8, i64 8, !dbg !2507
  store i8 %51, ptr %52, align 8, !dbg !2507
  br label %bb25, !dbg !2507

bb14:                                             ; preds = %bb6
  %53 = cmpxchg ptr %dst, i64 %old, i64 %new acquire seq_cst, align 8, !dbg !2508
  %54 = extractvalue { i64, i1 } %53, 0, !dbg !2508
  %55 = extractvalue { i64, i1 } %53, 1, !dbg !2508
  %56 = zext i1 %55 to i8, !dbg !2508
  store i64 %54, ptr %_8, align 8, !dbg !2508
  %57 = getelementptr inbounds i8, ptr %_8, i64 8, !dbg !2508
  store i8 %56, ptr %57, align 8, !dbg !2508
  br label %bb25, !dbg !2508

bb18:                                             ; preds = %bb7
  %58 = cmpxchg ptr %dst, i64 %old, i64 %new acq_rel monotonic, align 8, !dbg !2509
  %59 = extractvalue { i64, i1 } %58, 0, !dbg !2509
  %60 = extractvalue { i64, i1 } %58, 1, !dbg !2509
  %61 = zext i1 %60 to i8, !dbg !2509
  store i64 %59, ptr %_8, align 8, !dbg !2509
  %62 = getelementptr inbounds i8, ptr %_8, i64 8, !dbg !2509
  store i8 %61, ptr %62, align 8, !dbg !2509
  br label %bb25, !dbg !2509

bb19:                                             ; preds = %bb7
  %63 = cmpxchg ptr %dst, i64 %old, i64 %new acq_rel acquire, align 8, !dbg !2510
  %64 = extractvalue { i64, i1 } %63, 0, !dbg !2510
  %65 = extractvalue { i64, i1 } %63, 1, !dbg !2510
  %66 = zext i1 %65 to i8, !dbg !2510
  store i64 %64, ptr %_8, align 8, !dbg !2510
  %67 = getelementptr inbounds i8, ptr %_8, i64 8, !dbg !2510
  store i8 %66, ptr %67, align 8, !dbg !2510
  br label %bb25, !dbg !2510

bb20:                                             ; preds = %bb7
  %68 = cmpxchg ptr %dst, i64 %old, i64 %new acq_rel seq_cst, align 8, !dbg !2511
  %69 = extractvalue { i64, i1 } %68, 0, !dbg !2511
  %70 = extractvalue { i64, i1 } %68, 1, !dbg !2511
  %71 = zext i1 %70 to i8, !dbg !2511
  store i64 %69, ptr %_8, align 8, !dbg !2511
  %72 = getelementptr inbounds i8, ptr %_8, i64 8, !dbg !2511
  store i8 %71, ptr %72, align 8, !dbg !2511
  br label %bb25, !dbg !2511

bb21:                                             ; preds = %bb8
  %73 = cmpxchg ptr %dst, i64 %old, i64 %new seq_cst monotonic, align 8, !dbg !2512
  %74 = extractvalue { i64, i1 } %73, 0, !dbg !2512
  %75 = extractvalue { i64, i1 } %73, 1, !dbg !2512
  %76 = zext i1 %75 to i8, !dbg !2512
  store i64 %74, ptr %_8, align 8, !dbg !2512
  %77 = getelementptr inbounds i8, ptr %_8, i64 8, !dbg !2512
  store i8 %76, ptr %77, align 8, !dbg !2512
  br label %bb25, !dbg !2512

bb22:                                             ; preds = %bb8
  %78 = cmpxchg ptr %dst, i64 %old, i64 %new seq_cst acquire, align 8, !dbg !2513
  %79 = extractvalue { i64, i1 } %78, 0, !dbg !2513
  %80 = extractvalue { i64, i1 } %78, 1, !dbg !2513
  %81 = zext i1 %80 to i8, !dbg !2513
  store i64 %79, ptr %_8, align 8, !dbg !2513
  %82 = getelementptr inbounds i8, ptr %_8, i64 8, !dbg !2513
  store i8 %81, ptr %82, align 8, !dbg !2513
  br label %bb25, !dbg !2513

bb23:                                             ; preds = %bb8
  %83 = cmpxchg ptr %dst, i64 %old, i64 %new seq_cst seq_cst, align 8, !dbg !2514
  %84 = extractvalue { i64, i1 } %83, 0, !dbg !2514
  %85 = extractvalue { i64, i1 } %83, 1, !dbg !2514
  %86 = zext i1 %85 to i8, !dbg !2514
  store i64 %84, ptr %_8, align 8, !dbg !2514
  %87 = getelementptr inbounds i8, ptr %_8, i64 8, !dbg !2514
  store i8 %86, ptr %87, align 8, !dbg !2514
  br label %bb25, !dbg !2514

bb27:                                             ; preds = %bb25
  %88 = getelementptr inbounds i8, ptr %_0, i64 8, !dbg !2515
  store i64 %val, ptr %88, align 8, !dbg !2515
  store i64 1, ptr %_0, align 8, !dbg !2515
  br label %bb28, !dbg !2516

bb26:                                             ; preds = %bb25
  %89 = getelementptr inbounds i8, ptr %_0, i64 8, !dbg !2517
  store i64 %val, ptr %89, align 8, !dbg !2517
  store i64 0, ptr %_0, align 8, !dbg !2517
  br label %bb28, !dbg !2516

bb28:                                             ; preds = %bb26, %bb27
  %90 = load i64, ptr %_0, align 8, !dbg !2518, !range !1554, !noundef !16
  %91 = getelementptr inbounds i8, ptr %_0, i64 8, !dbg !2518
  %92 = load i64, ptr %91, align 8, !dbg !2518, !noundef !16
  %93 = insertvalue { i64, i64 } poison, i64 %90, 0, !dbg !2518
  %94 = insertvalue { i64, i64 } %93, i64 %92, 1, !dbg !2518
  ret { i64, i64 } %94, !dbg !2518

bb3:                                              ; preds = %bb2
  store ptr @alloc_04ab601c54c6e0a22ff11d72dc7f4511, ptr %pieces.dbg.spill, align 8, !dbg !2519
  %95 = getelementptr inbounds i8, ptr %pieces.dbg.spill, i64 8, !dbg !2519
  store i64 1, ptr %95, align 8, !dbg !2519
  call void @llvm.dbg.declare(metadata ptr %pieces.dbg.spill, metadata !2520, metadata !DIExpression()), !dbg !2526
  store ptr @alloc_04ab601c54c6e0a22ff11d72dc7f4511, ptr %_20, align 8, !dbg !2529
  %96 = getelementptr inbounds i8, ptr %_20, i64 8, !dbg !2529
  store i64 1, ptr %96, align 8, !dbg !2529
  %97 = load ptr, ptr @0, align 8, !dbg !2529, !align !527, !noundef !16
  %98 = load i64, ptr getelementptr inbounds (i8, ptr @0, i64 8), align 8, !dbg !2529
  %99 = getelementptr inbounds i8, ptr %_20, i64 32, !dbg !2529
  store ptr %97, ptr %99, align 8, !dbg !2529
  %100 = getelementptr inbounds i8, ptr %99, i64 8, !dbg !2529
  store i64 %98, ptr %100, align 8, !dbg !2529
  %101 = getelementptr inbounds i8, ptr %_20, i64 16, !dbg !2529
  store ptr @alloc_513570631223a12912d85da2bec3b15a, ptr %101, align 8, !dbg !2529
  %102 = getelementptr inbounds i8, ptr %101, i64 8, !dbg !2529
  store i64 0, ptr %102, align 8, !dbg !2529
; call core::panicking::panic_fmt
  call void @_ZN4core9panicking9panic_fmt17ha6d62ade15192290E(ptr align 8 %_20, ptr align 8 @alloc_19270ecf540b1a1f8c2c2e2f9f23d498) #22, !dbg !2530
  unreachable, !dbg !2530

bb24:                                             ; preds = %bb2
  store ptr @alloc_dd7d8f77c173bf31726eae321f955bec, ptr %pieces.dbg.spill1, align 8, !dbg !2531
  %103 = getelementptr inbounds i8, ptr %pieces.dbg.spill1, i64 8, !dbg !2531
  store i64 1, ptr %103, align 8, !dbg !2531
  call void @llvm.dbg.declare(metadata ptr %pieces.dbg.spill1, metadata !2524, metadata !DIExpression()), !dbg !2532
  store ptr @alloc_dd7d8f77c173bf31726eae321f955bec, ptr %_17, align 8, !dbg !2533
  %104 = getelementptr inbounds i8, ptr %_17, i64 8, !dbg !2533
  store i64 1, ptr %104, align 8, !dbg !2533
  %105 = load ptr, ptr @0, align 8, !dbg !2533, !align !527, !noundef !16
  %106 = load i64, ptr getelementptr inbounds (i8, ptr @0, i64 8), align 8, !dbg !2533
  %107 = getelementptr inbounds i8, ptr %_17, i64 32, !dbg !2533
  store ptr %105, ptr %107, align 8, !dbg !2533
  %108 = getelementptr inbounds i8, ptr %107, i64 8, !dbg !2533
  store i64 %106, ptr %108, align 8, !dbg !2533
  %109 = getelementptr inbounds i8, ptr %_17, i64 16, !dbg !2533
  store ptr @alloc_513570631223a12912d85da2bec3b15a, ptr %109, align 8, !dbg !2533
  %110 = getelementptr inbounds i8, ptr %109, i64 8, !dbg !2533
  store i64 0, ptr %110, align 8, !dbg !2533
; call core::panicking::panic_fmt
  call void @_ZN4core9panicking9panic_fmt17ha6d62ade15192290E(ptr align 8 %_17, ptr align 8 @alloc_4d14c61bfb4767046945de79e7109737) #22, !dbg !2534
  unreachable, !dbg !2534
}

; core::sync::atomic::atomic_compare_exchange
; Function Attrs: inlinehint uwtable
define { i64, ptr } @_ZN4core4sync6atomic23atomic_compare_exchange17hdebd443599f707fbE(ptr %dst, ptr %old, ptr %new, i8 %0, i8 %1) unnamed_addr #1 !dbg !2535 {
start:
  %pieces.dbg.spill1 = alloca { ptr, i64 }, align 8
  %pieces.dbg.spill = alloca { ptr, i64 }, align 8
  %ok.dbg.spill = alloca i8, align 1
  %val.dbg.spill = alloca ptr, align 8
  %new.dbg.spill = alloca ptr, align 8
  %old.dbg.spill = alloca ptr, align 8
  %dst.dbg.spill = alloca ptr, align 8
  %_20 = alloca %"core::fmt::Arguments<'_>", align 8
  %_17 = alloca %"core::fmt::Arguments<'_>", align 8
  %_8 = alloca { ptr, i8, [7 x i8] }, align 8
  %_0 = alloca %"core::result::Result<*mut (), *mut ()>", align 8
  %failure = alloca i8, align 1
  %success = alloca i8, align 1
  store i8 %0, ptr %success, align 1
  store i8 %1, ptr %failure, align 1
  store ptr %dst, ptr %dst.dbg.spill, align 8
  call void @llvm.dbg.declare(metadata ptr %dst.dbg.spill, metadata !2539, metadata !DIExpression()), !dbg !2547
  store ptr %old, ptr %old.dbg.spill, align 8
  call void @llvm.dbg.declare(metadata ptr %old.dbg.spill, metadata !2540, metadata !DIExpression()), !dbg !2548
  store ptr %new, ptr %new.dbg.spill, align 8
  call void @llvm.dbg.declare(metadata ptr %new.dbg.spill, metadata !2541, metadata !DIExpression()), !dbg !2549
  call void @llvm.dbg.declare(metadata ptr %success, metadata !2542, metadata !DIExpression()), !dbg !2550
  call void @llvm.dbg.declare(metadata ptr %failure, metadata !2543, metadata !DIExpression()), !dbg !2551
  %2 = load i8, ptr %success, align 1, !dbg !2552, !range !2270, !noundef !16
  %_15 = zext i8 %2 to i64, !dbg !2552
  switch i64 %_15, label %bb1 [
    i64 0, label %bb4
    i64 1, label %bb5
    i64 2, label %bb6
    i64 3, label %bb7
    i64 4, label %bb8
  ], !dbg !2553

bb1:                                              ; preds = %start
  unreachable, !dbg !2552

bb4:                                              ; preds = %start
  %3 = load i8, ptr %failure, align 1, !dbg !2552, !range !2270, !noundef !16
  %_10 = zext i8 %3 to i64, !dbg !2552
  switch i64 %_10, label %bb2 [
    i64 0, label %bb9
    i64 2, label %bb10
    i64 4, label %bb11
  ], !dbg !2553

bb5:                                              ; preds = %start
  %4 = load i8, ptr %failure, align 1, !dbg !2552, !range !2270, !noundef !16
  %_11 = zext i8 %4 to i64, !dbg !2552
  switch i64 %_11, label %bb2 [
    i64 0, label %bb15
    i64 2, label %bb16
    i64 4, label %bb17
  ], !dbg !2553

bb6:                                              ; preds = %start
  %5 = load i8, ptr %failure, align 1, !dbg !2552, !range !2270, !noundef !16
  %_12 = zext i8 %5 to i64, !dbg !2552
  switch i64 %_12, label %bb2 [
    i64 0, label %bb12
    i64 2, label %bb13
    i64 4, label %bb14
  ], !dbg !2553

bb7:                                              ; preds = %start
  %6 = load i8, ptr %failure, align 1, !dbg !2552, !range !2270, !noundef !16
  %_13 = zext i8 %6 to i64, !dbg !2552
  switch i64 %_13, label %bb2 [
    i64 0, label %bb18
    i64 2, label %bb19
    i64 4, label %bb20
  ], !dbg !2553

bb8:                                              ; preds = %start
  %7 = load i8, ptr %failure, align 1, !dbg !2552, !range !2270, !noundef !16
  %_14 = zext i8 %7 to i64, !dbg !2552
  switch i64 %_14, label %bb2 [
    i64 0, label %bb21
    i64 2, label %bb22
    i64 4, label %bb23
  ], !dbg !2553

bb2:                                              ; preds = %bb8, %bb7, %bb6, %bb5, %bb4
  %8 = load i8, ptr %failure, align 1, !dbg !2552, !range !2270, !noundef !16
  %_9 = zext i8 %8 to i64, !dbg !2552
  %9 = icmp eq i64 %_9, 1, !dbg !2553
  br i1 %9, label %bb3, label %bb24, !dbg !2553

bb9:                                              ; preds = %bb4
  %10 = ptrtoint ptr %old to i64, !dbg !2554
  %11 = ptrtoint ptr %new to i64, !dbg !2554
  %12 = cmpxchg ptr %dst, i64 %10, i64 %11 monotonic monotonic, align 8, !dbg !2554
  %13 = extractvalue { i64, i1 } %12, 0, !dbg !2554
  %14 = extractvalue { i64, i1 } %12, 1, !dbg !2554
  %15 = zext i1 %14 to i8, !dbg !2554
  store i64 %13, ptr %_8, align 8, !dbg !2554
  %16 = getelementptr inbounds i8, ptr %_8, i64 8, !dbg !2554
  store i8 %15, ptr %16, align 8, !dbg !2554
  br label %bb25, !dbg !2554

bb10:                                             ; preds = %bb4
  %17 = ptrtoint ptr %old to i64, !dbg !2555
  %18 = ptrtoint ptr %new to i64, !dbg !2555
  %19 = cmpxchg ptr %dst, i64 %17, i64 %18 monotonic acquire, align 8, !dbg !2555
  %20 = extractvalue { i64, i1 } %19, 0, !dbg !2555
  %21 = extractvalue { i64, i1 } %19, 1, !dbg !2555
  %22 = zext i1 %21 to i8, !dbg !2555
  store i64 %20, ptr %_8, align 8, !dbg !2555
  %23 = getelementptr inbounds i8, ptr %_8, i64 8, !dbg !2555
  store i8 %22, ptr %23, align 8, !dbg !2555
  br label %bb25, !dbg !2555

bb11:                                             ; preds = %bb4
  %24 = ptrtoint ptr %old to i64, !dbg !2556
  %25 = ptrtoint ptr %new to i64, !dbg !2556
  %26 = cmpxchg ptr %dst, i64 %24, i64 %25 monotonic seq_cst, align 8, !dbg !2556
  %27 = extractvalue { i64, i1 } %26, 0, !dbg !2556
  %28 = extractvalue { i64, i1 } %26, 1, !dbg !2556
  %29 = zext i1 %28 to i8, !dbg !2556
  store i64 %27, ptr %_8, align 8, !dbg !2556
  %30 = getelementptr inbounds i8, ptr %_8, i64 8, !dbg !2556
  store i8 %29, ptr %30, align 8, !dbg !2556
  br label %bb25, !dbg !2556

bb25:                                             ; preds = %bb23, %bb22, %bb21, %bb20, %bb19, %bb18, %bb14, %bb13, %bb12, %bb17, %bb16, %bb15, %bb11, %bb10, %bb9
  %val = load ptr, ptr %_8, align 8, !dbg !2557, !noundef !16
  store ptr %val, ptr %val.dbg.spill, align 8, !dbg !2557
  call void @llvm.dbg.declare(metadata ptr %val.dbg.spill, metadata !2544, metadata !DIExpression()), !dbg !2558
  %31 = getelementptr inbounds i8, ptr %_8, i64 8, !dbg !2559
  %32 = load i8, ptr %31, align 8, !dbg !2559, !range !462, !noundef !16
  %ok = trunc i8 %32 to i1, !dbg !2559
  %33 = zext i1 %ok to i8, !dbg !2559
  store i8 %33, ptr %ok.dbg.spill, align 1, !dbg !2559
  call void @llvm.dbg.declare(metadata ptr %ok.dbg.spill, metadata !2546, metadata !DIExpression()), !dbg !2560
  br i1 %ok, label %bb26, label %bb27, !dbg !2561

bb15:                                             ; preds = %bb5
  %34 = ptrtoint ptr %old to i64, !dbg !2562
  %35 = ptrtoint ptr %new to i64, !dbg !2562
  %36 = cmpxchg ptr %dst, i64 %34, i64 %35 release monotonic, align 8, !dbg !2562
  %37 = extractvalue { i64, i1 } %36, 0, !dbg !2562
  %38 = extractvalue { i64, i1 } %36, 1, !dbg !2562
  %39 = zext i1 %38 to i8, !dbg !2562
  store i64 %37, ptr %_8, align 8, !dbg !2562
  %40 = getelementptr inbounds i8, ptr %_8, i64 8, !dbg !2562
  store i8 %39, ptr %40, align 8, !dbg !2562
  br label %bb25, !dbg !2562

bb16:                                             ; preds = %bb5
  %41 = ptrtoint ptr %old to i64, !dbg !2563
  %42 = ptrtoint ptr %new to i64, !dbg !2563
  %43 = cmpxchg ptr %dst, i64 %41, i64 %42 release acquire, align 8, !dbg !2563
  %44 = extractvalue { i64, i1 } %43, 0, !dbg !2563
  %45 = extractvalue { i64, i1 } %43, 1, !dbg !2563
  %46 = zext i1 %45 to i8, !dbg !2563
  store i64 %44, ptr %_8, align 8, !dbg !2563
  %47 = getelementptr inbounds i8, ptr %_8, i64 8, !dbg !2563
  store i8 %46, ptr %47, align 8, !dbg !2563
  br label %bb25, !dbg !2563

bb17:                                             ; preds = %bb5
  %48 = ptrtoint ptr %old to i64, !dbg !2564
  %49 = ptrtoint ptr %new to i64, !dbg !2564
  %50 = cmpxchg ptr %dst, i64 %48, i64 %49 release seq_cst, align 8, !dbg !2564
  %51 = extractvalue { i64, i1 } %50, 0, !dbg !2564
  %52 = extractvalue { i64, i1 } %50, 1, !dbg !2564
  %53 = zext i1 %52 to i8, !dbg !2564
  store i64 %51, ptr %_8, align 8, !dbg !2564
  %54 = getelementptr inbounds i8, ptr %_8, i64 8, !dbg !2564
  store i8 %53, ptr %54, align 8, !dbg !2564
  br label %bb25, !dbg !2564

bb12:                                             ; preds = %bb6
  %55 = ptrtoint ptr %old to i64, !dbg !2565
  %56 = ptrtoint ptr %new to i64, !dbg !2565
  %57 = cmpxchg ptr %dst, i64 %55, i64 %56 acquire monotonic, align 8, !dbg !2565
  %58 = extractvalue { i64, i1 } %57, 0, !dbg !2565
  %59 = extractvalue { i64, i1 } %57, 1, !dbg !2565
  %60 = zext i1 %59 to i8, !dbg !2565
  store i64 %58, ptr %_8, align 8, !dbg !2565
  %61 = getelementptr inbounds i8, ptr %_8, i64 8, !dbg !2565
  store i8 %60, ptr %61, align 8, !dbg !2565
  br label %bb25, !dbg !2565

bb13:                                             ; preds = %bb6
  %62 = ptrtoint ptr %old to i64, !dbg !2566
  %63 = ptrtoint ptr %new to i64, !dbg !2566
  %64 = cmpxchg ptr %dst, i64 %62, i64 %63 acquire acquire, align 8, !dbg !2566
  %65 = extractvalue { i64, i1 } %64, 0, !dbg !2566
  %66 = extractvalue { i64, i1 } %64, 1, !dbg !2566
  %67 = zext i1 %66 to i8, !dbg !2566
  store i64 %65, ptr %_8, align 8, !dbg !2566
  %68 = getelementptr inbounds i8, ptr %_8, i64 8, !dbg !2566
  store i8 %67, ptr %68, align 8, !dbg !2566
  br label %bb25, !dbg !2566

bb14:                                             ; preds = %bb6
  %69 = ptrtoint ptr %old to i64, !dbg !2567
  %70 = ptrtoint ptr %new to i64, !dbg !2567
  %71 = cmpxchg ptr %dst, i64 %69, i64 %70 acquire seq_cst, align 8, !dbg !2567
  %72 = extractvalue { i64, i1 } %71, 0, !dbg !2567
  %73 = extractvalue { i64, i1 } %71, 1, !dbg !2567
  %74 = zext i1 %73 to i8, !dbg !2567
  store i64 %72, ptr %_8, align 8, !dbg !2567
  %75 = getelementptr inbounds i8, ptr %_8, i64 8, !dbg !2567
  store i8 %74, ptr %75, align 8, !dbg !2567
  br label %bb25, !dbg !2567

bb18:                                             ; preds = %bb7
  %76 = ptrtoint ptr %old to i64, !dbg !2568
  %77 = ptrtoint ptr %new to i64, !dbg !2568
  %78 = cmpxchg ptr %dst, i64 %76, i64 %77 acq_rel monotonic, align 8, !dbg !2568
  %79 = extractvalue { i64, i1 } %78, 0, !dbg !2568
  %80 = extractvalue { i64, i1 } %78, 1, !dbg !2568
  %81 = zext i1 %80 to i8, !dbg !2568
  store i64 %79, ptr %_8, align 8, !dbg !2568
  %82 = getelementptr inbounds i8, ptr %_8, i64 8, !dbg !2568
  store i8 %81, ptr %82, align 8, !dbg !2568
  br label %bb25, !dbg !2568

bb19:                                             ; preds = %bb7
  %83 = ptrtoint ptr %old to i64, !dbg !2569
  %84 = ptrtoint ptr %new to i64, !dbg !2569
  %85 = cmpxchg ptr %dst, i64 %83, i64 %84 acq_rel acquire, align 8, !dbg !2569
  %86 = extractvalue { i64, i1 } %85, 0, !dbg !2569
  %87 = extractvalue { i64, i1 } %85, 1, !dbg !2569
  %88 = zext i1 %87 to i8, !dbg !2569
  store i64 %86, ptr %_8, align 8, !dbg !2569
  %89 = getelementptr inbounds i8, ptr %_8, i64 8, !dbg !2569
  store i8 %88, ptr %89, align 8, !dbg !2569
  br label %bb25, !dbg !2569

bb20:                                             ; preds = %bb7
  %90 = ptrtoint ptr %old to i64, !dbg !2570
  %91 = ptrtoint ptr %new to i64, !dbg !2570
  %92 = cmpxchg ptr %dst, i64 %90, i64 %91 acq_rel seq_cst, align 8, !dbg !2570
  %93 = extractvalue { i64, i1 } %92, 0, !dbg !2570
  %94 = extractvalue { i64, i1 } %92, 1, !dbg !2570
  %95 = zext i1 %94 to i8, !dbg !2570
  store i64 %93, ptr %_8, align 8, !dbg !2570
  %96 = getelementptr inbounds i8, ptr %_8, i64 8, !dbg !2570
  store i8 %95, ptr %96, align 8, !dbg !2570
  br label %bb25, !dbg !2570

bb21:                                             ; preds = %bb8
  %97 = ptrtoint ptr %old to i64, !dbg !2571
  %98 = ptrtoint ptr %new to i64, !dbg !2571
  %99 = cmpxchg ptr %dst, i64 %97, i64 %98 seq_cst monotonic, align 8, !dbg !2571
  %100 = extractvalue { i64, i1 } %99, 0, !dbg !2571
  %101 = extractvalue { i64, i1 } %99, 1, !dbg !2571
  %102 = zext i1 %101 to i8, !dbg !2571
  store i64 %100, ptr %_8, align 8, !dbg !2571
  %103 = getelementptr inbounds i8, ptr %_8, i64 8, !dbg !2571
  store i8 %102, ptr %103, align 8, !dbg !2571
  br label %bb25, !dbg !2571

bb22:                                             ; preds = %bb8
  %104 = ptrtoint ptr %old to i64, !dbg !2572
  %105 = ptrtoint ptr %new to i64, !dbg !2572
  %106 = cmpxchg ptr %dst, i64 %104, i64 %105 seq_cst acquire, align 8, !dbg !2572
  %107 = extractvalue { i64, i1 } %106, 0, !dbg !2572
  %108 = extractvalue { i64, i1 } %106, 1, !dbg !2572
  %109 = zext i1 %108 to i8, !dbg !2572
  store i64 %107, ptr %_8, align 8, !dbg !2572
  %110 = getelementptr inbounds i8, ptr %_8, i64 8, !dbg !2572
  store i8 %109, ptr %110, align 8, !dbg !2572
  br label %bb25, !dbg !2572

bb23:                                             ; preds = %bb8
  %111 = ptrtoint ptr %old to i64, !dbg !2573
  %112 = ptrtoint ptr %new to i64, !dbg !2573
  %113 = cmpxchg ptr %dst, i64 %111, i64 %112 seq_cst seq_cst, align 8, !dbg !2573
  %114 = extractvalue { i64, i1 } %113, 0, !dbg !2573
  %115 = extractvalue { i64, i1 } %113, 1, !dbg !2573
  %116 = zext i1 %115 to i8, !dbg !2573
  store i64 %114, ptr %_8, align 8, !dbg !2573
  %117 = getelementptr inbounds i8, ptr %_8, i64 8, !dbg !2573
  store i8 %116, ptr %117, align 8, !dbg !2573
  br label %bb25, !dbg !2573

bb27:                                             ; preds = %bb25
  %118 = getelementptr inbounds i8, ptr %_0, i64 8, !dbg !2574
  store ptr %val, ptr %118, align 8, !dbg !2574
  store i64 1, ptr %_0, align 8, !dbg !2574
  br label %bb28, !dbg !2575

bb26:                                             ; preds = %bb25
  %119 = getelementptr inbounds i8, ptr %_0, i64 8, !dbg !2576
  store ptr %val, ptr %119, align 8, !dbg !2576
  store i64 0, ptr %_0, align 8, !dbg !2576
  br label %bb28, !dbg !2575

bb28:                                             ; preds = %bb26, %bb27
  %120 = load i64, ptr %_0, align 8, !dbg !2577, !range !1554, !noundef !16
  %121 = getelementptr inbounds i8, ptr %_0, i64 8, !dbg !2577
  %122 = load ptr, ptr %121, align 8, !dbg !2577, !noundef !16
  %123 = insertvalue { i64, ptr } poison, i64 %120, 0, !dbg !2577
  %124 = insertvalue { i64, ptr } %123, ptr %122, 1, !dbg !2577
  ret { i64, ptr } %124, !dbg !2577

bb3:                                              ; preds = %bb2
