; ModuleID = '2ycd4hh29egll5pd'
source_filename = "2ycd4hh29egll5pd"
target datalayout = "e-m:o-i64:64-i128:128-n32:64-S128"
target triple = "arm64-apple-macosx11.0.0"

%"core::ops::range::Range<usize>" = type { i64, i64 }
%"core::ptr::metadata::PtrComponents<[u8]>" = type { ptr, i64 }
%"core::ptr::metadata::PtrRepr<[u8]>" = type { [2 x i64] }
%"core::option::Option<(usize, char)>" = type { [2 x i32], i32, [1 x i32] }
%"core::option::Option<core::option::Option<(usize, char)>>" = type { [2 x i32], i32, [1 x i32] }
%"core::slice::iter::Iter<'_, u8>" = type { ptr, ptr, %"core::marker::PhantomData<&u8>" }
%"core::marker::PhantomData<&u8>" = type {}
%"core::fmt::Error" = type {}
%"core::result::Result<core::convert::Infallible, core::fmt::Error>::Err" = type { %"core::fmt::Error" }
%"alloc::string::String" = type { %"alloc::vec::Vec<u8>" }
%"alloc::vec::Vec<u8>" = type { %"alloc::raw_vec::RawVec<u8>", i64 }
%"alloc::raw_vec::RawVec<u8>" = type { i64, ptr, %"alloc::alloc::Global" }
%"alloc::alloc::Global" = type {}
%"core::fmt::Formatter<'_>" = type { %"core::option::Option<usize>", %"core::option::Option<usize>", { ptr, ptr }, i32, i32, i8, [7 x i8] }
%"core::option::Option<usize>" = type { i64, [1 x i64] }
%"core::str::pattern::CharPredicateSearcher<'_, {closure@src/lib.rs:101:25: 101:34}>" = type { %"core::str::pattern::MultiCharEqSearcher<'_, {closure@src/lib.rs:101:25: 101:34}>" }
%"core::str::pattern::MultiCharEqSearcher<'_, {closure@src/lib.rs:101:25: 101:34}>" = type { { ptr, i64 }, %"core::str::iter::CharIndices<'_>", %"{closure@src/lib.rs:101:25: 101:34}" }
%"core::str::iter::CharIndices<'_>" = type { %"core::str::iter::Chars<'_>", i64 }
%"core::str::iter::Chars<'_>" = type { %"core::slice::iter::Iter<'_, u8>" }
%"{closure@src/lib.rs:101:25: 101:34}" = type {}
%"core::str::pattern::MultiCharEqPattern<{closure@src/lib.rs:101:25: 101:34}>" = type { %"{closure@src/lib.rs:101:25: 101:34}" }
%"core::ptr::non_null::NonNull<[u8]>" = type { { ptr, i64 } }
%"core::str::pattern::CharPredicateSearcher<'_, {closure@src/lib.rs:101:25: 101:34}>.0" = type { %"core::str::pattern::MultiCharEqSearcher<'_, {closure@src/lib.rs:101:25: 101:34}>.1" }
%"core::str::pattern::MultiCharEqSearcher<'_, {closure@src/lib.rs:101:25: 101:34}>.1" = type { { ptr, i64 }, %"core::str::iter::CharIndices<'_>", %"{closure@src/lib.rs:101:25: 101:34}.2" }
%"{closure@src/lib.rs:101:25: 101:34}.2" = type {}
%"core::str::pattern::MultiCharEqPattern<{closure@src/lib.rs:101:25: 101:34}>.35" = type { %"{closure@src/lib.rs:101:25: 101:34}.2" }
%"core::str::pattern::CharPredicateSearcher<'_, {closure@src/lib.rs:101:25: 101:34}>.3" = type { %"core::str::pattern::MultiCharEqSearcher<'_, {closure@src/lib.rs:101:25: 101:34}>.4" }
%"core::str::pattern::MultiCharEqSearcher<'_, {closure@src/lib.rs:101:25: 101:34}>.4" = type { { ptr, i64 }, %"core::str::iter::CharIndices<'_>", %"{closure@src/lib.rs:101:25: 101:34}.5" }
%"{closure@src/lib.rs:101:25: 101:34}.5" = type {}
%"core::str::pattern::MultiCharEqPattern<{closure@src/lib.rs:101:25: 101:34}>.36" = type { %"{closure@src/lib.rs:101:25: 101:34}.5" }
%"core::str::pattern::CharPredicateSearcher<'_, {closure@src/lib.rs:101:25: 101:34}>.6" = type { %"core::str::pattern::MultiCharEqSearcher<'_, {closure@src/lib.rs:101:25: 101:34}>.7" }
%"core::str::pattern::MultiCharEqSearcher<'_, {closure@src/lib.rs:101:25: 101:34}>.7" = type { { ptr, i64 }, %"core::str::iter::CharIndices<'_>", %"{closure@src/lib.rs:101:25: 101:34}.8" }
%"{closure@src/lib.rs:101:25: 101:34}.8" = type {}
%"core::str::pattern::MultiCharEqPattern<{closure@src/lib.rs:101:25: 101:34}>.37" = type { %"{closure@src/lib.rs:101:25: 101:34}.8" }
%"core::str::pattern::CharPredicateSearcher<'_, {closure@src/lib.rs:101:25: 101:34}>.9" = type { %"core::str::pattern::MultiCharEqSearcher<'_, {closure@src/lib.rs:101:25: 101:34}>.10" }
%"core::str::pattern::MultiCharEqSearcher<'_, {closure@src/lib.rs:101:25: 101:34}>.10" = type { { ptr, i64 }, %"core::str::iter::CharIndices<'_>", %"{closure@src/lib.rs:101:25: 101:34}.11" }
%"{closure@src/lib.rs:101:25: 101:34}.11" = type {}
%"core::str::pattern::MultiCharEqPattern<{closure@src/lib.rs:101:25: 101:34}>.38" = type { %"{closure@src/lib.rs:101:25: 101:34}.11" }
%"core::str::pattern::CharPredicateSearcher<'_, {closure@src/lib.rs:101:25: 101:34}>.12" = type { %"core::str::pattern::MultiCharEqSearcher<'_, {closure@src/lib.rs:101:25: 101:34}>.13" }
%"core::str::pattern::MultiCharEqSearcher<'_, {closure@src/lib.rs:101:25: 101:34}>.13" = type { { ptr, i64 }, %"core::str::iter::CharIndices<'_>", %"{closure@src/lib.rs:101:25: 101:34}.14" }
%"{closure@src/lib.rs:101:25: 101:34}.14" = type {}
%"core::str::pattern::MultiCharEqPattern<{closure@src/lib.rs:101:25: 101:34}>.39" = type { %"{closure@src/lib.rs:101:25: 101:34}.14" }
%"core::str::pattern::CharPredicateSearcher<'_, {closure@src/lib.rs:101:25: 101:34}>.15" = type { %"core::str::pattern::MultiCharEqSearcher<'_, {closure@src/lib.rs:101:25: 101:34}>.16" }
%"core::str::pattern::MultiCharEqSearcher<'_, {closure@src/lib.rs:101:25: 101:34}>.16" = type { { ptr, i64 }, %"core::str::iter::CharIndices<'_>", %"{closure@src/lib.rs:101:25: 101:34}.17" }
%"{closure@src/lib.rs:101:25: 101:34}.17" = type {}
%"core::str::pattern::MultiCharEqPattern<{closure@src/lib.rs:101:25: 101:34}>.40" = type { %"{closure@src/lib.rs:101:25: 101:34}.17" }
%"core::str::pattern::CharPredicateSearcher<'_, {closure@src/lib.rs:101:25: 101:34}>.18" = type { %"core::str::pattern::MultiCharEqSearcher<'_, {closure@src/lib.rs:101:25: 101:34}>.19" }
%"core::str::pattern::MultiCharEqSearcher<'_, {closure@src/lib.rs:101:25: 101:34}>.19" = type { { ptr, i64 }, %"core::str::iter::CharIndices<'_>", %"{closure@src/lib.rs:101:25: 101:34}.20" }
%"{closure@src/lib.rs:101:25: 101:34}.20" = type {}
%"core::str::pattern::MultiCharEqPattern<{closure@src/lib.rs:101:25: 101:34}>.41" = type { %"{closure@src/lib.rs:101:25: 101:34}.20" }
%"core::fmt::Arguments<'_>" = type { { ptr, i64 }, { ptr, i64 }, %"core::option::Option<&[core::fmt::rt::Placeholder]>" }
%"core::option::Option<&[core::fmt::rt::Placeholder]>" = type { ptr, [1 x i64] }
%"core::option::Option<&str>" = type { ptr, [1 x i64] }
%"core::option::Option<u32>" = type { i32, [1 x i32] }
%"core::option::Option<core::convert::Infallible>::None" = type {}
%"core::str::iter::Split<'_, {closure@src/lib.rs:101:25: 101:34}>" = type { %"core::str::iter::SplitInternal<'_, {closure@src/lib.rs:101:25: 101:34}>" }
%"core::str::iter::SplitInternal<'_, {closure@src/lib.rs:101:25: 101:34}>" = type { i64, i64, %"core::str::pattern::CharPredicateSearcher<'_, {closure@src/lib.rs:101:25: 101:34}>.9", i8, i8, [6 x i8] }
%"core::str::iter::Split<'_, {closure@src/lib.rs:101:25: 101:34}>.21" = type { %"core::str::iter::SplitInternal<'_, {closure@src/lib.rs:101:25: 101:34}>.22" }
%"core::str::iter::SplitInternal<'_, {closure@src/lib.rs:101:25: 101:34}>.22" = type { i64, i64, %"core::str::pattern::CharPredicateSearcher<'_, {closure@src/lib.rs:101:25: 101:34}>.0", i8, i8, [6 x i8] }
%"core::str::iter::Split<'_, {closure@src/lib.rs:101:25: 101:34}>.23" = type { %"core::str::iter::SplitInternal<'_, {closure@src/lib.rs:101:25: 101:34}>.24" }
%"core::str::iter::SplitInternal<'_, {closure@src/lib.rs:101:25: 101:34}>.24" = type { i64, i64, %"core::str::pattern::CharPredicateSearcher<'_, {closure@src/lib.rs:101:25: 101:34}>", i8, i8, [6 x i8] }
%"core::str::iter::Split<'_, {closure@src/lib.rs:101:25: 101:34}>.25" = type { %"core::str::iter::SplitInternal<'_, {closure@src/lib.rs:101:25: 101:34}>.26" }
%"core::str::iter::SplitInternal<'_, {closure@src/lib.rs:101:25: 101:34}>.26" = type { i64, i64, %"core::str::pattern::CharPredicateSearcher<'_, {closure@src/lib.rs:101:25: 101:34}>.15", i8, i8, [6 x i8] }
%"core::str::iter::Split<'_, {closure@src/lib.rs:101:25: 101:34}>.27" = type { %"core::str::iter::SplitInternal<'_, {closure@src/lib.rs:101:25: 101:34}>.28" }
%"core::str::iter::SplitInternal<'_, {closure@src/lib.rs:101:25: 101:34}>.28" = type { i64, i64, %"core::str::pattern::CharPredicateSearcher<'_, {closure@src/lib.rs:101:25: 101:34}>.18", i8, i8, [6 x i8] }
%"core::str::iter::Split<'_, {closure@src/lib.rs:101:25: 101:34}>.29" = type { %"core::str::iter::SplitInternal<'_, {closure@src/lib.rs:101:25: 101:34}>.30" }
%"core::str::iter::SplitInternal<'_, {closure@src/lib.rs:101:25: 101:34}>.30" = type { i64, i64, %"core::str::pattern::CharPredicateSearcher<'_, {closure@src/lib.rs:101:25: 101:34}>.3", i8, i8, [6 x i8] }
%"core::str::iter::Split<'_, {closure@src/lib.rs:101:25: 101:34}>.31" = type { %"core::str::iter::SplitInternal<'_, {closure@src/lib.rs:101:25: 101:34}>.32" }
%"core::str::iter::SplitInternal<'_, {closure@src/lib.rs:101:25: 101:34}>.32" = type { i64, i64, %"core::str::pattern::CharPredicateSearcher<'_, {closure@src/lib.rs:101:25: 101:34}>.6", i8, i8, [6 x i8] }
%"core::str::iter::Split<'_, {closure@src/lib.rs:101:25: 101:34}>.33" = type { %"core::str::iter::SplitInternal<'_, {closure@src/lib.rs:101:25: 101:34}>.34" }
%"core::str::iter::SplitInternal<'_, {closure@src/lib.rs:101:25: 101:34}>.34" = type { i64, i64, %"core::str::pattern::CharPredicateSearcher<'_, {closure@src/lib.rs:101:25: 101:34}>.12", i8, i8, [6 x i8] }
%"core::option::Option<(usize, usize)>" = type { i64, [2 x i64] }
%"core::fmt::rt::Argument<'_>" = type { ptr, ptr }
%"core::ops::range::RangeFull" = type {}
%"core::char::ToLowercase" = type { %"core::char::CaseMappingIter" }
%"core::char::CaseMappingIter" = type { [2 x i32], i32 }
%"core::char::ToUppercase" = type { %"core::char::CaseMappingIter" }
%"core::iter::adapters::peekable::Peekable<core::str::iter::CharIndices<'_>>" = type { %"core::str::iter::CharIndices<'_>", %"core::option::Option<core::option::Option<(usize, char)>>" }
%"core::iter::adapters::peekable::Peekable<core::str::iter::Chars<'_>>" = type { %"core::str::iter::Chars<'_>", i32, [1 x i32] }
%"core::alloc::layout::Layout" = type { i64, i64 }
%"core::result::Result<core::alloc::layout::Layout, core::alloc::layout::LayoutError>" = type { i64, [1 x i64] }
%"core::result::Result<core::ptr::non_null::NonNull<[u8]>, core::alloc::AllocError>" = type { ptr, [1 x i64] }
%"core::alloc::AllocError" = type {}
%"core::result::Result<core::convert::Infallible, core::alloc::AllocError>::Err" = type { %"core::alloc::AllocError" }
%"core::ops::control_flow::ControlFlow<core::result::Result<core::convert::Infallible, core::alloc::AllocError>, core::ptr::non_null::NonNull<[u8]>>" = type { ptr, [1 x i64] }
%"core::result::Result<core::ptr::non_null::NonNull<[u8]>, alloc::collections::TryReserveError>" = type { i64, [2 x i64] }
%"alloc::collections::TryReserveErrorKind" = type { i64, [1 x i64] }
%"alloc::collections::TryReserveError" = type { %"alloc::collections::TryReserveErrorKind" }
%"core::result::Result<core::convert::Infallible, alloc::collections::TryReserveErrorKind>::Err" = type { %"alloc::collections::TryReserveErrorKind" }
%"core::result::Result<core::alloc::layout::Layout, alloc::collections::TryReserveErrorKind>" = type { i64, [2 x i64] }
%"core::ops::control_flow::ControlFlow<core::result::Result<core::convert::Infallible, alloc::collections::TryReserveErrorKind>, core::alloc::layout::Layout>" = type { i64, [2 x i64] }
%"core::result::Result<(), alloc::collections::TryReserveError>" = type { i64, [1 x i64] }
%"core::alloc::layout::LayoutError" = type {}
%"{closure@alloc::raw_vec::finish_grow<alloc::alloc::Global>::{closure#0}}" = type {}
%"core::result::Result<(), alloc::collections::TryReserveErrorKind>" = type { i64, [1 x i64] }
%"{closure@alloc::raw_vec::handle_reserve::{closure#0}}" = type {}
%"core::option::Option<(core::ptr::non_null::NonNull<u8>, core::alloc::layout::Layout)>" = type { [1 x i64], i64, [1 x i64] }
%"core::result::Result<core::convert::Infallible, alloc::collections::TryReserveError>::Err" = type { %"alloc::collections::TryReserveError" }
%"core::ops::control_flow::ControlFlow<core::result::Result<core::convert::Infallible, alloc::collections::TryReserveError>, core::ptr::non_null::NonNull<[u8]>>" = type { i64, [2 x i64] }
%"core::result::Result<usize, alloc::collections::TryReserveErrorKind>" = type { i64, [1 x i64] }
%"core::ops::control_flow::ControlFlow<core::result::Result<core::convert::Infallible, alloc::collections::TryReserveErrorKind>, usize>" = type { i64, [1 x i64] }
%"{closure@<core::str::iter::Chars<'_> as core::iter::traits::iterator::Iterator>::next::{closure#0}}" = type {}
%"core::str::pattern::SearchStep" = type { i64, [2 x i64] }
%"kebab::AsKebabCase<&str>" = type { { ptr, i64 } }
%"lower_camel::AsLowerCamelCase<&str>" = type { { ptr, i64 } }
%"shouty_kebab::AsShoutyKebabCase<&str>" = type { { ptr, i64 } }
%"shouty_snake::AsShoutySnakeCase<&str>" = type { { ptr, i64 } }
%"snake::AsSnakeCase<&str>" = type { { ptr, i64 } }
%"title::AsTitleCase<&str>" = type { { ptr, i64 } }
%"train::AsTrainCase<&str>" = type { { ptr, i64 } }
%"upper_camel::AsUpperCamelCase<&str>" = type { { ptr, i64 } }
%"{closure@src/lower_camel.rs:59:13: 59:16}" = type {}
%"{closure@src/upper_camel.rs:61:48: 61:51}" = type {}
%"{closure@src/shouty_snake.rs:59:47: 59:50}" = type {}
%"{closure@src/kebab.rs:44:47: 44:50}" = type {}
%"{closure@src/shouty_kebab.rs:45:47: 45:50}" = type {}
%"{closure@src/train.rs:45:48: 45:51}" = type {}
%"{closure@src/title.rs:48:48: 48:51}" = type {}
%"{closure@src/snake.rs:59:47: 59:50}" = type {}

@alloc_8bc4d99c9de504799214701ea609a64b = private unnamed_addr constant <{ [68 x i8] }> <{ [68 x i8] c"slice::get_unchecked_mut requires that the range is within the slice" }>, align 1
@vtable.0 = private constant <{ ptr, [16 x i8], ptr, ptr, ptr }> <{ ptr @"_ZN4core3ptr42drop_in_place$LT$alloc..string..String$GT$17he7facc0b24a9008bE", [16 x i8] c"\18\00\00\00\00\00\00\00\08\00\00\00\00\00\00\00", ptr @"_ZN58_$LT$alloc..string..String$u20$as$u20$core..fmt..Write$GT$9write_str17h3e30a6d70c04e06eE", ptr @"_ZN58_$LT$alloc..string..String$u20$as$u20$core..fmt..Write$GT$10write_char17h9b1c2a81ebda4a2cE", ptr @_ZN4core3fmt5Write9write_fmt17h65714d4a97c7ecf8E }>, align 8, !dbg !0
@0 = private unnamed_addr constant <{ [8 x i8], [8 x i8] }> <{ [8 x i8] zeroinitializer, [8 x i8] undef }>, align 8
@alloc_cc656815297f75969399c3f4b1ad3de4 = private unnamed_addr constant <{ [55 x i8] }> <{ [55 x i8] c"a Display implementation returned an error unexpectedly" }>, align 1
@alloc_7c4e3499b190d1fb8217735cc379872f = private unnamed_addr constant <{ [75 x i8] }> <{ [75 x i8] c"/rustc/46b180ec2452d388c5d9c14009442e2e0beb01d7/library/alloc/src/string.rs" }>, align 1
@alloc_409c00c6104dbf7acaf821e9c6e95656 = private unnamed_addr constant <{ ptr, [16 x i8] }> <{ ptr @alloc_7c4e3499b190d1fb8217735cc379872f, [16 x i8] c"K\00\00\00\00\00\00\00\ED\09\00\00\0E\00\00\00" }>, align 8
@alloc_424341b75ece3fa20496f1c69b9fb0ac = private unnamed_addr constant <{ [111 x i8] }> <{ [111 x i8] c"unsafe precondition(s) violated: ptr::write_bytes requires that the destination pointer is aligned and non-null" }>, align 1
@alloc_763310d78c99c2c1ad3f8a9821e942f3 = private unnamed_addr constant <{ [61 x i8] }> <{ [61 x i8] c"is_nonoverlapping: `size_of::<T>() * count` overflows a usize" }>, align 1
@alloc_8df0580a595a87d56789d20c7318e185 = private unnamed_addr constant <{ [166 x i8] }> <{ [166 x i8] c"unsafe precondition(s) violated: ptr::copy_nonoverlapping requires that both pointer arguments are aligned and non-null and the specified memory ranges do not overlap" }>, align 1
@alloc_fad0cd83b7d1858a846a172eb260e593 = private unnamed_addr constant <{ [42 x i8] }> <{ [42 x i8] c"is_aligned_to: align is not a power-of-two" }>, align 1
@alloc_041983ee8170efdaaf95ba67fd072d26 = private unnamed_addr constant <{ ptr, [8 x i8] }> <{ ptr @alloc_fad0cd83b7d1858a846a172eb260e593, [8 x i8] c"*\00\00\00\00\00\00\00" }>, align 8
@alloc_513570631223a12912d85da2bec3b15a = private unnamed_addr constant <{}> zeroinitializer, align 8
@alloc_f1802761b0cba8787ff63a6853b741ad = private unnamed_addr constant <{ [81 x i8] }> <{ [81 x i8] c"/rustc/46b180ec2452d388c5d9c14009442e2e0beb01d7/library/core/src/ptr/const_ptr.rs" }>, align 1
@alloc_33f991fa5bbac1da9d8a778b0f014caf = private unnamed_addr constant <{ ptr, [16 x i8] }> <{ ptr @alloc_f1802761b0cba8787ff63a6853b741ad, [16 x i8] c"Q\00\00\00\00\00\00\00T\06\00\00\0D\00\00\00" }>, align 8
@alloc_91c7fa63c3cfeaa3c795652d5cf060e4 = private unnamed_addr constant <{ [12 x i8] }> <{ [12 x i8] c"invalid args" }>, align 1
@alloc_af99043bc04c419363a7f04d23183506 = private unnamed_addr constant <{ ptr, [8 x i8] }> <{ ptr @alloc_91c7fa63c3cfeaa3c795652d5cf060e4, [8 x i8] c"\0C\00\00\00\00\00\00\00" }>, align 8
@alloc_b471600b253f24fcc8f91ba747bf2f04 = private unnamed_addr constant <{ [75 x i8] }> <{ [75 x i8] c"/rustc/46b180ec2452d388c5d9c14009442e2e0beb01d7/library/core/src/fmt/mod.rs" }>, align 1
@alloc_4ba2c5ddff77a51f3765b0dd5f2851cc = private unnamed_addr constant <{ ptr, [16 x i8] }> <{ ptr @alloc_b471600b253f24fcc8f91ba747bf2f04, [16 x i8] c"K\00\00\00\00\00\00\00U\01\00\00\0D\00\00\00" }>, align 8
@alloc_3d28b95801fd55932918b2920be93f48 = private unnamed_addr constant <{ ptr, [16 x i8] }> <{ ptr @alloc_b471600b253f24fcc8f91ba747bf2f04, [16 x i8] c"K\00\00\00\00\00\00\00K\01\00\00\0D\00\00\00" }>, align 8
@alloc_d4d2a2a8539eafc62756407d946babb3 = private unnamed_addr constant <{ [110 x i8] }> <{ [110 x i8] c"unsafe precondition(s) violated: ptr::read_volatile requires that the pointer argument is aligned and non-null" }>, align 1
@alloc_20b3d155afd5c58c42e598b7e6d186ef = private unnamed_addr constant <{ [93 x i8] }> <{ [93 x i8] c"unsafe precondition(s) violated: NonNull::new_unchecked requires that the pointer is non-null" }>, align 1
@alloc_ec595fc0e82ef92fc59bd74f68296eae = private unnamed_addr constant <{ [73 x i8] }> <{ [73 x i8] c"assertion failed: 0 < pointee_size && pointee_size <= isize::MAX as usize" }>, align 1
@alloc_4e3a3aaf48410eaea90c90938dabe76a = private unnamed_addr constant <{ ptr, [16 x i8] }> <{ ptr @alloc_f1802761b0cba8787ff63a6853b741ad, [16 x i8] c"Q\00\00\00\00\00\00\00:\03\00\00\09\00\00\00" }>, align 8
@alloc_7efb3a7632b3620f628ce83a521b4d9b = private unnamed_addr constant <{ [71 x i8] }> <{ [71 x i8] c"unsafe precondition(s) violated: ptr::sub_ptr requires `self >= origin`" }>, align 1
@1 = private unnamed_addr constant <{ [4 x i8], [4 x i8] }> <{ [4 x i8] zeroinitializer, [4 x i8] undef }>, align 4
@alloc_b51e084ad98792f1063530f5eecbcef0 = private unnamed_addr constant <{ [69 x i8] }> <{ [69 x i8] c"str::get_unchecked requires that the range is within the string slice" }>, align 1
@alloc_38d865ee598848532cbd764e0d6298fc = private unnamed_addr constant <{ [57 x i8] }> <{ [57 x i8] c"unsafe precondition(s) violated: invalid value for `char`" }>, align 1
@alloc_8b4d80671dc915cc8e9a508581e1d9c7 = private unnamed_addr constant <{ [80 x i8] }> <{ [80 x i8] c"/rustc/46b180ec2452d388c5d9c14009442e2e0beb01d7/library/core/src/char/methods.rs" }>, align 1
@alloc_f63e52aaa984f059a2e6dbe55c3b29c0 = private unnamed_addr constant <{ ptr, [16 x i8] }> <{ ptr @alloc_8b4d80671dc915cc8e9a508581e1d9c7, [16 x i8] c"P\00\00\00\00\00\00\00\05\07\00\00\0D\00\00\00" }>, align 8
@alloc_6b031f9bca8204235732c7c365d04a1d = private unnamed_addr constant <{ [18 x i8] }> <{ [18 x i8] c"encode_utf8: need " }>, align 1
@alloc_28d13efb0f9a95ccb5d02ec33dd195cf = private unnamed_addr constant <{ [19 x i8] }> <{ [19 x i8] c" bytes to encode U+" }>, align 1
@alloc_0d928972d2befd736e581c7fcc5a2f9a = private unnamed_addr constant <{ [21 x i8] }> <{ [21 x i8] c", but the buffer has " }>, align 1
@alloc_d51214f097f67314513b76e97e13aa6b = private unnamed_addr constant <{ ptr, [8 x i8], ptr, [8 x i8], ptr, [8 x i8] }> <{ ptr @alloc_6b031f9bca8204235732c7c365d04a1d, [8 x i8] c"\12\00\00\00\00\00\00\00", ptr @alloc_28d13efb0f9a95ccb5d02ec33dd195cf, [8 x i8] c"\13\00\00\00\00\00\00\00", ptr @alloc_0d928972d2befd736e581c7fcc5a2f9a, [8 x i8] c"\15\00\00\00\00\00\00\00" }>, align 8
@alloc_c75e20ea18464e397f0e51016b47c134 = private unnamed_addr constant <{ ptr, [16 x i8] }> <{ ptr @alloc_8b4d80671dc915cc8e9a508581e1d9c7, [16 x i8] c"P\00\00\00\00\00\00\00\FE\06\00\00\0E\00\00\00" }>, align 8
@alloc_ab14703751a9eb3585c49b2e55e9a9e5 = private unnamed_addr constant <{ [104 x i8] }> <{ [104 x i8] c"unsafe precondition(s) violated: hint::assert_unchecked must never be called when the condition is false" }>, align 1
@alloc_1eb6f53a157dccb32488e066ad957e6d = private unnamed_addr constant <{ [82 x i8] }> <{ [82 x i8] c"unsafe precondition(s) violated: hint::unreachable_unchecked must never be reached" }>, align 1
@alloc_ba0874c83e0d5d922dde9777ace7637c = private unnamed_addr constant <{ [80 x i8] }> <{ [80 x i8] c"/rustc/46b180ec2452d388c5d9c14009442e2e0beb01d7/library/core/src/alloc/layout.rs" }>, align 1
@alloc_f68de2cf1ceb450073519dc71a218631 = private unnamed_addr constant <{ ptr, [16 x i8] }> <{ ptr @alloc_ba0874c83e0d5d922dde9777ace7637c, [16 x i8] c"P\00\00\00\00\00\00\00\C1\01\00\00)\00\00\00" }>, align 8
@str.1 = internal unnamed_addr constant [25 x i8] c"attempt to divide by zero"
@alloc_81f9ea5ad36a4fd02db0f8c6040ce6ce = private unnamed_addr constant <{ [78 x i8] }> <{ [78 x i8] c"/rustc/46b180ec2452d388c5d9c14009442e2e0beb01d7/library/core/src/intrinsics.rs" }>, align 1
@alloc_3ddfd615a577a80e66751be046ca7362 = private unnamed_addr constant <{ ptr, [16 x i8] }> <{ ptr @alloc_81f9ea5ad36a4fd02db0f8c6040ce6ce, [16 x i8] c"N\00\00\00\00\00\00\00\E6\0A\00\006\00\00\00" }>, align 8
@alloc_11195730e5236cfdc15ea13be1c301f9 = private unnamed_addr constant <{ [162 x i8] }> <{ [162 x i8] c"unsafe precondition(s) violated: slice::from_raw_parts requires the pointer to be aligned and non-null, and the total size of the slice not to exceed `isize::MAX`" }>, align 1
@vtable.2 = private constant <{ ptr, [16 x i8], ptr }> <{ ptr @"_ZN4core3ptr37drop_in_place$LT$core..fmt..Error$GT$17hdbc80c52b01e660dE", [16 x i8] c"\00\00\00\00\00\00\00\00\01\00\00\00\00\00\00\00", ptr @"_ZN53_$LT$core..fmt..Error$u20$as$u20$core..fmt..Debug$GT$3fmt17h580cc09242ea34d7E" }>, align 8, !dbg !55
@alloc_99ac8a81a24cac863217ce4a5cbfabea = private unnamed_addr constant <{ [5 x i8] }> <{ [5 x i8] c"Error" }>, align 1
@__rust_no_alloc_shim_is_unstable = external global i8
@2 = private unnamed_addr constant <{ [8 x i8], [8 x i8] }> <{ [8 x i8] c"\01\00\00\00\00\00\00\80", [8 x i8] undef }>, align 8
@alloc_8572d294b7d4b9d2125dc5191e02725c = private unnamed_addr constant <{ [64 x i8] }> <{ [64 x i8] c"slice::get_unchecked requires that the index is within the slice" }>, align 1
@3 = private unnamed_addr constant <{ [8 x i8], [4 x i8], [4 x i8] }> <{ [8 x i8] undef, [4 x i8] c"\00\00\11\00", [4 x i8] undef }>, align 8
@alloc_3bb2650aa074fcfb8c10a9c40791bfbc = private unnamed_addr constant <{ [1 x i8] }> <{ [1 x i8] c"-" }>, align 1
@alloc_b75bdd07621472b758c8b6fc5ef4cdb6 = private unnamed_addr constant <{ ptr, [8 x i8] }> <{ ptr @alloc_3bb2650aa074fcfb8c10a9c40791bfbc, [8 x i8] c"\01\00\00\00\00\00\00\00" }>, align 8
@alloc_27cca3636828088e60ce450d2eca2060 = private unnamed_addr constant <{ [1 x i8] }> <{ [1 x i8] c"_" }>, align 1
@alloc_6374a4d206951ceeebc0f2049b4e0bbf = private unnamed_addr constant <{ ptr, [8 x i8] }> <{ ptr @alloc_27cca3636828088e60ce450d2eca2060, [8 x i8] c"\01\00\00\00\00\00\00\00" }>, align 8
@alloc_0242e8ee118de705af76c627590b82cc = private unnamed_addr constant <{ [1 x i8] }> <{ [1 x i8] c" " }>, align 1
@alloc_c00fe7fcdf183128eacaa5cead3e5b1f = private unnamed_addr constant <{ ptr, [8 x i8] }> <{ ptr @alloc_0242e8ee118de705af76c627590b82cc, [8 x i8] c"\01\00\00\00\00\00\00\00" }>, align 8
@alloc_8821998f047ca62cad40e6bc4e4d87c4 = private unnamed_addr constant <{ [1 x i8] }> <{ [1 x i8] c"\01" }>, align 1
@alloc_2047fd1b8f347bfecab55929547fd5ca = private unnamed_addr constant <{ [1 x i8] }> <{ [1 x i8] c"\02" }>, align 1
@alloc_f5ffd2fd1476bab43ad89fb40c72d0c5 = private unnamed_addr constant <{ [10 x i8] }> <{ [10 x i8] c"src/lib.rs" }>, align 1
@alloc_8227a6975866243a8b3fa9fd73034485 = private unnamed_addr constant <{ ptr, [16 x i8] }> <{ ptr @alloc_f5ffd2fd1476bab43ad89fb40c72d0c5, [16 x i8] c"\0A\00\00\00\00\00\00\00\85\00\00\00\19\00\00\00" }>, align 8
@alloc_0fa6a06b78e6edb02b2d8b3d6d9b2781 = private unnamed_addr constant <{ ptr, [16 x i8] }> <{ ptr @alloc_f5ffd2fd1476bab43ad89fb40c72d0c5, [16 x i8] c"\0A\00\00\00\00\00\00\00\89\00\00\00$\00\00\00" }>, align 8
@alloc_5d3914deb1cc438d0abed26cafc778eb = private unnamed_addr constant <{ ptr, [16 x i8] }> <{ ptr @alloc_f5ffd2fd1476bab43ad89fb40c72d0c5, [16 x i8] c"\0A\00\00\00\00\00\00\00\89\00\00\00\15\00\00\00" }>, align 8
@alloc_1242761f5470863fbeedb39940525bee = private unnamed_addr constant <{ ptr, [16 x i8] }> <{ ptr @alloc_f5ffd2fd1476bab43ad89fb40c72d0c5, [16 x i8] c"\0A\00\00\00\00\00\00\00z\00\00\00\19\00\00\00" }>, align 8
@alloc_0d9f56f6cef87a40e1737551bbf20375 = private unnamed_addr constant <{ ptr, [16 x i8] }> <{ ptr @alloc_f5ffd2fd1476bab43ad89fb40c72d0c5, [16 x i8] c"\0A\00\00\00\00\00\00\00|\00\00\00$\00\00\00" }>, align 8
@alloc_d8945532011230de07809c27e187b7ff = private unnamed_addr constant <{ ptr, [16 x i8] }> <{ ptr @alloc_f5ffd2fd1476bab43ad89fb40c72d0c5, [16 x i8] c"\0A\00\00\00\00\00\00\00|\00\00\00\15\00\00\00" }>, align 8
@alloc_a2152fb8b6c65b84c8b4e98f3fd60514 = private unnamed_addr constant <{ ptr, [16 x i8] }> <{ ptr @alloc_f5ffd2fd1476bab43ad89fb40c72d0c5, [16 x i8] c"\0A\00\00\00\00\00\00\00\94\00\00\00\15\00\00\00" }>, align 8
@alloc_e39998ee9aa54de0201e419bc62a4415 = private unnamed_addr constant <{ ptr, [16 x i8] }> <{ ptr @alloc_f5ffd2fd1476bab43ad89fb40c72d0c5, [16 x i8] c"\0A\00\00\00\00\00\00\00\98\00\00\00 \00\00\00" }>, align 8
@alloc_5c13daf362324bb6dad7155761f228f8 = private unnamed_addr constant <{ ptr, [16 x i8] }> <{ ptr @alloc_f5ffd2fd1476bab43ad89fb40c72d0c5, [16 x i8] c"\0A\00\00\00\00\00\00\00\98\00\00\00\11\00\00\00" }>, align 8
@alloc_ce246300cd91ffc3b77a40cb1bee254d = private unnamed_addr constant <{ [2 x i8] }> <{ [2 x i8] c"\CF\82" }>, align 1
@alloc_fc890df6f2107478a93a760532db881f = private unnamed_addr constant <{ ptr, [8 x i8] }> <{ ptr @alloc_ce246300cd91ffc3b77a40cb1bee254d, [8 x i8] c"\02\00\00\00\00\00\00\00" }>, align 8
@alloc_eea699766718733da045ce801d1882ab = private unnamed_addr constant <{ ptr, [16 x i8] }> <{ ptr @alloc_f5ffd2fd1476bab43ad89fb40c72d0c5, [16 x i8] c"\0A\00\00\00\00\00\00\00\A5\00\00\00\0D\00\00\00" }>, align 8
@alloc_b99730e73100e73a81f4fbfe74b3821d = private unnamed_addr constant <{ ptr, [8 x i8] }> <{ ptr @alloc_513570631223a12912d85da2bec3b15a, [8 x i8] zeroinitializer }>, align 8
@alloc_343f2dab23bb5c89affe8287e0e6367f = private unnamed_addr constant <{ ptr, [16 x i8] }> <{ ptr @alloc_f5ffd2fd1476bab43ad89fb40c72d0c5, [16 x i8] c"\0A\00\00\00\00\00\00\00\A7\00\00\00\0D\00\00\00" }>, align 8
@alloc_22717f7eb2090ca59ec1451739f84d95 = private unnamed_addr constant <{ ptr, [16 x i8] }> <{ ptr @alloc_f5ffd2fd1476bab43ad89fb40c72d0c5, [16 x i8] c"\0A\00\00\00\00\00\00\00\B0\00\00\00\09\00\00\00" }>, align 8
@alloc_848428162cbb28f6a265ec8812ebe21e = private unnamed_addr constant <{ ptr, [16 x i8] }> <{ ptr @alloc_f5ffd2fd1476bab43ad89fb40c72d0c5, [16 x i8] c"\0A\00\00\00\00\00\00\00\BB\00\00\00\19\00\00\00" }>, align 8
@alloc_7c4203e34fd423f52a26c951751acee3 = private unnamed_addr constant <{ ptr, [16 x i8] }> <{ ptr @alloc_f5ffd2fd1476bab43ad89fb40c72d0c5, [16 x i8] c"\0A\00\00\00\00\00\00\00\BB\00\00\00\0D\00\00\00" }>, align 8
@alloc_02ebf5999695d842dee25547becf0100 = private unnamed_addr constant <{ ptr, [16 x i8] }> <{ ptr @alloc_f5ffd2fd1476bab43ad89fb40c72d0c5, [16 x i8] c"\0A\00\00\00\00\00\00\00\B9\00\00\00\09\00\00\00" }>, align 8

; <core::ops::range::Range<usize> as core::slice::index::SliceIndex<[T]>>::get_unchecked_mut
; Function Attrs: inlinehint uwtable
define { ptr, i64 } @"_ZN106_$LT$core..ops..range..Range$LT$usize$GT$$u20$as$u20$core..slice..index..SliceIndex$LT$$u5b$T$u5d$$GT$$GT$17get_unchecked_mut17hbe83f796a0c5be2dE"(i64 %self.0, i64 %self.1, ptr %slice.0, i64 %slice.1) unnamed_addr #0 !dbg !168 {
start:
  %data_pointer.dbg.spill = alloca ptr, align 8
  %data.dbg.spill = alloca ptr, align 8
  %self.dbg.spill1 = alloca ptr, align 8
  %new_len.dbg.spill = alloca i64, align 8
  %count.dbg.spill = alloca i64, align 8
  %ptr.dbg.spill = alloca { ptr, i64 }, align 8
  %slice.dbg.spill = alloca { ptr, i64 }, align 8
  %self.dbg.spill = alloca %"core::ops::range::Range<usize>", align 8
  %_19 = alloca %"core::ptr::metadata::PtrComponents<[u8]>", align 8
  %_18 = alloca %"core::ptr::metadata::PtrRepr<[u8]>", align 8
  %_16 = alloca %"core::ptr::metadata::PtrRepr<[u8]>", align 8
  store i64 %self.0, ptr %self.dbg.spill, align 8
  %0 = getelementptr inbounds i8, ptr %self.dbg.spill, i64 8
  store i64 %self.1, ptr %0, align 8
  call void @llvm.dbg.declare(metadata ptr %self.dbg.spill, metadata !189, metadata !DIExpression()), !dbg !193
  store ptr %slice.0, ptr %slice.dbg.spill, align 8
  %1 = getelementptr inbounds i8, ptr %slice.dbg.spill, i64 8
  store i64 %slice.1, ptr %1, align 8
  call void @llvm.dbg.declare(metadata ptr %slice.dbg.spill, metadata !190, metadata !DIExpression()), !dbg !194
  call void @llvm.dbg.declare(metadata ptr %slice.dbg.spill, metadata !195, metadata !DIExpression()), !dbg !204
  call void @llvm.dbg.declare(metadata ptr %slice.dbg.spill, metadata !206, metadata !DIExpression()), !dbg !213
  br label %bb1, !dbg !215

bb1:                                              ; preds = %start
  %_4 = icmp uge i64 %self.1, %self.0, !dbg !216
  br i1 %_4, label %bb2, label %bb5, !dbg !216

bb5:                                              ; preds = %bb1
  br label %bb6, !dbg !217

bb2:                                              ; preds = %bb1
  store ptr %slice.0, ptr %ptr.dbg.spill, align 8, !dbg !220
  %2 = getelementptr inbounds i8, ptr %ptr.dbg.spill, i64 8, !dbg !220
  store i64 %slice.1, ptr %2, align 8, !dbg !220
  call void @llvm.dbg.declare(metadata ptr %ptr.dbg.spill, metadata !221, metadata !DIExpression()), !dbg !233
  store ptr %slice.0, ptr %_16, align 8, !dbg !235
  %3 = getelementptr inbounds i8, ptr %_16, i64 8, !dbg !235
  store i64 %slice.1, ptr %3, align 8, !dbg !235
  %4 = getelementptr inbounds i8, ptr %_16, i64 8, !dbg !235
  %_8 = load i64, ptr %4, align 8, !dbg !235, !noundef !44
  %_7 = icmp ule i64 %self.1, %_8, !dbg !236
  br i1 %_7, label %bb3, label %bb4, !dbg !236

bb6:                                              ; preds = %bb4, %bb5
; call core::panicking::panic_nounwind
  call void @_ZN4core9panicking14panic_nounwind17h50c31e15afde233eE(ptr align 1 @alloc_8bc4d99c9de504799214701ea609a64b, i64 68) #20, !dbg !215
  unreachable, !dbg !215

bb4:                                              ; preds = %bb2
  br label %bb6, !dbg !217

bb3:                                              ; preds = %bb2
  br label %bb7, !dbg !215

bb7:                                              ; preds = %bb3
  store i64 %self.0, ptr %count.dbg.spill, align 8, !dbg !237
  call void @llvm.dbg.declare(metadata ptr %count.dbg.spill, metadata !238, metadata !DIExpression()), !dbg !246
  %new_len = sub nuw i64 %self.1, %self.0, !dbg !248
  store i64 %new_len, ptr %new_len.dbg.spill, align 8, !dbg !248
  call void @llvm.dbg.declare(metadata ptr %new_len.dbg.spill, metadata !191, metadata !DIExpression()), !dbg !249
  call void @llvm.dbg.declare(metadata ptr %new_len.dbg.spill, metadata !250, metadata !DIExpression()), !dbg !258
  call void @llvm.dbg.declare(metadata ptr %new_len.dbg.spill, metadata !260, metadata !DIExpression()), !dbg !268
  store ptr %slice.0, ptr %self.dbg.spill1, align 8, !dbg !270
  call void @llvm.dbg.declare(metadata ptr %self.dbg.spill1, metadata !245, metadata !DIExpression()), !dbg !271
  %data = getelementptr inbounds i8, ptr %slice.0, i64 %self.0, !dbg !272
  store ptr %data, ptr %data.dbg.spill, align 8, !dbg !272
  call void @llvm.dbg.declare(metadata ptr %data.dbg.spill, metadata !257, metadata !DIExpression()), !dbg !273
  call void @llvm.dbg.declare(metadata ptr %data.dbg.spill, metadata !274, metadata !DIExpression()), !dbg !282
  store ptr %data, ptr %data_pointer.dbg.spill, align 8, !dbg !284
  call void @llvm.dbg.declare(metadata ptr %data_pointer.dbg.spill, metadata !267, metadata !DIExpression()), !dbg !285
  store ptr %data, ptr %_19, align 8, !dbg !286
  %5 = getelementptr inbounds i8, ptr %_19, i64 8, !dbg !286
  store i64 %new_len, ptr %5, align 8, !dbg !286
  %6 = load ptr, ptr %_19, align 8, !dbg !287, !noundef !44
  %7 = getelementptr inbounds i8, ptr %_19, i64 8, !dbg !287
  %8 = load i64, ptr %7, align 8, !dbg !287, !noundef !44
  store ptr %6, ptr %_18, align 8, !dbg !287
  %9 = getelementptr inbounds i8, ptr %_18, i64 8, !dbg !287
  store i64 %8, ptr %9, align 8, !dbg !287
  %_0.0 = load ptr, ptr %_18, align 8, !dbg !287, !noundef !44
  %10 = getelementptr inbounds i8, ptr %_18, i64 8, !dbg !287
  %_0.1 = load i64, ptr %10, align 8, !dbg !287, !noundef !44
  %11 = insertvalue { ptr, i64 } poison, ptr %_0.0, 0, !dbg !288
  %12 = insertvalue { ptr, i64 } %11, i64 %_0.1, 1, !dbg !288
  ret { ptr, i64 } %12, !dbg !288
}

; <core::ops::range::Range<usize> as core::slice::index::SliceIndex<[T]>>::index_mut
; Function Attrs: inlinehint uwtable
define { ptr, i64 } @"_ZN106_$LT$core..ops..range..Range$LT$usize$GT$$u20$as$u20$core..slice..index..SliceIndex$LT$$u5b$T$u5d$$GT$$GT$9index_mut17h54d7b8841bcf28e3E"(i64 %self.0, i64 %self.1, ptr align 1 %slice.0, i64 %slice.1, ptr align 8 %0) unnamed_addr #0 !dbg !289 {
start:
  %slice.dbg.spill = alloca { ptr, i64 }, align 8
  %self.dbg.spill = alloca %"core::ops::range::Range<usize>", align 8
  store i64 %self.0, ptr %self.dbg.spill, align 8
  %1 = getelementptr inbounds i8, ptr %self.dbg.spill, i64 8
  store i64 %self.1, ptr %1, align 8
  call void @llvm.dbg.declare(metadata ptr %self.dbg.spill, metadata !310, metadata !DIExpression()), !dbg !312
  store ptr %slice.0, ptr %slice.dbg.spill, align 8
  %2 = getelementptr inbounds i8, ptr %slice.dbg.spill, i64 8
  store i64 %slice.1, ptr %2, align 8
  call void @llvm.dbg.declare(metadata ptr %slice.dbg.spill, metadata !311, metadata !DIExpression()), !dbg !313
  %_3 = icmp ugt i64 %self.0, %self.1, !dbg !314
  br i1 %_3, label %bb1, label %bb2, !dbg !314

bb2:                                              ; preds = %start
  %_7 = icmp ugt i64 %self.1, %slice.1, !dbg !315
  br i1 %_7, label %bb3, label %bb4, !dbg !315

bb1:                                              ; preds = %start
; call core::slice::index::slice_index_order_fail
  call void @_ZN4core5slice5index22slice_index_order_fail17hb18c43fcae7a83cbE(i64 %self.0, i64 %self.1, ptr align 8 %0) #21, !dbg !316
  unreachable, !dbg !316

bb4:                                              ; preds = %bb2
; call <core::ops::range::Range<usize> as core::slice::index::SliceIndex<[T]>>::get_unchecked_mut
  %3 = call { ptr, i64 } @"_ZN106_$LT$core..ops..range..Range$LT$usize$GT$$u20$as$u20$core..slice..index..SliceIndex$LT$$u5b$T$u5d$$GT$$GT$17get_unchecked_mut17hbe83f796a0c5be2dE"(i64 %self.0, i64 %self.1, ptr %slice.0, i64 %slice.1), !dbg !317
  %_11.0 = extractvalue { ptr, i64 } %3, 0, !dbg !317
  %_11.1 = extractvalue { ptr, i64 } %3, 1, !dbg !317
  %4 = insertvalue { ptr, i64 } poison, ptr %_11.0, 0, !dbg !318
  %5 = insertvalue { ptr, i64 } %4, i64 %_11.1, 1, !dbg !318
  ret { ptr, i64 } %5, !dbg !318

bb3:                                              ; preds = %bb2
; call core::slice::index::slice_end_index_len_fail
  call void @_ZN4core5slice5index24slice_end_index_len_fail17h86c2fd0bdb9be0ffE(i64 %self.1, i64 %slice.1, ptr align 8 %0) #21, !dbg !319
  unreachable, !dbg !319
}

; <core::iter::adapters::peekable::Peekable<I> as core::iter::traits::iterator::Iterator>::next
; Function Attrs: inlinehint uwtable
define { i64, i32 } @"_ZN108_$LT$core..iter..adapters..peekable..Peekable$LT$I$GT$$u20$as$u20$core..iter..traits..iterator..Iterator$GT$4next17h148a32564953e6b5E"(ptr align 8 %self) unnamed_addr #0 !dbg !320 {
start:
  %v.dbg.spill = alloca %"core::option::Option<(usize, char)>", align 8
  %self.dbg.spill2 = alloca ptr, align 8
  %self.dbg.spill = alloca ptr, align 8
  %src = alloca %"core::option::Option<core::option::Option<(usize, char)>>", align 8
  %result = alloca %"core::option::Option<core::option::Option<(usize, char)>>", align 8
  %_0 = alloca %"core::option::Option<(usize, char)>", align 8
  store ptr %self, ptr %self.dbg.spill, align 8
  call void @llvm.dbg.declare(metadata ptr %self.dbg.spill, metadata !387, metadata !DIExpression()), !dbg !390
  call void @llvm.dbg.declare(metadata ptr %result, metadata !391, metadata !DIExpression()), !dbg !405
  call void @llvm.dbg.declare(metadata ptr %src, metadata !402, metadata !DIExpression()), !dbg !416
  call void @llvm.dbg.declare(metadata ptr %src, metadata !417, metadata !DIExpression()), !dbg !425
  %self1 = getelementptr inbounds i8, ptr %self, i64 24, !dbg !427
  store ptr %self1, ptr %self.dbg.spill2, align 8, !dbg !427
  call void @llvm.dbg.declare(metadata ptr %self.dbg.spill2, metadata !414, metadata !DIExpression()), !dbg !428
  call void @llvm.dbg.declare(metadata ptr %self.dbg.spill2, metadata !401, metadata !DIExpression()), !dbg !429
  call void @llvm.dbg.declare(metadata ptr %self.dbg.spill2, metadata !430, metadata !DIExpression()), !dbg !437
  call void @llvm.dbg.declare(metadata ptr %self.dbg.spill2, metadata !424, metadata !DIExpression()), !dbg !439
  %0 = getelementptr inbounds i8, ptr %src, i64 8, !dbg !440
  store i32 1114113, ptr %0, align 8, !dbg !440
  %1 = getelementptr inbounds i8, ptr %self, i64 24, !dbg !441
  %2 = load i64, ptr %1, align 8, !dbg !441
  %3 = getelementptr inbounds i8, ptr %1, i64 8, !dbg !441
  %4 = load i32, ptr %3, align 8, !dbg !441, !range !442, !noundef !44
  store i64 %2, ptr %result, align 8, !dbg !441
  %5 = getelementptr inbounds i8, ptr %result, i64 8, !dbg !441
  store i32 %4, ptr %5, align 8, !dbg !441
  %6 = getelementptr inbounds i8, ptr %self, i64 24, !dbg !443
  %7 = load i64, ptr %src, align 8, !dbg !443
  %8 = getelementptr inbounds i8, ptr %src, i64 8, !dbg !443
  %9 = load i32, ptr %8, align 8, !dbg !443, !range !442, !noundef !44
  store i64 %7, ptr %6, align 8, !dbg !443
  %10 = getelementptr inbounds i8, ptr %6, i64 8, !dbg !443
  store i32 %9, ptr %10, align 8, !dbg !443
  %11 = getelementptr inbounds i8, ptr %result, i64 8, !dbg !427
  %12 = load i32, ptr %11, align 8, !dbg !427, !range !442, !noundef !44
  %13 = icmp eq i32 %12, 1114113, !dbg !427
  %_4 = select i1 %13, i64 0, i64 1, !dbg !427
  %14 = icmp eq i64 %_4, 0, !dbg !444
  br i1 %14, label %bb2, label %bb3, !dbg !444

bb2:                                              ; preds = %start
; call <core::str::iter::CharIndices as core::iter::traits::iterator::Iterator>::next
  %15 = call { i64, i32 } @"_ZN87_$LT$core..str..iter..CharIndices$u20$as$u20$core..iter..traits..iterator..Iterator$GT$4next17hcc72f52fd0ed58b2E"(ptr align 8 %self), !dbg !445
  %16 = extractvalue { i64, i32 } %15, 0, !dbg !445
  %17 = extractvalue { i64, i32 } %15, 1, !dbg !445
  store i64 %16, ptr %_0, align 8, !dbg !445
  %18 = getelementptr inbounds i8, ptr %_0, i64 8, !dbg !445
  store i32 %17, ptr %18, align 8, !dbg !445
  br label %bb5, !dbg !446

bb3:                                              ; preds = %start
  %v.0 = load i64, ptr %result, align 8, !dbg !447
  %19 = getelementptr inbounds i8, ptr %result, i64 8, !dbg !447
  %v.1 = load i32, ptr %19, align 8, !dbg !447, !range !448, !noundef !44
  store i64 %v.0, ptr %v.dbg.spill, align 8, !dbg !447
  %20 = getelementptr inbounds i8, ptr %v.dbg.spill, i64 8, !dbg !447
  store i32 %v.1, ptr %20, align 8, !dbg !447
  call void @llvm.dbg.declare(metadata ptr %v.dbg.spill, metadata !388, metadata !DIExpression()), !dbg !449
  store i64 %v.0, ptr %_0, align 8, !dbg !450
  %21 = getelementptr inbounds i8, ptr %_0, i64 8, !dbg !450
  store i32 %v.1, ptr %21, align 8, !dbg !450
  br label %bb5, !dbg !451

bb5:                                              ; preds = %bb3, %bb2
  %22 = load i64, ptr %_0, align 8, !dbg !452
  %23 = getelementptr inbounds i8, ptr %_0, i64 8, !dbg !452
  %24 = load i32, ptr %23, align 8, !dbg !452, !range !448, !noundef !44
  %25 = insertvalue { i64, i32 } poison, i64 %22, 0, !dbg !452
  %26 = insertvalue { i64, i32 } %25, i32 %24, 1, !dbg !452
  ret { i64, i32 } %26, !dbg !452

bb1:                                              ; No predecessors!
  unreachable, !dbg !427
}

; <core::iter::adapters::peekable::Peekable<I> as core::iter::traits::iterator::Iterator>::next
; Function Attrs: inlinehint uwtable
define i32 @"_ZN108_$LT$core..iter..adapters..peekable..Peekable$LT$I$GT$$u20$as$u20$core..iter..traits..iterator..Iterator$GT$4next17h659e4f0f8d3374aeE"(ptr align 8 %self) unnamed_addr #0 !dbg !453 {
start:
  %v.dbg.spill = alloca i32, align 4
  %self.dbg.spill2 = alloca ptr, align 8
  %self.dbg.spill = alloca ptr, align 8
  %src = alloca i32, align 4
  %result = alloca i32, align 4
  %_0 = alloca i32, align 4
  store ptr %self, ptr %self.dbg.spill, align 8
  call void @llvm.dbg.declare(metadata ptr %self.dbg.spill, metadata !490, metadata !DIExpression()), !dbg !493
  call void @llvm.dbg.declare(metadata ptr %result, metadata !494, metadata !DIExpression()), !dbg !506
  call void @llvm.dbg.declare(metadata ptr %src, metadata !503, metadata !DIExpression()), !dbg !516
  call void @llvm.dbg.declare(metadata ptr %src, metadata !517, metadata !DIExpression()), !dbg !525
  %self1 = getelementptr inbounds i8, ptr %self, i64 16, !dbg !527
  store ptr %self1, ptr %self.dbg.spill2, align 8, !dbg !527
  call void @llvm.dbg.declare(metadata ptr %self.dbg.spill2, metadata !514, metadata !DIExpression()), !dbg !528
  call void @llvm.dbg.declare(metadata ptr %self.dbg.spill2, metadata !502, metadata !DIExpression()), !dbg !529
  call void @llvm.dbg.declare(metadata ptr %self.dbg.spill2, metadata !530, metadata !DIExpression()), !dbg !537
  call void @llvm.dbg.declare(metadata ptr %self.dbg.spill2, metadata !524, metadata !DIExpression()), !dbg !539
  store i32 1114113, ptr %src, align 4, !dbg !540
  %0 = getelementptr inbounds i8, ptr %self, i64 16, !dbg !541
  %1 = load i32, ptr %0, align 8, !dbg !541, !range !442, !noundef !44
  store i32 %1, ptr %result, align 4, !dbg !541
  %2 = getelementptr inbounds i8, ptr %self, i64 16, !dbg !542
  %3 = load i32, ptr %src, align 4, !dbg !542, !range !442, !noundef !44
  store i32 %3, ptr %2, align 8, !dbg !542
  %4 = load i32, ptr %result, align 4, !dbg !527, !range !442, !noundef !44
  %5 = icmp eq i32 %4, 1114113, !dbg !527
  %_4 = select i1 %5, i64 0, i64 1, !dbg !527
  %6 = icmp eq i64 %_4, 0, !dbg !543
  br i1 %6, label %bb2, label %bb3, !dbg !543

bb2:                                              ; preds = %start
; call <core::str::iter::Chars as core::iter::traits::iterator::Iterator>::next
  %7 = call i32 @"_ZN81_$LT$core..str..iter..Chars$u20$as$u20$core..iter..traits..iterator..Iterator$GT$4next17h5978b5f4871dfe8eE"(ptr align 8 %self), !dbg !544, !range !448
  store i32 %7, ptr %_0, align 4, !dbg !544
  br label %bb5, !dbg !545

bb3:                                              ; preds = %start
  %v = load i32, ptr %result, align 4, !dbg !546, !range !448, !noundef !44
  store i32 %v, ptr %v.dbg.spill, align 4, !dbg !546
  call void @llvm.dbg.declare(metadata ptr %v.dbg.spill, metadata !491, metadata !DIExpression()), !dbg !547
  store i32 %v, ptr %_0, align 4, !dbg !548
  br label %bb5, !dbg !549

bb5:                                              ; preds = %bb3, %bb2
  %8 = load i32, ptr %_0, align 4, !dbg !550, !range !448, !noundef !44
  ret i32 %8, !dbg !550

bb1:                                              ; No predecessors!
  unreachable, !dbg !527
}

; <alloc::vec::Vec<T,A> as alloc::vec::spec_extend::SpecExtend<&T,core::slice::iter::Iter<T>>>::spec_extend
; Function Attrs: uwtable
define void @"_ZN132_$LT$alloc..vec..Vec$LT$T$C$A$GT$$u20$as$u20$alloc..vec..spec_extend..SpecExtend$LT$$RF$T$C$core..slice..iter..Iter$LT$T$GT$$GT$$GT$11spec_extend17hc5db481eeefac6afE"(ptr align 8 %self, ptr %0, ptr %1) unnamed_addr #1 !dbg !551 {
start:
  %data_pointer.dbg.spill.i = alloca ptr, align 8
  %end.dbg.spill.i = alloca ptr, align 8
  %self.dbg.spill4.i = alloca ptr, align 8
  %data.dbg.spill.i = alloca ptr, align 8
  %self.dbg.spill2.i = alloca ptr, align 8
  %self.dbg.spill.i = alloca ptr, align 8
  %_21.i = alloca %"core::ptr::metadata::PtrComponents<[u8]>", align 8
  %_20.i = alloca %"core::ptr::metadata::PtrRepr<[u8]>", align 8
  %len.i = alloca i64, align 8
  %slice.dbg.spill = alloca { ptr, i64 }, align 8
  %self.dbg.spill1 = alloca ptr, align 8
  %self.dbg.spill = alloca ptr, align 8
  %iterator = alloca %"core::slice::iter::Iter<'_, u8>", align 8
  store ptr %0, ptr %iterator, align 8
  %2 = getelementptr inbounds i8, ptr %iterator, i64 8
  store ptr %1, ptr %2, align 8
  store ptr %self, ptr %self.dbg.spill, align 8
  call void @llvm.dbg.declare(metadata ptr %self.dbg.spill, metadata !559, metadata !DIExpression()), !dbg !567
  call void @llvm.dbg.declare(metadata ptr %iterator, metadata !560, metadata !DIExpression()), !dbg !568
  store ptr %iterator, ptr %self.dbg.spill1, align 8, !dbg !569
  call void @llvm.dbg.declare(metadata ptr %self.dbg.spill1, metadata !570, metadata !DIExpression()), !dbg !579
  store ptr %iterator, ptr %self.dbg.spill.i, align 8
  call void @llvm.dbg.declare(metadata ptr %self.dbg.spill.i, metadata !581, metadata !DIExpression()), !dbg !590
  call void @llvm.dbg.declare(metadata ptr %len.i, metadata !592, metadata !DIExpression()), !dbg !601
  call void @llvm.dbg.declare(metadata ptr %len.i, metadata !603, metadata !DIExpression()), !dbg !610
  call void @llvm.dbg.declare(metadata ptr %len.i, metadata !612, metadata !DIExpression()), !dbg !619
  %self1.i = load ptr, ptr %iterator, align 8, !dbg !621, !nonnull !44, !noundef !44
  store ptr %self1.i, ptr %self.dbg.spill2.i, align 8, !dbg !621
  call void @llvm.dbg.declare(metadata ptr %self.dbg.spill2.i, metadata !622, metadata !DIExpression()), !dbg !630
  call void @llvm.dbg.declare(metadata ptr %self.dbg.spill2.i, metadata !632, metadata !DIExpression()), !dbg !640
  store ptr %self1.i, ptr %data.dbg.spill.i, align 8, !dbg !642
  call void @llvm.dbg.declare(metadata ptr %data.dbg.spill.i, metadata !600, metadata !DIExpression()), !dbg !643
  call void @llvm.dbg.declare(metadata ptr %data.dbg.spill.i, metadata !609, metadata !DIExpression()), !dbg !644
  call void @llvm.dbg.declare(metadata ptr %data.dbg.spill.i, metadata !645, metadata !DIExpression()), !dbg !656
  %self3.i = getelementptr inbounds i8, ptr %iterator, i64 8, !dbg !658
  store ptr %self3.i, ptr %self.dbg.spill4.i, align 8, !dbg !658
  call void @llvm.dbg.declare(metadata ptr %self.dbg.spill4.i, metadata !659, metadata !DIExpression()), !dbg !670
  %end.i = load ptr, ptr %self3.i, align 8, !dbg !658, !nonnull !44, !noundef !44
  store ptr %end.i, ptr %end.dbg.spill.i, align 8, !dbg !658
  call void @llvm.dbg.declare(metadata ptr %end.dbg.spill.i, metadata !588, metadata !DIExpression()), !dbg !672
  call void @llvm.dbg.declare(metadata ptr %end.dbg.spill.i, metadata !639, metadata !DIExpression()), !dbg !673
; call core::ptr::const_ptr::<impl *const T>::sub_ptr
  %3 = call i64 @"_ZN4core3ptr9const_ptr33_$LT$impl$u20$$BP$const$u20$T$GT$7sub_ptr17hd59adeda57a97ffdE"(ptr %end.i, ptr %self1.i), !dbg !674
  store i64 %3, ptr %len.i, align 8, !dbg !674
  %4 = load i64, ptr %len.i, align 8, !dbg !675, !noundef !44
; call core::slice::raw::from_raw_parts::precondition_check
  call void @_ZN4core5slice3raw14from_raw_parts18precondition_check17h9714f3f488b193f0E(ptr %self1.i, i64 1, i64 1, i64 %4) #22, !dbg !675
  store ptr %self1.i, ptr %data_pointer.dbg.spill.i, align 8, !dbg !676
  call void @llvm.dbg.declare(metadata ptr %data_pointer.dbg.spill.i, metadata !618, metadata !DIExpression()), !dbg !677
  store ptr %self1.i, ptr %_21.i, align 8, !dbg !678
  %5 = load i64, ptr %len.i, align 8, !dbg !678, !noundef !44
  %6 = getelementptr inbounds i8, ptr %_21.i, i64 8, !dbg !678
  store i64 %5, ptr %6, align 8, !dbg !678
  %7 = load ptr, ptr %_21.i, align 8, !dbg !679, !noundef !44
  %8 = getelementptr inbounds i8, ptr %_21.i, i64 8, !dbg !679
  %9 = load i64, ptr %8, align 8, !dbg !679, !noundef !44
  store ptr %7, ptr %_20.i, align 8, !dbg !679
  %10 = getelementptr inbounds i8, ptr %_20.i, i64 8, !dbg !679
  store i64 %9, ptr %10, align 8, !dbg !679
  %_18.0.i = load ptr, ptr %_20.i, align 8, !dbg !679, !noundef !44
  %11 = getelementptr inbounds i8, ptr %_20.i, i64 8, !dbg !679
  %_18.1.i = load i64, ptr %11, align 8, !dbg !679, !noundef !44
  %12 = insertvalue { ptr, i64 } poison, ptr %_18.0.i, 0, !dbg !680
  %13 = insertvalue { ptr, i64 } %12, i64 %_18.1.i, 1, !dbg !680
  %slice.0 = extractvalue { ptr, i64 } %13, 0, !dbg !681
  %slice.1 = extractvalue { ptr, i64 } %13, 1, !dbg !681
  store ptr %slice.0, ptr %slice.dbg.spill, align 8, !dbg !681
  %14 = getelementptr inbounds i8, ptr %slice.dbg.spill, i64 8, !dbg !681
  store i64 %slice.1, ptr %14, align 8, !dbg !681
  call void @llvm.dbg.declare(metadata ptr %slice.dbg.spill, metadata !561, metadata !DIExpression()), !dbg !682
; call alloc::vec::Vec<T,A>::append_elements
  call void @"_ZN5alloc3vec16Vec$LT$T$C$A$GT$15append_elements17h0a2bf9b00647ff64E"(ptr align 8 %self, ptr %slice.0, i64 %slice.1), !dbg !683
  ret void, !dbg !684
}

; <core::result::Result<T,F> as core::ops::try_trait::FromResidual<core::result::Result<core::convert::Infallible,E>>>::from_residual
; Function Attrs: inlinehint uwtable
define zeroext i1 @"_ZN153_$LT$core..result..Result$LT$T$C$F$GT$$u20$as$u20$core..ops..try_trait..FromResidual$LT$core..result..Result$LT$core..convert..Infallible$C$E$GT$$GT$$GT$13from_residual17hde23d3d300bd357cE"(ptr align 8 %0) unnamed_addr #0 !dbg !685 {
start:
  %e.dbg.spill = alloca %"core::fmt::Error", align 1
  %residual.dbg.spill = alloca %"core::result::Result<core::convert::Infallible, core::fmt::Error>::Err", align 1
  %_0 = alloca i8, align 1
  call void @llvm.dbg.declare(metadata ptr %residual.dbg.spill, metadata !726, metadata !DIExpression()), !dbg !731
  call void @llvm.dbg.declare(metadata ptr %e.dbg.spill, metadata !727, metadata !DIExpression()), !dbg !732
  call void @llvm.dbg.declare(metadata ptr undef, metadata !733, metadata !DIExpression()), !dbg !742
  store i8 1, ptr %_0, align 1, !dbg !744
  %1 = load i8, ptr %_0, align 1, !dbg !745, !range !746, !noundef !44
  %2 = trunc i8 %1 to i1, !dbg !745
  ret i1 %2, !dbg !745
}

; <T as alloc::string::ToString>::to_string
; Function Attrs: inlinehint uwtable
define void @"_ZN45_$LT$T$u20$as$u20$alloc..string..ToString$GT$9to_string17h146b89a75e85dafaE"(ptr sret(%"alloc::string::String") align 8 %_0, ptr align 8 %self) unnamed_addr #0 personality ptr @rust_eh_personality !dbg !747 {
start:
  %0 = alloca { ptr, i32, [1 x i32] }, align 8
  %buf.dbg.spill = alloca { ptr, ptr }, align 8
  %self.dbg.spill = alloca ptr, align 8
  %_10 = alloca %"alloc::vec::Vec<u8>", align 8
  %formatter = alloca %"core::fmt::Formatter<'_>", align 8
  %buf = alloca %"alloc::string::String", align 8
  store ptr %self, ptr %self.dbg.spill, align 8
  call void @llvm.dbg.declare(metadata ptr %self.dbg.spill, metadata !760, metadata !DIExpression()), !dbg !798
  call void @llvm.dbg.declare(metadata ptr %buf, metadata !761, metadata !DIExpression()), !dbg !799
  call void @llvm.dbg.declare(metadata ptr %formatter, metadata !763, metadata !DIExpression()), !dbg !800
  store i64 0, ptr %_10, align 8, !dbg !801
  %1 = getelementptr inbounds i8, ptr %_10, i64 8, !dbg !801
  store ptr inttoptr (i64 1 to ptr), ptr %1, align 8, !dbg !801
  %2 = getelementptr inbounds i8, ptr %_10, i64 16, !dbg !801
  store i64 0, ptr %2, align 8, !dbg !801
  call void @llvm.memcpy.p0.p0.i64(ptr align 8 %buf, ptr align 8 %_10, i64 24, i1 false), !dbg !815
  store ptr %buf, ptr %buf.dbg.spill, align 8, !dbg !816
  %3 = getelementptr inbounds i8, ptr %buf.dbg.spill, i64 8, !dbg !816
  store ptr @vtable.0, ptr %3, align 8, !dbg !816
  call void @llvm.dbg.declare(metadata ptr %buf.dbg.spill, metadata !817, metadata !DIExpression()), !dbg !825
  %4 = getelementptr inbounds i8, ptr %formatter, i64 52, !dbg !827
  store i32 0, ptr %4, align 4, !dbg !827
  %5 = getelementptr inbounds i8, ptr %formatter, i64 48, !dbg !827
  store i32 32, ptr %5, align 8, !dbg !827
  %6 = getelementptr inbounds i8, ptr %formatter, i64 56, !dbg !827
  store i8 3, ptr %6, align 8, !dbg !827
  %7 = load i64, ptr @0, align 8, !dbg !827, !range !828, !noundef !44
  %8 = load i64, ptr getelementptr inbounds (i8, ptr @0, i64 8), align 8, !dbg !827
  store i64 %7, ptr %formatter, align 8, !dbg !827
  %9 = getelementptr inbounds i8, ptr %formatter, i64 8, !dbg !827
  store i64 %8, ptr %9, align 8, !dbg !827
  %10 = load i64, ptr @0, align 8, !dbg !827, !range !828, !noundef !44
  %11 = load i64, ptr getelementptr inbounds (i8, ptr @0, i64 8), align 8, !dbg !827
  %12 = getelementptr inbounds i8, ptr %formatter, i64 16, !dbg !827
  store i64 %10, ptr %12, align 8, !dbg !827
  %13 = getelementptr inbounds i8, ptr %12, i64 8, !dbg !827
  store i64 %11, ptr %13, align 8, !dbg !827
  %14 = getelementptr inbounds i8, ptr %formatter, i64 32, !dbg !827
  store ptr %buf, ptr %14, align 8, !dbg !827
  %15 = getelementptr inbounds i8, ptr %14, i64 8, !dbg !827
  store ptr @vtable.0, ptr %15, align 8, !dbg !827
; invoke <heck::lower_camel::AsLowerCamelCase<T> as core::fmt::Display>::fmt
  %_7 = invoke zeroext i1 @"_ZN83_$LT$heck..lower_camel..AsLowerCamelCase$LT$T$GT$$u20$as$u20$core..fmt..Display$GT$3fmt17h7a7c474b5c782630E"(ptr align 8 %self, ptr align 8 %formatter)
          to label %bb1 unwind label %cleanup, !dbg !829

bb3:                                              ; preds = %cleanup
; invoke core::ptr::drop_in_place<alloc::string::String>
  invoke void @"_ZN4core3ptr42drop_in_place$LT$alloc..string..String$GT$17he7facc0b24a9008bE"(ptr align 8 %buf) #23
          to label %bb4 unwind label %terminate, !dbg !830

cleanup:                                          ; preds = %bb1, %start
  %16 = landingpad { ptr, i32 }
          cleanup
  %17 = extractvalue { ptr, i32 } %16, 0
  %18 = extractvalue { ptr, i32 } %16, 1
  store ptr %17, ptr %0, align 8
  %19 = getelementptr inbounds i8, ptr %0, i64 8
  store i32 %18, ptr %19, align 8
  br label %bb3

bb1:                                              ; preds = %start
; invoke core::result::Result<T,E>::expect
  invoke void @"_ZN4core6result19Result$LT$T$C$E$GT$6expect17h79abfb2b57fce247E"(i1 zeroext %_7, ptr align 1 @alloc_cc656815297f75969399c3f4b1ad3de4, i64 55, ptr align 8 @alloc_409c00c6104dbf7acaf821e9c6e95656)
          to label %bb2 unwind label %cleanup, !dbg !829

bb2:                                              ; preds = %bb1
  call void @llvm.memcpy.p0.p0.i64(ptr align 8 %_0, ptr align 8 %buf, i64 24, i1 false), !dbg !831
  ret void, !dbg !832

terminate:                                        ; preds = %bb3
  %20 = landingpad { ptr, i32 }
          filter [0 x ptr] zeroinitializer
  %21 = extractvalue { ptr, i32 } %20, 0
  %22 = extractvalue { ptr, i32 } %20, 1
; call core::panicking::panic_in_cleanup
  call void @_ZN4core9panicking16panic_in_cleanup17hb45215b029b98411E() #24, !dbg !833
  unreachable, !dbg !833

bb4:                                              ; preds = %bb3
  %23 = load ptr, ptr %0, align 8, !dbg !833, !noundef !44
  %24 = getelementptr inbounds i8, ptr %0, i64 8, !dbg !833
  %25 = load i32, ptr %24, align 8, !dbg !833, !noundef !44
  %26 = insertvalue { ptr, i32 } poison, ptr %23, 0, !dbg !833
  %27 = insertvalue { ptr, i32 } %26, i32 %25, 1, !dbg !833
  resume { ptr, i32 } %27, !dbg !833
}

; <T as alloc::string::ToString>::to_string
; Function Attrs: inlinehint uwtable
define void @"_ZN45_$LT$T$u20$as$u20$alloc..string..ToString$GT$9to_string17h1a76cb3a96dc1daeE"(ptr sret(%"alloc::string::String") align 8 %_0, ptr align 8 %self) unnamed_addr #0 personality ptr @rust_eh_personality !dbg !834 {
start:
  %0 = alloca { ptr, i32, [1 x i32] }, align 8
  %buf.dbg.spill = alloca { ptr, ptr }, align 8
  %self.dbg.spill = alloca ptr, align 8
  %_10 = alloca %"alloc::vec::Vec<u8>", align 8
  %formatter = alloca %"core::fmt::Formatter<'_>", align 8
  %buf = alloca %"alloc::string::String", align 8
  store ptr %self, ptr %self.dbg.spill, align 8
  call void @llvm.dbg.declare(metadata ptr %self.dbg.spill, metadata !843, metadata !DIExpression()), !dbg !850
  call void @llvm.dbg.declare(metadata ptr %buf, metadata !844, metadata !DIExpression()), !dbg !851
  call void @llvm.dbg.declare(metadata ptr %formatter, metadata !846, metadata !DIExpression()), !dbg !852
  store i64 0, ptr %_10, align 8, !dbg !853
  %1 = getelementptr inbounds i8, ptr %_10, i64 8, !dbg !853
  store ptr inttoptr (i64 1 to ptr), ptr %1, align 8, !dbg !853
  %2 = getelementptr inbounds i8, ptr %_10, i64 16, !dbg !853
  store i64 0, ptr %2, align 8, !dbg !853
  call void @llvm.memcpy.p0.p0.i64(ptr align 8 %buf, ptr align 8 %_10, i64 24, i1 false), !dbg !860
  store ptr %buf, ptr %buf.dbg.spill, align 8, !dbg !861
  %3 = getelementptr inbounds i8, ptr %buf.dbg.spill, i64 8, !dbg !861
  store ptr @vtable.0, ptr %3, align 8, !dbg !861
  call void @llvm.dbg.declare(metadata ptr %buf.dbg.spill, metadata !862, metadata !DIExpression()), !dbg !866
  %4 = getelementptr inbounds i8, ptr %formatter, i64 52, !dbg !868
  store i32 0, ptr %4, align 4, !dbg !868
  %5 = getelementptr inbounds i8, ptr %formatter, i64 48, !dbg !868
  store i32 32, ptr %5, align 8, !dbg !868
  %6 = getelementptr inbounds i8, ptr %formatter, i64 56, !dbg !868
  store i8 3, ptr %6, align 8, !dbg !868
  %7 = load i64, ptr @0, align 8, !dbg !868, !range !828, !noundef !44
  %8 = load i64, ptr getelementptr inbounds (i8, ptr @0, i64 8), align 8, !dbg !868
  store i64 %7, ptr %formatter, align 8, !dbg !868
  %9 = getelementptr inbounds i8, ptr %formatter, i64 8, !dbg !868
  store i64 %8, ptr %9, align 8, !dbg !868
  %10 = load i64, ptr @0, align 8, !dbg !868, !range !828, !noundef !44
  %11 = load i64, ptr getelementptr inbounds (i8, ptr @0, i64 8), align 8, !dbg !868
  %12 = getelementptr inbounds i8, ptr %formatter, i64 16, !dbg !868
  store i64 %10, ptr %12, align 8, !dbg !868
  %13 = getelementptr inbounds i8, ptr %12, i64 8, !dbg !868
  store i64 %11, ptr %13, align 8, !dbg !868
  %14 = getelementptr inbounds i8, ptr %formatter, i64 32, !dbg !868
  store ptr %buf, ptr %14, align 8, !dbg !868
  %15 = getelementptr inbounds i8, ptr %14, i64 8, !dbg !868
  store ptr @vtable.0, ptr %15, align 8, !dbg !868
; invoke <heck::kebab::AsKebabCase<T> as core::fmt::Display>::fmt
  %_7 = invoke zeroext i1 @"_ZN72_$LT$heck..kebab..AsKebabCase$LT$T$GT$$u20$as$u20$core..fmt..Display$GT$3fmt17h715baab78898b282E"(ptr align 8 %self, ptr align 8 %formatter)
          to label %bb1 unwind label %cleanup, !dbg !869

bb3:                                              ; preds = %cleanup
; invoke core::ptr::drop_in_place<alloc::string::String>
  invoke void @"_ZN4core3ptr42drop_in_place$LT$alloc..string..String$GT$17he7facc0b24a9008bE"(ptr align 8 %buf) #23
          to label %bb4 unwind label %terminate, !dbg !870

cleanup:                                          ; preds = %bb1, %start
  %16 = landingpad { ptr, i32 }
          cleanup
  %17 = extractvalue { ptr, i32 } %16, 0
  %18 = extractvalue { ptr, i32 } %16, 1
  store ptr %17, ptr %0, align 8
  %19 = getelementptr inbounds i8, ptr %0, i64 8
  store i32 %18, ptr %19, align 8
  br label %bb3

bb1:                                              ; preds = %start
; invoke core::result::Result<T,E>::expect
  invoke void @"_ZN4core6result19Result$LT$T$C$E$GT$6expect17h79abfb2b57fce247E"(i1 zeroext %_7, ptr align 1 @alloc_cc656815297f75969399c3f4b1ad3de4, i64 55, ptr align 8 @alloc_409c00c6104dbf7acaf821e9c6e95656)
          to label %bb2 unwind label %cleanup, !dbg !869

bb2:                                              ; preds = %bb1
  call void @llvm.memcpy.p0.p0.i64(ptr align 8 %_0, ptr align 8 %buf, i64 24, i1 false), !dbg !871
  ret void, !dbg !872

terminate:                                        ; preds = %bb3
  %20 = landingpad { ptr, i32 }
          filter [0 x ptr] zeroinitializer
  %21 = extractvalue { ptr, i32 } %20, 0
  %22 = extractvalue { ptr, i32 } %20, 1
; call core::panicking::panic_in_cleanup
  call void @_ZN4core9panicking16panic_in_cleanup17hb45215b029b98411E() #24, !dbg !873
  unreachable, !dbg !873

bb4:                                              ; preds = %bb3
  %23 = load ptr, ptr %0, align 8, !dbg !873, !noundef !44
  %24 = getelementptr inbounds i8, ptr %0, i64 8, !dbg !873
  %25 = load i32, ptr %24, align 8, !dbg !873, !noundef !44
  %26 = insertvalue { ptr, i32 } poison, ptr %23, 0, !dbg !873
  %27 = insertvalue { ptr, i32 } %26, i32 %25, 1, !dbg !873
  resume { ptr, i32 } %27, !dbg !873
}

; <T as alloc::string::ToString>::to_string
; Function Attrs: inlinehint uwtable
define void @"_ZN45_$LT$T$u20$as$u20$alloc..string..ToString$GT$9to_string17h238725325a74a259E"(ptr sret(%"alloc::string::String") align 8 %_0, ptr align 8 %self) unnamed_addr #0 personality ptr @rust_eh_personality !dbg !874 {
start:
  %0 = alloca { ptr, i32, [1 x i32] }, align 8
  %buf.dbg.spill = alloca { ptr, ptr }, align 8
  %self.dbg.spill = alloca ptr, align 8
  %_10 = alloca %"alloc::vec::Vec<u8>", align 8
  %formatter = alloca %"core::fmt::Formatter<'_>", align 8
  %buf = alloca %"alloc::string::String", align 8
  store ptr %self, ptr %self.dbg.spill, align 8
  call void @llvm.dbg.declare(metadata ptr %self.dbg.spill, metadata !883, metadata !DIExpression()), !dbg !890
  call void @llvm.dbg.declare(metadata ptr %buf, metadata !884, metadata !DIExpression()), !dbg !891
  call void @llvm.dbg.declare(metadata ptr %formatter, metadata !886, metadata !DIExpression()), !dbg !892
  store i64 0, ptr %_10, align 8, !dbg !893
  %1 = getelementptr inbounds i8, ptr %_10, i64 8, !dbg !893
  store ptr inttoptr (i64 1 to ptr), ptr %1, align 8, !dbg !893
  %2 = getelementptr inbounds i8, ptr %_10, i64 16, !dbg !893
  store i64 0, ptr %2, align 8, !dbg !893
  call void @llvm.memcpy.p0.p0.i64(ptr align 8 %buf, ptr align 8 %_10, i64 24, i1 false), !dbg !900
  store ptr %buf, ptr %buf.dbg.spill, align 8, !dbg !901
  %3 = getelementptr inbounds i8, ptr %buf.dbg.spill, i64 8, !dbg !901
  store ptr @vtable.0, ptr %3, align 8, !dbg !901
  call void @llvm.dbg.declare(metadata ptr %buf.dbg.spill, metadata !902, metadata !DIExpression()), !dbg !906
  %4 = getelementptr inbounds i8, ptr %formatter, i64 52, !dbg !908
  store i32 0, ptr %4, align 4, !dbg !908
  %5 = getelementptr inbounds i8, ptr %formatter, i64 48, !dbg !908
  store i32 32, ptr %5, align 8, !dbg !908
  %6 = getelementptr inbounds i8, ptr %formatter, i64 56, !dbg !908
  store i8 3, ptr %6, align 8, !dbg !908
  %7 = load i64, ptr @0, align 8, !dbg !908, !range !828, !noundef !44
  %8 = load i64, ptr getelementptr inbounds (i8, ptr @0, i64 8), align 8, !dbg !908
  store i64 %7, ptr %formatter, align 8, !dbg !908
  %9 = getelementptr inbounds i8, ptr %formatter, i64 8, !dbg !908
  store i64 %8, ptr %9, align 8, !dbg !908
  %10 = load i64, ptr @0, align 8, !dbg !908, !range !828, !noundef !44
  %11 = load i64, ptr getelementptr inbounds (i8, ptr @0, i64 8), align 8, !dbg !908
  %12 = getelementptr inbounds i8, ptr %formatter, i64 16, !dbg !908
  store i64 %10, ptr %12, align 8, !dbg !908
  %13 = getelementptr inbounds i8, ptr %12, i64 8, !dbg !908
  store i64 %11, ptr %13, align 8, !dbg !908
  %14 = getelementptr inbounds i8, ptr %formatter, i64 32, !dbg !908
  store ptr %buf, ptr %14, align 8, !dbg !908
  %15 = getelementptr inbounds i8, ptr %14, i64 8, !dbg !908
  store ptr @vtable.0, ptr %15, align 8, !dbg !908
; invoke <heck::shouty_snake::AsShoutySnakeCase<T> as core::fmt::Display>::fmt
  %_7 = invoke zeroext i1 @"_ZN85_$LT$heck..shouty_snake..AsShoutySnakeCase$LT$T$GT$$u20$as$u20$core..fmt..Display$GT$3fmt17h22130c6cea16e71aE"(ptr align 8 %self, ptr align 8 %formatter)
          to label %bb1 unwind label %cleanup, !dbg !909

bb3:                                              ; preds = %cleanup
; invoke core::ptr::drop_in_place<alloc::string::String>
  invoke void @"_ZN4core3ptr42drop_in_place$LT$alloc..string..String$GT$17he7facc0b24a9008bE"(ptr align 8 %buf) #23
          to label %bb4 unwind label %terminate, !dbg !910

cleanup:                                          ; preds = %bb1, %start
  %16 = landingpad { ptr, i32 }
          cleanup
  %17 = extractvalue { ptr, i32 } %16, 0
  %18 = extractvalue { ptr, i32 } %16, 1
  store ptr %17, ptr %0, align 8
  %19 = getelementptr inbounds i8, ptr %0, i64 8
  store i32 %18, ptr %19, align 8
  br label %bb3

bb1:                                              ; preds = %start
; invoke core::result::Result<T,E>::expect
  invoke void @"_ZN4core6result19Result$LT$T$C$E$GT$6expect17h79abfb2b57fce247E"(i1 zeroext %_7, ptr align 1 @alloc_cc656815297f75969399c3f4b1ad3de4, i64 55, ptr align 8 @alloc_409c00c6104dbf7acaf821e9c6e95656)
          to label %bb2 unwind label %cleanup, !dbg !909

bb2:                                              ; preds = %bb1
  call void @llvm.memcpy.p0.p0.i64(ptr align 8 %_0, ptr align 8 %buf, i64 24, i1 false), !dbg !911
  ret void, !dbg !912

terminate:                                        ; preds = %bb3
  %20 = landingpad { ptr, i32 }
          filter [0 x ptr] zeroinitializer
  %21 = extractvalue { ptr, i32 } %20, 0
  %22 = extractvalue { ptr, i32 } %20, 1
; call core::panicking::panic_in_cleanup
  call void @_ZN4core9panicking16panic_in_cleanup17hb45215b029b98411E() #24, !dbg !913
  unreachable, !dbg !913

bb4:                                              ; preds = %bb3
  %23 = load ptr, ptr %0, align 8, !dbg !913, !noundef !44
  %24 = getelementptr inbounds i8, ptr %0, i64 8, !dbg !913
  %25 = load i32, ptr %24, align 8, !dbg !913, !noundef !44
  %26 = insertvalue { ptr, i32 } poison, ptr %23, 0, !dbg !913
  %27 = insertvalue { ptr, i32 } %26, i32 %25, 1, !dbg !913
  resume { ptr, i32 } %27, !dbg !913
}

; <T as alloc::string::ToString>::to_string
; Function Attrs: inlinehint uwtable
define void @"_ZN45_$LT$T$u20$as$u20$alloc..string..ToString$GT$9to_string17h427ac2879f0d1c5cE"(ptr sret(%"alloc::string::String") align 8 %_0, ptr align 8 %self) unnamed_addr #0 personality ptr @rust_eh_personality !dbg !914 {
start:
  %0 = alloca { ptr, i32, [1 x i32] }, align 8
  %buf.dbg.spill = alloca { ptr, ptr }, align 8
  %self.dbg.spill = alloca ptr, align 8
  %_10 = alloca %"alloc::vec::Vec<u8>", align 8
  %formatter = alloca %"core::fmt::Formatter<'_>", align 8
  %buf = alloca %"alloc::string::String", align 8
  store ptr %self, ptr %self.dbg.spill, align 8
  call void @llvm.dbg.declare(metadata ptr %self.dbg.spill, metadata !923, metadata !DIExpression()), !dbg !930
  call void @llvm.dbg.declare(metadata ptr %buf, metadata !924, metadata !DIExpression()), !dbg !931
  call void @llvm.dbg.declare(metadata ptr %formatter, metadata !926, metadata !DIExpression()), !dbg !932
  store i64 0, ptr %_10, align 8, !dbg !933
  %1 = getelementptr inbounds i8, ptr %_10, i64 8, !dbg !933
  store ptr inttoptr (i64 1 to ptr), ptr %1, align 8, !dbg !933
  %2 = getelementptr inbounds i8, ptr %_10, i64 16, !dbg !933
  store i64 0, ptr %2, align 8, !dbg !933
  call void @llvm.memcpy.p0.p0.i64(ptr align 8 %buf, ptr align 8 %_10, i64 24, i1 false), !dbg !940
  store ptr %buf, ptr %buf.dbg.spill, align 8, !dbg !941
  %3 = getelementptr inbounds i8, ptr %buf.dbg.spill, i64 8, !dbg !941
  store ptr @vtable.0, ptr %3, align 8, !dbg !941
  call void @llvm.dbg.declare(metadata ptr %buf.dbg.spill, metadata !942, metadata !DIExpression()), !dbg !946
  %4 = getelementptr inbounds i8, ptr %formatter, i64 52, !dbg !948
  store i32 0, ptr %4, align 4, !dbg !948
  %5 = getelementptr inbounds i8, ptr %formatter, i64 48, !dbg !948
  store i32 32, ptr %5, align 8, !dbg !948
  %6 = getelementptr inbounds i8, ptr %formatter, i64 56, !dbg !948
  store i8 3, ptr %6, align 8, !dbg !948
  %7 = load i64, ptr @0, align 8, !dbg !948, !range !828, !noundef !44
  %8 = load i64, ptr getelementptr inbounds (i8, ptr @0, i64 8), align 8, !dbg !948
  store i64 %7, ptr %formatter, align 8, !dbg !948
  %9 = getelementptr inbounds i8, ptr %formatter, i64 8, !dbg !948
  store i64 %8, ptr %9, align 8, !dbg !948
  %10 = load i64, ptr @0, align 8, !dbg !948, !range !828, !noundef !44
  %11 = load i64, ptr getelementptr inbounds (i8, ptr @0, i64 8), align 8, !dbg !948
  %12 = getelementptr inbounds i8, ptr %formatter, i64 16, !dbg !948
  store i64 %10, ptr %12, align 8, !dbg !948
  %13 = getelementptr inbounds i8, ptr %12, i64 8, !dbg !948
  store i64 %11, ptr %13, align 8, !dbg !948
  %14 = getelementptr inbounds i8, ptr %formatter, i64 32, !dbg !948
  store ptr %buf, ptr %14, align 8, !dbg !948
  %15 = getelementptr inbounds i8, ptr %14, i64 8, !dbg !948
  store ptr @vtable.0, ptr %15, align 8, !dbg !948
; invoke <heck::upper_camel::AsUpperCamelCase<T> as core::fmt::Display>::fmt
  %_7 = invoke zeroext i1 @"_ZN83_$LT$heck..upper_camel..AsUpperCamelCase$LT$T$GT$$u20$as$u20$core..fmt..Display$GT$3fmt17hd0c83811f5325671E"(ptr align 8 %self, ptr align 8 %formatter)
          to label %bb1 unwind label %cleanup, !dbg !949

bb3:                                              ; preds = %cleanup
; invoke core::ptr::drop_in_place<alloc::string::String>
  invoke void @"_ZN4core3ptr42drop_in_place$LT$alloc..string..String$GT$17he7facc0b24a9008bE"(ptr align 8 %buf) #23
          to label %bb4 unwind label %terminate, !dbg !950

cleanup:                                          ; preds = %bb1, %start
  %16 = landingpad { ptr, i32 }
          cleanup
  %17 = extractvalue { ptr, i32 } %16, 0
  %18 = extractvalue { ptr, i32 } %16, 1
  store ptr %17, ptr %0, align 8
  %19 = getelementptr inbounds i8, ptr %0, i64 8
  store i32 %18, ptr %19, align 8
  br label %bb3

bb1:                                              ; preds = %start
; invoke core::result::Result<T,E>::expect
  invoke void @"_ZN4core6result19Result$LT$T$C$E$GT$6expect17h79abfb2b57fce247E"(i1 zeroext %_7, ptr align 1 @alloc_cc656815297f75969399c3f4b1ad3de4, i64 55, ptr align 8 @alloc_409c00c6104dbf7acaf821e9c6e95656)
          to label %bb2 unwind label %cleanup, !dbg !949

bb2:                                              ; preds = %bb1
  call void @llvm.memcpy.p0.p0.i64(ptr align 8 %_0, ptr align 8 %buf, i64 24, i1 false), !dbg !951
  ret void, !dbg !952

terminate:                                        ; preds = %bb3
  %20 = landingpad { ptr, i32 }
          filter [0 x ptr] zeroinitializer
  %21 = extractvalue { ptr, i32 } %20, 0
  %22 = extractvalue { ptr, i32 } %20, 1
; call core::panicking::panic_in_cleanup
  call void @_ZN4core9panicking16panic_in_cleanup17hb45215b029b98411E() #24, !dbg !953
  unreachable, !dbg !953

bb4:                                              ; preds = %bb3
  %23 = load ptr, ptr %0, align 8, !dbg !953, !noundef !44
  %24 = getelementptr inbounds i8, ptr %0, i64 8, !dbg !953
  %25 = load i32, ptr %24, align 8, !dbg !953, !noundef !44
  %26 = insertvalue { ptr, i32 } poison, ptr %23, 0, !dbg !953
  %27 = insertvalue { ptr, i32 } %26, i32 %25, 1, !dbg !953
  resume { ptr, i32 } %27, !dbg !953
}

; <T as alloc::string::ToString>::to_string
; Function Attrs: inlinehint uwtable
define void @"_ZN45_$LT$T$u20$as$u20$alloc..string..ToString$GT$9to_string17h57e73361dd273248E"(ptr sret(%"alloc::string::String") align 8 %_0, ptr align 8 %self) unnamed_addr #0 personality ptr @rust_eh_personality !dbg !954 {
start:
  %0 = alloca { ptr, i32, [1 x i32] }, align 8
  %buf.dbg.spill = alloca { ptr, ptr }, align 8
  %self.dbg.spill = alloca ptr, align 8
  %_10 = alloca %"alloc::vec::Vec<u8>", align 8
  %formatter = alloca %"core::fmt::Formatter<'_>", align 8
  %buf = alloca %"alloc::string::String", align 8
  store ptr %self, ptr %self.dbg.spill, align 8
  call void @llvm.dbg.declare(metadata ptr %self.dbg.spill, metadata !963, metadata !DIExpression()), !dbg !970
  call void @llvm.dbg.declare(metadata ptr %buf, metadata !964, metadata !DIExpression()), !dbg !971
  call void @llvm.dbg.declare(metadata ptr %formatter, metadata !966, metadata !DIExpression()), !dbg !972
  store i64 0, ptr %_10, align 8, !dbg !973
  %1 = getelementptr inbounds i8, ptr %_10, i64 8, !dbg !973
  store ptr inttoptr (i64 1 to ptr), ptr %1, align 8, !dbg !973
  %2 = getelementptr inbounds i8, ptr %_10, i64 16, !dbg !973
  store i64 0, ptr %2, align 8, !dbg !973
  call void @llvm.memcpy.p0.p0.i64(ptr align 8 %buf, ptr align 8 %_10, i64 24, i1 false), !dbg !980
  store ptr %buf, ptr %buf.dbg.spill, align 8, !dbg !981
  %3 = getelementptr inbounds i8, ptr %buf.dbg.spill, i64 8, !dbg !981
  store ptr @vtable.0, ptr %3, align 8, !dbg !981
  call void @llvm.dbg.declare(metadata ptr %buf.dbg.spill, metadata !982, metadata !DIExpression()), !dbg !986
  %4 = getelementptr inbounds i8, ptr %formatter, i64 52, !dbg !988
  store i32 0, ptr %4, align 4, !dbg !988
  %5 = getelementptr inbounds i8, ptr %formatter, i64 48, !dbg !988
  store i32 32, ptr %5, align 8, !dbg !988
  %6 = getelementptr inbounds i8, ptr %formatter, i64 56, !dbg !988
  store i8 3, ptr %6, align 8, !dbg !988
  %7 = load i64, ptr @0, align 8, !dbg !988, !range !828, !noundef !44
  %8 = load i64, ptr getelementptr inbounds (i8, ptr @0, i64 8), align 8, !dbg !988
  store i64 %7, ptr %formatter, align 8, !dbg !988
  %9 = getelementptr inbounds i8, ptr %formatter, i64 8, !dbg !988
  store i64 %8, ptr %9, align 8, !dbg !988
  %10 = load i64, ptr @0, align 8, !dbg !988, !range !828, !noundef !44
  %11 = load i64, ptr getelementptr inbounds (i8, ptr @0, i64 8), align 8, !dbg !988
  %12 = getelementptr inbounds i8, ptr %formatter, i64 16, !dbg !988
  store i64 %10, ptr %12, align 8, !dbg !988
  %13 = getelementptr inbounds i8, ptr %12, i64 8, !dbg !988
  store i64 %11, ptr %13, align 8, !dbg !988
  %14 = getelementptr inbounds i8, ptr %formatter, i64 32, !dbg !988
  store ptr %buf, ptr %14, align 8, !dbg !988
  %15 = getelementptr inbounds i8, ptr %14, i64 8, !dbg !988
  store ptr @vtable.0, ptr %15, align 8, !dbg !988
; invoke <heck::title::AsTitleCase<T> as core::fmt::Display>::fmt
  %_7 = invoke zeroext i1 @"_ZN72_$LT$heck..title..AsTitleCase$LT$T$GT$$u20$as$u20$core..fmt..Display$GT$3fmt17h5cc5b5d964716c2dE"(ptr align 8 %self, ptr align 8 %formatter)
          to label %bb1 unwind label %cleanup, !dbg !989

bb3:                                              ; preds = %cleanup
; invoke core::ptr::drop_in_place<alloc::string::String>
  invoke void @"_ZN4core3ptr42drop_in_place$LT$alloc..string..String$GT$17he7facc0b24a9008bE"(ptr align 8 %buf) #23
          to label %bb4 unwind label %terminate, !dbg !990

cleanup:                                          ; preds = %bb1, %start
  %16 = landingpad { ptr, i32 }
          cleanup
  %17 = extractvalue { ptr, i32 } %16, 0
  %18 = extractvalue { ptr, i32 } %16, 1
  store ptr %17, ptr %0, align 8
  %19 = getelementptr inbounds i8, ptr %0, i64 8
  store i32 %18, ptr %19, align 8
  br label %bb3

bb1:                                              ; preds = %start
; invoke core::result::Result<T,E>::expect
  invoke void @"_ZN4core6result19Result$LT$T$C$E$GT$6expect17h79abfb2b57fce247E"(i1 zeroext %_7, ptr align 1 @alloc_cc656815297f75969399c3f4b1ad3de4, i64 55, ptr align 8 @alloc_409c00c6104dbf7acaf821e9c6e95656)
          to label %bb2 unwind label %cleanup, !dbg !989

bb2:                                              ; preds = %bb1
  call void @llvm.memcpy.p0.p0.i64(ptr align 8 %_0, ptr align 8 %buf, i64 24, i1 false), !dbg !991
  ret void, !dbg !992

terminate:                                        ; preds = %bb3
  %20 = landingpad { ptr, i32 }
          filter [0 x ptr] zeroinitializer
  %21 = extractvalue { ptr, i32 } %20, 0
  %22 = extractvalue { ptr, i32 } %20, 1
; call core::panicking::panic_in_cleanup
  call void @_ZN4core9panicking16panic_in_cleanup17hb45215b029b98411E() #24, !dbg !993
  unreachable, !dbg !993

bb4:                                              ; preds = %bb3
  %23 = load ptr, ptr %0, align 8, !dbg !993, !noundef !44
  %24 = getelementptr inbounds i8, ptr %0, i64 8, !dbg !993
  %25 = load i32, ptr %24, align 8, !dbg !993, !noundef !44
  %26 = insertvalue { ptr, i32 } poison, ptr %23, 0, !dbg !993
  %27 = insertvalue { ptr, i32 } %26, i32 %25, 1, !dbg !993
  resume { ptr, i32 } %27, !dbg !993
}

; <T as alloc::string::ToString>::to_string
; Function Attrs: inlinehint uwtable
define void @"_ZN45_$LT$T$u20$as$u20$alloc..string..ToString$GT$9to_string17ha9b79a768d79f9a5E"(ptr sret(%"alloc::string::String") align 8 %_0, ptr align 8 %self) unnamed_addr #0 personality ptr @rust_eh_personality !dbg !994 {
start:
  %0 = alloca { ptr, i32, [1 x i32] }, align 8
  %buf.dbg.spill = alloca { ptr, ptr }, align 8
  %self.dbg.spill = alloca ptr, align 8
  %_10 = alloca %"alloc::vec::Vec<u8>", align 8
  %formatter = alloca %"core::fmt::Formatter<'_>", align 8
  %buf = alloca %"alloc::string::String", align 8
  store ptr %self, ptr %self.dbg.spill, align 8
  call void @llvm.dbg.declare(metadata ptr %self.dbg.spill, metadata !1003, metadata !DIExpression()), !dbg !1010
  call void @llvm.dbg.declare(metadata ptr %buf, metadata !1004, metadata !DIExpression()), !dbg !1011
  call void @llvm.dbg.declare(metadata ptr %formatter, metadata !1006, metadata !DIExpression()), !dbg !1012
  store i64 0, ptr %_10, align 8, !dbg !1013
  %1 = getelementptr inbounds i8, ptr %_10, i64 8, !dbg !1013
  store ptr inttoptr (i64 1 to ptr), ptr %1, align 8, !dbg !1013
  %2 = getelementptr inbounds i8, ptr %_10, i64 16, !dbg !1013
  store i64 0, ptr %2, align 8, !dbg !1013
  call void @llvm.memcpy.p0.p0.i64(ptr align 8 %buf, ptr align 8 %_10, i64 24, i1 false), !dbg !1020
  store ptr %buf, ptr %buf.dbg.spill, align 8, !dbg !1021
  %3 = getelementptr inbounds i8, ptr %buf.dbg.spill, i64 8, !dbg !1021
  store ptr @vtable.0, ptr %3, align 8, !dbg !1021
  call void @llvm.dbg.declare(metadata ptr %buf.dbg.spill, metadata !1022, metadata !DIExpression()), !dbg !1026
  %4 = getelementptr inbounds i8, ptr %formatter, i64 52, !dbg !1028
  store i32 0, ptr %4, align 4, !dbg !1028
  %5 = getelementptr inbounds i8, ptr %formatter, i64 48, !dbg !1028
  store i32 32, ptr %5, align 8, !dbg !1028
  %6 = getelementptr inbounds i8, ptr %formatter, i64 56, !dbg !1028
  store i8 3, ptr %6, align 8, !dbg !1028
  %7 = load i64, ptr @0, align 8, !dbg !1028, !range !828, !noundef !44
  %8 = load i64, ptr getelementptr inbounds (i8, ptr @0, i64 8), align 8, !dbg !1028
  store i64 %7, ptr %formatter, align 8, !dbg !1028
  %9 = getelementptr inbounds i8, ptr %formatter, i64 8, !dbg !1028
  store i64 %8, ptr %9, align 8, !dbg !1028
  %10 = load i64, ptr @0, align 8, !dbg !1028, !range !828, !noundef !44
  %11 = load i64, ptr getelementptr inbounds (i8, ptr @0, i64 8), align 8, !dbg !1028
  %12 = getelementptr inbounds i8, ptr %formatter, i64 16, !dbg !1028
  store i64 %10, ptr %12, align 8, !dbg !1028
  %13 = getelementptr inbounds i8, ptr %12, i64 8, !dbg !1028
  store i64 %11, ptr %13, align 8, !dbg !1028
  %14 = getelementptr inbounds i8, ptr %formatter, i64 32, !dbg !1028
  store ptr %buf, ptr %14, align 8, !dbg !1028
  %15 = getelementptr inbounds i8, ptr %14, i64 8, !dbg !1028
  store ptr @vtable.0, ptr %15, align 8, !dbg !1028
; invoke <heck::snake::AsSnakeCase<T> as core::fmt::Display>::fmt
  %_7 = invoke zeroext i1 @"_ZN72_$LT$heck..snake..AsSnakeCase$LT$T$GT$$u20$as$u20$core..fmt..Display$GT$3fmt17hf2a92fa47cd0eda4E"(ptr align 8 %self, ptr align 8 %formatter)
          to label %bb1 unwind label %cleanup, !dbg !1029

bb3:                                              ; preds = %cleanup
; invoke core::ptr::drop_in_place<alloc::string::String>
  invoke void @"_ZN4core3ptr42drop_in_place$LT$alloc..string..String$GT$17he7facc0b24a9008bE"(ptr align 8 %buf) #23
          to label %bb4 unwind label %terminate, !dbg !1030

cleanup:                                          ; preds = %bb1, %start
  %16 = landingpad { ptr, i32 }
          cleanup
  %17 = extractvalue { ptr, i32 } %16, 0
  %18 = extractvalue { ptr, i32 } %16, 1
  store ptr %17, ptr %0, align 8
  %19 = getelementptr inbounds i8, ptr %0, i64 8
  store i32 %18, ptr %19, align 8
  br label %bb3

bb1:                                              ; preds = %start
; invoke core::result::Result<T,E>::expect
  invoke void @"_ZN4core6result19Result$LT$T$C$E$GT$6expect17h79abfb2b57fce247E"(i1 zeroext %_7, ptr align 1 @alloc_cc656815297f75969399c3f4b1ad3de4, i64 55, ptr align 8 @alloc_409c00c6104dbf7acaf821e9c6e95656)
          to label %bb2 unwind label %cleanup, !dbg !1029

bb2:                                              ; preds = %bb1
  call void @llvm.memcpy.p0.p0.i64(ptr align 8 %_0, ptr align 8 %buf, i64 24, i1 false), !dbg !1031
  ret void, !dbg !1032

terminate:                                        ; preds = %bb3
  %20 = landingpad { ptr, i32 }
          filter [0 x ptr] zeroinitializer
  %21 = extractvalue { ptr, i32 } %20, 0
  %22 = extractvalue { ptr, i32 } %20, 1
; call core::panicking::panic_in_cleanup
  call void @_ZN4core9panicking16panic_in_cleanup17hb45215b029b98411E() #24, !dbg !1033
  unreachable, !dbg !1033

bb4:                                              ; preds = %bb3
  %23 = load ptr, ptr %0, align 8, !dbg !1033, !noundef !44
  %24 = getelementptr inbounds i8, ptr %0, i64 8, !dbg !1033
  %25 = load i32, ptr %24, align 8, !dbg !1033, !noundef !44
  %26 = insertvalue { ptr, i32 } poison, ptr %23, 0, !dbg !1033
  %27 = insertvalue { ptr, i32 } %26, i32 %25, 1, !dbg !1033
  resume { ptr, i32 } %27, !dbg !1033
}

; <T as alloc::string::ToString>::to_string
; Function Attrs: inlinehint uwtable
define void @"_ZN45_$LT$T$u20$as$u20$alloc..string..ToString$GT$9to_string17hd1c8b69f77da9138E"(ptr sret(%"alloc::string::String") align 8 %_0, ptr align 8 %self) unnamed_addr #0 personality ptr @rust_eh_personality !dbg !1034 {
start:
  %0 = alloca { ptr, i32, [1 x i32] }, align 8
  %buf.dbg.spill = alloca { ptr, ptr }, align 8
  %self.dbg.spill = alloca ptr, align 8
  %_10 = alloca %"alloc::vec::Vec<u8>", align 8
  %formatter = alloca %"core::fmt::Formatter<'_>", align 8
  %buf = alloca %"alloc::string::String", align 8
  store ptr %self, ptr %self.dbg.spill, align 8
  call void @llvm.dbg.declare(metadata ptr %self.dbg.spill, metadata !1043, metadata !DIExpression()), !dbg !1050
  call void @llvm.dbg.declare(metadata ptr %buf, metadata !1044, metadata !DIExpression()), !dbg !1051
  call void @llvm.dbg.declare(metadata ptr %formatter, metadata !1046, metadata !DIExpression()), !dbg !1052
  store i64 0, ptr %_10, align 8, !dbg !1053
  %1 = getelementptr inbounds i8, ptr %_10, i64 8, !dbg !1053
  store ptr inttoptr (i64 1 to ptr), ptr %1, align 8, !dbg !1053
  %2 = getelementptr inbounds i8, ptr %_10, i64 16, !dbg !1053
  store i64 0, ptr %2, align 8, !dbg !1053
  call void @llvm.memcpy.p0.p0.i64(ptr align 8 %buf, ptr align 8 %_10, i64 24, i1 false), !dbg !1060
  store ptr %buf, ptr %buf.dbg.spill, align 8, !dbg !1061
  %3 = getelementptr inbounds i8, ptr %buf.dbg.spill, i64 8, !dbg !1061
  store ptr @vtable.0, ptr %3, align 8, !dbg !1061
  call void @llvm.dbg.declare(metadata ptr %buf.dbg.spill, metadata !1062, metadata !DIExpression()), !dbg !1066
  %4 = getelementptr inbounds i8, ptr %formatter, i64 52, !dbg !1068
  store i32 0, ptr %4, align 4, !dbg !1068
  %5 = getelementptr inbounds i8, ptr %formatter, i64 48, !dbg !1068
  store i32 32, ptr %5, align 8, !dbg !1068
  %6 = getelementptr inbounds i8, ptr %formatter, i64 56, !dbg !1068
  store i8 3, ptr %6, align 8, !dbg !1068
  %7 = load i64, ptr @0, align 8, !dbg !1068, !range !828, !noundef !44
  %8 = load i64, ptr getelementptr inbounds (i8, ptr @0, i64 8), align 8, !dbg !1068
  store i64 %7, ptr %formatter, align 8, !dbg !1068
  %9 = getelementptr inbounds i8, ptr %formatter, i64 8, !dbg !1068
  store i64 %8, ptr %9, align 8, !dbg !1068
  %10 = load i64, ptr @0, align 8, !dbg !1068, !range !828, !noundef !44
  %11 = load i64, ptr getelementptr inbounds (i8, ptr @0, i64 8), align 8, !dbg !1068
  %12 = getelementptr inbounds i8, ptr %formatter, i64 16, !dbg !1068
  store i64 %10, ptr %12, align 8, !dbg !1068
  %13 = getelementptr inbounds i8, ptr %12, i64 8, !dbg !1068
  store i64 %11, ptr %13, align 8, !dbg !1068
  %14 = getelementptr inbounds i8, ptr %formatter, i64 32, !dbg !1068
  store ptr %buf, ptr %14, align 8, !dbg !1068
  %15 = getelementptr inbounds i8, ptr %14, i64 8, !dbg !1068
  store ptr @vtable.0, ptr %15, align 8, !dbg !1068
; invoke <heck::shouty_kebab::AsShoutyKebabCase<T> as core::fmt::Display>::fmt
  %_7 = invoke zeroext i1 @"_ZN85_$LT$heck..shouty_kebab..AsShoutyKebabCase$LT$T$GT$$u20$as$u20$core..fmt..Display$GT$3fmt17h9c339e6c2ece50e3E"(ptr align 8 %self, ptr align 8 %formatter)
          to label %bb1 unwind label %cleanup, !dbg !1069

bb3:                                              ; preds = %cleanup
; invoke core::ptr::drop_in_place<alloc::string::String>
  invoke void @"_ZN4core3ptr42drop_in_place$LT$alloc..string..String$GT$17he7facc0b24a9008bE"(ptr align 8 %buf) #23
          to label %bb4 unwind label %terminate, !dbg !1070

cleanup:                                          ; preds = %bb1, %start
  %16 = landingpad { ptr, i32 }
          cleanup
  %17 = extractvalue { ptr, i32 } %16, 0
  %18 = extractvalue { ptr, i32 } %16, 1
  store ptr %17, ptr %0, align 8
  %19 = getelementptr inbounds i8, ptr %0, i64 8
  store i32 %18, ptr %19, align 8
  br label %bb3

bb1:                                              ; preds = %start
; invoke core::result::Result<T,E>::expect
  invoke void @"_ZN4core6result19Result$LT$T$C$E$GT$6expect17h79abfb2b57fce247E"(i1 zeroext %_7, ptr align 1 @alloc_cc656815297f75969399c3f4b1ad3de4, i64 55, ptr align 8 @alloc_409c00c6104dbf7acaf821e9c6e95656)
          to label %bb2 unwind label %cleanup, !dbg !1069

bb2:                                              ; preds = %bb1
  call void @llvm.memcpy.p0.p0.i64(ptr align 8 %_0, ptr align 8 %buf, i64 24, i1 false), !dbg !1071
  ret void, !dbg !1072

terminate:                                        ; preds = %bb3
  %20 = landingpad { ptr, i32 }
          filter [0 x ptr] zeroinitializer
  %21 = extractvalue { ptr, i32 } %20, 0
  %22 = extractvalue { ptr, i32 } %20, 1
; call core::panicking::panic_in_cleanup
  call void @_ZN4core9panicking16panic_in_cleanup17hb45215b029b98411E() #24, !dbg !1073
  unreachable, !dbg !1073

bb4:                                              ; preds = %bb3
  %23 = load ptr, ptr %0, align 8, !dbg !1073, !noundef !44
  %24 = getelementptr inbounds i8, ptr %0, i64 8, !dbg !1073
  %25 = load i32, ptr %24, align 8, !dbg !1073, !noundef !44
  %26 = insertvalue { ptr, i32 } poison, ptr %23, 0, !dbg !1073
  %27 = insertvalue { ptr, i32 } %26, i32 %25, 1, !dbg !1073
  resume { ptr, i32 } %27, !dbg !1073
}

; <T as alloc::string::ToString>::to_string
; Function Attrs: inlinehint uwtable
define void @"_ZN45_$LT$T$u20$as$u20$alloc..string..ToString$GT$9to_string17hdccd19dea59639a6E"(ptr sret(%"alloc::string::String") align 8 %_0, ptr align 8 %self) unnamed_addr #0 personality ptr @rust_eh_personality !dbg !1074 {
start:
  %0 = alloca { ptr, i32, [1 x i32] }, align 8
  %buf.dbg.spill = alloca { ptr, ptr }, align 8
  %self.dbg.spill = alloca ptr, align 8
  %_10 = alloca %"alloc::vec::Vec<u8>", align 8
  %formatter = alloca %"core::fmt::Formatter<'_>", align 8
  %buf = alloca %"alloc::string::String", align 8
  store ptr %self, ptr %self.dbg.spill, align 8
  call void @llvm.dbg.declare(metadata ptr %self.dbg.spill, metadata !1083, metadata !DIExpression()), !dbg !1090
  call void @llvm.dbg.declare(metadata ptr %buf, metadata !1084, metadata !DIExpression()), !dbg !1091
  call void @llvm.dbg.declare(metadata ptr %formatter, metadata !1086, metadata !DIExpression()), !dbg !1092
  store i64 0, ptr %_10, align 8, !dbg !1093
  %1 = getelementptr inbounds i8, ptr %_10, i64 8, !dbg !1093
  store ptr inttoptr (i64 1 to ptr), ptr %1, align 8, !dbg !1093
  %2 = getelementptr inbounds i8, ptr %_10, i64 16, !dbg !1093
  store i64 0, ptr %2, align 8, !dbg !1093
  call void @llvm.memcpy.p0.p0.i64(ptr align 8 %buf, ptr align 8 %_10, i64 24, i1 false), !dbg !1100
  store ptr %buf, ptr %buf.dbg.spill, align 8, !dbg !1101
  %3 = getelementptr inbounds i8, ptr %buf.dbg.spill, i64 8, !dbg !1101
  store ptr @vtable.0, ptr %3, align 8, !dbg !1101
  call void @llvm.dbg.declare(metadata ptr %buf.dbg.spill, metadata !1102, metadata !DIExpression()), !dbg !1106
  %4 = getelementptr inbounds i8, ptr %formatter, i64 52, !dbg !1108
  store i32 0, ptr %4, align 4, !dbg !1108
  %5 = getelementptr inbounds i8, ptr %formatter, i64 48, !dbg !1108
  store i32 32, ptr %5, align 8, !dbg !1108
  %6 = getelementptr inbounds i8, ptr %formatter, i64 56, !dbg !1108
  store i8 3, ptr %6, align 8, !dbg !1108
  %7 = load i64, ptr @0, align 8, !dbg !1108, !range !828, !noundef !44
  %8 = load i64, ptr getelementptr inbounds (i8, ptr @0, i64 8), align 8, !dbg !1108
  store i64 %7, ptr %formatter, align 8, !dbg !1108
  %9 = getelementptr inbounds i8, ptr %formatter, i64 8, !dbg !1108
  store i64 %8, ptr %9, align 8, !dbg !1108
  %10 = load i64, ptr @0, align 8, !dbg !1108, !range !828, !noundef !44
  %11 = load i64, ptr getelementptr inbounds (i8, ptr @0, i64 8), align 8, !dbg !1108
  %12 = getelementptr inbounds i8, ptr %formatter, i64 16, !dbg !1108
  store i64 %10, ptr %12, align 8, !dbg !1108
  %13 = getelementptr inbounds i8, ptr %12, i64 8, !dbg !1108
  store i64 %11, ptr %13, align 8, !dbg !1108
  %14 = getelementptr inbounds i8, ptr %formatter, i64 32, !dbg !1108
  store ptr %buf, ptr %14, align 8, !dbg !1108
  %15 = getelementptr inbounds i8, ptr %14, i64 8, !dbg !1108
  store ptr @vtable.0, ptr %15, align 8, !dbg !1108
; invoke <heck::train::AsTrainCase<T> as core::fmt::Display>::fmt
  %_7 = invoke zeroext i1 @"_ZN72_$LT$heck..train..AsTrainCase$LT$T$GT$$u20$as$u20$core..fmt..Display$GT$3fmt17h15150ba6d773cbabE"(ptr align 8 %self, ptr align 8 %formatter)
          to label %bb1 unwind label %cleanup, !dbg !1109

bb3:                                              ; preds = %cleanup
; invoke core::ptr::drop_in_place<alloc::string::String>
  invoke void @"_ZN4core3ptr42drop_in_place$LT$alloc..string..String$GT$17he7facc0b24a9008bE"(ptr align 8 %buf) #23
          to label %bb4 unwind label %terminate, !dbg !1110

cleanup:                                          ; preds = %bb1, %start
  %16 = landingpad { ptr, i32 }
          cleanup
  %17 = extractvalue { ptr, i32 } %16, 0
  %18 = extractvalue { ptr, i32 } %16, 1
  store ptr %17, ptr %0, align 8
  %19 = getelementptr inbounds i8, ptr %0, i64 8
  store i32 %18, ptr %19, align 8
  br label %bb3

bb1:                                              ; preds = %start
; invoke core::result::Result<T,E>::expect
  invoke void @"_ZN4core6result19Result$LT$T$C$E$GT$6expect17h79abfb2b57fce247E"(i1 zeroext %_7, ptr align 1 @alloc_cc656815297f75969399c3f4b1ad3de4, i64 55, ptr align 8 @alloc_409c00c6104dbf7acaf821e9c6e95656)
          to label %bb2 unwind label %cleanup, !dbg !1109

bb2:                                              ; preds = %bb1
  call void @llvm.memcpy.p0.p0.i64(ptr align 8 %_0, ptr align 8 %buf, i64 24, i1 false), !dbg !1111
  ret void, !dbg !1112

terminate:                                        ; preds = %bb3
  %20 = landingpad { ptr, i32 }
          filter [0 x ptr] zeroinitializer
  %21 = extractvalue { ptr, i32 } %20, 0
  %22 = extractvalue { ptr, i32 } %20, 1
; call core::panicking::panic_in_cleanup
  call void @_ZN4core9panicking16panic_in_cleanup17hb45215b029b98411E() #24, !dbg !1113
  unreachable, !dbg !1113

bb4:                                              ; preds = %bb3
  %23 = load ptr, ptr %0, align 8, !dbg !1113, !noundef !44
  %24 = getelementptr inbounds i8, ptr %0, i64 8, !dbg !1113
  %25 = load i32, ptr %24, align 8, !dbg !1113, !noundef !44
  %26 = insertvalue { ptr, i32 } poison, ptr %23, 0, !dbg !1113
  %27 = insertvalue { ptr, i32 } %26, i32 %25, 1, !dbg !1113
  resume { ptr, i32 } %27, !dbg !1113
}

; <F as core::str::pattern::Pattern>::into_searcher
; Function Attrs: inlinehint uwtable
define void @"_ZN49_$LT$F$u20$as$u20$core..str..pattern..Pattern$GT$13into_searcher17h1e4a1d822d3ffe70E"(ptr sret(%"core::str::pattern::CharPredicateSearcher<'_, {closure@src/lib.rs:101:25: 101:34}>") align 8 %_0, ptr align 1 %haystack.0, i64 %haystack.1) unnamed_addr #0 !dbg !1114 {
start:
  %end_or_len.dbg.spill = alloca ptr, align 8
  %self.dbg.spill3 = alloca ptr, align 8
  %len.dbg.spill = alloca i64, align 8
  %self.dbg.spill2 = alloca { ptr, i64 }, align 8
  %self.dbg.spill1 = alloca %"core::str::pattern::MultiCharEqPattern<{closure@src/lib.rs:101:25: 101:34}>", align 1
  %haystack.dbg.spill = alloca { ptr, i64 }, align 8
  %self.dbg.spill = alloca %"{closure@src/lib.rs:101:25: 101:34}", align 1
  %self = alloca %"core::ptr::non_null::NonNull<[u8]>", align 8
  %ptr = alloca ptr, align 8
  %_7 = alloca %"core::slice::iter::Iter<'_, u8>", align 8
  %_6 = alloca %"core::str::iter::Chars<'_>", align 8
  %_5 = alloca %"core::str::iter::CharIndices<'_>", align 8
  %_3 = alloca %"core::str::pattern::MultiCharEqSearcher<'_, {closure@src/lib.rs:101:25: 101:34}>", align 8
  call void @llvm.dbg.declare(metadata ptr %self.dbg.spill, metadata !1134, metadata !DIExpression()), !dbg !1136
  store ptr %haystack.0, ptr %haystack.dbg.spill, align 8
  %0 = getelementptr inbounds i8, ptr %haystack.dbg.spill, i64 8
  store i64 %haystack.1, ptr %0, align 8
  call void @llvm.dbg.declare(metadata ptr %haystack.dbg.spill, metadata !1135, metadata !DIExpression()), !dbg !1137
  call void @llvm.dbg.declare(metadata ptr %haystack.dbg.spill, metadata !1138, metadata !DIExpression()), !dbg !1149
  call void @llvm.dbg.declare(metadata ptr %haystack.dbg.spill, metadata !1151, metadata !DIExpression()), !dbg !1159
  call void @llvm.dbg.declare(metadata ptr %haystack.dbg.spill, metadata !1161, metadata !DIExpression()), !dbg !1167
  call void @llvm.dbg.declare(metadata ptr %haystack.dbg.spill, metadata !1169, metadata !DIExpression()), !dbg !1175
  call void @llvm.dbg.declare(metadata ptr %self.dbg.spill1, metadata !1148, metadata !DIExpression()), !dbg !1177
  call void @llvm.dbg.declare(metadata ptr %ptr, metadata !1178, metadata !DIExpression()), !dbg !1191
  call void @llvm.dbg.declare(metadata ptr %ptr, metadata !1200, metadata !DIExpression()), !dbg !1204
  call void @llvm.dbg.declare(metadata ptr %self, metadata !1206, metadata !DIExpression()), !dbg !1218
  call void @llvm.dbg.declare(metadata ptr %self, metadata !1220, metadata !DIExpression()), !dbg !1227
  store ptr %haystack.0, ptr %self.dbg.spill2, align 8, !dbg !1229
  %1 = getelementptr inbounds i8, ptr %self.dbg.spill2, i64 8, !dbg !1229
  store i64 %haystack.1, ptr %1, align 8, !dbg !1229
  call void @llvm.dbg.declare(metadata ptr %self.dbg.spill2, metadata !1198, metadata !DIExpression()), !dbg !1230
  call void @llvm.dbg.declare(metadata ptr %self.dbg.spill2, metadata !1187, metadata !DIExpression()), !dbg !1231
  call void @llvm.dbg.declare(metadata ptr %self.dbg.spill2, metadata !1232, metadata !DIExpression()), !dbg !1239
  store i64 %haystack.1, ptr %len.dbg.spill, align 8, !dbg !1241
  call void @llvm.dbg.declare(metadata ptr %len.dbg.spill, metadata !1188, metadata !DIExpression()), !dbg !1242
  call void @llvm.dbg.declare(metadata ptr %len.dbg.spill, metadata !1243, metadata !DIExpression()), !dbg !1249
  call void @llvm.dbg.declare(metadata ptr %len.dbg.spill, metadata !1251, metadata !DIExpression()), !dbg !1256
  store ptr %haystack.0, ptr %self, align 8, !dbg !1258
  %2 = getelementptr inbounds i8, ptr %self, i64 8, !dbg !1258
  store i64 %haystack.1, ptr %2, align 8, !dbg !1258
  store ptr %haystack.0, ptr %ptr, align 8, !dbg !1259
  store ptr %haystack.0, ptr %self.dbg.spill3, align 8, !dbg !1260
  call void @llvm.dbg.declare(metadata ptr %self.dbg.spill3, metadata !1255, metadata !DIExpression()), !dbg !1261
  %_13 = getelementptr inbounds i8, ptr %haystack.0, i64 %haystack.1, !dbg !1262
  store ptr %_13, ptr %end_or_len.dbg.spill, align 8, !dbg !1263
  call void @llvm.dbg.declare(metadata ptr %end_or_len.dbg.spill, metadata !1189, metadata !DIExpression()), !dbg !1264
  %3 = load ptr, ptr %ptr, align 8, !dbg !1265, !nonnull !44, !noundef !44
  store ptr %3, ptr %_7, align 8, !dbg !1265
  %4 = getelementptr inbounds i8, ptr %_7, i64 8, !dbg !1265
  store ptr %_13, ptr %4, align 8, !dbg !1265
  %5 = load ptr, ptr %_7, align 8, !dbg !1266, !nonnull !44, !noundef !44
  %6 = getelementptr inbounds i8, ptr %_7, i64 8, !dbg !1266
  %7 = load ptr, ptr %6, align 8, !dbg !1266, !noundef !44
  store ptr %5, ptr %_6, align 8, !dbg !1266
  %8 = getelementptr inbounds i8, ptr %_6, i64 8, !dbg !1266
  store ptr %7, ptr %8, align 8, !dbg !1266
  %9 = getelementptr inbounds i8, ptr %_5, i64 16, !dbg !1267
  store i64 0, ptr %9, align 8, !dbg !1267
  %10 = load ptr, ptr %_6, align 8, !dbg !1267, !nonnull !44, !noundef !44
  %11 = getelementptr inbounds i8, ptr %_6, i64 8, !dbg !1267
  %12 = load ptr, ptr %11, align 8, !dbg !1267, !noundef !44
  store ptr %10, ptr %_5, align 8, !dbg !1267
  %13 = getelementptr inbounds i8, ptr %_5, i64 8, !dbg !1267
  store ptr %12, ptr %13, align 8, !dbg !1267
  store ptr %haystack.0, ptr %_3, align 8, !dbg !1268
  %14 = getelementptr inbounds i8, ptr %_3, i64 8, !dbg !1268
  store i64 %haystack.1, ptr %14, align 8, !dbg !1268
  %15 = getelementptr inbounds i8, ptr %_3, i64 16, !dbg !1268
  call void @llvm.memcpy.p0.p0.i64(ptr align 8 %15, ptr align 8 %_5, i64 24, i1 false), !dbg !1268
  call void @llvm.memcpy.p0.p0.i64(ptr align 8 %_0, ptr align 8 %_3, i64 40, i1 false), !dbg !1269
  ret void, !dbg !1270
}

; <F as core::str::pattern::Pattern>::into_searcher
; Function Attrs: inlinehint uwtable
define void @"_ZN49_$LT$F$u20$as$u20$core..str..pattern..Pattern$GT$13into_searcher17h80db88bab4f4f2afE"(ptr sret(%"core::str::pattern::CharPredicateSearcher<'_, {closure@src/lib.rs:101:25: 101:34}>.0") align 8 %_0, ptr align 1 %haystack.0, i64 %haystack.1) unnamed_addr #0 !dbg !1271 {
start:
  %end_or_len.dbg.spill = alloca ptr, align 8
  %self.dbg.spill3 = alloca ptr, align 8
  %len.dbg.spill = alloca i64, align 8
  %self.dbg.spill2 = alloca { ptr, i64 }, align 8
  %self.dbg.spill1 = alloca %"core::str::pattern::MultiCharEqPattern<{closure@src/lib.rs:101:25: 101:34}>.35", align 1
  %haystack.dbg.spill = alloca { ptr, i64 }, align 8
  %self.dbg.spill = alloca %"{closure@src/lib.rs:101:25: 101:34}.2", align 1
  %self = alloca %"core::ptr::non_null::NonNull<[u8]>", align 8
  %ptr = alloca ptr, align 8
  %_7 = alloca %"core::slice::iter::Iter<'_, u8>", align 8
  %_6 = alloca %"core::str::iter::Chars<'_>", align 8
  %_5 = alloca %"core::str::iter::CharIndices<'_>", align 8
  %_3 = alloca %"core::str::pattern::MultiCharEqSearcher<'_, {closure@src/lib.rs:101:25: 101:34}>.1", align 8
  call void @llvm.dbg.declare(metadata ptr %self.dbg.spill, metadata !1288, metadata !DIExpression()), !dbg !1290
  store ptr %haystack.0, ptr %haystack.dbg.spill, align 8
  %0 = getelementptr inbounds i8, ptr %haystack.dbg.spill, i64 8
  store i64 %haystack.1, ptr %0, align 8
  call void @llvm.dbg.declare(metadata ptr %haystack.dbg.spill, metadata !1289, metadata !DIExpression()), !dbg !1291
  call void @llvm.dbg.declare(metadata ptr %haystack.dbg.spill, metadata !1292, metadata !DIExpression()), !dbg !1302
  call void @llvm.dbg.declare(metadata ptr %haystack.dbg.spill, metadata !1304, metadata !DIExpression()), !dbg !1308
  call void @llvm.dbg.declare(metadata ptr %haystack.dbg.spill, metadata !1310, metadata !DIExpression()), !dbg !1314
  call void @llvm.dbg.declare(metadata ptr %haystack.dbg.spill, metadata !1316, metadata !DIExpression()), !dbg !1320
  call void @llvm.dbg.declare(metadata ptr %self.dbg.spill1, metadata !1301, metadata !DIExpression()), !dbg !1322
  call void @llvm.dbg.declare(metadata ptr %ptr, metadata !1323, metadata !DIExpression()), !dbg !1333
  call void @llvm.dbg.declare(metadata ptr %ptr, metadata !1340, metadata !DIExpression()), !dbg !1344
  call void @llvm.dbg.declare(metadata ptr %self, metadata !1346, metadata !DIExpression()), !dbg !1350
  call void @llvm.dbg.declare(metadata ptr %self, metadata !1352, metadata !DIExpression()), !dbg !1356
  store ptr %haystack.0, ptr %self.dbg.spill2, align 8, !dbg !1358
  %1 = getelementptr inbounds i8, ptr %self.dbg.spill2, i64 8, !dbg !1358
  store i64 %haystack.1, ptr %1, align 8, !dbg !1358
  call void @llvm.dbg.declare(metadata ptr %self.dbg.spill2, metadata !1338, metadata !DIExpression()), !dbg !1359
  call void @llvm.dbg.declare(metadata ptr %self.dbg.spill2, metadata !1329, metadata !DIExpression()), !dbg !1360
  call void @llvm.dbg.declare(metadata ptr %self.dbg.spill2, metadata !1361, metadata !DIExpression()), !dbg !1365
  store i64 %haystack.1, ptr %len.dbg.spill, align 8, !dbg !1367
  call void @llvm.dbg.declare(metadata ptr %len.dbg.spill, metadata !1330, metadata !DIExpression()), !dbg !1368
  call void @llvm.dbg.declare(metadata ptr %len.dbg.spill, metadata !1369, metadata !DIExpression()), !dbg !1373
  call void @llvm.dbg.declare(metadata ptr %len.dbg.spill, metadata !1375, metadata !DIExpression()), !dbg !1380
  store ptr %haystack.0, ptr %self, align 8, !dbg !1382
  %2 = getelementptr inbounds i8, ptr %self, i64 8, !dbg !1382
  store i64 %haystack.1, ptr %2, align 8, !dbg !1382
  store ptr %haystack.0, ptr %ptr, align 8, !dbg !1383
  store ptr %haystack.0, ptr %self.dbg.spill3, align 8, !dbg !1384
  call void @llvm.dbg.declare(metadata ptr %self.dbg.spill3, metadata !1379, metadata !DIExpression()), !dbg !1385
  %_13 = getelementptr inbounds i8, ptr %haystack.0, i64 %haystack.1, !dbg !1386
  store ptr %_13, ptr %end_or_len.dbg.spill, align 8, !dbg !1387
  call void @llvm.dbg.declare(metadata ptr %end_or_len.dbg.spill, metadata !1331, metadata !DIExpression()), !dbg !1388
  %3 = load ptr, ptr %ptr, align 8, !dbg !1389, !nonnull !44, !noundef !44
  store ptr %3, ptr %_7, align 8, !dbg !1389
  %4 = getelementptr inbounds i8, ptr %_7, i64 8, !dbg !1389
  store ptr %_13, ptr %4, align 8, !dbg !1389
  %5 = load ptr, ptr %_7, align 8, !dbg !1390, !nonnull !44, !noundef !44
  %6 = getelementptr inbounds i8, ptr %_7, i64 8, !dbg !1390
  %7 = load ptr, ptr %6, align 8, !dbg !1390, !noundef !44
  store ptr %5, ptr %_6, align 8, !dbg !1390
  %8 = getelementptr inbounds i8, ptr %_6, i64 8, !dbg !1390
  store ptr %7, ptr %8, align 8, !dbg !1390
  %9 = getelementptr inbounds i8, ptr %_5, i64 16, !dbg !1391
  store i64 0, ptr %9, align 8, !dbg !1391
  %10 = load ptr, ptr %_6, align 8, !dbg !1391, !nonnull !44, !noundef !44
  %11 = getelementptr inbounds i8, ptr %_6, i64 8, !dbg !1391
  %12 = load ptr, ptr %11, align 8, !dbg !1391, !noundef !44
  store ptr %10, ptr %_5, align 8, !dbg !1391
  %13 = getelementptr inbounds i8, ptr %_5, i64 8, !dbg !1391
  store ptr %12, ptr %13, align 8, !dbg !1391
  store ptr %haystack.0, ptr %_3, align 8, !dbg !1392
  %14 = getelementptr inbounds i8, ptr %_3, i64 8, !dbg !1392
  store i64 %haystack.1, ptr %14, align 8, !dbg !1392
  %15 = getelementptr inbounds i8, ptr %_3, i64 16, !dbg !1392
  call void @llvm.memcpy.p0.p0.i64(ptr align 8 %15, ptr align 8 %_5, i64 24, i1 false), !dbg !1392
  call void @llvm.memcpy.p0.p0.i64(ptr align 8 %_0, ptr align 8 %_3, i64 40, i1 false), !dbg !1393
  ret void, !dbg !1394
}

; <F as core::str::pattern::Pattern>::into_searcher
; Function Attrs: inlinehint uwtable
define void @"_ZN49_$LT$F$u20$as$u20$core..str..pattern..Pattern$GT$13into_searcher17h9e5e3fc69de754f8E"(ptr sret(%"core::str::pattern::CharPredicateSearcher<'_, {closure@src/lib.rs:101:25: 101:34}>.3") align 8 %_0, ptr align 1 %haystack.0, i64 %haystack.1) unnamed_addr #0 !dbg !1395 {
start:
  %end_or_len.dbg.spill = alloca ptr, align 8
  %self.dbg.spill3 = alloca ptr, align 8
  %len.dbg.spill = alloca i64, align 8
  %self.dbg.spill2 = alloca { ptr, i64 }, align 8
  %self.dbg.spill1 = alloca %"core::str::pattern::MultiCharEqPattern<{closure@src/lib.rs:101:25: 101:34}>.36", align 1
  %haystack.dbg.spill = alloca { ptr, i64 }, align 8
  %self.dbg.spill = alloca %"{closure@src/lib.rs:101:25: 101:34}.5", align 1
  %self = alloca %"core::ptr::non_null::NonNull<[u8]>", align 8
  %ptr = alloca ptr, align 8
  %_7 = alloca %"core::slice::iter::Iter<'_, u8>", align 8
  %_6 = alloca %"core::str::iter::Chars<'_>", align 8
  %_5 = alloca %"core::str::iter::CharIndices<'_>", align 8
  %_3 = alloca %"core::str::pattern::MultiCharEqSearcher<'_, {closure@src/lib.rs:101:25: 101:34}>.4", align 8
  call void @llvm.dbg.declare(metadata ptr %self.dbg.spill, metadata !1412, metadata !DIExpression()), !dbg !1414
  store ptr %haystack.0, ptr %haystack.dbg.spill, align 8
  %0 = getelementptr inbounds i8, ptr %haystack.dbg.spill, i64 8
  store i64 %haystack.1, ptr %0, align 8
  call void @llvm.dbg.declare(metadata ptr %haystack.dbg.spill, metadata !1413, metadata !DIExpression()), !dbg !1415
  call void @llvm.dbg.declare(metadata ptr %haystack.dbg.spill, metadata !1416, metadata !DIExpression()), !dbg !1426
  call void @llvm.dbg.declare(metadata ptr %haystack.dbg.spill, metadata !1428, metadata !DIExpression()), !dbg !1432
  call void @llvm.dbg.declare(metadata ptr %haystack.dbg.spill, metadata !1434, metadata !DIExpression()), !dbg !1438
  call void @llvm.dbg.declare(metadata ptr %haystack.dbg.spill, metadata !1440, metadata !DIExpression()), !dbg !1444
  call void @llvm.dbg.declare(metadata ptr %self.dbg.spill1, metadata !1425, metadata !DIExpression()), !dbg !1446
  call void @llvm.dbg.declare(metadata ptr %ptr, metadata !1447, metadata !DIExpression()), !dbg !1457
  call void @llvm.dbg.declare(metadata ptr %ptr, metadata !1464, metadata !DIExpression()), !dbg !1468
  call void @llvm.dbg.declare(metadata ptr %self, metadata !1470, metadata !DIExpression()), !dbg !1474
  call void @llvm.dbg.declare(metadata ptr %self, metadata !1476, metadata !DIExpression()), !dbg !1480
  store ptr %haystack.0, ptr %self.dbg.spill2, align 8, !dbg !1482
  %1 = getelementptr inbounds i8, ptr %self.dbg.spill2, i64 8, !dbg !1482
  store i64 %haystack.1, ptr %1, align 8, !dbg !1482
  call void @llvm.dbg.declare(metadata ptr %self.dbg.spill2, metadata !1462, metadata !DIExpression()), !dbg !1483
  call void @llvm.dbg.declare(metadata ptr %self.dbg.spill2, metadata !1453, metadata !DIExpression()), !dbg !1484
  call void @llvm.dbg.declare(metadata ptr %self.dbg.spill2, metadata !1485, metadata !DIExpression()), !dbg !1489
  store i64 %haystack.1, ptr %len.dbg.spill, align 8, !dbg !1491
  call void @llvm.dbg.declare(metadata ptr %len.dbg.spill, metadata !1454, metadata !DIExpression()), !dbg !1492
  call void @llvm.dbg.declare(metadata ptr %len.dbg.spill, metadata !1493, metadata !DIExpression()), !dbg !1497
  call void @llvm.dbg.declare(metadata ptr %len.dbg.spill, metadata !1499, metadata !DIExpression()), !dbg !1504
  store ptr %haystack.0, ptr %self, align 8, !dbg !1506
  %2 = getelementptr inbounds i8, ptr %self, i64 8, !dbg !1506
  store i64 %haystack.1, ptr %2, align 8, !dbg !1506
  store ptr %haystack.0, ptr %ptr, align 8, !dbg !1507
  store ptr %haystack.0, ptr %self.dbg.spill3, align 8, !dbg !1508
  call void @llvm.dbg.declare(metadata ptr %self.dbg.spill3, metadata !1503, metadata !DIExpression()), !dbg !1509
  %_13 = getelementptr inbounds i8, ptr %haystack.0, i64 %haystack.1, !dbg !1510
  store ptr %_13, ptr %end_or_len.dbg.spill, align 8, !dbg !1511
  call void @llvm.dbg.declare(metadata ptr %end_or_len.dbg.spill, metadata !1455, metadata !DIExpression()), !dbg !1512
  %3 = load ptr, ptr %ptr, align 8, !dbg !1513, !nonnull !44, !noundef !44
  store ptr %3, ptr %_7, align 8, !dbg !1513
  %4 = getelementptr inbounds i8, ptr %_7, i64 8, !dbg !1513
  store ptr %_13, ptr %4, align 8, !dbg !1513
  %5 = load ptr, ptr %_7, align 8, !dbg !1514, !nonnull !44, !noundef !44
  %6 = getelementptr inbounds i8, ptr %_7, i64 8, !dbg !1514
  %7 = load ptr, ptr %6, align 8, !dbg !1514, !noundef !44
  store ptr %5, ptr %_6, align 8, !dbg !1514
  %8 = getelementptr inbounds i8, ptr %_6, i64 8, !dbg !1514
  store ptr %7, ptr %8, align 8, !dbg !1514
  %9 = getelementptr inbounds i8, ptr %_5, i64 16, !dbg !1515
  store i64 0, ptr %9, align 8, !dbg !1515
  %10 = load ptr, ptr %_6, align 8, !dbg !1515, !nonnull !44, !noundef !44
  %11 = getelementptr inbounds i8, ptr %_6, i64 8, !dbg !1515
  %12 = load ptr, ptr %11, align 8, !dbg !1515, !noundef !44
  store ptr %10, ptr %_5, align 8, !dbg !1515
  %13 = getelementptr inbounds i8, ptr %_5, i64 8, !dbg !1515
  store ptr %12, ptr %13, align 8, !dbg !1515
  store ptr %haystack.0, ptr %_3, align 8, !dbg !1516
  %14 = getelementptr inbounds i8, ptr %_3, i64 8, !dbg !1516
  store i64 %haystack.1, ptr %14, align 8, !dbg !1516
  %15 = getelementptr inbounds i8, ptr %_3, i64 16, !dbg !1516
  call void @llvm.memcpy.p0.p0.i64(ptr align 8 %15, ptr align 8 %_5, i64 24, i1 false), !dbg !1516
  call void @llvm.memcpy.p0.p0.i64(ptr align 8 %_0, ptr align 8 %_3, i64 40, i1 false), !dbg !1517
  ret void, !dbg !1518
}

; <F as core::str::pattern::Pattern>::into_searcher
; Function Attrs: inlinehint uwtable
define void @"_ZN49_$LT$F$u20$as$u20$core..str..pattern..Pattern$GT$13into_searcher17hb4755c99d598195eE"(ptr sret(%"core::str::pattern::CharPredicateSearcher<'_, {closure@src/lib.rs:101:25: 101:34}>.6") align 8 %_0, ptr align 1 %haystack.0, i64 %haystack.1) unnamed_addr #0 !dbg !1519 {
start:
  %end_or_len.dbg.spill = alloca ptr, align 8
  %self.dbg.spill3 = alloca ptr, align 8
  %len.dbg.spill = alloca i64, align 8
  %self.dbg.spill2 = alloca { ptr, i64 }, align 8
  %self.dbg.spill1 = alloca %"core::str::pattern::MultiCharEqPattern<{closure@src/lib.rs:101:25: 101:34}>.37", align 1
  %haystack.dbg.spill = alloca { ptr, i64 }, align 8
  %self.dbg.spill = alloca %"{closure@src/lib.rs:101:25: 101:34}.8", align 1
  %self = alloca %"core::ptr::non_null::NonNull<[u8]>", align 8
  %ptr = alloca ptr, align 8
  %_7 = alloca %"core::slice::iter::Iter<'_, u8>", align 8
  %_6 = alloca %"core::str::iter::Chars<'_>", align 8
  %_5 = alloca %"core::str::iter::CharIndices<'_>", align 8
  %_3 = alloca %"core::str::pattern::MultiCharEqSearcher<'_, {closure@src/lib.rs:101:25: 101:34}>.7", align 8
  call void @llvm.dbg.declare(metadata ptr %self.dbg.spill, metadata !1536, metadata !DIExpression()), !dbg !1538
  store ptr %haystack.0, ptr %haystack.dbg.spill, align 8
  %0 = getelementptr inbounds i8, ptr %haystack.dbg.spill, i64 8
  store i64 %haystack.1, ptr %0, align 8
  call void @llvm.dbg.declare(metadata ptr %haystack.dbg.spill, metadata !1537, metadata !DIExpression()), !dbg !1539
  call void @llvm.dbg.declare(metadata ptr %haystack.dbg.spill, metadata !1540, metadata !DIExpression()), !dbg !1550
  call void @llvm.dbg.declare(metadata ptr %haystack.dbg.spill, metadata !1552, metadata !DIExpression()), !dbg !1556
  call void @llvm.dbg.declare(metadata ptr %haystack.dbg.spill, metadata !1558, metadata !DIExpression()), !dbg !1562
  call void @llvm.dbg.declare(metadata ptr %haystack.dbg.spill, metadata !1564, metadata !DIExpression()), !dbg !1568
  call void @llvm.dbg.declare(metadata ptr %self.dbg.spill1, metadata !1549, metadata !DIExpression()), !dbg !1570
  call void @llvm.dbg.declare(metadata ptr %ptr, metadata !1571, metadata !DIExpression()), !dbg !1581
  call void @llvm.dbg.declare(metadata ptr %ptr, metadata !1588, metadata !DIExpression()), !dbg !1592
  call void @llvm.dbg.declare(metadata ptr %self, metadata !1594, metadata !DIExpression()), !dbg !1598
  call void @llvm.dbg.declare(metadata ptr %self, metadata !1600, metadata !DIExpression()), !dbg !1604
  store ptr %haystack.0, ptr %self.dbg.spill2, align 8, !dbg !1606
  %1 = getelementptr inbounds i8, ptr %self.dbg.spill2, i64 8, !dbg !1606
  store i64 %haystack.1, ptr %1, align 8, !dbg !1606
  call void @llvm.dbg.declare(metadata ptr %self.dbg.spill2, metadata !1586, metadata !DIExpression()), !dbg !1607
  call void @llvm.dbg.declare(metadata ptr %self.dbg.spill2, metadata !1577, metadata !DIExpression()), !dbg !1608
  call void @llvm.dbg.declare(metadata ptr %self.dbg.spill2, metadata !1609, metadata !DIExpression()), !dbg !1613
  store i64 %haystack.1, ptr %len.dbg.spill, align 8, !dbg !1615
  call void @llvm.dbg.declare(metadata ptr %len.dbg.spill, metadata !1578, metadata !DIExpression()), !dbg !1616
  call void @llvm.dbg.declare(metadata ptr %len.dbg.spill, metadata !1617, metadata !DIExpression()), !dbg !1621
  call void @llvm.dbg.declare(metadata ptr %len.dbg.spill, metadata !1623, metadata !DIExpression()), !dbg !1628
  store ptr %haystack.0, ptr %self, align 8, !dbg !1630
  %2 = getelementptr inbounds i8, ptr %self, i64 8, !dbg !1630
  store i64 %haystack.1, ptr %2, align 8, !dbg !1630
  store ptr %haystack.0, ptr %ptr, align 8, !dbg !1631
  store ptr %haystack.0, ptr %self.dbg.spill3, align 8, !dbg !1632
  call void @llvm.dbg.declare(metadata ptr %self.dbg.spill3, metadata !1627, metadata !DIExpression()), !dbg !1633
  %_13 = getelementptr inbounds i8, ptr %haystack.0, i64 %haystack.1, !dbg !1634
  store ptr %_13, ptr %end_or_len.dbg.spill, align 8, !dbg !1635
  call void @llvm.dbg.declare(metadata ptr %end_or_len.dbg.spill, metadata !1579, metadata !DIExpression()), !dbg !1636
  %3 = load ptr, ptr %ptr, align 8, !dbg !1637, !nonnull !44, !noundef !44
  store ptr %3, ptr %_7, align 8, !dbg !1637
  %4 = getelementptr inbounds i8, ptr %_7, i64 8, !dbg !1637
  store ptr %_13, ptr %4, align 8, !dbg !1637
  %5 = load ptr, ptr %_7, align 8, !dbg !1638, !nonnull !44, !noundef !44
  %6 = getelementptr inbounds i8, ptr %_7, i64 8, !dbg !1638
  %7 = load ptr, ptr %6, align 8, !dbg !1638, !noundef !44
  store ptr %5, ptr %_6, align 8, !dbg !1638
  %8 = getelementptr inbounds i8, ptr %_6, i64 8, !dbg !1638
  store ptr %7, ptr %8, align 8, !dbg !1638
  %9 = getelementptr inbounds i8, ptr %_5, i64 16, !dbg !1639
  store i64 0, ptr %9, align 8, !dbg !1639
  %10 = load ptr, ptr %_6, align 8, !dbg !1639, !nonnull !44, !noundef !44
  %11 = getelementptr inbounds i8, ptr %_6, i64 8, !dbg !1639
  %12 = load ptr, ptr %11, align 8, !dbg !1639, !noundef !44
  store ptr %10, ptr %_5, align 8, !dbg !1639
  %13 = getelementptr inbounds i8, ptr %_5, i64 8, !dbg !1639
  store ptr %12, ptr %13, align 8, !dbg !1639
  store ptr %haystack.0, ptr %_3, align 8, !dbg !1640
  %14 = getelementptr inbounds i8, ptr %_3, i64 8, !dbg !1640
  store i64 %haystack.1, ptr %14, align 8, !dbg !1640
  %15 = getelementptr inbounds i8, ptr %_3, i64 16, !dbg !1640
  call void @llvm.memcpy.p0.p0.i64(ptr align 8 %15, ptr align 8 %_5, i64 24, i1 false), !dbg !1640
  call void @llvm.memcpy.p0.p0.i64(ptr align 8 %_0, ptr align 8 %_3, i64 40, i1 false), !dbg !1641
  ret void, !dbg !1642
}

; <F as core::str::pattern::Pattern>::into_searcher
; Function Attrs: inlinehint uwtable
define void @"_ZN49_$LT$F$u20$as$u20$core..str..pattern..Pattern$GT$13into_searcher17hc61b505c39e40f62E"(ptr sret(%"core::str::pattern::CharPredicateSearcher<'_, {closure@src/lib.rs:101:25: 101:34}>.9") align 8 %_0, ptr align 1 %haystack.0, i64 %haystack.1) unnamed_addr #0 !dbg !1643 {
start:
  %end_or_len.dbg.spill = alloca ptr, align 8
  %self.dbg.spill3 = alloca ptr, align 8
  %len.dbg.spill = alloca i64, align 8
  %self.dbg.spill2 = alloca { ptr, i64 }, align 8
  %self.dbg.spill1 = alloca %"core::str::pattern::MultiCharEqPattern<{closure@src/lib.rs:101:25: 101:34}>.38", align 1
  %haystack.dbg.spill = alloca { ptr, i64 }, align 8
  %self.dbg.spill = alloca %"{closure@src/lib.rs:101:25: 101:34}.11", align 1
  %self = alloca %"core::ptr::non_null::NonNull<[u8]>", align 8
  %ptr = alloca ptr, align 8
  %_7 = alloca %"core::slice::iter::Iter<'_, u8>", align 8
  %_6 = alloca %"core::str::iter::Chars<'_>", align 8
  %_5 = alloca %"core::str::iter::CharIndices<'_>", align 8
  %_3 = alloca %"core::str::pattern::MultiCharEqSearcher<'_, {closure@src/lib.rs:101:25: 101:34}>.10", align 8
  call void @llvm.dbg.declare(metadata ptr %self.dbg.spill, metadata !1660, metadata !DIExpression()), !dbg !1662
  store ptr %haystack.0, ptr %haystack.dbg.spill, align 8
  %0 = getelementptr inbounds i8, ptr %haystack.dbg.spill, i64 8
  store i64 %haystack.1, ptr %0, align 8
  call void @llvm.dbg.declare(metadata ptr %haystack.dbg.spill, metadata !1661, metadata !DIExpression()), !dbg !1663
  call void @llvm.dbg.declare(metadata ptr %haystack.dbg.spill, metadata !1664, metadata !DIExpression()), !dbg !1674
  call void @llvm.dbg.declare(metadata ptr %haystack.dbg.spill, metadata !1676, metadata !DIExpression()), !dbg !1680
  call void @llvm.dbg.declare(metadata ptr %haystack.dbg.spill, metadata !1682, metadata !DIExpression()), !dbg !1686
  call void @llvm.dbg.declare(metadata ptr %haystack.dbg.spill, metadata !1688, metadata !DIExpression()), !dbg !1692
  call void @llvm.dbg.declare(metadata ptr %self.dbg.spill1, metadata !1673, metadata !DIExpression()), !dbg !1694
  call void @llvm.dbg.declare(metadata ptr %ptr, metadata !1695, metadata !DIExpression()), !dbg !1705
  call void @llvm.dbg.declare(metadata ptr %ptr, metadata !1712, metadata !DIExpression()), !dbg !1716
  call void @llvm.dbg.declare(metadata ptr %self, metadata !1718, metadata !DIExpression()), !dbg !1722
  call void @llvm.dbg.declare(metadata ptr %self, metadata !1724, metadata !DIExpression()), !dbg !1728
  store ptr %haystack.0, ptr %self.dbg.spill2, align 8, !dbg !1730
  %1 = getelementptr inbounds i8, ptr %self.dbg.spill2, i64 8, !dbg !1730
  store i64 %haystack.1, ptr %1, align 8, !dbg !1730
  call void @llvm.dbg.declare(metadata ptr %self.dbg.spill2, metadata !1710, metadata !DIExpression()), !dbg !1731
  call void @llvm.dbg.declare(metadata ptr %self.dbg.spill2, metadata !1701, metadata !DIExpression()), !dbg !1732
  call void @llvm.dbg.declare(metadata ptr %self.dbg.spill2, metadata !1733, metadata !DIExpression()), !dbg !1737
  store i64 %haystack.1, ptr %len.dbg.spill, align 8, !dbg !1739
  call void @llvm.dbg.declare(metadata ptr %len.dbg.spill, metadata !1702, metadata !DIExpression()), !dbg !1740
  call void @llvm.dbg.declare(metadata ptr %len.dbg.spill, metadata !1741, metadata !DIExpression()), !dbg !1745
  call void @llvm.dbg.declare(metadata ptr %len.dbg.spill, metadata !1747, metadata !DIExpression()), !dbg !1752
  store ptr %haystack.0, ptr %self, align 8, !dbg !1754
  %2 = getelementptr inbounds i8, ptr %self, i64 8, !dbg !1754
  store i64 %haystack.1, ptr %2, align 8, !dbg !1754
  store ptr %haystack.0, ptr %ptr, align 8, !dbg !1755
  store ptr %haystack.0, ptr %self.dbg.spill3, align 8, !dbg !1756
  call void @llvm.dbg.declare(metadata ptr %self.dbg.spill3, metadata !1751, metadata !DIExpression()), !dbg !1757
  %_13 = getelementptr inbounds i8, ptr %haystack.0, i64 %haystack.1, !dbg !1758
  store ptr %_13, ptr %end_or_len.dbg.spill, align 8, !dbg !1759
  call void @llvm.dbg.declare(metadata ptr %end_or_len.dbg.spill, metadata !1703, metadata !DIExpression()), !dbg !1760
  %3 = load ptr, ptr %ptr, align 8, !dbg !1761, !nonnull !44, !noundef !44
  store ptr %3, ptr %_7, align 8, !dbg !1761
  %4 = getelementptr inbounds i8, ptr %_7, i64 8, !dbg !1761
  store ptr %_13, ptr %4, align 8, !dbg !1761
  %5 = load ptr, ptr %_7, align 8, !dbg !1762, !nonnull !44, !noundef !44
  %6 = getelementptr inbounds i8, ptr %_7, i64 8, !dbg !1762
  %7 = load ptr, ptr %6, align 8, !dbg !1762, !noundef !44
  store ptr %5, ptr %_6, align 8, !dbg !1762
  %8 = getelementptr inbounds i8, ptr %_6, i64 8, !dbg !1762
  store ptr %7, ptr %8, align 8, !dbg !1762
  %9 = getelementptr inbounds i8, ptr %_5, i64 16, !dbg !1763
  store i64 0, ptr %9, align 8, !dbg !1763
  %10 = load ptr, ptr %_6, align 8, !dbg !1763, !nonnull !44, !noundef !44
  %11 = getelementptr inbounds i8, ptr %_6, i64 8, !dbg !1763
  %12 = load ptr, ptr %11, align 8, !dbg !1763, !noundef !44
  store ptr %10, ptr %_5, align 8, !dbg !1763
  %13 = getelementptr inbounds i8, ptr %_5, i64 8, !dbg !1763
  store ptr %12, ptr %13, align 8, !dbg !1763
  store ptr %haystack.0, ptr %_3, align 8, !dbg !1764
  %14 = getelementptr inbounds i8, ptr %_3, i64 8, !dbg !1764
  store i64 %haystack.1, ptr %14, align 8, !dbg !1764
  %15 = getelementptr inbounds i8, ptr %_3, i64 16, !dbg !1764
  call void @llvm.memcpy.p0.p0.i64(ptr align 8 %15, ptr align 8 %_5, i64 24, i1 false), !dbg !1764
  call void @llvm.memcpy.p0.p0.i64(ptr align 8 %_0, ptr align 8 %_3, i64 40, i1 false), !dbg !1765
  ret void, !dbg !1766
}

; <F as core::str::pattern::Pattern>::into_searcher
; Function Attrs: inlinehint uwtable
define void @"_ZN49_$LT$F$u20$as$u20$core..str..pattern..Pattern$GT$13into_searcher17hcd5cb523b7bba0f0E"(ptr sret(%"core::str::pattern::CharPredicateSearcher<'_, {closure@src/lib.rs:101:25: 101:34}>.12") align 8 %_0, ptr align 1 %haystack.0, i64 %haystack.1) unnamed_addr #0 !dbg !1767 {
start:
  %end_or_len.dbg.spill = alloca ptr, align 8
  %self.dbg.spill3 = alloca ptr, align 8
  %len.dbg.spill = alloca i64, align 8
  %self.dbg.spill2 = alloca { ptr, i64 }, align 8
  %self.dbg.spill1 = alloca %"core::str::pattern::MultiCharEqPattern<{closure@src/lib.rs:101:25: 101:34}>.39", align 1
  %haystack.dbg.spill = alloca { ptr, i64 }, align 8
  %self.dbg.spill = alloca %"{closure@src/lib.rs:101:25: 101:34}.14", align 1
  %self = alloca %"core::ptr::non_null::NonNull<[u8]>", align 8
  %ptr = alloca ptr, align 8
  %_7 = alloca %"core::slice::iter::Iter<'_, u8>", align 8
  %_6 = alloca %"core::str::iter::Chars<'_>", align 8
  %_5 = alloca %"core::str::iter::CharIndices<'_>", align 8
  %_3 = alloca %"core::str::pattern::MultiCharEqSearcher<'_, {closure@src/lib.rs:101:25: 101:34}>.13", align 8
  call void @llvm.dbg.declare(metadata ptr %self.dbg.spill, metadata !1784, metadata !DIExpression()), !dbg !1786
  store ptr %haystack.0, ptr %haystack.dbg.spill, align 8
  %0 = getelementptr inbounds i8, ptr %haystack.dbg.spill, i64 8
  store i64 %haystack.1, ptr %0, align 8
  call void @llvm.dbg.declare(metadata ptr %haystack.dbg.spill, metadata !1785, metadata !DIExpression()), !dbg !1787
  call void @llvm.dbg.declare(metadata ptr %haystack.dbg.spill, metadata !1788, metadata !DIExpression()), !dbg !1798
  call void @llvm.dbg.declare(metadata ptr %haystack.dbg.spill, metadata !1800, metadata !DIExpression()), !dbg !1804
  call void @llvm.dbg.declare(metadata ptr %haystack.dbg.spill, metadata !1806, metadata !DIExpression()), !dbg !1810
  call void @llvm.dbg.declare(metadata ptr %haystack.dbg.spill, metadata !1812, metadata !DIExpression()), !dbg !1816
  call void @llvm.dbg.declare(metadata ptr %self.dbg.spill1, metadata !1797, metadata !DIExpression()), !dbg !1818
  call void @llvm.dbg.declare(metadata ptr %ptr, metadata !1819, metadata !DIExpression()), !dbg !1829
  call void @llvm.dbg.declare(metadata ptr %ptr, metadata !1836, metadata !DIExpression()), !dbg !1840
  call void @llvm.dbg.declare(metadata ptr %self, metadata !1842, metadata !DIExpression()), !dbg !1846
  call void @llvm.dbg.declare(metadata ptr %self, metadata !1848, metadata !DIExpression()), !dbg !1852
  store ptr %haystack.0, ptr %self.dbg.spill2, align 8, !dbg !1854
  %1 = getelementptr inbounds i8, ptr %self.dbg.spill2, i64 8, !dbg !1854
  store i64 %haystack.1, ptr %1, align 8, !dbg !1854
  call void @llvm.dbg.declare(metadata ptr %self.dbg.spill2, metadata !1834, metadata !DIExpression()), !dbg !1855
  call void @llvm.dbg.declare(metadata ptr %self.dbg.spill2, metadata !1825, metadata !DIExpression()), !dbg !1856
  call void @llvm.dbg.declare(metadata ptr %self.dbg.spill2, metadata !1857, metadata !DIExpression()), !dbg !1861
  store i64 %haystack.1, ptr %len.dbg.spill, align 8, !dbg !1863
  call void @llvm.dbg.declare(metadata ptr %len.dbg.spill, metadata !1826, metadata !DIExpression()), !dbg !1864
  call void @llvm.dbg.declare(metadata ptr %len.dbg.spill, metadata !1865, metadata !DIExpression()), !dbg !1869
  call void @llvm.dbg.declare(metadata ptr %len.dbg.spill, metadata !1871, metadata !DIExpression()), !dbg !1876
  store ptr %haystack.0, ptr %self, align 8, !dbg !1878
  %2 = getelementptr inbounds i8, ptr %self, i64 8, !dbg !1878
  store i64 %haystack.1, ptr %2, align 8, !dbg !1878
  store ptr %haystack.0, ptr %ptr, align 8, !dbg !1879
  store ptr %haystack.0, ptr %self.dbg.spill3, align 8, !dbg !1880
  call void @llvm.dbg.declare(metadata ptr %self.dbg.spill3, metadata !1875, metadata !DIExpression()), !dbg !1881
  %_13 = getelementptr inbounds i8, ptr %haystack.0, i64 %haystack.1, !dbg !1882
  store ptr %_13, ptr %end_or_len.dbg.spill, align 8, !dbg !1883
  call void @llvm.dbg.declare(metadata ptr %end_or_len.dbg.spill, metadata !1827, metadata !DIExpression()), !dbg !1884
  %3 = load ptr, ptr %ptr, align 8, !dbg !1885, !nonnull !44, !noundef !44
  store ptr %3, ptr %_7, align 8, !dbg !1885
  %4 = getelementptr inbounds i8, ptr %_7, i64 8, !dbg !1885
  store ptr %_13, ptr %4, align 8, !dbg !1885
  %5 = load ptr, ptr %_7, align 8, !dbg !1886, !nonnull !44, !noundef !44
  %6 = getelementptr inbounds i8, ptr %_7, i64 8, !dbg !1886
  %7 = load ptr, ptr %6, align 8, !dbg !1886, !noundef !44
  store ptr %5, ptr %_6, align 8, !dbg !1886
  %8 = getelementptr inbounds i8, ptr %_6, i64 8, !dbg !1886
  store ptr %7, ptr %8, align 8, !dbg !1886
  %9 = getelementptr inbounds i8, ptr %_5, i64 16, !dbg !1887
  store i64 0, ptr %9, align 8, !dbg !1887
  %10 = load ptr, ptr %_6, align 8, !dbg !1887, !nonnull !44, !noundef !44
  %11 = getelementptr inbounds i8, ptr %_6, i64 8, !dbg !1887
  %12 = load ptr, ptr %11, align 8, !dbg !1887, !noundef !44
  store ptr %10, ptr %_5, align 8, !dbg !1887
  %13 = getelementptr inbounds i8, ptr %_5, i64 8, !dbg !1887
  store ptr %12, ptr %13, align 8, !dbg !1887
  store ptr %haystack.0, ptr %_3, align 8, !dbg !1888
  %14 = getelementptr inbounds i8, ptr %_3, i64 8, !dbg !1888
  store i64 %haystack.1, ptr %14, align 8, !dbg !1888
  %15 = getelementptr inbounds i8, ptr %_3, i64 16, !dbg !1888
  call void @llvm.memcpy.p0.p0.i64(ptr align 8 %15, ptr align 8 %_5, i64 24, i1 false), !dbg !1888
  call void @llvm.memcpy.p0.p0.i64(ptr align 8 %_0, ptr align 8 %_3, i64 40, i1 false), !dbg !1889
  ret void, !dbg !1890
}

; <F as core::str::pattern::Pattern>::into_searcher
; Function Attrs: inlinehint uwtable
define void @"_ZN49_$LT$F$u20$as$u20$core..str..pattern..Pattern$GT$13into_searcher17hf3c512c081eabdf3E"(ptr sret(%"core::str::pattern::CharPredicateSearcher<'_, {closure@src/lib.rs:101:25: 101:34}>.15") align 8 %_0, ptr align 1 %haystack.0, i64 %haystack.1) unnamed_addr #0 !dbg !1891 {
start:
  %end_or_len.dbg.spill = alloca ptr, align 8
  %self.dbg.spill3 = alloca ptr, align 8
  %len.dbg.spill = alloca i64, align 8
  %self.dbg.spill2 = alloca { ptr, i64 }, align 8
  %self.dbg.spill1 = alloca %"core::str::pattern::MultiCharEqPattern<{closure@src/lib.rs:101:25: 101:34}>.40", align 1
  %haystack.dbg.spill = alloca { ptr, i64 }, align 8
  %self.dbg.spill = alloca %"{closure@src/lib.rs:101:25: 101:34}.17", align 1
  %self = alloca %"core::ptr::non_null::NonNull<[u8]>", align 8
  %ptr = alloca ptr, align 8
  %_7 = alloca %"core::slice::iter::Iter<'_, u8>", align 8
  %_6 = alloca %"core::str::iter::Chars<'_>", align 8
  %_5 = alloca %"core::str::iter::CharIndices<'_>", align 8
  %_3 = alloca %"core::str::pattern::MultiCharEqSearcher<'_, {closure@src/lib.rs:101:25: 101:34}>.16", align 8
  call void @llvm.dbg.declare(metadata ptr %self.dbg.spill, metadata !1908, metadata !DIExpression()), !dbg !1910
  store ptr %haystack.0, ptr %haystack.dbg.spill, align 8
  %0 = getelementptr inbounds i8, ptr %haystack.dbg.spill, i64 8
  store i64 %haystack.1, ptr %0, align 8
  call void @llvm.dbg.declare(metadata ptr %haystack.dbg.spill, metadata !1909, metadata !DIExpression()), !dbg !1911
  call void @llvm.dbg.declare(metadata ptr %haystack.dbg.spill, metadata !1912, metadata !DIExpression()), !dbg !1922
  call void @llvm.dbg.declare(metadata ptr %haystack.dbg.spill, metadata !1924, metadata !DIExpression()), !dbg !1928
  call void @llvm.dbg.declare(metadata ptr %haystack.dbg.spill, metadata !1930, metadata !DIExpression()), !dbg !1934
  call void @llvm.dbg.declare(metadata ptr %haystack.dbg.spill, metadata !1936, metadata !DIExpression()), !dbg !1940
  call void @llvm.dbg.declare(metadata ptr %self.dbg.spill1, metadata !1921, metadata !DIExpression()), !dbg !1942
  call void @llvm.dbg.declare(metadata ptr %ptr, metadata !1943, metadata !DIExpression()), !dbg !1953
  call void @llvm.dbg.declare(metadata ptr %ptr, metadata !1960, metadata !DIExpression()), !dbg !1964
  call void @llvm.dbg.declare(metadata ptr %self, metadata !1966, metadata !DIExpression()), !dbg !1970
  call void @llvm.dbg.declare(metadata ptr %self, metadata !1972, metadata !DIExpression()), !dbg !1976
  store ptr %haystack.0, ptr %self.dbg.spill2, align 8, !dbg !1978
  %1 = getelementptr inbounds i8, ptr %self.dbg.spill2, i64 8, !dbg !1978
  store i64 %haystack.1, ptr %1, align 8, !dbg !1978
  call void @llvm.dbg.declare(metadata ptr %self.dbg.spill2, metadata !1958, metadata !DIExpression()), !dbg !1979
  call void @llvm.dbg.declare(metadata ptr %self.dbg.spill2, metadata !1949, metadata !DIExpression()), !dbg !1980
  call void @llvm.dbg.declare(metadata ptr %self.dbg.spill2, metadata !1981, metadata !DIExpression()), !dbg !1985
  store i64 %haystack.1, ptr %len.dbg.spill, align 8, !dbg !1987
  call void @llvm.dbg.declare(metadata ptr %len.dbg.spill, metadata !1950, metadata !DIExpression()), !dbg !1988
  call void @llvm.dbg.declare(metadata ptr %len.dbg.spill, metadata !1989, metadata !DIExpression()), !dbg !1993
  call void @llvm.dbg.declare(metadata ptr %len.dbg.spill, metadata !1995, metadata !DIExpression()), !dbg !2000
  store ptr %haystack.0, ptr %self, align 8, !dbg !2002
  %2 = getelementptr inbounds i8, ptr %self, i64 8, !dbg !2002
  store i64 %haystack.1, ptr %2, align 8, !dbg !2002
  store ptr %haystack.0, ptr %ptr, align 8, !dbg !2003
  store ptr %haystack.0, ptr %self.dbg.spill3, align 8, !dbg !2004
  call void @llvm.dbg.declare(metadata ptr %self.dbg.spill3, metadata !1999, metadata !DIExpression()), !dbg !2005
  %_13 = getelementptr inbounds i8, ptr %haystack.0, i64 %haystack.1, !dbg !2006
  store ptr %_13, ptr %end_or_len.dbg.spill, align 8, !dbg !2007
  call void @llvm.dbg.declare(metadata ptr %end_or_len.dbg.spill, metadata !1951, metadata !DIExpression()), !dbg !2008
  %3 = load ptr, ptr %ptr, align 8, !dbg !2009, !nonnull !44, !noundef !44
  store ptr %3, ptr %_7, align 8, !dbg !2009
  %4 = getelementptr inbounds i8, ptr %_7, i64 8, !dbg !2009
  store ptr %_13, ptr %4, align 8, !dbg !2009
  %5 = load ptr, ptr %_7, align 8, !dbg !2010, !nonnull !44, !noundef !44
  %6 = getelementptr inbounds i8, ptr %_7, i64 8, !dbg !2010
  %7 = load ptr, ptr %6, align 8, !dbg !2010, !noundef !44
  store ptr %5, ptr %_6, align 8, !dbg !2010
  %8 = getelementptr inbounds i8, ptr %_6, i64 8, !dbg !2010
  store ptr %7, ptr %8, align 8, !dbg !2010
  %9 = getelementptr inbounds i8, ptr %_5, i64 16, !dbg !2011
  store i64 0, ptr %9, align 8, !dbg !2011
  %10 = load ptr, ptr %_6, align 8, !dbg !2011, !nonnull !44, !noundef !44
  %11 = getelementptr inbounds i8, ptr %_6, i64 8, !dbg !2011
  %12 = load ptr, ptr %11, align 8, !dbg !2011, !noundef !44
  store ptr %10, ptr %_5, align 8, !dbg !2011
  %13 = getelementptr inbounds i8, ptr %_5, i64 8, !dbg !2011
  store ptr %12, ptr %13, align 8, !dbg !2011
  store ptr %haystack.0, ptr %_3, align 8, !dbg !2012
  %14 = getelementptr inbounds i8, ptr %_3, i64 8, !dbg !2012
  store i64 %haystack.1, ptr %14, align 8, !dbg !2012
  %15 = getelementptr inbounds i8, ptr %_3, i64 16, !dbg !2012
  call void @llvm.memcpy.p0.p0.i64(ptr align 8 %15, ptr align 8 %_5, i64 24, i1 false), !dbg !2012
  call void @llvm.memcpy.p0.p0.i64(ptr align 8 %_0, ptr align 8 %_3, i64 40, i1 false), !dbg !2013
  ret void, !dbg !2014
}

; <F as core::str::pattern::Pattern>::into_searcher
; Function Attrs: inlinehint uwtable
define void @"_ZN49_$LT$F$u20$as$u20$core..str..pattern..Pattern$GT$13into_searcher17hf98c337d8046ce82E"(ptr sret(%"core::str::pattern::CharPredicateSearcher<'_, {closure@src/lib.rs:101:25: 101:34}>.18") align 8 %_0, ptr align 1 %haystack.0, i64 %haystack.1) unnamed_addr #0 !dbg !2015 {
start:
  %end_or_len.dbg.spill = alloca ptr, align 8
  %self.dbg.spill3 = alloca ptr, align 8
  %len.dbg.spill = alloca i64, align 8
  %self.dbg.spill2 = alloca { ptr, i64 }, align 8
  %self.dbg.spill1 = alloca %"core::str::pattern::MultiCharEqPattern<{closure@src/lib.rs:101:25: 101:34}>.41", align 1
  %haystack.dbg.spill = alloca { ptr, i64 }, align 8
  %self.dbg.spill = alloca %"{closure@src/lib.rs:101:25: 101:34}.20", align 1
  %self = alloca %"core::ptr::non_null::NonNull<[u8]>", align 8
  %ptr = alloca ptr, align 8
  %_7 = alloca %"core::slice::iter::Iter<'_, u8>", align 8
  %_6 = alloca %"core::str::iter::Chars<'_>", align 8
  %_5 = alloca %"core::str::iter::CharIndices<'_>", align 8
  %_3 = alloca %"core::str::pattern::MultiCharEqSearcher<'_, {closure@src/lib.rs:101:25: 101:34}>.19", align 8
  call void @llvm.dbg.declare(metadata ptr %self.dbg.spill, metadata !2032, metadata !DIExpression()), !dbg !2034
  store ptr %haystack.0, ptr %haystack.dbg.spill, align 8
  %0 = getelementptr inbounds i8, ptr %haystack.dbg.spill, i64 8
  store i64 %haystack.1, ptr %0, align 8
  call void @llvm.dbg.declare(metadata ptr %haystack.dbg.spill, metadata !2033, metadata !DIExpression()), !dbg !2035
  call void @llvm.dbg.declare(metadata ptr %haystack.dbg.spill, metadata !2036, metadata !DIExpression()), !dbg !2046
  call void @llvm.dbg.declare(metadata ptr %haystack.dbg.spill, metadata !2048, metadata !DIExpression()), !dbg !2052
  call void @llvm.dbg.declare(metadata ptr %haystack.dbg.spill, metadata !2054, metadata !DIExpression()), !dbg !2058
  call void @llvm.dbg.declare(metadata ptr %haystack.dbg.spill, metadata !2060, metadata !DIExpression()), !dbg !2064
  call void @llvm.dbg.declare(metadata ptr %self.dbg.spill1, metadata !2045, metadata !DIExpression()), !dbg !2066
  call void @llvm.dbg.declare(metadata ptr %ptr, metadata !2067, metadata !DIExpression()), !dbg !2077
  call void @llvm.dbg.declare(metadata ptr %ptr, metadata !2084, metadata !DIExpression()), !dbg !2088
  call void @llvm.dbg.declare(metadata ptr %self, metadata !2090, metadata !DIExpression()), !dbg !2094
  call void @llvm.dbg.declare(metadata ptr %self, metadata !2096, metadata !DIExpression()), !dbg !2100
  store ptr %haystack.0, ptr %self.dbg.spill2, align 8, !dbg !2102
  %1 = getelementptr inbounds i8, ptr %self.dbg.spill2, i64 8, !dbg !2102
  store i64 %haystack.1, ptr %1, align 8, !dbg !2102
  call void @llvm.dbg.declare(metadata ptr %self.dbg.spill2, metadata !2082, metadata !DIExpression()), !dbg !2103
  call void @llvm.dbg.declare(metadata ptr %self.dbg.spill2, metadata !2073, metadata !DIExpression()), !dbg !2104
  call void @llvm.dbg.declare(metadata ptr %self.dbg.spill2, metadata !2105, metadata !DIExpression()), !dbg !2109
  store i64 %haystack.1, ptr %len.dbg.spill, align 8, !dbg !2111
  call void @llvm.dbg.declare(metadata ptr %len.dbg.spill, metadata !2074, metadata !DIExpression()), !dbg !2112
  call void @llvm.dbg.declare(metadata ptr %len.dbg.spill, metadata !2113, metadata !DIExpression()), !dbg !2117
  call void @llvm.dbg.declare(metadata ptr %len.dbg.spill, metadata !2119, metadata !DIExpression()), !dbg !2124
  store ptr %haystack.0, ptr %self, align 8, !dbg !2126
  %2 = getelementptr inbounds i8, ptr %self, i64 8, !dbg !2126
  store i64 %haystack.1, ptr %2, align 8, !dbg !2126
  store ptr %haystack.0, ptr %ptr, align 8, !dbg !2127
  store ptr %haystack.0, ptr %self.dbg.spill3, align 8, !dbg !2128
  call void @llvm.dbg.declare(metadata ptr %self.dbg.spill3, metadata !2123, metadata !DIExpression()), !dbg !2129
  %_13 = getelementptr inbounds i8, ptr %haystack.0, i64 %haystack.1, !dbg !2130
  store ptr %_13, ptr %end_or_len.dbg.spill, align 8, !dbg !2131
  call void @llvm.dbg.declare(metadata ptr %end_or_len.dbg.spill, metadata !2075, metadata !DIExpression()), !dbg !2132
  %3 = load ptr, ptr %ptr, align 8, !dbg !2133, !nonnull !44, !noundef !44
  store ptr %3, ptr %_7, align 8, !dbg !2133
  %4 = getelementptr inbounds i8, ptr %_7, i64 8, !dbg !2133
  store ptr %_13, ptr %4, align 8, !dbg !2133
  %5 = load ptr, ptr %_7, align 8, !dbg !2134, !nonnull !44, !noundef !44
  %6 = getelementptr inbounds i8, ptr %_7, i64 8, !dbg !2134
  %7 = load ptr, ptr %6, align 8, !dbg !2134, !noundef !44
  store ptr %5, ptr %_6, align 8, !dbg !2134
  %8 = getelementptr inbounds i8, ptr %_6, i64 8, !dbg !2134
  store ptr %7, ptr %8, align 8, !dbg !2134
  %9 = getelementptr inbounds i8, ptr %_5, i64 16, !dbg !2135
  store i64 0, ptr %9, align 8, !dbg !2135
  %10 = load ptr, ptr %_6, align 8, !dbg !2135, !nonnull !44, !noundef !44
  %11 = getelementptr inbounds i8, ptr %_6, i64 8, !dbg !2135
  %12 = load ptr, ptr %11, align 8, !dbg !2135, !noundef !44
  store ptr %10, ptr %_5, align 8, !dbg !2135
  %13 = getelementptr inbounds i8, ptr %_5, i64 8, !dbg !2135
  store ptr %12, ptr %13, align 8, !dbg !2135
  store ptr %haystack.0, ptr %_3, align 8, !dbg !2136
  %14 = getelementptr inbounds i8, ptr %_3, i64 8, !dbg !2136
  store i64 %haystack.1, ptr %14, align 8, !dbg !2136
  %15 = getelementptr inbounds i8, ptr %_3, i64 16, !dbg !2136
  call void @llvm.memcpy.p0.p0.i64(ptr align 8 %15, ptr align 8 %_5, i64 24, i1 false), !dbg !2136
  call void @llvm.memcpy.p0.p0.i64(ptr align 8 %_0, ptr align 8 %_3, i64 40, i1 false), !dbg !2137
  ret void, !dbg !2138
}

; core::intrinsics::write_bytes::precondition_check
; Function Attrs: inlinehint nounwind uwtable
define internal void @_ZN4core10intrinsics11write_bytes18precondition_check17ha7dd13d1fa8588c3E(ptr %addr, i64 %align) unnamed_addr #2 personality ptr @rust_eh_personality !dbg !2139 {
start:
  %align.dbg.spill = alloca i64, align 8
  %addr.dbg.spill = alloca ptr, align 8
  store ptr %addr, ptr %addr.dbg.spill, align 8
  call void @llvm.dbg.declare(metadata ptr %addr.dbg.spill, metadata !2146, metadata !DIExpression()), !dbg !2148
  store i64 %align, ptr %align.dbg.spill, align 8
  call void @llvm.dbg.declare(metadata ptr %align.dbg.spill, metadata !2147, metadata !DIExpression()), !dbg !2148
; invoke core::intrinsics::is_aligned_and_not_null
  %_3 = invoke zeroext i1 @_ZN4core10intrinsics23is_aligned_and_not_null17hc7e1d61841a23e55E(ptr %addr, i64 %align)
          to label %bb1 unwind label %terminate, !dbg !2149

terminate:                                        ; preds = %start
  %0 = landingpad { ptr, i32 }
          filter [0 x ptr] zeroinitializer
  %1 = extractvalue { ptr, i32 } %0, 0
  %2 = extractvalue { ptr, i32 } %0, 1
; call core::panicking::panic_cannot_unwind
  call void @_ZN4core9panicking19panic_cannot_unwind17h3626040c0976c0c3E() #24, !dbg !2150
  unreachable, !dbg !2150

bb1:                                              ; preds = %start
  br i1 %_3, label %bb2, label %bb3, !dbg !2149

bb3:                                              ; preds = %bb1
; call core::panicking::panic_nounwind
  call void @_ZN4core9panicking14panic_nounwind17h50c31e15afde233eE(ptr align 1 @alloc_424341b75ece3fa20496f1c69b9fb0ac, i64 111) #20, !dbg !2151
  unreachable, !dbg !2151

bb2:                                              ; preds = %bb1
  ret void, !dbg !2152
}

; core::intrinsics::is_nonoverlapping
; Function Attrs: inlinehint uwtable
define internal zeroext i1 @_ZN4core10intrinsics17is_nonoverlapping17h63f78be126a6b834E(ptr %src, ptr %dst, i64 %size, i64 %count) unnamed_addr #0 !dbg !2153 {
start:
  %size.dbg.spill3 = alloca i64, align 8
  %0 = alloca i8, align 1
  %a.dbg.spill1 = alloca i64, align 8
  %b.dbg.spill = alloca i8, align 1
  %a.dbg.spill = alloca i64, align 8
  %dst_usize.dbg.spill = alloca i64, align 8
  %src_usize.dbg.spill = alloca i64, align 8
  %count.dbg.spill = alloca i64, align 8
  %size.dbg.spill = alloca i64, align 8
  %dst.dbg.spill = alloca ptr, align 8
  %src.dbg.spill = alloca ptr, align 8
  %diff = alloca i64, align 8
  %_9 = alloca %"core::option::Option<usize>", align 8
  store ptr %src, ptr %src.dbg.spill, align 8
  call void @llvm.dbg.declare(metadata ptr %src.dbg.spill, metadata !2158, metadata !DIExpression()), !dbg !2170
  call void @llvm.dbg.declare(metadata ptr %src.dbg.spill, metadata !2171, metadata !DIExpression()), !dbg !2180
  call void @llvm.dbg.declare(metadata ptr %src.dbg.spill, metadata !2182, metadata !DIExpression()), !dbg !2191
  store ptr %dst, ptr %dst.dbg.spill, align 8
  call void @llvm.dbg.declare(metadata ptr %dst.dbg.spill, metadata !2159, metadata !DIExpression()), !dbg !2193
  call void @llvm.dbg.declare(metadata ptr %dst.dbg.spill, metadata !2177, metadata !DIExpression()), !dbg !2194
  call void @llvm.dbg.declare(metadata ptr %dst.dbg.spill, metadata !2188, metadata !DIExpression()), !dbg !2196
  store i64 %size, ptr %size.dbg.spill, align 8
  call void @llvm.dbg.declare(metadata ptr %size.dbg.spill, metadata !2160, metadata !DIExpression()), !dbg !2198
  call void @llvm.dbg.declare(metadata ptr %size.dbg.spill, metadata !2199, metadata !DIExpression()), !dbg !2215
  call void @llvm.dbg.declare(metadata ptr %size.dbg.spill, metadata !2217, metadata !DIExpression()), !dbg !2233
  store i64 %count, ptr %count.dbg.spill, align 8
  call void @llvm.dbg.declare(metadata ptr %count.dbg.spill, metadata !2161, metadata !DIExpression()), !dbg !2235
  call void @llvm.dbg.declare(metadata ptr %count.dbg.spill, metadata !2210, metadata !DIExpression()), !dbg !2215
  call void @llvm.dbg.declare(metadata ptr %count.dbg.spill, metadata !2228, metadata !DIExpression()), !dbg !2233
  call void @llvm.dbg.declare(metadata ptr %diff, metadata !2168, metadata !DIExpression()), !dbg !2236
  %src_usize = ptrtoint ptr %src to i64, !dbg !2237
  store i64 %src_usize, ptr %src_usize.dbg.spill, align 8, !dbg !2237
  call void @llvm.dbg.declare(metadata ptr %src_usize.dbg.spill, metadata !2162, metadata !DIExpression()), !dbg !2238
  call void @llvm.dbg.declare(metadata ptr %src_usize.dbg.spill, metadata !2239, metadata !DIExpression()), !dbg !2247
  %dst_usize = ptrtoint ptr %dst to i64, !dbg !2249
  store i64 %dst_usize, ptr %dst_usize.dbg.spill, align 8, !dbg !2249
  call void @llvm.dbg.declare(metadata ptr %dst_usize.dbg.spill, metadata !2164, metadata !DIExpression()), !dbg !2250
  call void @llvm.dbg.declare(metadata ptr %dst_usize.dbg.spill, metadata !2246, metadata !DIExpression()), !dbg !2247
  %1 = call { i64, i1 } @llvm.umul.with.overflow.i64(i64 %size, i64 %count), !dbg !2233
  %_15.0 = extractvalue { i64, i1 } %1, 0, !dbg !2233
  %_15.1 = extractvalue { i64, i1 } %1, 1, !dbg !2233
  store i64 %_15.0, ptr %a.dbg.spill, align 8, !dbg !2233
  call void @llvm.dbg.declare(metadata ptr %a.dbg.spill, metadata !2229, metadata !DIExpression()), !dbg !2251
  %2 = zext i1 %_15.1 to i8, !dbg !2233
  store i8 %2, ptr %b.dbg.spill, align 1, !dbg !2233
  call void @llvm.dbg.declare(metadata ptr %b.dbg.spill, metadata !2214, metadata !DIExpression()), !dbg !2252
  call void @llvm.dbg.declare(metadata ptr %b.dbg.spill, metadata !2232, metadata !DIExpression()), !dbg !2251
  store i64 %_15.0, ptr %a.dbg.spill1, align 8, !dbg !2251
  call void @llvm.dbg.declare(metadata ptr %a.dbg.spill1, metadata !2211, metadata !DIExpression()), !dbg !2252
  %3 = call i1 @llvm.expect.i1(i1 %_15.1, i1 false), !dbg !2252
  %4 = zext i1 %3 to i8, !dbg !2252
  store i8 %4, ptr %0, align 1, !dbg !2252
  %5 = load i8, ptr %0, align 1, !dbg !2252, !range !746, !noundef !44
  %_12 = trunc i8 %5 to i1, !dbg !2252
  br i1 %_12, label %bb2, label %bb3, !dbg !2252

bb3:                                              ; preds = %start
  %6 = getelementptr inbounds i8, ptr %_9, i64 8, !dbg !2252
  store i64 %_15.0, ptr %6, align 8, !dbg !2252
  store i64 1, ptr %_9, align 8, !dbg !2252
  %7 = getelementptr inbounds i8, ptr %_9, i64 8, !dbg !2253
  %size2 = load i64, ptr %7, align 8, !dbg !2253, !noundef !44
  store i64 %size2, ptr %size.dbg.spill3, align 8, !dbg !2253
  call void @llvm.dbg.declare(metadata ptr %size.dbg.spill3, metadata !2166, metadata !DIExpression()), !dbg !2254
  %_22 = icmp ult i64 %src_usize, %dst_usize, !dbg !2247
  br i1 %_22, label %bb4, label %bb5, !dbg !2247

bb2:                                              ; preds = %start
; call core::panicking::panic_nounwind
  call void @_ZN4core9panicking14panic_nounwind17h50c31e15afde233eE(ptr align 1 @alloc_763310d78c99c2c1ad3f8a9821e942f3, i64 61) #20, !dbg !2255
  unreachable, !dbg !2255

bb5:                                              ; preds = %bb3
  %8 = sub i64 %src_usize, %dst_usize, !dbg !2247
  store i64 %8, ptr %diff, align 8, !dbg !2247
  br label %bb6, !dbg !2247

bb4:                                              ; preds = %bb3
  %9 = sub i64 %dst_usize, %src_usize, !dbg !2247
  store i64 %9, ptr %diff, align 8, !dbg !2247
  br label %bb6, !dbg !2247

bb6:                                              ; preds = %bb4, %bb5
  %_11 = load i64, ptr %diff, align 8, !dbg !2256, !noundef !44
  %_0 = icmp uge i64 %_11, %size2, !dbg !2256
  ret i1 %_0, !dbg !2257
}

; core::intrinsics::copy_nonoverlapping::precondition_check
; Function Attrs: inlinehint nounwind uwtable
define internal void @_ZN4core10intrinsics19copy_nonoverlapping18precondition_check17hdf340e5f8cdf5844E(ptr %src, ptr %dst, i64 %size, i64 %align, i64 %count) unnamed_addr #2 personality ptr @rust_eh_personality !dbg !2258 {
start:
  %count.dbg.spill = alloca i64, align 8
  %align.dbg.spill = alloca i64, align 8
  %size.dbg.spill = alloca i64, align 8
  %dst.dbg.spill = alloca ptr, align 8
  %src.dbg.spill = alloca ptr, align 8
  store ptr %src, ptr %src.dbg.spill, align 8
  call void @llvm.dbg.declare(metadata ptr %src.dbg.spill, metadata !2263, metadata !DIExpression()), !dbg !2268
  store ptr %dst, ptr %dst.dbg.spill, align 8
  call void @llvm.dbg.declare(metadata ptr %dst.dbg.spill, metadata !2264, metadata !DIExpression()), !dbg !2268
  store i64 %size, ptr %size.dbg.spill, align 8
  call void @llvm.dbg.declare(metadata ptr %size.dbg.spill, metadata !2265, metadata !DIExpression()), !dbg !2268
  store i64 %align, ptr %align.dbg.spill, align 8
  call void @llvm.dbg.declare(metadata ptr %align.dbg.spill, metadata !2266, metadata !DIExpression()), !dbg !2268
  store i64 %count, ptr %count.dbg.spill, align 8
  call void @llvm.dbg.declare(metadata ptr %count.dbg.spill, metadata !2267, metadata !DIExpression()), !dbg !2268
; invoke core::intrinsics::is_aligned_and_not_null
  %_6 = invoke zeroext i1 @_ZN4core10intrinsics23is_aligned_and_not_null17hc7e1d61841a23e55E(ptr %src, i64 %align)
          to label %bb1 unwind label %terminate, !dbg !2269

terminate:                                        ; preds = %bb4, %bb2, %start
  %0 = landingpad { ptr, i32 }
          filter [0 x ptr] zeroinitializer
  %1 = extractvalue { ptr, i32 } %0, 0
  %2 = extractvalue { ptr, i32 } %0, 1
; call core::panicking::panic_cannot_unwind
  call void @_ZN4core9panicking19panic_cannot_unwind17h3626040c0976c0c3E() #24, !dbg !2270
  unreachable, !dbg !2270

bb1:                                              ; preds = %start
  br i1 %_6, label %bb2, label %bb7, !dbg !2269

bb7:                                              ; preds = %bb5, %bb3, %bb1
; call core::panicking::panic_nounwind
  call void @_ZN4core9panicking14panic_nounwind17h50c31e15afde233eE(ptr align 1 @alloc_8df0580a595a87d56789d20c7318e185, i64 166) #20, !dbg !2271
  unreachable, !dbg !2271

bb2:                                              ; preds = %bb1
; invoke core::intrinsics::is_aligned_and_not_null
  %_7 = invoke zeroext i1 @_ZN4core10intrinsics23is_aligned_and_not_null17hc7e1d61841a23e55E(ptr %dst, i64 %align)
          to label %bb3 unwind label %terminate, !dbg !2272

bb3:                                              ; preds = %bb2
  br i1 %_7, label %bb4, label %bb7, !dbg !2272

bb4:                                              ; preds = %bb3
; invoke core::intrinsics::is_nonoverlapping
  %_9 = invoke zeroext i1 @_ZN4core10intrinsics17is_nonoverlapping17h63f78be126a6b834E(ptr %src, ptr %dst, i64 %size, i64 %count)
          to label %bb5 unwind label %terminate, !dbg !2273

bb5:                                              ; preds = %bb4
  br i1 %_9, label %bb6, label %bb7, !dbg !2273

bb6:                                              ; preds = %bb5
  ret void, !dbg !2274
}

; core::intrinsics::is_aligned_and_not_null
; Function Attrs: inlinehint uwtable
define internal zeroext i1 @_ZN4core10intrinsics23is_aligned_and_not_null17hc7e1d61841a23e55E(ptr %ptr, i64 %align) unnamed_addr #0 !dbg !2275 {
start:
  %pieces.dbg.spill = alloca { ptr, i64 }, align 8
  %0 = alloca i64, align 8
  %ptr.dbg.spill1 = alloca ptr, align 8
  %align.dbg.spill = alloca i64, align 8
  %ptr.dbg.spill = alloca ptr, align 8
  %_6 = alloca %"core::fmt::Arguments<'_>", align 8
  %_0 = alloca i8, align 1
  store ptr %ptr, ptr %ptr.dbg.spill, align 8
  call void @llvm.dbg.declare(metadata ptr %ptr.dbg.spill, metadata !2279, metadata !DIExpression()), !dbg !2281
  call void @llvm.dbg.declare(metadata ptr %ptr.dbg.spill, metadata !2282, metadata !DIExpression()), !dbg !2288
  call void @llvm.dbg.declare(metadata ptr %ptr.dbg.spill, metadata !2290, metadata !DIExpression()), !dbg !2295
  call void @llvm.dbg.declare(metadata ptr %ptr.dbg.spill, metadata !2297, metadata !DIExpression()), !dbg !2303
  call void @llvm.dbg.declare(metadata ptr %ptr.dbg.spill, metadata !2305, metadata !DIExpression()), !dbg !2311
  call void @llvm.dbg.declare(metadata ptr %ptr.dbg.spill, metadata !2313, metadata !DIExpression()), !dbg !2317
  call void @llvm.dbg.declare(metadata ptr %ptr.dbg.spill, metadata !2301, metadata !DIExpression()), !dbg !2319
  store i64 %align, ptr %align.dbg.spill, align 8
  call void @llvm.dbg.declare(metadata ptr %align.dbg.spill, metadata !2280, metadata !DIExpression()), !dbg !2321
  call void @llvm.dbg.declare(metadata ptr %align.dbg.spill, metadata !2294, metadata !DIExpression()), !dbg !2322
  call void @llvm.dbg.declare(metadata ptr %align.dbg.spill, metadata !2323, metadata !DIExpression()), !dbg !2330
  call void @llvm.dbg.declare(metadata ptr %align.dbg.spill, metadata !2332, metadata !DIExpression()), !dbg !2339
  call void @llvm.dbg.declare(metadata ptr %align.dbg.spill, metadata !2310, metadata !DIExpression()), !dbg !2341
  store ptr %ptr, ptr %ptr.dbg.spill1, align 8, !dbg !2342
  call void @llvm.dbg.declare(metadata ptr %ptr.dbg.spill1, metadata !2343, metadata !DIExpression()), !dbg !2350
  call void @llvm.dbg.declare(metadata ptr %ptr.dbg.spill1, metadata !2352, metadata !DIExpression()), !dbg !2358
  call void @llvm.dbg.declare(metadata ptr %ptr.dbg.spill1, metadata !2360, metadata !DIExpression()), !dbg !2364
  %_4 = ptrtoint ptr %ptr to i64, !dbg !2366
  %1 = icmp eq i64 %_4, 0, !dbg !2367
  br i1 %1, label %bb1, label %bb2, !dbg !2367

bb1:                                              ; preds = %start
  store i8 0, ptr %_0, align 1, !dbg !2368
  br label %bb3, !dbg !2368

bb2:                                              ; preds = %start
  %2 = call i64 @llvm.ctpop.i64(i64 %align), !dbg !2339
  store i64 %2, ptr %0, align 8, !dbg !2339
  %_9 = load i64, ptr %0, align 8, !dbg !2339, !noundef !44
  %_8 = trunc i64 %_9 to i32, !dbg !2339
  %3 = icmp eq i32 %_8, 1, !dbg !2369
  br i1 %3, label %bb4, label %bb5, !dbg !2369

bb3:                                              ; preds = %bb4, %bb1
  %4 = load i8, ptr %_0, align 1, !dbg !2370, !range !746, !noundef !44
  %5 = trunc i8 %4 to i1, !dbg !2370
  ret i1 %5, !dbg !2370

bb4:                                              ; preds = %bb2
  %_13 = sub i64 %align, 1, !dbg !2371
  %_12 = and i64 %_4, %_13, !dbg !2372
  %6 = icmp eq i64 %_12, 0, !dbg !2372
  %7 = zext i1 %6 to i8, !dbg !2372
  store i8 %7, ptr %_0, align 1, !dbg !2372
  br label %bb3, !dbg !2368

bb5:                                              ; preds = %bb2
  store ptr @alloc_041983ee8170efdaaf95ba67fd072d26, ptr %pieces.dbg.spill, align 8, !dbg !2373
  %8 = getelementptr inbounds i8, ptr %pieces.dbg.spill, i64 8, !dbg !2373
  store i64 1, ptr %8, align 8, !dbg !2373
  call void @llvm.dbg.declare(metadata ptr %pieces.dbg.spill, metadata !2374, metadata !DIExpression()), !dbg !2448
  store ptr @alloc_041983ee8170efdaaf95ba67fd072d26, ptr %_6, align 8, !dbg !2452
  %9 = getelementptr inbounds i8, ptr %_6, i64 8, !dbg !2452
  store i64 1, ptr %9, align 8, !dbg !2452
  %10 = load ptr, ptr @0, align 8, !dbg !2452, !align !2453, !noundef !44
  %11 = load i64, ptr getelementptr inbounds (i8, ptr @0, i64 8), align 8, !dbg !2452
  %12 = getelementptr inbounds i8, ptr %_6, i64 32, !dbg !2452
  store ptr %10, ptr %12, align 8, !dbg !2452
  %13 = getelementptr inbounds i8, ptr %12, i64 8, !dbg !2452
  store i64 %11, ptr %13, align 8, !dbg !2452
  %14 = getelementptr inbounds i8, ptr %_6, i64 16, !dbg !2452
  store ptr @alloc_513570631223a12912d85da2bec3b15a, ptr %14, align 8, !dbg !2452
  %15 = getelementptr inbounds i8, ptr %14, i64 8, !dbg !2452
  store i64 0, ptr %15, align 8, !dbg !2452
; call core::panicking::panic_fmt
  call void @_ZN4core9panicking9panic_fmt17ha6d62ade15192290E(ptr align 8 %_6, ptr align 8 @alloc_33f991fa5bbac1da9d8a778b0f014caf) #21, !dbg !2454
  unreachable, !dbg !2454
}

; core::intrinsics::is_val_statically_known
; Function Attrs: nounwind uwtable
define zeroext i1 @_ZN4core10intrinsics23is_val_statically_known17hf26e314c41c3566aE(i1 zeroext %_arg) unnamed_addr #3 !dbg !2455 {
start:
  %_arg.dbg.spill = alloca i8, align 1
  %0 = zext i1 %_arg to i8
  store i8 %0, ptr %_arg.dbg.spill, align 1
  call void @llvm.dbg.declare(metadata ptr %_arg.dbg.spill, metadata !2459, metadata !DIExpression()), !dbg !2462
  ret i1 false, !dbg !2463
}

; core::intrinsics::unlikely
; Function Attrs: nounwind uwtable
define internal zeroext i1 @_ZN4core10intrinsics8unlikely17h10e44f0107316760E(i1 zeroext %b) unnamed_addr #3 !dbg !2464 {
start:
  %b.dbg.spill = alloca i8, align 1
  %0 = zext i1 %b to i8
  store i8 %0, ptr %b.dbg.spill, align 1
  call void @llvm.dbg.declare(metadata ptr %b.dbg.spill, metadata !2466, metadata !DIExpression()), !dbg !2467
  ret i1 %b, !dbg !2468
}

; core::cmp::impls::<impl core::cmp::Ord for usize>::cmp
; Function Attrs: inlinehint uwtable
define internal i8 @"_ZN4core3cmp5impls50_$LT$impl$u20$core..cmp..Ord$u20$for$u20$usize$GT$3cmp17h6b5908875595800aE"(ptr align 8 %self, ptr align 8 %other) unnamed_addr #0 !dbg !2469 {
start:
  %other.dbg.spill = alloca ptr, align 8
  %self.dbg.spill = alloca ptr, align 8
  %_0 = alloca i8, align 1
  store ptr %self, ptr %self.dbg.spill, align 8
  call void @llvm.dbg.declare(metadata ptr %self.dbg.spill, metadata !2477, metadata !DIExpression()), !dbg !2479
  store ptr %other, ptr %other.dbg.spill, align 8
  call void @llvm.dbg.declare(metadata ptr %other.dbg.spill, metadata !2478, metadata !DIExpression()), !dbg !2480
  %_4 = load i64, ptr %self, align 8, !dbg !2481, !noundef !44
  %_5 = load i64, ptr %other, align 8, !dbg !2482, !noundef !44
  %_3 = icmp ult i64 %_4, %_5, !dbg !2481
  br i1 %_3, label %bb1, label %bb2, !dbg !2481

bb2:                                              ; preds = %start
  %_6 = icmp eq i64 %_4, %_5, !dbg !2483
  br i1 %_6, label %bb3, label %bb4, !dbg !2483

bb1:                                              ; preds = %start
  store i8 -1, ptr %_0, align 1, !dbg !2484
  br label %bb6, !dbg !2485

bb4:                                              ; preds = %bb2
  store i8 1, ptr %_0, align 1, !dbg !2486
  br label %bb5, !dbg !2487

bb3:                                              ; preds = %bb2
  store i8 0, ptr %_0, align 1, !dbg !2488
  br label %bb5, !dbg !2487

bb5:                                              ; preds = %bb3, %bb4
  br label %bb6, !dbg !2485

bb6:                                              ; preds = %bb1, %bb5
  %0 = load i8, ptr %_0, align 1, !dbg !2489, !range !2490, !noundef !44
  ret i8 %0, !dbg !2489
}

; core::cmp::max_by
; Function Attrs: inlinehint uwtable
define i64 @_ZN4core3cmp6max_by17h04692aab6f7b12b5E(i64 %0, i64 %1) unnamed_addr #0 personality ptr @rust_eh_personality !dbg !2491 {
start:
  %2 = alloca { ptr, i32, [1 x i32] }, align 8
  %compare.dbg.spill = alloca {}, align 1
  %_9 = alloca i8, align 1
  %_5 = alloca { ptr, ptr }, align 8
  %_4 = alloca i8, align 1
  %_0 = alloca i64, align 8
  %v2 = alloca i64, align 8
  %v1 = alloca i64, align 8
  store i64 %0, ptr %v1, align 8
  store i64 %1, ptr %v2, align 8
  call void @llvm.dbg.declare(metadata ptr %v1, metadata !2496, metadata !DIExpression()), !dbg !2501
  call void @llvm.dbg.declare(metadata ptr %v2, metadata !2497, metadata !DIExpression()), !dbg !2502
  call void @llvm.dbg.declare(metadata ptr %compare.dbg.spill, metadata !2498, metadata !DIExpression()), !dbg !2503
  store i8 1, ptr %_9, align 1, !dbg !2504
  store ptr %v1, ptr %_5, align 8, !dbg !2504
  %3 = getelementptr inbounds i8, ptr %_5, i64 8, !dbg !2504
  store ptr %v2, ptr %3, align 8, !dbg !2504
  %4 = load ptr, ptr %_5, align 8, !dbg !2504, !nonnull !44, !align !2453, !noundef !44
  %5 = getelementptr inbounds i8, ptr %_5, i64 8, !dbg !2504
  %6 = load ptr, ptr %5, align 8, !dbg !2504, !nonnull !44, !align !2453, !noundef !44
; invoke core::ops::function::FnOnce::call_once
  %7 = invoke i8 @_ZN4core3ops8function6FnOnce9call_once17h1503dc0f59cc8d20E(ptr align 8 %4, ptr align 8 %6)
          to label %bb1 unwind label %cleanup, !dbg !2504, !range !2490

bb6:                                              ; preds = %cleanup
  br label %bb10, !dbg !2505

cleanup:                                          ; preds = %start
  %8 = landingpad { ptr, i32 }
          cleanup
  %9 = extractvalue { ptr, i32 } %8, 0
  %10 = extractvalue { ptr, i32 } %8, 1
  store ptr %9, ptr %2, align 8
  %11 = getelementptr inbounds i8, ptr %2, i64 8
  store i32 %10, ptr %11, align 8
  br label %bb6

bb1:                                              ; preds = %start
  store i8 %7, ptr %_4, align 1, !dbg !2504
  %_8 = load i8, ptr %_4, align 1, !dbg !2504, !range !2490, !noundef !44
  switch i8 %_8, label %bb2 [
    i8 -1, label %bb4
    i8 0, label %bb4
    i8 1, label %bb3
  ], !dbg !2506

bb2:                                              ; preds = %bb1
  unreachable, !dbg !2504

bb4:                                              ; preds = %bb1, %bb1
  %12 = load i64, ptr %v2, align 8, !dbg !2507, !noundef !44
  store i64 %12, ptr %_0, align 8, !dbg !2507
  %13 = load i8, ptr %_9, align 1, !dbg !2505, !range !746, !noundef !44
  %14 = trunc i8 %13 to i1, !dbg !2505
  br i1 %14, label %bb8, label %bb5, !dbg !2505

bb3:                                              ; preds = %bb1
  store i8 0, ptr %_9, align 1, !dbg !2508
  %15 = load i64, ptr %v1, align 8, !dbg !2508, !noundef !44
  store i64 %15, ptr %_0, align 8, !dbg !2508
  br label %bb5, !dbg !2505

bb5:                                              ; preds = %bb3, %bb8, %bb4
  %16 = load i64, ptr %_0, align 8, !dbg !2509, !noundef !44
  ret i64 %16, !dbg !2509

bb8:                                              ; preds = %bb4
  br label %bb5, !dbg !2505

bb10:                                             ; preds = %bb6
  %17 = load i8, ptr %_9, align 1, !dbg !2505, !range !746, !noundef !44
  %18 = trunc i8 %17 to i1, !dbg !2505
  br i1 %18, label %bb9, label %bb7, !dbg !2505

bb7:                                              ; preds = %bb9, %bb10
  %19 = load ptr, ptr %2, align 8, !dbg !2510, !noundef !44
  %20 = getelementptr inbounds i8, ptr %2, i64 8, !dbg !2510
  %21 = load i32, ptr %20, align 8, !dbg !2510, !noundef !44
  %22 = insertvalue { ptr, i32 } poison, ptr %19, 0, !dbg !2510
  %23 = insertvalue { ptr, i32 } %22, i32 %21, 1, !dbg !2510
  resume { ptr, i32 } %23, !dbg !2510

bb9:                                              ; preds = %bb10
  br label %bb7, !dbg !2505
}

; core::fmt::Write::write_fmt
; Function Attrs: uwtable
define zeroext i1 @_ZN4core3fmt5Write9write_fmt17h65714d4a97c7ecf8E(ptr align 8 %self, ptr align 8 %args) unnamed_addr #1 !dbg !2511 {
start:
  %self.dbg.spill = alloca ptr, align 8
  store ptr %self, ptr %self.dbg.spill, align 8
  call void @llvm.dbg.declare(metadata ptr %self.dbg.spill, metadata !2517, metadata !DIExpression()), !dbg !2521
  call void @llvm.dbg.declare(metadata ptr %args, metadata !2518, metadata !DIExpression()), !dbg !2522
; call <&mut W as core::fmt::Write::write_fmt::SpecWriteFmt>::spec_write_fmt
  %_0 = call zeroext i1 @"_ZN75_$LT$$RF$mut$u20$W$u20$as$u20$core..fmt..Write..write_fmt..SpecWriteFmt$GT$14spec_write_fmt17hfc2965497edae931E"(ptr align 8 %self, ptr align 8 %args), !dbg !2523
  ret i1 %_0, !dbg !2524
}

; core::fmt::Arguments::as_const_str
; Function Attrs: inlinehint uwtable
define internal { ptr, i64 } @_ZN4core3fmt9Arguments12as_const_str17hf5949ad69b28a7adE(ptr align 8 %self) unnamed_addr #0 !dbg !2525 {
start:
  %0 = alloca i8, align 1
  %self.dbg.spill2 = alloca ptr, align 8
  %s.dbg.spill = alloca ptr, align 8
  %self.dbg.spill = alloca ptr, align 8
  %_4 = alloca i8, align 1
  %s = alloca %"core::option::Option<&str>", align 8
  %_0 = alloca %"core::option::Option<&str>", align 8
  store ptr %self, ptr %self.dbg.spill, align 8
  call void @llvm.dbg.declare(metadata ptr %self.dbg.spill, metadata !2542, metadata !DIExpression()), !dbg !2545
  call void @llvm.dbg.declare(metadata ptr %self.dbg.spill, metadata !2546, metadata !DIExpression()), !dbg !2554
  call void @llvm.dbg.declare(metadata ptr %s, metadata !2543, metadata !DIExpression()), !dbg !2556
  %_6.0 = load ptr, ptr %self, align 8, !dbg !2557, !nonnull !44, !align !2453, !noundef !44
  %1 = getelementptr inbounds i8, ptr %self, i64 8, !dbg !2557
  %_6.1 = load i64, ptr %1, align 8, !dbg !2557, !noundef !44
  %2 = getelementptr inbounds i8, ptr %self, i64 16, !dbg !2558
  %_7.0 = load ptr, ptr %2, align 8, !dbg !2558, !nonnull !44, !align !2453, !noundef !44
  %3 = getelementptr inbounds i8, ptr %2, i64 8, !dbg !2558
  %_7.1 = load i64, ptr %3, align 8, !dbg !2558, !noundef !44
  %4 = icmp eq i64 %_6.1, 0, !dbg !2559
  br i1 %4, label %bb7, label %bb8, !dbg !2559

bb7:                                              ; preds = %start
  %5 = icmp eq i64 %_7.1, 0, !dbg !2560
  br i1 %5, label %bb10, label %bb6, !dbg !2560

bb8:                                              ; preds = %start
  %6 = icmp eq i64 %_6.1, 1, !dbg !2561
  br i1 %6, label %bb9, label %bb6, !dbg !2561

bb10:                                             ; preds = %bb7
  store ptr @alloc_513570631223a12912d85da2bec3b15a, ptr %s, align 8, !dbg !2562
  %7 = getelementptr inbounds i8, ptr %s, i64 8, !dbg !2562
  store i64 0, ptr %7, align 8, !dbg !2562
  br label %bb5, !dbg !2563

bb6:                                              ; preds = %bb9, %bb8, %bb7
  %8 = load ptr, ptr @0, align 8, !dbg !2564, !align !2565, !noundef !44
  %9 = load i64, ptr getelementptr inbounds (i8, ptr @0, i64 8), align 8, !dbg !2564
  store ptr %8, ptr %s, align 8, !dbg !2564
  %10 = getelementptr inbounds i8, ptr %s, i64 8, !dbg !2564
  store i64 %9, ptr %10, align 8, !dbg !2564
  br label %bb5, !dbg !2564

bb5:                                              ; preds = %bb6, %bb11, %bb10
  store ptr %s, ptr %self.dbg.spill2, align 8, !dbg !2566
  call void @llvm.dbg.declare(metadata ptr %self.dbg.spill2, metadata !2567, metadata !DIExpression()), !dbg !2575
  %11 = load ptr, ptr %s, align 8, !dbg !2577, !noundef !44
  %12 = ptrtoint ptr %11 to i64, !dbg !2577
  %13 = icmp eq i64 %12, 0, !dbg !2577
  %_14 = select i1 %13, i64 0, i64 1, !dbg !2577
  %14 = icmp eq i64 %_14, 1, !dbg !2578
  br i1 %14, label %bb14, label %bb13, !dbg !2578

bb9:                                              ; preds = %bb8
  %15 = icmp eq i64 %_7.1, 0, !dbg !2579
  br i1 %15, label %bb11, label %bb6, !dbg !2579

bb11:                                             ; preds = %bb9
  %s1 = getelementptr inbounds [0 x { ptr, i64 }], ptr %_6.0, i64 0, i64 0, !dbg !2580
  store ptr %s1, ptr %s.dbg.spill, align 8, !dbg !2580
  call void @llvm.dbg.declare(metadata ptr %s.dbg.spill, metadata !2551, metadata !DIExpression()), !dbg !2581
  %16 = getelementptr inbounds [0 x { ptr, i64 }], ptr %_6.0, i64 0, i64 0, !dbg !2582
  %_13.0 = load ptr, ptr %16, align 8, !dbg !2582, !nonnull !44, !align !2565, !noundef !44
  %17 = getelementptr inbounds i8, ptr %16, i64 8, !dbg !2582
  %_13.1 = load i64, ptr %17, align 8, !dbg !2582, !noundef !44
  store ptr %_13.0, ptr %s, align 8, !dbg !2583
  %18 = getelementptr inbounds i8, ptr %s, i64 8, !dbg !2583
  store i64 %_13.1, ptr %18, align 8, !dbg !2583
  br label %bb5, !dbg !2584

bb14:                                             ; preds = %bb5
  store i8 1, ptr %_4, align 1, !dbg !2578
  br label %bb12, !dbg !2578

bb13:                                             ; preds = %bb5
  store i8 0, ptr %_4, align 1, !dbg !2578
  br label %bb12, !dbg !2578

bb12:                                             ; preds = %bb13, %bb14
  %19 = load i8, ptr %_4, align 1, !dbg !2585, !range !746, !noundef !44
  %20 = trunc i8 %19 to i1, !dbg !2585
  %21 = call i1 @llvm.is.constant.i1(i1 %20), !dbg !2585
  %22 = zext i1 %21 to i8, !dbg !2585
  store i8 %22, ptr %0, align 1, !dbg !2585
  %23 = load i8, ptr %0, align 1, !dbg !2585, !range !746, !noundef !44
  %_3 = trunc i8 %23 to i1, !dbg !2585
  br i1 %_3, label %bb2, label %bb3, !dbg !2585

bb3:                                              ; preds = %bb12
  %24 = load ptr, ptr @0, align 8, !dbg !2586, !align !2565, !noundef !44
  %25 = load i64, ptr getelementptr inbounds (i8, ptr @0, i64 8), align 8, !dbg !2586
  store ptr %24, ptr %_0, align 8, !dbg !2586
  %26 = getelementptr inbounds i8, ptr %_0, i64 8, !dbg !2586
  store i64 %25, ptr %26, align 8, !dbg !2586
  br label %bb4, !dbg !2587

bb2:                                              ; preds = %bb12
  %27 = load ptr, ptr %s, align 8, !dbg !2588, !align !2565, !noundef !44
  %28 = getelementptr inbounds i8, ptr %s, i64 8, !dbg !2588
  %29 = load i64, ptr %28, align 8, !dbg !2588
  store ptr %27, ptr %_0, align 8, !dbg !2588
  %30 = getelementptr inbounds i8, ptr %_0, i64 8, !dbg !2588
  store i64 %29, ptr %30, align 8, !dbg !2588
  br label %bb4, !dbg !2587

bb4:                                              ; preds = %bb2, %bb3
  %31 = load ptr, ptr %_0, align 8, !dbg !2589, !align !2565, !noundef !44
  %32 = getelementptr inbounds i8, ptr %_0, i64 8, !dbg !2589
  %33 = load i64, ptr %32, align 8, !dbg !2589
  %34 = insertvalue { ptr, i64 } poison, ptr %31, 0, !dbg !2589
  %35 = insertvalue { ptr, i64 } %34, i64 %33, 1, !dbg !2589
  ret { ptr, i64 } %35, !dbg !2589

bb15:                                             ; No predecessors!
  unreachable, !dbg !2590
}

; core::fmt::Arguments::new_v1
; Function Attrs: inlinehint uwtable
define internal void @_ZN4core3fmt9Arguments6new_v117h666d9bc0e58ededcE(ptr sret(%"core::fmt::Arguments<'_>") align 8 %_0, ptr align 8 %pieces.0, i64 %pieces.1, ptr align 8 %args.0, i64 %args.1) unnamed_addr #0 !dbg !2591 {
start:
  %pieces.dbg.spill1 = alloca { ptr, i64 }, align 8
  %args.dbg.spill = alloca { ptr, i64 }, align 8
  %pieces.dbg.spill = alloca { ptr, i64 }, align 8
  %_9 = alloca %"core::fmt::Arguments<'_>", align 8
  store ptr %pieces.0, ptr %pieces.dbg.spill, align 8
  %0 = getelementptr inbounds i8, ptr %pieces.dbg.spill, i64 8
  store i64 %pieces.1, ptr %0, align 8
  call void @llvm.dbg.declare(metadata ptr %pieces.dbg.spill, metadata !2596, metadata !DIExpression()), !dbg !2598
  store ptr %args.0, ptr %args.dbg.spill, align 8
  %1 = getelementptr inbounds i8, ptr %args.dbg.spill, i64 8
  store i64 %args.1, ptr %1, align 8
  call void @llvm.dbg.declare(metadata ptr %args.dbg.spill, metadata !2597, metadata !DIExpression()), !dbg !2599
  %_3 = icmp ult i64 %pieces.1, %args.1, !dbg !2600
  br i1 %_3, label %bb3, label %bb1, !dbg !2600

bb1:                                              ; preds = %start
  %_7 = add i64 %args.1, 1, !dbg !2601
  %_6 = icmp ugt i64 %pieces.1, %_7, !dbg !2602
  br i1 %_6, label %bb2, label %bb4, !dbg !2602

bb3:                                              ; preds = %bb2, %start
  store ptr @alloc_af99043bc04c419363a7f04d23183506, ptr %pieces.dbg.spill1, align 8, !dbg !2603
  %2 = getelementptr inbounds i8, ptr %pieces.dbg.spill1, i64 8, !dbg !2603
  store i64 1, ptr %2, align 8, !dbg !2603
  call void @llvm.dbg.declare(metadata ptr %pieces.dbg.spill1, metadata !2604, metadata !DIExpression()), !dbg !2608
  store ptr @alloc_af99043bc04c419363a7f04d23183506, ptr %_9, align 8, !dbg !2611
  %3 = getelementptr inbounds i8, ptr %_9, i64 8, !dbg !2611
  store i64 1, ptr %3, align 8, !dbg !2611
  %4 = load ptr, ptr @0, align 8, !dbg !2611, !align !2453, !noundef !44
  %5 = load i64, ptr getelementptr inbounds (i8, ptr @0, i64 8), align 8, !dbg !2611
  %6 = getelementptr inbounds i8, ptr %_9, i64 32, !dbg !2611
  store ptr %4, ptr %6, align 8, !dbg !2611
  %7 = getelementptr inbounds i8, ptr %6, i64 8, !dbg !2611
  store i64 %5, ptr %7, align 8, !dbg !2611
  %8 = getelementptr inbounds i8, ptr %_9, i64 16, !dbg !2611
  store ptr @alloc_513570631223a12912d85da2bec3b15a, ptr %8, align 8, !dbg !2611
  %9 = getelementptr inbounds i8, ptr %8, i64 8, !dbg !2611
  store i64 0, ptr %9, align 8, !dbg !2611
; call core::panicking::panic_fmt
  call void @_ZN4core9panicking9panic_fmt17ha6d62ade15192290E(ptr align 8 %_9, ptr align 8 @alloc_4ba2c5ddff77a51f3765b0dd5f2851cc) #21, !dbg !2612
  unreachable, !dbg !2612

bb4:                                              ; preds = %bb1
  store ptr %pieces.0, ptr %_0, align 8, !dbg !2613
  %10 = getelementptr inbounds i8, ptr %_0, i64 8, !dbg !2613
  store i64 %pieces.1, ptr %10, align 8, !dbg !2613
  %11 = load ptr, ptr @0, align 8, !dbg !2613, !align !2453, !noundef !44
  %12 = load i64, ptr getelementptr inbounds (i8, ptr @0, i64 8), align 8, !dbg !2613
  %13 = getelementptr inbounds i8, ptr %_0, i64 32, !dbg !2613
  store ptr %11, ptr %13, align 8, !dbg !2613
  %14 = getelementptr inbounds i8, ptr %13, i64 8, !dbg !2613
  store i64 %12, ptr %14, align 8, !dbg !2613
  %15 = getelementptr inbounds i8, ptr %_0, i64 16, !dbg !2613
  store ptr %args.0, ptr %15, align 8, !dbg !2613
  %16 = getelementptr inbounds i8, ptr %15, i64 8, !dbg !2613
  store i64 %args.1, ptr %16, align 8, !dbg !2613
  ret void, !dbg !2614

bb2:                                              ; preds = %bb1
  br label %bb3, !dbg !2615
}

; core::fmt::Arguments::new_const
; Function Attrs: inlinehint uwtable
define internal void @_ZN4core3fmt9Arguments9new_const17he18a8a2dcfb8f0beE(ptr sret(%"core::fmt::Arguments<'_>") align 8 %_0, ptr align 8 %pieces.0, i64 %pieces.1) unnamed_addr #0 !dbg !2616 {
start:
  %pieces.dbg.spill = alloca { ptr, i64 }, align 8
  %_5 = alloca %"core::fmt::Arguments<'_>", align 8
  store ptr %pieces.0, ptr %pieces.dbg.spill, align 8
  %0 = getelementptr inbounds i8, ptr %pieces.dbg.spill, i64 8
  store i64 %pieces.1, ptr %0, align 8
  call void @llvm.dbg.declare(metadata ptr %pieces.dbg.spill, metadata !2618, metadata !DIExpression()), !dbg !2619
  %_2 = icmp ugt i64 %pieces.1, 1, !dbg !2620
  br i1 %_2, label %bb1, label %bb3, !dbg !2620

bb3:                                              ; preds = %start
  store ptr %pieces.0, ptr %_0, align 8, !dbg !2621
  %1 = getelementptr inbounds i8, ptr %_0, i64 8, !dbg !2621
  store i64 %pieces.1, ptr %1, align 8, !dbg !2621
  %2 = load ptr, ptr @0, align 8, !dbg !2621, !align !2453, !noundef !44
  %3 = load i64, ptr getelementptr inbounds (i8, ptr @0, i64 8), align 8, !dbg !2621
  %4 = getelementptr inbounds i8, ptr %_0, i64 32, !dbg !2621
  store ptr %2, ptr %4, align 8, !dbg !2621
  %5 = getelementptr inbounds i8, ptr %4, i64 8, !dbg !2621
  store i64 %3, ptr %5, align 8, !dbg !2621
  %6 = getelementptr inbounds i8, ptr %_0, i64 16, !dbg !2621
  store ptr @alloc_513570631223a12912d85da2bec3b15a, ptr %6, align 8, !dbg !2621
  %7 = getelementptr inbounds i8, ptr %6, i64 8, !dbg !2621
  store i64 0, ptr %7, align 8, !dbg !2621
  ret void, !dbg !2622

bb1:                                              ; preds = %start
; call core::fmt::Arguments::new_const
  call void @_ZN4core3fmt9Arguments9new_const17he18a8a2dcfb8f0beE(ptr sret(%"core::fmt::Arguments<'_>") align 8 %_5, ptr align 8 @alloc_af99043bc04c419363a7f04d23183506, i64 1), !dbg !2623
; call core::panicking::panic_fmt
  call void @_ZN4core9panicking9panic_fmt17ha6d62ade15192290E(ptr align 8 %_5, ptr align 8 @alloc_3d28b95801fd55932918b2920be93f48) #21, !dbg !2623
  unreachable, !dbg !2623
}

; core::fmt::Formatter::write_fmt
; Function Attrs: inlinehint uwtable
define internal zeroext i1 @_ZN4core3fmt9Formatter9write_fmt17h5e6e3d1b46286debE(ptr align 8 %self, ptr align 8 %fmt) unnamed_addr #0 !dbg !2624 {
start:
  %s.dbg.spill = alloca { ptr, i64 }, align 8
  %self.dbg.spill = alloca ptr, align 8
  %_7 = alloca %"core::fmt::Arguments<'_>", align 8
  %_3 = alloca %"core::option::Option<&str>", align 8
  %_0 = alloca i8, align 1
  store ptr %self, ptr %self.dbg.spill, align 8
  call void @llvm.dbg.declare(metadata ptr %self.dbg.spill, metadata !2629, metadata !DIExpression()), !dbg !2633
  call void @llvm.dbg.declare(metadata ptr %fmt, metadata !2630, metadata !DIExpression()), !dbg !2634
; call core::fmt::Arguments::as_const_str
  %0 = call { ptr, i64 } @_ZN4core3fmt9Arguments12as_const_str17hf5949ad69b28a7adE(ptr align 8 %fmt), !dbg !2635
  %1 = extractvalue { ptr, i64 } %0, 0, !dbg !2635
  %2 = extractvalue { ptr, i64 } %0, 1, !dbg !2635
  store ptr %1, ptr %_3, align 8, !dbg !2635
  %3 = getelementptr inbounds i8, ptr %_3, i64 8, !dbg !2635
  store i64 %2, ptr %3, align 8, !dbg !2635
  %4 = load ptr, ptr %_3, align 8, !dbg !2636, !noundef !44
  %5 = ptrtoint ptr %4 to i64, !dbg !2636
  %6 = icmp eq i64 %5, 0, !dbg !2636
  %_5 = select i1 %6, i64 0, i64 1, !dbg !2636
  %7 = icmp eq i64 %_5, 1, !dbg !2636
  br i1 %7, label %bb2, label %bb3, !dbg !2636

bb2:                                              ; preds = %start
  %s.0 = load ptr, ptr %_3, align 8, !dbg !2637, !nonnull !44, !align !2565, !noundef !44
  %8 = getelementptr inbounds i8, ptr %_3, i64 8, !dbg !2637
  %s.1 = load i64, ptr %8, align 8, !dbg !2637, !noundef !44
  store ptr %s.0, ptr %s.dbg.spill, align 8, !dbg !2637
  %9 = getelementptr inbounds i8, ptr %s.dbg.spill, i64 8, !dbg !2637
  store i64 %s.1, ptr %9, align 8, !dbg !2637
  call void @llvm.dbg.declare(metadata ptr %s.dbg.spill, metadata !2631, metadata !DIExpression()), !dbg !2637
  %10 = getelementptr inbounds i8, ptr %self, i64 32, !dbg !2638
  %_8.0 = load ptr, ptr %10, align 8, !dbg !2638, !nonnull !44, !align !2565, !noundef !44
  %11 = getelementptr inbounds i8, ptr %10, i64 8, !dbg !2638
  %_8.1 = load ptr, ptr %11, align 8, !dbg !2638, !nonnull !44, !align !2453, !noundef !44
  %12 = getelementptr inbounds ptr, ptr %_8.1, i64 3, !dbg !2638
  %13 = load ptr, ptr %12, align 8, !dbg !2638, !invariant.load !44, !nonnull !44
  %14 = call zeroext i1 %13(ptr align 1 %_8.0, ptr align 1 %s.0, i64 %s.1), !dbg !2638
  %15 = zext i1 %14 to i8, !dbg !2638
  store i8 %15, ptr %_0, align 1, !dbg !2638
  br label %bb5, !dbg !2638

bb3:                                              ; preds = %start
  %16 = getelementptr inbounds i8, ptr %self, i64 32, !dbg !2639
  %_9.0 = load ptr, ptr %16, align 8, !dbg !2639, !nonnull !44, !align !2565, !noundef !44
  %17 = getelementptr inbounds i8, ptr %16, i64 8, !dbg !2639
  %_9.1 = load ptr, ptr %17, align 8, !dbg !2639, !nonnull !44, !align !2453, !noundef !44
  call void @llvm.memcpy.p0.p0.i64(ptr align 8 %_7, ptr align 8 %fmt, i64 48, i1 false), !dbg !2640
; call core::fmt::write
  %18 = call zeroext i1 @_ZN4core3fmt5write17hd3417f5223b3b5daE(ptr align 1 %_9.0, ptr align 8 %_9.1, ptr align 8 %_7), !dbg !2641
  %19 = zext i1 %18 to i8, !dbg !2641
  store i8 %19, ptr %_0, align 1, !dbg !2641
  br label %bb5, !dbg !2642

bb5:                                              ; preds = %bb3, %bb2
  %20 = load i8, ptr %_0, align 1, !dbg !2643, !range !746, !noundef !44
  %21 = trunc i8 %20 to i1, !dbg !2643
  ret i1 %21, !dbg !2643

bb6:                                              ; No predecessors!
  unreachable, !dbg !2644
}

; core::ops::function::FnMut::call_mut
; Function Attrs: inlinehint uwtable
define internal zeroext i1 @_ZN4core3ops8function5FnMut8call_mut17h994cfe7943a13522E(ptr align 1 %_1, ptr align 1 %0, i64 %1, ptr align 8 %2) unnamed_addr #0 !dbg !2645 {
start:
  %_1.dbg.spill = alloca ptr, align 8
  %_2 = alloca { { ptr, i64 }, ptr }, align 8
  store ptr %0, ptr %_2, align 8
  %3 = getelementptr inbounds i8, ptr %_2, i64 8
  store i64 %1, ptr %3, align 8
  %4 = getelementptr inbounds i8, ptr %_2, i64 16
  store ptr %2, ptr %4, align 8
  store ptr %_1, ptr %_1.dbg.spill, align 8
  call void @llvm.dbg.declare(metadata ptr %_1.dbg.spill, metadata !2656, metadata !DIExpression()), !dbg !2665
  call void @llvm.dbg.declare(metadata ptr %_2, metadata !2657, metadata !DIExpression()), !dbg !2665
  %5 = load ptr, ptr %_2, align 8, !dbg !2665, !nonnull !44, !align !2565, !noundef !44
  %6 = getelementptr inbounds i8, ptr %_2, i64 8, !dbg !2665
  %7 = load i64, ptr %6, align 8, !dbg !2665, !noundef !44
  %8 = getelementptr inbounds i8, ptr %_2, i64 16, !dbg !2665
  %9 = load ptr, ptr %8, align 8, !dbg !2665, !nonnull !44, !align !2453, !noundef !44
; call heck::capitalize
  %_0 = call zeroext i1 @_ZN4heck10capitalize17hef2c5ceab55d7ddaE(ptr align 1 %5, i64 %7, ptr align 8 %9), !dbg !2665
  ret i1 %_0, !dbg !2665
}

; core::ops::function::FnMut::call_mut
; Function Attrs: inlinehint uwtable
define internal zeroext i1 @_ZN4core3ops8function5FnMut8call_mut17hacd7de33c4c6b06dE(ptr align 1 %_1, ptr align 1 %0, i64 %1, ptr align 8 %2) unnamed_addr #0 !dbg !2666 {
start:
  %_1.dbg.spill = alloca ptr, align 8
  %_2 = alloca { { ptr, i64 }, ptr }, align 8
  store ptr %0, ptr %_2, align 8
  %3 = getelementptr inbounds i8, ptr %_2, i64 8
  store i64 %1, ptr %3, align 8
  %4 = getelementptr inbounds i8, ptr %_2, i64 16
  store ptr %2, ptr %4, align 8
  store ptr %_1, ptr %_1.dbg.spill, align 8
  call void @llvm.dbg.declare(metadata ptr %_1.dbg.spill, metadata !2668, metadata !DIExpression()), !dbg !2670
  call void @llvm.dbg.declare(metadata ptr %_2, metadata !2669, metadata !DIExpression()), !dbg !2670
  %5 = load ptr, ptr %_2, align 8, !dbg !2670, !nonnull !44, !align !2565, !noundef !44
  %6 = getelementptr inbounds i8, ptr %_2, i64 8, !dbg !2670
  %7 = load i64, ptr %6, align 8, !dbg !2670, !noundef !44
  %8 = getelementptr inbounds i8, ptr %_2, i64 16, !dbg !2670
  %9 = load ptr, ptr %8, align 8, !dbg !2670, !nonnull !44, !align !2453, !noundef !44
; call heck::uppercase
  %_0 = call zeroext i1 @_ZN4heck9uppercase17h63aa3d09fc0237c8E(ptr align 1 %5, i64 %7, ptr align 8 %9), !dbg !2670
  ret i1 %_0, !dbg !2670
}

; core::ops::function::FnMut::call_mut
; Function Attrs: inlinehint uwtable
define internal zeroext i1 @_ZN4core3ops8function5FnMut8call_mut17hae65f941b3e26999E(ptr align 1 %_1, ptr align 1 %0, i64 %1, ptr align 8 %2) unnamed_addr #0 !dbg !2671 {
start:
  %_1.dbg.spill = alloca ptr, align 8
  %_2 = alloca { { ptr, i64 }, ptr }, align 8
  store ptr %0, ptr %_2, align 8
  %3 = getelementptr inbounds i8, ptr %_2, i64 8
  store i64 %1, ptr %3, align 8
  %4 = getelementptr inbounds i8, ptr %_2, i64 16
  store ptr %2, ptr %4, align 8
  store ptr %_1, ptr %_1.dbg.spill, align 8
  call void @llvm.dbg.declare(metadata ptr %_1.dbg.spill, metadata !2673, metadata !DIExpression()), !dbg !2675
  call void @llvm.dbg.declare(metadata ptr %_2, metadata !2674, metadata !DIExpression()), !dbg !2675
  %5 = load ptr, ptr %_2, align 8, !dbg !2675, !nonnull !44, !align !2565, !noundef !44
  %6 = getelementptr inbounds i8, ptr %_2, i64 8, !dbg !2675
  %7 = load i64, ptr %6, align 8, !dbg !2675, !noundef !44
  %8 = getelementptr inbounds i8, ptr %_2, i64 16, !dbg !2675
  %9 = load ptr, ptr %8, align 8, !dbg !2675, !nonnull !44, !align !2453, !noundef !44
; call heck::lowercase
  %_0 = call zeroext i1 @_ZN4heck9lowercase17h4965e5ed0a278ff8E(ptr align 1 %5, i64 %7, ptr align 8 %9), !dbg !2675
  ret i1 %_0, !dbg !2675
}

; core::ops::function::FnOnce::call_once
; Function Attrs: inlinehint uwtable
define internal i8 @_ZN4core3ops8function6FnOnce9call_once17h1503dc0f59cc8d20E(ptr align 8 %0, ptr align 8 %1) unnamed_addr #0 !dbg !2676 {
start:
  %_1.dbg.spill = alloca {}, align 1
  %_2 = alloca { ptr, ptr }, align 8
  store ptr %0, ptr %_2, align 8
  %2 = getelementptr inbounds i8, ptr %_2, i64 8
  store ptr %1, ptr %2, align 8
  call void @llvm.dbg.declare(metadata ptr %_1.dbg.spill, metadata !2681, metadata !DIExpression()), !dbg !2690
  call void @llvm.dbg.declare(metadata ptr %_2, metadata !2682, metadata !DIExpression()), !dbg !2690
  %3 = load ptr, ptr %_2, align 8, !dbg !2690, !nonnull !44, !align !2453, !noundef !44
  %4 = getelementptr inbounds i8, ptr %_2, i64 8, !dbg !2690
  %5 = load ptr, ptr %4, align 8, !dbg !2690, !nonnull !44, !align !2453, !noundef !44
; call core::cmp::impls::<impl core::cmp::Ord for usize>::cmp
  %_0 = call i8 @"_ZN4core3cmp5impls50_$LT$impl$u20$core..cmp..Ord$u20$for$u20$usize$GT$3cmp17h6b5908875595800aE"(ptr align 8 %3, ptr align 8 %5), !dbg !2690, !range !2490
  ret i8 %_0, !dbg !2690
}

; core::ptr::read_volatile::precondition_check
; Function Attrs: inlinehint nounwind uwtable
define internal void @_ZN4core3ptr13read_volatile18precondition_check17hd0114019be79b1ccE(ptr %addr, i64 %align) unnamed_addr #2 personality ptr @rust_eh_personality !dbg !2691 {
start:
  %align.dbg.spill = alloca i64, align 8
  %addr.dbg.spill = alloca ptr, align 8
  store ptr %addr, ptr %addr.dbg.spill, align 8
  call void @llvm.dbg.declare(metadata ptr %addr.dbg.spill, metadata !2694, metadata !DIExpression()), !dbg !2696
  store i64 %align, ptr %align.dbg.spill, align 8
  call void @llvm.dbg.declare(metadata ptr %align.dbg.spill, metadata !2695, metadata !DIExpression()), !dbg !2696
; invoke core::intrinsics::is_aligned_and_not_null
  %_3 = invoke zeroext i1 @_ZN4core10intrinsics23is_aligned_and_not_null17hc7e1d61841a23e55E(ptr %addr, i64 %align)
          to label %bb1 unwind label %terminate, !dbg !2697

terminate:                                        ; preds = %start
  %0 = landingpad { ptr, i32 }
          filter [0 x ptr] zeroinitializer
  %1 = extractvalue { ptr, i32 } %0, 0
  %2 = extractvalue { ptr, i32 } %0, 1
; call core::panicking::panic_cannot_unwind
  call void @_ZN4core9panicking19panic_cannot_unwind17h3626040c0976c0c3E() #24, !dbg !2699
  unreachable, !dbg !2699

bb1:                                              ; preds = %start
  br i1 %_3, label %bb2, label %bb3, !dbg !2697

bb3:                                              ; preds = %bb1
; call core::panicking::panic_nounwind
  call void @_ZN4core9panicking14panic_nounwind17h50c31e15afde233eE(ptr align 1 @alloc_d4d2a2a8539eafc62756407d946babb3, i64 110) #20, !dbg !2700
  unreachable, !dbg !2700

bb2:                                              ; preds = %bb1
  ret void, !dbg !2701
}

; core::ptr::drop_in_place<core::fmt::Error>
; Function Attrs: inlinehint uwtable
define internal void @"_ZN4core3ptr37drop_in_place$LT$core..fmt..Error$GT$17hdbc80c52b01e660dE"(ptr align 1 %_1) unnamed_addr #0 !dbg !2702 {
start:
  %_1.dbg.spill = alloca ptr, align 8
  store ptr %_1, ptr %_1.dbg.spill, align 8
  call void @llvm.dbg.declare(metadata ptr %_1.dbg.spill, metadata !2707, metadata !DIExpression()), !dbg !2708
  ret void, !dbg !2708
}

; core::ptr::drop_in_place<alloc::string::String>
; Function Attrs: uwtable
define void @"_ZN4core3ptr42drop_in_place$LT$alloc..string..String$GT$17he7facc0b24a9008bE"(ptr align 8 %_1) unnamed_addr #1 !dbg !2709 {
start:
  %_1.dbg.spill = alloca ptr, align 8
  store ptr %_1, ptr %_1.dbg.spill, align 8
  call void @llvm.dbg.declare(metadata ptr %_1.dbg.spill, metadata !2714, metadata !DIExpression()), !dbg !2717
; call core::ptr::drop_in_place<alloc::vec::Vec<u8>>
  call void @"_ZN4core3ptr46drop_in_place$LT$alloc..vec..Vec$LT$u8$GT$$GT$17h294178318e7cccc8E"(ptr align 8 %_1), !dbg !2717
  ret void, !dbg !2717
}

; core::ptr::drop_in_place<alloc::vec::Vec<u8>>
; Function Attrs: uwtable
define void @"_ZN4core3ptr46drop_in_place$LT$alloc..vec..Vec$LT$u8$GT$$GT$17h294178318e7cccc8E"(ptr align 8 %_1) unnamed_addr #1 personality ptr @rust_eh_personality !dbg !2718 {
start:
  %0 = alloca { ptr, i32, [1 x i32] }, align 8
  %_1.dbg.spill = alloca ptr, align 8
  store ptr %_1, ptr %_1.dbg.spill, align 8
  call void @llvm.dbg.declare(metadata ptr %_1.dbg.spill, metadata !2723, metadata !DIExpression()), !dbg !2726
; invoke <alloc::vec::Vec<T,A> as core::ops::drop::Drop>::drop
  invoke void @"_ZN70_$LT$alloc..vec..Vec$LT$T$C$A$GT$$u20$as$u20$core..ops..drop..Drop$GT$4drop17hb67fb5c9273ce5d5E"(ptr align 8 %_1)
          to label %bb4 unwind label %cleanup, !dbg !2726

bb3:                                              ; preds = %cleanup
; invoke core::ptr::drop_in_place<alloc::raw_vec::RawVec<u8>>
  invoke void @"_ZN4core3ptr53drop_in_place$LT$alloc..raw_vec..RawVec$LT$u8$GT$$GT$17h54bfafbb9afebf60E"(ptr align 8 %_1) #23
          to label %bb1 unwind label %terminate, !dbg !2726

cleanup:                                          ; preds = %start
  %1 = landingpad { ptr, i32 }
          cleanup
  %2 = extractvalue { ptr, i32 } %1, 0
  %3 = extractvalue { ptr, i32 } %1, 1
  store ptr %2, ptr %0, align 8
  %4 = getelementptr inbounds i8, ptr %0, i64 8
  store i32 %3, ptr %4, align 8
  br label %bb3

bb4:                                              ; preds = %start
; call core::ptr::drop_in_place<alloc::raw_vec::RawVec<u8>>
  call void @"_ZN4core3ptr53drop_in_place$LT$alloc..raw_vec..RawVec$LT$u8$GT$$GT$17h54bfafbb9afebf60E"(ptr align 8 %_1), !dbg !2726
  ret void, !dbg !2726

terminate:                                        ; preds = %bb3
  %5 = landingpad { ptr, i32 }
          filter [0 x ptr] zeroinitializer
  %6 = extractvalue { ptr, i32 } %5, 0
  %7 = extractvalue { ptr, i32 } %5, 1
; call core::panicking::panic_in_cleanup
  call void @_ZN4core9panicking16panic_in_cleanup17hb45215b029b98411E() #24, !dbg !2726
  unreachable, !dbg !2726

bb1:                                              ; preds = %bb3
  %8 = load ptr, ptr %0, align 8, !dbg !2726, !noundef !44
  %9 = getelementptr inbounds i8, ptr %0, i64 8, !dbg !2726
  %10 = load i32, ptr %9, align 8, !dbg !2726, !noundef !44
  %11 = insertvalue { ptr, i32 } poison, ptr %8, 0, !dbg !2726
  %12 = insertvalue { ptr, i32 } %11, i32 %10, 1, !dbg !2726
  resume { ptr, i32 } %12, !dbg !2726
}

; core::ptr::drop_in_place<alloc::raw_vec::RawVec<u8>>
; Function Attrs: uwtable
define void @"_ZN4core3ptr53drop_in_place$LT$alloc..raw_vec..RawVec$LT$u8$GT$$GT$17h54bfafbb9afebf60E"(ptr align 8 %_1) unnamed_addr #1 !dbg !2727 {
start:
  %_1.dbg.spill = alloca ptr, align 8
  store ptr %_1, ptr %_1.dbg.spill, align 8
  call void @llvm.dbg.declare(metadata ptr %_1.dbg.spill, metadata !2732, metadata !DIExpression()), !dbg !2735
; call <alloc::raw_vec::RawVec<T,A> as core::ops::drop::Drop>::drop
  call void @"_ZN77_$LT$alloc..raw_vec..RawVec$LT$T$C$A$GT$$u20$as$u20$core..ops..drop..Drop$GT$4drop17h0a966709ad91785dE"(ptr align 8 %_1), !dbg !2735
  ret void, !dbg !2735
}

; core::ptr::non_null::NonNull<T>::new_unchecked::precondition_check
; Function Attrs: inlinehint nounwind uwtable
define internal void @"_ZN4core3ptr8non_null16NonNull$LT$T$GT$13new_unchecked18precondition_check17h282dd1f4b002e6e7E"(ptr %ptr) unnamed_addr #2 !dbg !2736 {
start:
  %ptr.dbg.spill1 = alloca ptr, align 8
  %ptr.dbg.spill = alloca ptr, align 8
  store ptr %ptr, ptr %ptr.dbg.spill, align 8
  call void @llvm.dbg.declare(metadata ptr %ptr.dbg.spill, metadata !2742, metadata !DIExpression()), !dbg !2743
  call void @llvm.dbg.declare(metadata ptr %ptr.dbg.spill, metadata !2744, metadata !DIExpression()), !dbg !2750
  store ptr %ptr, ptr %ptr.dbg.spill1, align 8, !dbg !2753
  call void @llvm.dbg.declare(metadata ptr %ptr.dbg.spill1, metadata !2754, metadata !DIExpression()), !dbg !2761
  call void @llvm.dbg.declare(metadata ptr %ptr.dbg.spill1, metadata !2763, metadata !DIExpression()), !dbg !2769
  call void @llvm.dbg.declare(metadata ptr %ptr.dbg.spill1, metadata !2771, metadata !DIExpression()), !dbg !2775
  %_4 = ptrtoint ptr %ptr to i64, !dbg !2777
  %0 = icmp eq i64 %_4, 0, !dbg !2778
  br i1 %0, label %bb1, label %bb2, !dbg !2778

bb1:                                              ; preds = %start
; call core::panicking::panic_nounwind
  call void @_ZN4core9panicking14panic_nounwind17h50c31e15afde233eE(ptr align 1 @alloc_20b3d155afd5c58c42e598b7e6d186ef, i64 93) #20, !dbg !2779
  unreachable, !dbg !2779

bb2:                                              ; preds = %start
  ret void, !dbg !2780
}

; core::ptr::const_ptr::<impl *const T>::sub_ptr
; Function Attrs: inlinehint uwtable
define i64 @"_ZN4core3ptr9const_ptr33_$LT$impl$u20$$BP$const$u20$T$GT$7sub_ptr17hd59adeda57a97ffdE"(ptr %self, ptr %origin) unnamed_addr #0 !dbg !2781 {
start:
  %0 = alloca i64, align 8
  %pointee_size.dbg.spill = alloca i64, align 8
  %origin.dbg.spill = alloca ptr, align 8
  %self.dbg.spill = alloca ptr, align 8
  store ptr %self, ptr %self.dbg.spill, align 8
  call void @llvm.dbg.declare(metadata ptr %self.dbg.spill, metadata !2785, metadata !DIExpression()), !dbg !2789
  store ptr %origin, ptr %origin.dbg.spill, align 8
  call void @llvm.dbg.declare(metadata ptr %origin.dbg.spill, metadata !2786, metadata !DIExpression()), !dbg !2790
  br label %bb1, !dbg !2791

bb1:                                              ; preds = %start
; call core::ptr::const_ptr::<impl *const T>::sub_ptr::precondition_check
  call void @"_ZN4core3ptr9const_ptr33_$LT$impl$u20$$BP$const$u20$T$GT$7sub_ptr18precondition_check17hd4737bc75d3879fcE"(ptr %self, ptr %origin) #22, !dbg !2791
  br label %bb2, !dbg !2791

bb2:                                              ; preds = %bb1
  store i64 1, ptr %pointee_size.dbg.spill, align 8, !dbg !2792
  call void @llvm.dbg.declare(metadata ptr %pointee_size.dbg.spill, metadata !2787, metadata !DIExpression()), !dbg !2798
  br label %bb3, !dbg !2799

bb3:                                              ; preds = %bb2
  br label %bb4, !dbg !2800

bb4:                                              ; preds = %bb3
  %1 = ptrtoint ptr %self to i64, !dbg !2801
  %2 = ptrtoint ptr %origin to i64, !dbg !2801
  %3 = sub nuw i64 %1, %2, !dbg !2801
  %4 = udiv exact i64 %3, 1, !dbg !2801
  store i64 %4, ptr %0, align 8, !dbg !2801
  %_0 = load i64, ptr %0, align 8, !dbg !2801, !noundef !44
  ret i64 %_0, !dbg !2802

bb5:                                              ; No predecessors!
; call core::panicking::panic
  call void @_ZN4core9panicking5panic17h5884aad3a9044857E(ptr align 1 @alloc_ec595fc0e82ef92fc59bd74f68296eae, i64 73, ptr align 8 @alloc_4e3a3aaf48410eaea90c90938dabe76a) #21, !dbg !2803
  unreachable, !dbg !2803
}

; core::ptr::const_ptr::<impl *const T>::sub_ptr::precondition_check
; Function Attrs: inlinehint nounwind uwtable
define internal void @"_ZN4core3ptr9const_ptr33_$LT$impl$u20$$BP$const$u20$T$GT$7sub_ptr18precondition_check17hd4737bc75d3879fcE"(ptr %this, ptr %origin) unnamed_addr #2 !dbg !2804 {
start:
  %origin.dbg.spill = alloca ptr, align 8
  %this.dbg.spill = alloca ptr, align 8
  store ptr %this, ptr %this.dbg.spill, align 8
  call void @llvm.dbg.declare(metadata ptr %this.dbg.spill, metadata !2809, metadata !DIExpression()), !dbg !2811
  store ptr %origin, ptr %origin.dbg.spill, align 8
  call void @llvm.dbg.declare(metadata ptr %origin.dbg.spill, metadata !2810, metadata !DIExpression()), !dbg !2811
  %_3 = icmp uge ptr %this, %origin, !dbg !2812
  br i1 %_3, label %bb1, label %bb2, !dbg !2812

bb2:                                              ; preds = %start
; call core::panicking::panic_nounwind
  call void @_ZN4core9panicking14panic_nounwind17h50c31e15afde233eE(ptr align 1 @alloc_7efb3a7632b3620f628ce83a521b4d9b, i64 71) #20, !dbg !2814
  unreachable, !dbg !2814

bb1:                                              ; preds = %start
  ret void, !dbg !2815
}

; core::str::validations::next_code_point
; Function Attrs: inlinehint uwtable
define { i32, i32 } @_ZN4core3str11validations15next_code_point17hb5e167e8ff15094cE(ptr align 8 %bytes) unnamed_addr #0 !dbg !2816 {
start:
  %w.dbg.spill = alloca i8, align 1
  %val.dbg.spill11 = alloca ptr, align 8
  %y_z.dbg.spill = alloca i32, align 4
  %z.dbg.spill = alloca i8, align 1
  %val.dbg.spill9 = alloca ptr, align 8
  %ch.dbg.spill = alloca i32, align 4
  %y.dbg.spill = alloca i8, align 1
  %val.dbg.spill6 = alloca ptr, align 8
  %init.dbg.spill = alloca i32, align 4
  %x.dbg.spill = alloca i8, align 1
  %val.dbg.spill = alloca ptr, align 8
  %v.dbg.spill = alloca ptr, align 8
  %bytes.dbg.spill = alloca ptr, align 8
  %self4 = alloca ptr, align 8
  %self3 = alloca ptr, align 8
  %ch = alloca i32, align 4
  %self2 = alloca ptr, align 8
  %self = alloca ptr, align 8
  %_3 = alloca ptr, align 8
  %_0 = alloca %"core::option::Option<u32>", align 4
  %width.dbg.spill = alloca i32, align 4
  %residual.dbg.spill1 = alloca %"core::option::Option<core::convert::Infallible>::None", align 1
  %residual.dbg.spill = alloca %"core::option::Option<core::convert::Infallible>::None", align 1
  call void @llvm.dbg.declare(metadata ptr %residual.dbg.spill, metadata !2839, metadata !DIExpression()), !dbg !2868
  call void @llvm.dbg.declare(metadata ptr %residual.dbg.spill1, metadata !2869, metadata !DIExpression()), !dbg !2876
  store i32 2, ptr %width.dbg.spill, align 4, !dbg !2878
  call void @llvm.dbg.declare(metadata ptr %width.dbg.spill, metadata !2885, metadata !DIExpression()), !dbg !2878
  store ptr %bytes, ptr %bytes.dbg.spill, align 8, !dbg !2878
  call void @llvm.dbg.declare(metadata ptr %bytes.dbg.spill, metadata !2836, metadata !DIExpression()), !dbg !2887
  call void @llvm.dbg.declare(metadata ptr %self, metadata !2888, metadata !DIExpression()), !dbg !2925
  call void @llvm.dbg.declare(metadata ptr %self2, metadata !2927, metadata !DIExpression()), !dbg !2944
  call void @llvm.dbg.declare(metadata ptr %ch, metadata !2858, metadata !DIExpression()), !dbg !2946
  call void @llvm.dbg.declare(metadata ptr %self3, metadata !2936, metadata !DIExpression()), !dbg !2947
  call void @llvm.dbg.declare(metadata ptr %self4, metadata !2940, metadata !DIExpression()), !dbg !2949
; call <core::slice::iter::Iter<T> as core::iter::traits::iterator::Iterator>::next
  %0 = call align 1 ptr @"_ZN91_$LT$core..slice..iter..Iter$LT$T$GT$$u20$as$u20$core..iter..traits..iterator..Iterator$GT$4next17h54fa9e734c5c77b0E"(ptr align 8 %bytes), !dbg !2926
  store ptr %0, ptr %self, align 8, !dbg !2926
  %1 = load ptr, ptr %self, align 8, !dbg !2951, !noundef !44
  %2 = ptrtoint ptr %1 to i64, !dbg !2951
  %3 = icmp eq i64 %2, 0, !dbg !2951
  %_27 = select i1 %3, i64 0, i64 1, !dbg !2951
  %4 = icmp eq i64 %_27, 0, !dbg !2952
  br i1 %4, label %bb13, label %bb14, !dbg !2952

bb13:                                             ; preds = %start
  %5 = load i32, ptr @1, align 4, !dbg !2953, !range !2954, !noundef !44
  %6 = load i32, ptr getelementptr inbounds (i8, ptr @1, i64 4), align 4, !dbg !2953
  store i32 %5, ptr %_0, align 4, !dbg !2953
  %7 = getelementptr inbounds i8, ptr %_0, i64 4, !dbg !2953
  store i32 %6, ptr %7, align 4, !dbg !2953
  br label %bb12, !dbg !2955

bb14:                                             ; preds = %start
  %v = load ptr, ptr %self, align 8, !dbg !2957, !nonnull !44, !align !2565, !noundef !44
  store ptr %v, ptr %v.dbg.spill, align 8, !dbg !2957
  call void @llvm.dbg.declare(metadata ptr %v.dbg.spill, metadata !2923, metadata !DIExpression()), !dbg !2958
  store ptr %v, ptr %_3, align 8, !dbg !2959
  %val = load ptr, ptr %_3, align 8, !dbg !2926, !nonnull !44, !align !2565, !noundef !44
  store ptr %val, ptr %val.dbg.spill, align 8, !dbg !2926
  call void @llvm.dbg.declare(metadata ptr %val.dbg.spill, metadata !2852, metadata !DIExpression()), !dbg !2960
  %x = load i8, ptr %val, align 1, !dbg !2961, !noundef !44
  store i8 %x, ptr %x.dbg.spill, align 1, !dbg !2961
  call void @llvm.dbg.declare(metadata ptr %x.dbg.spill, metadata !2837, metadata !DIExpression()), !dbg !2962
  call void @llvm.dbg.declare(metadata ptr %x.dbg.spill, metadata !2884, metadata !DIExpression()), !dbg !2963
  %_6 = icmp ult i8 %x, -128, !dbg !2964
  br i1 %_6, label %bb3, label %bb4, !dbg !2964

bb12:                                             ; preds = %bb3, %bb11, %bb13
  %8 = load i32, ptr %_0, align 4, !dbg !2965, !range !2954, !noundef !44
  %9 = getelementptr inbounds i8, ptr %_0, i64 4, !dbg !2965
  %10 = load i32, ptr %9, align 4, !dbg !2965
  %11 = insertvalue { i32, i32 } poison, i32 %8, 0, !dbg !2965
  %12 = insertvalue { i32, i32 } %11, i32 %10, 1, !dbg !2965
  ret { i32, i32 } %12, !dbg !2965

bb4:                                              ; preds = %bb14
  %_29 = and i8 %x, 31, !dbg !2966
  %init = zext i8 %_29 to i32, !dbg !2966
  store i32 %init, ptr %init.dbg.spill, align 4, !dbg !2966
  call void @llvm.dbg.declare(metadata ptr %init.dbg.spill, metadata !2854, metadata !DIExpression()), !dbg !2967
  call void @llvm.dbg.declare(metadata ptr %init.dbg.spill, metadata !2968, metadata !DIExpression()), !dbg !2981
; call <core::slice::iter::Iter<T> as core::iter::traits::iterator::Iterator>::next
  %13 = call align 1 ptr @"_ZN91_$LT$core..slice..iter..Iter$LT$T$GT$$u20$as$u20$core..iter..traits..iterator..Iterator$GT$4next17h54fa9e734c5c77b0E"(ptr align 8 %bytes), !dbg !2983
  store ptr %13, ptr %self2, align 8, !dbg !2983
  %14 = load ptr, ptr %self2, align 8, !dbg !2984, !noundef !44
  %15 = ptrtoint ptr %14 to i64, !dbg !2984
  %16 = icmp eq i64 %15, 0, !dbg !2984
  %_30 = select i1 %16, i64 0, i64 1, !dbg !2984
  %17 = icmp eq i64 %_30, 0, !dbg !2985
  br i1 %17, label %bb15, label %bb16, !dbg !2985

bb3:                                              ; preds = %bb14
  %_7 = zext i8 %x to i32, !dbg !2986
  %18 = getelementptr inbounds i8, ptr %_0, i64 4, !dbg !2987
  store i32 %_7, ptr %18, align 4, !dbg !2987
  store i32 1, ptr %_0, align 4, !dbg !2987
  br label %bb12, !dbg !2988

bb15:                                             ; preds = %bb4
; call core::hint::unreachable_unchecked::precondition_check
  call void @_ZN4core4hint21unreachable_unchecked18precondition_check17hba45753ccc76f0fdE() #22, !dbg !2990
  br label %bb2, !dbg !2990

bb16:                                             ; preds = %bb4
  %val5 = load ptr, ptr %self2, align 8, !dbg !2998, !nonnull !44, !align !2565, !noundef !44
  store ptr %val5, ptr %val.dbg.spill6, align 8, !dbg !2998
  call void @llvm.dbg.declare(metadata ptr %val.dbg.spill6, metadata !2934, metadata !DIExpression()), !dbg !2999
  %y = load i8, ptr %val5, align 1, !dbg !3000, !noundef !44
  store i8 %y, ptr %y.dbg.spill, align 1, !dbg !3000
  call void @llvm.dbg.declare(metadata ptr %y.dbg.spill, metadata !2856, metadata !DIExpression()), !dbg !3001
  call void @llvm.dbg.declare(metadata ptr %y.dbg.spill, metadata !2974, metadata !DIExpression()), !dbg !3002
  %_33 = shl i32 %init, 6, !dbg !3003
  %_35 = and i8 %y, 63, !dbg !3004
  %ch7 = zext i8 %_35 to i32, !dbg !3004
  store i32 %ch7, ptr %ch.dbg.spill, align 4, !dbg !3004
  call void @llvm.dbg.declare(metadata ptr %ch.dbg.spill, metadata !2975, metadata !DIExpression()), !dbg !3005
  %19 = or i32 %_33, %ch7, !dbg !3003
  store i32 %19, ptr %ch, align 4, !dbg !3003
  %_13 = icmp uge i8 %x, -32, !dbg !3007
  br i1 %_13, label %bb6, label %bb11, !dbg !3007

bb2:                                              ; preds = %bb19, %bb17, %bb15
  unreachable, !dbg !2926

bb11:                                             ; preds = %bb10, %bb16
  %_26 = load i32, ptr %ch, align 4, !dbg !3008, !noundef !44
  %20 = getelementptr inbounds i8, ptr %_0, i64 4, !dbg !3009
  store i32 %_26, ptr %20, align 4, !dbg !3009
  store i32 1, ptr %_0, align 4, !dbg !3009
  br label %bb12, !dbg !2965

bb6:                                              ; preds = %bb16
; call <core::slice::iter::Iter<T> as core::iter::traits::iterator::Iterator>::next
  %21 = call align 1 ptr @"_ZN91_$LT$core..slice..iter..Iter$LT$T$GT$$u20$as$u20$core..iter..traits..iterator..Iterator$GT$4next17h54fa9e734c5c77b0E"(ptr align 8 %bytes), !dbg !3010
  store ptr %21, ptr %self3, align 8, !dbg !3010
  %22 = load ptr, ptr %self3, align 8, !dbg !3011, !noundef !44
  %23 = ptrtoint ptr %22 to i64, !dbg !3011
  %24 = icmp eq i64 %23, 0, !dbg !3011
  %_36 = select i1 %24, i64 0, i64 1, !dbg !3011
  %25 = icmp eq i64 %_36, 0, !dbg !3012
  br i1 %25, label %bb17, label %bb18, !dbg !3012

bb17:                                             ; preds = %bb6
; call core::hint::unreachable_unchecked::precondition_check
  call void @_ZN4core4hint21unreachable_unchecked18precondition_check17hba45753ccc76f0fdE() #22, !dbg !3013
  br label %bb2, !dbg !3013

bb18:                                             ; preds = %bb6
  %val8 = load ptr, ptr %self3, align 8, !dbg !3016, !nonnull !44, !align !2565, !noundef !44
  store ptr %val8, ptr %val.dbg.spill9, align 8, !dbg !3016
  call void @llvm.dbg.declare(metadata ptr %val.dbg.spill9, metadata !2938, metadata !DIExpression()), !dbg !3017
  %z = load i8, ptr %val8, align 1, !dbg !3018, !noundef !44
  store i8 %z, ptr %z.dbg.spill, align 1, !dbg !3018
  call void @llvm.dbg.declare(metadata ptr %z.dbg.spill, metadata !2860, metadata !DIExpression()), !dbg !3019
  call void @llvm.dbg.declare(metadata ptr %z.dbg.spill, metadata !2977, metadata !DIExpression()), !dbg !3020
  %_39 = shl i32 %ch7, 6, !dbg !3021
  %_41 = and i8 %z, 63, !dbg !3022
  %_40 = zext i8 %_41 to i32, !dbg !3022
  %y_z = or i32 %_39, %_40, !dbg !3021
  store i32 %y_z, ptr %y_z.dbg.spill, align 4, !dbg !3021
  call void @llvm.dbg.declare(metadata ptr %y_z.dbg.spill, metadata !2862, metadata !DIExpression()), !dbg !3023
  call void @llvm.dbg.declare(metadata ptr %y_z.dbg.spill, metadata !2978, metadata !DIExpression()), !dbg !3024
  %_18 = shl i32 %init, 12, !dbg !3026
  %26 = or i32 %_18, %y_z, !dbg !3027
  store i32 %26, ptr %ch, align 4, !dbg !3027
  %_19 = icmp uge i8 %x, -16, !dbg !3028
  br i1 %_19, label %bb8, label %bb10, !dbg !3028

bb10:                                             ; preds = %bb20, %bb18
  br label %bb11, !dbg !3029

bb8:                                              ; preds = %bb18
; call <core::slice::iter::Iter<T> as core::iter::traits::iterator::Iterator>::next
  %27 = call align 1 ptr @"_ZN91_$LT$core..slice..iter..Iter$LT$T$GT$$u20$as$u20$core..iter..traits..iterator..Iterator$GT$4next17h54fa9e734c5c77b0E"(ptr align 8 %bytes), !dbg !3030
  store ptr %27, ptr %self4, align 8, !dbg !3030
  %28 = load ptr, ptr %self4, align 8, !dbg !3031, !noundef !44
  %29 = ptrtoint ptr %28 to i64, !dbg !3031
  %30 = icmp eq i64 %29, 0, !dbg !3031
  %_42 = select i1 %30, i64 0, i64 1, !dbg !3031
  %31 = icmp eq i64 %_42, 0, !dbg !3032
  br i1 %31, label %bb19, label %bb20, !dbg !3032

bb19:                                             ; preds = %bb8
; call core::hint::unreachable_unchecked::precondition_check
  call void @_ZN4core4hint21unreachable_unchecked18precondition_check17hba45753ccc76f0fdE() #22, !dbg !3033
  br label %bb2, !dbg !3033

bb20:                                             ; preds = %bb8
  %val10 = load ptr, ptr %self4, align 8, !dbg !3036, !nonnull !44, !align !2565, !noundef !44
  store ptr %val10, ptr %val.dbg.spill11, align 8, !dbg !3036
  call void @llvm.dbg.declare(metadata ptr %val.dbg.spill11, metadata !2942, metadata !DIExpression()), !dbg !3037
  %w = load i8, ptr %val10, align 1, !dbg !3038, !noundef !44
  store i8 %w, ptr %w.dbg.spill, align 1, !dbg !3038
  call void @llvm.dbg.declare(metadata ptr %w.dbg.spill, metadata !2864, metadata !DIExpression()), !dbg !3039
  call void @llvm.dbg.declare(metadata ptr %w.dbg.spill, metadata !2980, metadata !DIExpression()), !dbg !3040
  %_24 = and i32 %init, 7, !dbg !3041
  %_23 = shl i32 %_24, 18, !dbg !3041
  %_45 = shl i32 %y_z, 6, !dbg !3042
  %_47 = and i8 %w, 63, !dbg !3043
  %_46 = zext i8 %_47 to i32, !dbg !3043
  %_25 = or i32 %_45, %_46, !dbg !3042
  %32 = or i32 %_23, %_25, !dbg !3044
  store i32 %32, ptr %ch, align 4, !dbg !3044
  br label %bb10, !dbg !3045
}

; core::str::<impl str>::char_indices
; Function Attrs: inlinehint uwtable
define internal void @"_ZN4core3str21_$LT$impl$u20$str$GT$12char_indices17h5c001f65f9ea71beE"(ptr sret(%"core::str::iter::CharIndices<'_>") align 8 %_0, ptr align 1 %self.0, i64 %self.1) unnamed_addr #0 !dbg !3046 {
start:
  %end_or_len.dbg.spill = alloca ptr, align 8
  %self.dbg.spill2 = alloca ptr, align 8
  %len.dbg.spill = alloca i64, align 8
  %self.dbg.spill1 = alloca { ptr, i64 }, align 8
  %self.dbg.spill = alloca { ptr, i64 }, align 8
  %self = alloca %"core::ptr::non_null::NonNull<[u8]>", align 8
  %ptr = alloca ptr, align 8
  %_3 = alloca %"core::slice::iter::Iter<'_, u8>", align 8
  %_2 = alloca %"core::str::iter::Chars<'_>", align 8
  store ptr %self.0, ptr %self.dbg.spill, align 8
  %0 = getelementptr inbounds i8, ptr %self.dbg.spill, i64 8
  store i64 %self.1, ptr %0, align 8
  call void @llvm.dbg.declare(metadata ptr %self.dbg.spill, metadata !3048, metadata !DIExpression()), !dbg !3049
  call void @llvm.dbg.declare(metadata ptr %self.dbg.spill, metadata !3050, metadata !DIExpression()), !dbg !3054
  call void @llvm.dbg.declare(metadata ptr %self.dbg.spill, metadata !3056, metadata !DIExpression()), !dbg !3060
  call void @llvm.dbg.declare(metadata ptr %ptr, metadata !3062, metadata !DIExpression()), !dbg !3072
  call void @llvm.dbg.declare(metadata ptr %ptr, metadata !3079, metadata !DIExpression()), !dbg !3083
  call void @llvm.dbg.declare(metadata ptr %self, metadata !3085, metadata !DIExpression()), !dbg !3089
  call void @llvm.dbg.declare(metadata ptr %self, metadata !3091, metadata !DIExpression()), !dbg !3095
  store ptr %self.0, ptr %self.dbg.spill1, align 8, !dbg !3097
  %1 = getelementptr inbounds i8, ptr %self.dbg.spill1, i64 8, !dbg !3097
  store i64 %self.1, ptr %1, align 8, !dbg !3097
  call void @llvm.dbg.declare(metadata ptr %self.dbg.spill1, metadata !3077, metadata !DIExpression()), !dbg !3098
  call void @llvm.dbg.declare(metadata ptr %self.dbg.spill1, metadata !3068, metadata !DIExpression()), !dbg !3099
  call void @llvm.dbg.declare(metadata ptr %self.dbg.spill1, metadata !3100, metadata !DIExpression()), !dbg !3104
  store i64 %self.1, ptr %len.dbg.spill, align 8, !dbg !3106
  call void @llvm.dbg.declare(metadata ptr %len.dbg.spill, metadata !3069, metadata !DIExpression()), !dbg !3107
  call void @llvm.dbg.declare(metadata ptr %len.dbg.spill, metadata !3108, metadata !DIExpression()), !dbg !3112
  call void @llvm.dbg.declare(metadata ptr %len.dbg.spill, metadata !3114, metadata !DIExpression()), !dbg !3119
  store ptr %self.0, ptr %self, align 8, !dbg !3121
  %2 = getelementptr inbounds i8, ptr %self, i64 8, !dbg !3121
  store i64 %self.1, ptr %2, align 8, !dbg !3121
  store ptr %self.0, ptr %ptr, align 8, !dbg !3122
  store ptr %self.0, ptr %self.dbg.spill2, align 8, !dbg !3123
  call void @llvm.dbg.declare(metadata ptr %self.dbg.spill2, metadata !3118, metadata !DIExpression()), !dbg !3124
  %_9 = getelementptr inbounds i8, ptr %self.0, i64 %self.1, !dbg !3125
  store ptr %_9, ptr %end_or_len.dbg.spill, align 8, !dbg !3126
  call void @llvm.dbg.declare(metadata ptr %end_or_len.dbg.spill, metadata !3070, metadata !DIExpression()), !dbg !3127
  %3 = load ptr, ptr %ptr, align 8, !dbg !3128, !nonnull !44, !noundef !44
  store ptr %3, ptr %_3, align 8, !dbg !3128
  %4 = getelementptr inbounds i8, ptr %_3, i64 8, !dbg !3128
  store ptr %_9, ptr %4, align 8, !dbg !3128
  %5 = load ptr, ptr %_3, align 8, !dbg !3129, !nonnull !44, !noundef !44
  %6 = getelementptr inbounds i8, ptr %_3, i64 8, !dbg !3129
  %7 = load ptr, ptr %6, align 8, !dbg !3129, !noundef !44
  store ptr %5, ptr %_2, align 8, !dbg !3129
  %8 = getelementptr inbounds i8, ptr %_2, i64 8, !dbg !3129
  store ptr %7, ptr %8, align 8, !dbg !3129
  %9 = getelementptr inbounds i8, ptr %_0, i64 16, !dbg !3130
  store i64 0, ptr %9, align 8, !dbg !3130
  %10 = load ptr, ptr %_2, align 8, !dbg !3130, !nonnull !44, !noundef !44
  %11 = getelementptr inbounds i8, ptr %_2, i64 8, !dbg !3130
  %12 = load ptr, ptr %11, align 8, !dbg !3130, !noundef !44
  store ptr %10, ptr %_0, align 8, !dbg !3130
  %13 = getelementptr inbounds i8, ptr %_0, i64 8, !dbg !3130
  store ptr %12, ptr %13, align 8, !dbg !3130
  ret void, !dbg !3131
}

; core::str::<impl str>::is_char_boundary
; Function Attrs: inlinehint uwtable
define internal zeroext i1 @"_ZN4core3str21_$LT$impl$u20$str$GT$16is_char_boundary17h08de42de7d2d32abE"(ptr align 1 %self.0, i64 %self.1, i64 %index) unnamed_addr #0 !dbg !3132 {
start:
  %b.dbg.spill = alloca i8, align 1
  %self.dbg.spill1 = alloca { ptr, i64 }, align 8
  %index.dbg.spill = alloca i64, align 8
  %self.dbg.spill = alloca { ptr, i64 }, align 8
  %_3 = alloca ptr, align 8
  %_0 = alloca i8, align 1
  store ptr %self.0, ptr %self.dbg.spill, align 8
  %0 = getelementptr inbounds i8, ptr %self.dbg.spill, i64 8
  store i64 %self.1, ptr %0, align 8
  call void @llvm.dbg.declare(metadata ptr %self.dbg.spill, metadata !3136, metadata !DIExpression()), !dbg !3140
  call void @llvm.dbg.declare(metadata ptr %self.dbg.spill, metadata !3141, metadata !DIExpression()), !dbg !3147
  call void @llvm.dbg.declare(metadata ptr %self.dbg.spill, metadata !3149, metadata !DIExpression()), !dbg !3155
  call void @llvm.dbg.declare(metadata ptr %self.dbg.spill, metadata !3145, metadata !DIExpression()), !dbg !3157
  store i64 %index, ptr %index.dbg.spill, align 8
  call void @llvm.dbg.declare(metadata ptr %index.dbg.spill, metadata !3137, metadata !DIExpression()), !dbg !3159
  call void @llvm.dbg.declare(metadata ptr %index.dbg.spill, metadata !3160, metadata !DIExpression()), !dbg !3169
  %1 = icmp eq i64 %index, 0, !dbg !3171
  br i1 %1, label %bb1, label %bb2, !dbg !3171

bb1:                                              ; preds = %start
  store i8 1, ptr %_0, align 1, !dbg !3172
  br label %bb7, !dbg !3173

bb2:                                              ; preds = %start
  store ptr %self.0, ptr %self.dbg.spill1, align 8, !dbg !3174
  %2 = getelementptr inbounds i8, ptr %self.dbg.spill1, i64 8, !dbg !3174
  store i64 %self.1, ptr %2, align 8, !dbg !3174
  call void @llvm.dbg.declare(metadata ptr %self.dbg.spill1, metadata !3166, metadata !DIExpression()), !dbg !3175
; call <usize as core::slice::index::SliceIndex<[T]>>::get
  %3 = call align 1 ptr @"_ZN75_$LT$usize$u20$as$u20$core..slice..index..SliceIndex$LT$$u5b$T$u5d$$GT$$GT$3get17hb38d7c3a4c587a39E"(i64 %index, ptr align 1 %self.0, i64 %self.1), !dbg !3176
  store ptr %3, ptr %_3, align 8, !dbg !3176
  %4 = load ptr, ptr %_3, align 8, !dbg !3177, !noundef !44
  %5 = ptrtoint ptr %4 to i64, !dbg !3177
  %6 = icmp eq i64 %5, 0, !dbg !3177
  %_5 = select i1 %6, i64 0, i64 1, !dbg !3177
  %7 = icmp eq i64 %_5, 0, !dbg !3178
  br i1 %7, label %bb5, label %bb4, !dbg !3178

bb7:                                              ; preds = %bb6, %bb1
  %8 = load i8, ptr %_0, align 1, !dbg !3173, !range !746, !noundef !44
  %9 = trunc i8 %8 to i1, !dbg !3173
  ret i1 %9, !dbg !3173

bb5:                                              ; preds = %bb2
  %10 = icmp eq i64 %index, %self.1, !dbg !3179
  %11 = zext i1 %10 to i8, !dbg !3179
  store i8 %11, ptr %_0, align 1, !dbg !3179
  br label %bb6, !dbg !3180

bb4:                                              ; preds = %bb2
  %_8 = load ptr, ptr %_3, align 8, !dbg !3181, !nonnull !44, !align !2565, !noundef !44
  %b = load i8, ptr %_8, align 1, !dbg !3181, !noundef !44
  store i8 %b, ptr %b.dbg.spill, align 1, !dbg !3181
  call void @llvm.dbg.declare(metadata ptr %b.dbg.spill, metadata !3138, metadata !DIExpression()), !dbg !3182
  call void @llvm.dbg.declare(metadata ptr %b.dbg.spill, metadata !3183, metadata !DIExpression()), !dbg !3190
  %12 = icmp sge i8 %b, -64, !dbg !3192
  %13 = zext i1 %12 to i8, !dbg !3192
  store i8 %13, ptr %_0, align 1, !dbg !3192
  br label %bb6, !dbg !3193

bb6:                                              ; preds = %bb4, %bb5
  br label %bb7, !dbg !3173

bb3:                                              ; No predecessors!
  unreachable, !dbg !3177
}

; core::str::<impl str>::chars
; Function Attrs: inlinehint uwtable
define internal { ptr, ptr } @"_ZN4core3str21_$LT$impl$u20$str$GT$5chars17h492745c89ca73708E"(ptr align 1 %self.0, i64 %self.1) unnamed_addr #0 !dbg !3194 {
start:
  %end_or_len.dbg.spill = alloca ptr, align 8
  %self.dbg.spill2 = alloca ptr, align 8
  %len.dbg.spill = alloca i64, align 8
  %self.dbg.spill1 = alloca { ptr, i64 }, align 8
  %self.dbg.spill = alloca { ptr, i64 }, align 8
  %self = alloca %"core::ptr::non_null::NonNull<[u8]>", align 8
  %ptr = alloca ptr, align 8
  %_2 = alloca %"core::slice::iter::Iter<'_, u8>", align 8
  %_0 = alloca %"core::str::iter::Chars<'_>", align 8
  store ptr %self.0, ptr %self.dbg.spill, align 8
  %0 = getelementptr inbounds i8, ptr %self.dbg.spill, i64 8
  store i64 %self.1, ptr %0, align 8
  call void @llvm.dbg.declare(metadata ptr %self.dbg.spill, metadata !3196, metadata !DIExpression()), !dbg !3197
  call void @llvm.dbg.declare(metadata ptr %self.dbg.spill, metadata !3198, metadata !DIExpression()), !dbg !3202
  call void @llvm.dbg.declare(metadata ptr %ptr, metadata !3204, metadata !DIExpression()), !dbg !3214
  call void @llvm.dbg.declare(metadata ptr %ptr, metadata !3221, metadata !DIExpression()), !dbg !3225
  call void @llvm.dbg.declare(metadata ptr %self, metadata !3227, metadata !DIExpression()), !dbg !3231
  call void @llvm.dbg.declare(metadata ptr %self, metadata !3233, metadata !DIExpression()), !dbg !3237
  store ptr %self.0, ptr %self.dbg.spill1, align 8, !dbg !3239
  %1 = getelementptr inbounds i8, ptr %self.dbg.spill1, i64 8, !dbg !3239
  store i64 %self.1, ptr %1, align 8, !dbg !3239
  call void @llvm.dbg.declare(metadata ptr %self.dbg.spill1, metadata !3219, metadata !DIExpression()), !dbg !3240
  call void @llvm.dbg.declare(metadata ptr %self.dbg.spill1, metadata !3210, metadata !DIExpression()), !dbg !3241
  call void @llvm.dbg.declare(metadata ptr %self.dbg.spill1, metadata !3242, metadata !DIExpression()), !dbg !3246
  store i64 %self.1, ptr %len.dbg.spill, align 8, !dbg !3248
  call void @llvm.dbg.declare(metadata ptr %len.dbg.spill, metadata !3211, metadata !DIExpression()), !dbg !3249
  call void @llvm.dbg.declare(metadata ptr %len.dbg.spill, metadata !3250, metadata !DIExpression()), !dbg !3254
  call void @llvm.dbg.declare(metadata ptr %len.dbg.spill, metadata !3256, metadata !DIExpression()), !dbg !3261
  store ptr %self.0, ptr %self, align 8, !dbg !3263
  %2 = getelementptr inbounds i8, ptr %self, i64 8, !dbg !3263
  store i64 %self.1, ptr %2, align 8, !dbg !3263
  store ptr %self.0, ptr %ptr, align 8, !dbg !3264
  store ptr %self.0, ptr %self.dbg.spill2, align 8, !dbg !3265
  call void @llvm.dbg.declare(metadata ptr %self.dbg.spill2, metadata !3260, metadata !DIExpression()), !dbg !3266
  %_8 = getelementptr inbounds i8, ptr %self.0, i64 %self.1, !dbg !3267
  store ptr %_8, ptr %end_or_len.dbg.spill, align 8, !dbg !3268
  call void @llvm.dbg.declare(metadata ptr %end_or_len.dbg.spill, metadata !3212, metadata !DIExpression()), !dbg !3269
  %3 = load ptr, ptr %ptr, align 8, !dbg !3270, !nonnull !44, !noundef !44
  store ptr %3, ptr %_2, align 8, !dbg !3270
  %4 = getelementptr inbounds i8, ptr %_2, i64 8, !dbg !3270
  store ptr %_8, ptr %4, align 8, !dbg !3270
  %5 = load ptr, ptr %_2, align 8, !dbg !3271, !nonnull !44, !noundef !44
  %6 = getelementptr inbounds i8, ptr %_2, i64 8, !dbg !3271
  %7 = load ptr, ptr %6, align 8, !dbg !3271, !noundef !44
  store ptr %5, ptr %_0, align 8, !dbg !3271
  %8 = getelementptr inbounds i8, ptr %_0, i64 8, !dbg !3271
  store ptr %7, ptr %8, align 8, !dbg !3271
  %9 = load ptr, ptr %_0, align 8, !dbg !3272, !nonnull !44, !noundef !44
  %10 = getelementptr inbounds i8, ptr %_0, i64 8, !dbg !3272
  %11 = load ptr, ptr %10, align 8, !dbg !3272, !noundef !44
  %12 = insertvalue { ptr, ptr } poison, ptr %9, 0, !dbg !3272
  %13 = insertvalue { ptr, ptr } %12, ptr %11, 1, !dbg !3272
  ret { ptr, ptr } %13, !dbg !3272
}

; core::str::<impl str>::split
; Function Attrs: inlinehint uwtable
define void @"_ZN4core3str21_$LT$impl$u20$str$GT$5split17h0d50a1248059adb5E"(ptr sret(%"core::str::iter::Split<'_, {closure@src/lib.rs:101:25: 101:34}>") align 8 %_0, ptr align 1 %self.0, i64 %self.1) unnamed_addr #0 !dbg !3273 {
start:
  %pat.dbg.spill = alloca %"{closure@src/lib.rs:101:25: 101:34}.11", align 1
  %self.dbg.spill = alloca { ptr, i64 }, align 8
  %_5 = alloca %"core::str::pattern::CharPredicateSearcher<'_, {closure@src/lib.rs:101:25: 101:34}>.9", align 8
  %_3 = alloca %"core::str::iter::SplitInternal<'_, {closure@src/lib.rs:101:25: 101:34}>", align 8
  store ptr %self.0, ptr %self.dbg.spill, align 8
  %0 = getelementptr inbounds i8, ptr %self.dbg.spill, i64 8
  store i64 %self.1, ptr %0, align 8
  call void @llvm.dbg.declare(metadata ptr %self.dbg.spill, metadata !3289, metadata !DIExpression()), !dbg !3291
  call void @llvm.dbg.declare(metadata ptr %self.dbg.spill, metadata !3292, metadata !DIExpression()), !dbg !3296
  call void @llvm.dbg.declare(metadata ptr %self.dbg.spill, metadata !3298, metadata !DIExpression()), !dbg !3302
  call void @llvm.dbg.declare(metadata ptr %pat.dbg.spill, metadata !3290, metadata !DIExpression()), !dbg !3304
; call <F as core::str::pattern::Pattern>::into_searcher
  call void @"_ZN49_$LT$F$u20$as$u20$core..str..pattern..Pattern$GT$13into_searcher17hc61b505c39e40f62E"(ptr sret(%"core::str::pattern::CharPredicateSearcher<'_, {closure@src/lib.rs:101:25: 101:34}>.9") align 8 %_5, ptr align 1 %self.0, i64 %self.1), !dbg !3305
  store i64 0, ptr %_3, align 8, !dbg !3306
  %1 = getelementptr inbounds i8, ptr %_3, i64 8, !dbg !3306
  store i64 %self.1, ptr %1, align 8, !dbg !3306
  %2 = getelementptr inbounds i8, ptr %_3, i64 16, !dbg !3306
  call void @llvm.memcpy.p0.p0.i64(ptr align 8 %2, ptr align 8 %_5, i64 40, i1 false), !dbg !3306
  %3 = getelementptr inbounds i8, ptr %_3, i64 56, !dbg !3306
  store i8 1, ptr %3, align 8, !dbg !3306
  %4 = getelementptr inbounds i8, ptr %_3, i64 57, !dbg !3306
  store i8 0, ptr %4, align 1, !dbg !3306
  call void @llvm.memcpy.p0.p0.i64(ptr align 8 %_0, ptr align 8 %_3, i64 64, i1 false), !dbg !3307
  ret void, !dbg !3308
}

; core::str::<impl str>::split
; Function Attrs: inlinehint uwtable
define void @"_ZN4core3str21_$LT$impl$u20$str$GT$5split17h0ee2a90482199369E"(ptr sret(%"core::str::iter::Split<'_, {closure@src/lib.rs:101:25: 101:34}>.21") align 8 %_0, ptr align 1 %self.0, i64 %self.1) unnamed_addr #0 !dbg !3309 {
start:
  %pat.dbg.spill = alloca %"{closure@src/lib.rs:101:25: 101:34}.2", align 1
  %self.dbg.spill = alloca { ptr, i64 }, align 8
  %_5 = alloca %"core::str::pattern::CharPredicateSearcher<'_, {closure@src/lib.rs:101:25: 101:34}>.0", align 8
  %_3 = alloca %"core::str::iter::SplitInternal<'_, {closure@src/lib.rs:101:25: 101:34}>.22", align 8
  store ptr %self.0, ptr %self.dbg.spill, align 8
  %0 = getelementptr inbounds i8, ptr %self.dbg.spill, i64 8
  store i64 %self.1, ptr %0, align 8
  call void @llvm.dbg.declare(metadata ptr %self.dbg.spill, metadata !3325, metadata !DIExpression()), !dbg !3327
  call void @llvm.dbg.declare(metadata ptr %self.dbg.spill, metadata !3328, metadata !DIExpression()), !dbg !3332
  call void @llvm.dbg.declare(metadata ptr %self.dbg.spill, metadata !3334, metadata !DIExpression()), !dbg !3338
  call void @llvm.dbg.declare(metadata ptr %pat.dbg.spill, metadata !3326, metadata !DIExpression()), !dbg !3340
; call <F as core::str::pattern::Pattern>::into_searcher
  call void @"_ZN49_$LT$F$u20$as$u20$core..str..pattern..Pattern$GT$13into_searcher17h80db88bab4f4f2afE"(ptr sret(%"core::str::pattern::CharPredicateSearcher<'_, {closure@src/lib.rs:101:25: 101:34}>.0") align 8 %_5, ptr align 1 %self.0, i64 %self.1), !dbg !3341
  store i64 0, ptr %_3, align 8, !dbg !3342
  %1 = getelementptr inbounds i8, ptr %_3, i64 8, !dbg !3342
  store i64 %self.1, ptr %1, align 8, !dbg !3342
  %2 = getelementptr inbounds i8, ptr %_3, i64 16, !dbg !3342
  call void @llvm.memcpy.p0.p0.i64(ptr align 8 %2, ptr align 8 %_5, i64 40, i1 false), !dbg !3342
  %3 = getelementptr inbounds i8, ptr %_3, i64 56, !dbg !3342
  store i8 1, ptr %3, align 8, !dbg !3342
  %4 = getelementptr inbounds i8, ptr %_3, i64 57, !dbg !3342
  store i8 0, ptr %4, align 1, !dbg !3342
  call void @llvm.memcpy.p0.p0.i64(ptr align 8 %_0, ptr align 8 %_3, i64 64, i1 false), !dbg !3343
  ret void, !dbg !3344
}

; core::str::<impl str>::split
; Function Attrs: inlinehint uwtable
define void @"_ZN4core3str21_$LT$impl$u20$str$GT$5split17h3f78cde32d97c4b9E"(ptr sret(%"core::str::iter::Split<'_, {closure@src/lib.rs:101:25: 101:34}>.23") align 8 %_0, ptr align 1 %self.0, i64 %self.1) unnamed_addr #0 !dbg !3345 {
start:
  %pat.dbg.spill = alloca %"{closure@src/lib.rs:101:25: 101:34}", align 1
  %self.dbg.spill = alloca { ptr, i64 }, align 8
  %_5 = alloca %"core::str::pattern::CharPredicateSearcher<'_, {closure@src/lib.rs:101:25: 101:34}>", align 8
  %_3 = alloca %"core::str::iter::SplitInternal<'_, {closure@src/lib.rs:101:25: 101:34}>.24", align 8
  store ptr %self.0, ptr %self.dbg.spill, align 8
  %0 = getelementptr inbounds i8, ptr %self.dbg.spill, i64 8
  store i64 %self.1, ptr %0, align 8
  call void @llvm.dbg.declare(metadata ptr %self.dbg.spill, metadata !3361, metadata !DIExpression()), !dbg !3363
  call void @llvm.dbg.declare(metadata ptr %self.dbg.spill, metadata !3364, metadata !DIExpression()), !dbg !3368
  call void @llvm.dbg.declare(metadata ptr %self.dbg.spill, metadata !3370, metadata !DIExpression()), !dbg !3374
  call void @llvm.dbg.declare(metadata ptr %pat.dbg.spill, metadata !3362, metadata !DIExpression()), !dbg !3376
; call <F as core::str::pattern::Pattern>::into_searcher
  call void @"_ZN49_$LT$F$u20$as$u20$core..str..pattern..Pattern$GT$13into_searcher17h1e4a1d822d3ffe70E"(ptr sret(%"core::str::pattern::CharPredicateSearcher<'_, {closure@src/lib.rs:101:25: 101:34}>") align 8 %_5, ptr align 1 %self.0, i64 %self.1), !dbg !3377
  store i64 0, ptr %_3, align 8, !dbg !3378
  %1 = getelementptr inbounds i8, ptr %_3, i64 8, !dbg !3378
  store i64 %self.1, ptr %1, align 8, !dbg !3378
  %2 = getelementptr inbounds i8, ptr %_3, i64 16, !dbg !3378
  call void @llvm.memcpy.p0.p0.i64(ptr align 8 %2, ptr align 8 %_5, i64 40, i1 false), !dbg !3378
  %3 = getelementptr inbounds i8, ptr %_3, i64 56, !dbg !3378
  store i8 1, ptr %3, align 8, !dbg !3378
  %4 = getelementptr inbounds i8, ptr %_3, i64 57, !dbg !3378
  store i8 0, ptr %4, align 1, !dbg !3378
  call void @llvm.memcpy.p0.p0.i64(ptr align 8 %_0, ptr align 8 %_3, i64 64, i1 false), !dbg !3379
  ret void, !dbg !3380
}

; core::str::<impl str>::split
; Function Attrs: inlinehint uwtable
define void @"_ZN4core3str21_$LT$impl$u20$str$GT$5split17h43a7d72f4fdcd926E"(ptr sret(%"core::str::iter::Split<'_, {closure@src/lib.rs:101:25: 101:34}>.25") align 8 %_0, ptr align 1 %self.0, i64 %self.1) unnamed_addr #0 !dbg !3381 {
start:
  %pat.dbg.spill = alloca %"{closure@src/lib.rs:101:25: 101:34}.17", align 1
  %self.dbg.spill = alloca { ptr, i64 }, align 8
  %_5 = alloca %"core::str::pattern::CharPredicateSearcher<'_, {closure@src/lib.rs:101:25: 101:34}>.15", align 8
  %_3 = alloca %"core::str::iter::SplitInternal<'_, {closure@src/lib.rs:101:25: 101:34}>.26", align 8
  store ptr %self.0, ptr %self.dbg.spill, align 8
  %0 = getelementptr inbounds i8, ptr %self.dbg.spill, i64 8
  store i64 %self.1, ptr %0, align 8
  call void @llvm.dbg.declare(metadata ptr %self.dbg.spill, metadata !3397, metadata !DIExpression()), !dbg !3399
  call void @llvm.dbg.declare(metadata ptr %self.dbg.spill, metadata !3400, metadata !DIExpression()), !dbg !3404
  call void @llvm.dbg.declare(metadata ptr %self.dbg.spill, metadata !3406, metadata !DIExpression()), !dbg !3410
  call void @llvm.dbg.declare(metadata ptr %pat.dbg.spill, metadata !3398, metadata !DIExpression()), !dbg !3412
; call <F as core::str::pattern::Pattern>::into_searcher
  call void @"_ZN49_$LT$F$u20$as$u20$core..str..pattern..Pattern$GT$13into_searcher17hf3c512c081eabdf3E"(ptr sret(%"core::str::pattern::CharPredicateSearcher<'_, {closure@src/lib.rs:101:25: 101:34}>.15") align 8 %_5, ptr align 1 %self.0, i64 %self.1), !dbg !3413
  store i64 0, ptr %_3, align 8, !dbg !3414
  %1 = getelementptr inbounds i8, ptr %_3, i64 8, !dbg !3414
  store i64 %self.1, ptr %1, align 8, !dbg !3414
  %2 = getelementptr inbounds i8, ptr %_3, i64 16, !dbg !3414
  call void @llvm.memcpy.p0.p0.i64(ptr align 8 %2, ptr align 8 %_5, i64 40, i1 false), !dbg !3414
  %3 = getelementptr inbounds i8, ptr %_3, i64 56, !dbg !3414
  store i8 1, ptr %3, align 8, !dbg !3414
  %4 = getelementptr inbounds i8, ptr %_3, i64 57, !dbg !3414
  store i8 0, ptr %4, align 1, !dbg !3414
  call void @llvm.memcpy.p0.p0.i64(ptr align 8 %_0, ptr align 8 %_3, i64 64, i1 false), !dbg !3415
  ret void, !dbg !3416
}

; core::str::<impl str>::split
; Function Attrs: inlinehint uwtable
define void @"_ZN4core3str21_$LT$impl$u20$str$GT$5split17h4fd8c2b254a2266aE"(ptr sret(%"core::str::iter::Split<'_, {closure@src/lib.rs:101:25: 101:34}>.27") align 8 %_0, ptr align 1 %self.0, i64 %self.1) unnamed_addr #0 !dbg !3417 {
start:
  %pat.dbg.spill = alloca %"{closure@src/lib.rs:101:25: 101:34}.20", align 1
  %self.dbg.spill = alloca { ptr, i64 }, align 8
  %_5 = alloca %"core::str::pattern::CharPredicateSearcher<'_, {closure@src/lib.rs:101:25: 101:34}>.18", align 8
  %_3 = alloca %"core::str::iter::SplitInternal<'_, {closure@src/lib.rs:101:25: 101:34}>.28", align 8
  store ptr %self.0, ptr %self.dbg.spill, align 8
  %0 = getelementptr inbounds i8, ptr %self.dbg.spill, i64 8
  store i64 %self.1, ptr %0, align 8
  call void @llvm.dbg.declare(metadata ptr %self.dbg.spill, metadata !3433, metadata !DIExpression()), !dbg !3435
  call void @llvm.dbg.declare(metadata ptr %self.dbg.spill, metadata !3436, metadata !DIExpression()), !dbg !3440
  call void @llvm.dbg.declare(metadata ptr %self.dbg.spill, metadata !3442, metadata !DIExpression()), !dbg !3446
  call void @llvm.dbg.declare(metadata ptr %pat.dbg.spill, metadata !3434, metadata !DIExpression()), !dbg !3448
; call <F as core::str::pattern::Pattern>::into_searcher
  call void @"_ZN49_$LT$F$u20$as$u20$core..str..pattern..Pattern$GT$13into_searcher17hf98c337d8046ce82E"(ptr sret(%"core::str::pattern::CharPredicateSearcher<'_, {closure@src/lib.rs:101:25: 101:34}>.18") align 8 %_5, ptr align 1 %self.0, i64 %self.1), !dbg !3449
  store i64 0, ptr %_3, align 8, !dbg !3450
  %1 = getelementptr inbounds i8, ptr %_3, i64 8, !dbg !3450
  store i64 %self.1, ptr %1, align 8, !dbg !3450
  %2 = getelementptr inbounds i8, ptr %_3, i64 16, !dbg !3450
  call void @llvm.memcpy.p0.p0.i64(ptr align 8 %2, ptr align 8 %_5, i64 40, i1 false), !dbg !3450
  %3 = getelementptr inbounds i8, ptr %_3, i64 56, !dbg !3450
  store i8 1, ptr %3, align 8, !dbg !3450
  %4 = getelementptr inbounds i8, ptr %_3, i64 57, !dbg !3450
  store i8 0, ptr %4, align 1, !dbg !3450
  call void @llvm.memcpy.p0.p0.i64(ptr align 8 %_0, ptr align 8 %_3, i64 64, i1 false), !dbg !3451
  ret void, !dbg !3452
}

; core::str::<impl str>::split
; Function Attrs: inlinehint uwtable
define void @"_ZN4core3str21_$LT$impl$u20$str$GT$5split17h6c18486b8db3f256E"(ptr sret(%"core::str::iter::Split<'_, {closure@src/lib.rs:101:25: 101:34}>.29") align 8 %_0, ptr align 1 %self.0, i64 %self.1) unnamed_addr #0 !dbg !3453 {
start:
  %pat.dbg.spill = alloca %"{closure@src/lib.rs:101:25: 101:34}.5", align 1
  %self.dbg.spill = alloca { ptr, i64 }, align 8
  %_5 = alloca %"core::str::pattern::CharPredicateSearcher<'_, {closure@src/lib.rs:101:25: 101:34}>.3", align 8
  %_3 = alloca %"core::str::iter::SplitInternal<'_, {closure@src/lib.rs:101:25: 101:34}>.30", align 8
  store ptr %self.0, ptr %self.dbg.spill, align 8
  %0 = getelementptr inbounds i8, ptr %self.dbg.spill, i64 8
  store i64 %self.1, ptr %0, align 8
  call void @llvm.dbg.declare(metadata ptr %self.dbg.spill, metadata !3469, metadata !DIExpression()), !dbg !3471
  call void @llvm.dbg.declare(metadata ptr %self.dbg.spill, metadata !3472, metadata !DIExpression()), !dbg !3476
  call void @llvm.dbg.declare(metadata ptr %self.dbg.spill, metadata !3478, metadata !DIExpression()), !dbg !3482
  call void @llvm.dbg.declare(metadata ptr %pat.dbg.spill, metadata !3470, metadata !DIExpression()), !dbg !3484
; call <F as core::str::pattern::Pattern>::into_searcher
  call void @"_ZN49_$LT$F$u20$as$u20$core..str..pattern..Pattern$GT$13into_searcher17h9e5e3fc69de754f8E"(ptr sret(%"core::str::pattern::CharPredicateSearcher<'_, {closure@src/lib.rs:101:25: 101:34}>.3") align 8 %_5, ptr align 1 %self.0, i64 %self.1), !dbg !3485
  store i64 0, ptr %_3, align 8, !dbg !3486
  %1 = getelementptr inbounds i8, ptr %_3, i64 8, !dbg !3486
  store i64 %self.1, ptr %1, align 8, !dbg !3486
  %2 = getelementptr inbounds i8, ptr %_3, i64 16, !dbg !3486
  call void @llvm.memcpy.p0.p0.i64(ptr align 8 %2, ptr align 8 %_5, i64 40, i1 false), !dbg !3486
  %3 = getelementptr inbounds i8, ptr %_3, i64 56, !dbg !3486
  store i8 1, ptr %3, align 8, !dbg !3486
  %4 = getelementptr inbounds i8, ptr %_3, i64 57, !dbg !3486
  store i8 0, ptr %4, align 1, !dbg !3486
  call void @llvm.memcpy.p0.p0.i64(ptr align 8 %_0, ptr align 8 %_3, i64 64, i1 false), !dbg !3487
  ret void, !dbg !3488
}

; core::str::<impl str>::split
; Function Attrs: inlinehint uwtable
define void @"_ZN4core3str21_$LT$impl$u20$str$GT$5split17h7b8635112e7bc881E"(ptr sret(%"core::str::iter::Split<'_, {closure@src/lib.rs:101:25: 101:34}>.31") align 8 %_0, ptr align 1 %self.0, i64 %self.1) unnamed_addr #0 !dbg !3489 {
start:
  %pat.dbg.spill = alloca %"{closure@src/lib.rs:101:25: 101:34}.8", align 1
  %self.dbg.spill = alloca { ptr, i64 }, align 8
  %_5 = alloca %"core::str::pattern::CharPredicateSearcher<'_, {closure@src/lib.rs:101:25: 101:34}>.6", align 8
  %_3 = alloca %"core::str::iter::SplitInternal<'_, {closure@src/lib.rs:101:25: 101:34}>.32", align 8
  store ptr %self.0, ptr %self.dbg.spill, align 8
  %0 = getelementptr inbounds i8, ptr %self.dbg.spill, i64 8
  store i64 %self.1, ptr %0, align 8
  call void @llvm.dbg.declare(metadata ptr %self.dbg.spill, metadata !3505, metadata !DIExpression()), !dbg !3507
  call void @llvm.dbg.declare(metadata ptr %self.dbg.spill, metadata !3508, metadata !DIExpression()), !dbg !3512
  call void @llvm.dbg.declare(metadata ptr %self.dbg.spill, metadata !3514, metadata !DIExpression()), !dbg !3518
  call void @llvm.dbg.declare(metadata ptr %pat.dbg.spill, metadata !3506, metadata !DIExpression()), !dbg !3520
; call <F as core::str::pattern::Pattern>::into_searcher
  call void @"_ZN49_$LT$F$u20$as$u20$core..str..pattern..Pattern$GT$13into_searcher17hb4755c99d598195eE"(ptr sret(%"core::str::pattern::CharPredicateSearcher<'_, {closure@src/lib.rs:101:25: 101:34}>.6") align 8 %_5, ptr align 1 %self.0, i64 %self.1), !dbg !3521
  store i64 0, ptr %_3, align 8, !dbg !3522
  %1 = getelementptr inbounds i8, ptr %_3, i64 8, !dbg !3522
  store i64 %self.1, ptr %1, align 8, !dbg !3522
  %2 = getelementptr inbounds i8, ptr %_3, i64 16, !dbg !3522
  call void @llvm.memcpy.p0.p0.i64(ptr align 8 %2, ptr align 8 %_5, i64 40, i1 false), !dbg !3522
  %3 = getelementptr inbounds i8, ptr %_3, i64 56, !dbg !3522
  store i8 1, ptr %3, align 8, !dbg !3522
  %4 = getelementptr inbounds i8, ptr %_3, i64 57, !dbg !3522
  store i8 0, ptr %4, align 1, !dbg !3522
  call void @llvm.memcpy.p0.p0.i64(ptr align 8 %_0, ptr align 8 %_3, i64 64, i1 false), !dbg !3523
  ret void, !dbg !3524
}

; core::str::<impl str>::split
; Function Attrs: inlinehint uwtable
define void @"_ZN4core3str21_$LT$impl$u20$str$GT$5split17h9578b4861eb0f78eE"(ptr sret(%"core::str::iter::Split<'_, {closure@src/lib.rs:101:25: 101:34}>.33") align 8 %_0, ptr align 1 %self.0, i64 %self.1) unnamed_addr #0 !dbg !3525 {
start:
  %pat.dbg.spill = alloca %"{closure@src/lib.rs:101:25: 101:34}.14", align 1
  %self.dbg.spill = alloca { ptr, i64 }, align 8
  %_5 = alloca %"core::str::pattern::CharPredicateSearcher<'_, {closure@src/lib.rs:101:25: 101:34}>.12", align 8
  %_3 = alloca %"core::str::iter::SplitInternal<'_, {closure@src/lib.rs:101:25: 101:34}>.34", align 8
  store ptr %self.0, ptr %self.dbg.spill, align 8
  %0 = getelementptr inbounds i8, ptr %self.dbg.spill, i64 8
  store i64 %self.1, ptr %0, align 8
  call void @llvm.dbg.declare(metadata ptr %self.dbg.spill, metadata !3541, metadata !DIExpression()), !dbg !3543
  call void @llvm.dbg.declare(metadata ptr %self.dbg.spill, metadata !3544, metadata !DIExpression()), !dbg !3548
  call void @llvm.dbg.declare(metadata ptr %self.dbg.spill, metadata !3550, metadata !DIExpression()), !dbg !3554
  call void @llvm.dbg.declare(metadata ptr %pat.dbg.spill, metadata !3542, metadata !DIExpression()), !dbg !3556
; call <F as core::str::pattern::Pattern>::into_searcher
  call void @"_ZN49_$LT$F$u20$as$u20$core..str..pattern..Pattern$GT$13into_searcher17hcd5cb523b7bba0f0E"(ptr sret(%"core::str::pattern::CharPredicateSearcher<'_, {closure@src/lib.rs:101:25: 101:34}>.12") align 8 %_5, ptr align 1 %self.0, i64 %self.1), !dbg !3557
  store i64 0, ptr %_3, align 8, !dbg !3558
  %1 = getelementptr inbounds i8, ptr %_3, i64 8, !dbg !3558
  store i64 %self.1, ptr %1, align 8, !dbg !3558
  %2 = getelementptr inbounds i8, ptr %_3, i64 16, !dbg !3558
  call void @llvm.memcpy.p0.p0.i64(ptr align 8 %2, ptr align 8 %_5, i64 40, i1 false), !dbg !3558
  %3 = getelementptr inbounds i8, ptr %_3, i64 56, !dbg !3558
  store i8 1, ptr %3, align 8, !dbg !3558
  %4 = getelementptr inbounds i8, ptr %_3, i64 57, !dbg !3558
  store i8 0, ptr %4, align 1, !dbg !3558
  call void @llvm.memcpy.p0.p0.i64(ptr align 8 %_0, ptr align 8 %_3, i64 64, i1 false), !dbg !3559
  ret void, !dbg !3560
}

; core::str::iter::SplitInternal<P>::next
; Function Attrs: inlinehint uwtable
define { ptr, i64 } @"_ZN4core3str4iter22SplitInternal$LT$P$GT$4next17h0be5f8b88a0aa053E"(ptr align 8 %self) unnamed_addr #0 !dbg !3561 {
start:
  %elt.dbg.spill = alloca { ptr, i64 }, align 8
  %b.dbg.spill = alloca i64, align 8
  %a.dbg.spill = alloca i64, align 8
  %haystack.dbg.spill = alloca { ptr, i64 }, align 8
  %self.dbg.spill = alloca ptr, align 8
  %i = alloca %"core::ops::range::Range<usize>", align 8
  %_5 = alloca %"core::option::Option<(usize, usize)>", align 8
  %_0 = alloca %"core::option::Option<&str>", align 8
  store ptr %self, ptr %self.dbg.spill, align 8
  call void @llvm.dbg.declare(metadata ptr %self.dbg.spill, metadata !3568, metadata !DIExpression()), !dbg !3580
  call void @llvm.dbg.declare(metadata ptr %i, metadata !3581, metadata !DIExpression()), !dbg !3590
  %0 = getelementptr inbounds i8, ptr %self, i64 57, !dbg !3592
  %1 = load i8, ptr %0, align 1, !dbg !3592, !range !746, !noundef !44
  %_2 = trunc i8 %1 to i1, !dbg !3592
  br i1 %_2, label %bb1, label %bb2, !dbg !3592

bb2:                                              ; preds = %start
  %_4 = getelementptr inbounds i8, ptr %self, i64 16, !dbg !3593
; call <core::str::pattern::CharPredicateSearcher<F> as core::str::pattern::Searcher>::haystack
  %2 = call { ptr, i64 } @"_ZN99_$LT$core..str..pattern..CharPredicateSearcher$LT$F$GT$$u20$as$u20$core..str..pattern..Searcher$GT$8haystack17he24a768cebb39358E"(ptr align 8 %_4), !dbg !3593
  %haystack.0 = extractvalue { ptr, i64 } %2, 0, !dbg !3593
  %haystack.1 = extractvalue { ptr, i64 } %2, 1, !dbg !3593
  store ptr %haystack.0, ptr %haystack.dbg.spill, align 8, !dbg !3593
  %3 = getelementptr inbounds i8, ptr %haystack.dbg.spill, i64 8, !dbg !3593
  store i64 %haystack.1, ptr %3, align 8, !dbg !3593
  call void @llvm.dbg.declare(metadata ptr %haystack.dbg.spill, metadata !3569, metadata !DIExpression()), !dbg !3594
  call void @llvm.dbg.declare(metadata ptr %haystack.dbg.spill, metadata !3587, metadata !DIExpression()), !dbg !3595
  %_6 = getelementptr inbounds i8, ptr %self, i64 16, !dbg !3596
; call <core::str::pattern::CharPredicateSearcher<F> as core::str::pattern::Searcher>::next_match
  call void @"_ZN99_$LT$core..str..pattern..CharPredicateSearcher$LT$F$GT$$u20$as$u20$core..str..pattern..Searcher$GT$10next_match17h98ad5e6d3658b85bE"(ptr sret(%"core::option::Option<(usize, usize)>") align 8 %_5, ptr align 8 %_6), !dbg !3596
  %_7 = load i64, ptr %_5, align 8, !dbg !3596, !range !828, !noundef !44
  %4 = icmp eq i64 %_7, 0, !dbg !3597
  br i1 %4, label %bb6, label %bb7, !dbg !3597

bb1:                                              ; preds = %start
  %5 = load ptr, ptr @0, align 8, !dbg !3598, !align !2565, !noundef !44
  %6 = load i64, ptr getelementptr inbounds (i8, ptr @0, i64 8), align 8, !dbg !3598
  store ptr %5, ptr %_0, align 8, !dbg !3598
  %7 = getelementptr inbounds i8, ptr %_0, i64 8, !dbg !3598
  store i64 %6, ptr %7, align 8, !dbg !3598
  br label %bb9, !dbg !3599

bb6:                                              ; preds = %bb2
; call core::str::iter::SplitInternal<P>::get_end
  %8 = call { ptr, i64 } @"_ZN4core3str4iter22SplitInternal$LT$P$GT$7get_end17he5ff92120c4fdfe7E"(ptr align 8 %self), !dbg !3600
  %9 = extractvalue { ptr, i64 } %8, 0, !dbg !3600
  %10 = extractvalue { ptr, i64 } %8, 1, !dbg !3600
  store ptr %9, ptr %_0, align 8, !dbg !3600
  %11 = getelementptr inbounds i8, ptr %_0, i64 8, !dbg !3600
  store i64 %10, ptr %11, align 8, !dbg !3600
  br label %bb8, !dbg !3600

bb7:                                              ; preds = %bb2
  %12 = getelementptr inbounds i8, ptr %_5, i64 8, !dbg !3601
  %a = load i64, ptr %12, align 8, !dbg !3601, !noundef !44
  store i64 %a, ptr %a.dbg.spill, align 8, !dbg !3601
  call void @llvm.dbg.declare(metadata ptr %a.dbg.spill, metadata !3571, metadata !DIExpression()), !dbg !3602
  %13 = getelementptr inbounds i8, ptr %_5, i64 8, !dbg !3603
  %14 = getelementptr inbounds i8, ptr %13, i64 8, !dbg !3603
  %b = load i64, ptr %14, align 8, !dbg !3603, !noundef !44
  store i64 %b, ptr %b.dbg.spill, align 8, !dbg !3603
  call void @llvm.dbg.declare(metadata ptr %b.dbg.spill, metadata !3573, metadata !DIExpression()), !dbg !3604
  %_11 = load i64, ptr %self, align 8, !dbg !3605, !noundef !44
  store i64 %_11, ptr %i, align 8, !dbg !3605
  %15 = getelementptr inbounds i8, ptr %i, i64 8, !dbg !3605
  store i64 %a, ptr %15, align 8, !dbg !3605
  %16 = load i64, ptr %i, align 8, !dbg !3606, !noundef !44
  %17 = getelementptr inbounds i8, ptr %i, i64 8, !dbg !3606
  %18 = load i64, ptr %17, align 8, !dbg !3606, !noundef !44
; call core::str::traits::<impl core::slice::index::SliceIndex<str> for core::ops::range::Range<usize>>::get_unchecked
  %19 = call { ptr, i64 } @"_ZN4core3str6traits108_$LT$impl$u20$core..slice..index..SliceIndex$LT$str$GT$$u20$for$u20$core..ops..range..Range$LT$usize$GT$$GT$13get_unchecked17hbc021224bda3f21fE"(i64 %16, i64 %18, ptr %haystack.0, i64 %haystack.1), !dbg !3606
  %elt.0 = extractvalue { ptr, i64 } %19, 0, !dbg !3606
  %elt.1 = extractvalue { ptr, i64 } %19, 1, !dbg !3606
  store ptr %elt.0, ptr %elt.dbg.spill, align 8, !dbg !3606
  %20 = getelementptr inbounds i8, ptr %elt.dbg.spill, i64 8, !dbg !3606
  store i64 %elt.1, ptr %20, align 8, !dbg !3606
  call void @llvm.dbg.declare(metadata ptr %elt.dbg.spill, metadata !3574, metadata !DIExpression()), !dbg !3607
  store i64 %b, ptr %self, align 8, !dbg !3608
  store ptr %elt.0, ptr %_0, align 8, !dbg !3609
  %21 = getelementptr inbounds i8, ptr %_0, i64 8, !dbg !3609
  store i64 %elt.1, ptr %21, align 8, !dbg !3609
  br label %bb8, !dbg !3610

bb8:                                              ; preds = %bb7, %bb6
  br label %bb9, !dbg !3599

bb9:                                              ; preds = %bb1, %bb8
  %22 = load ptr, ptr %_0, align 8, !dbg !3599, !align !2565, !noundef !44
  %23 = getelementptr inbounds i8, ptr %_0, i64 8, !dbg !3599
  %24 = load i64, ptr %23, align 8, !dbg !3599
  %25 = insertvalue { ptr, i64 } poison, ptr %22, 0, !dbg !3599
  %26 = insertvalue { ptr, i64 } %25, i64 %24, 1, !dbg !3599
  ret { ptr, i64 } %26, !dbg !3599

bb5:                                              ; No predecessors!
  unreachable, !dbg !3596
}

; core::str::iter::SplitInternal<P>::next
; Function Attrs: inlinehint uwtable
define { ptr, i64 } @"_ZN4core3str4iter22SplitInternal$LT$P$GT$4next17h1b4fe7e1520902b0E"(ptr align 8 %self) unnamed_addr #0 !dbg !3611 {
start:
  %elt.dbg.spill = alloca { ptr, i64 }, align 8
  %b.dbg.spill = alloca i64, align 8
  %a.dbg.spill = alloca i64, align 8
  %haystack.dbg.spill = alloca { ptr, i64 }, align 8
  %self.dbg.spill = alloca ptr, align 8
  %i = alloca %"core::ops::range::Range<usize>", align 8
  %_5 = alloca %"core::option::Option<(usize, usize)>", align 8
  %_0 = alloca %"core::option::Option<&str>", align 8
  store ptr %self, ptr %self.dbg.spill, align 8
  call void @llvm.dbg.declare(metadata ptr %self.dbg.spill, metadata !3617, metadata !DIExpression()), !dbg !3625
  call void @llvm.dbg.declare(metadata ptr %i, metadata !3626, metadata !DIExpression()), !dbg !3631
  %0 = getelementptr inbounds i8, ptr %self, i64 57, !dbg !3633
  %1 = load i8, ptr %0, align 1, !dbg !3633, !range !746, !noundef !44
  %_2 = trunc i8 %1 to i1, !dbg !3633
  br i1 %_2, label %bb1, label %bb2, !dbg !3633

bb2:                                              ; preds = %start
  %_4 = getelementptr inbounds i8, ptr %self, i64 16, !dbg !3634
; call <core::str::pattern::CharPredicateSearcher<F> as core::str::pattern::Searcher>::haystack
  %2 = call { ptr, i64 } @"_ZN99_$LT$core..str..pattern..CharPredicateSearcher$LT$F$GT$$u20$as$u20$core..str..pattern..Searcher$GT$8haystack17hc3ac855daaf85bfcE"(ptr align 8 %_4), !dbg !3634
  %haystack.0 = extractvalue { ptr, i64 } %2, 0, !dbg !3634
  %haystack.1 = extractvalue { ptr, i64 } %2, 1, !dbg !3634
  store ptr %haystack.0, ptr %haystack.dbg.spill, align 8, !dbg !3634
  %3 = getelementptr inbounds i8, ptr %haystack.dbg.spill, i64 8, !dbg !3634
  store i64 %haystack.1, ptr %3, align 8, !dbg !3634
  call void @llvm.dbg.declare(metadata ptr %haystack.dbg.spill, metadata !3618, metadata !DIExpression()), !dbg !3635
  call void @llvm.dbg.declare(metadata ptr %haystack.dbg.spill, metadata !3630, metadata !DIExpression()), !dbg !3636
  %_6 = getelementptr inbounds i8, ptr %self, i64 16, !dbg !3637
; call <core::str::pattern::CharPredicateSearcher<F> as core::str::pattern::Searcher>::next_match
  call void @"_ZN99_$LT$core..str..pattern..CharPredicateSearcher$LT$F$GT$$u20$as$u20$core..str..pattern..Searcher$GT$10next_match17h80eb7a4593f1b14cE"(ptr sret(%"core::option::Option<(usize, usize)>") align 8 %_5, ptr align 8 %_6), !dbg !3637
  %_7 = load i64, ptr %_5, align 8, !dbg !3637, !range !828, !noundef !44
  %4 = icmp eq i64 %_7, 0, !dbg !3638
  br i1 %4, label %bb6, label %bb7, !dbg !3638

bb1:                                              ; preds = %start
  %5 = load ptr, ptr @0, align 8, !dbg !3639, !align !2565, !noundef !44
  %6 = load i64, ptr getelementptr inbounds (i8, ptr @0, i64 8), align 8, !dbg !3639
  store ptr %5, ptr %_0, align 8, !dbg !3639
  %7 = getelementptr inbounds i8, ptr %_0, i64 8, !dbg !3639
  store i64 %6, ptr %7, align 8, !dbg !3639
  br label %bb9, !dbg !3640

bb6:                                              ; preds = %bb2
; call core::str::iter::SplitInternal<P>::get_end
  %8 = call { ptr, i64 } @"_ZN4core3str4iter22SplitInternal$LT$P$GT$7get_end17h912dd08dcdc60287E"(ptr align 8 %self), !dbg !3641
  %9 = extractvalue { ptr, i64 } %8, 0, !dbg !3641
  %10 = extractvalue { ptr, i64 } %8, 1, !dbg !3641
  store ptr %9, ptr %_0, align 8, !dbg !3641
  %11 = getelementptr inbounds i8, ptr %_0, i64 8, !dbg !3641
  store i64 %10, ptr %11, align 8, !dbg !3641
  br label %bb8, !dbg !3641

bb7:                                              ; preds = %bb2
  %12 = getelementptr inbounds i8, ptr %_5, i64 8, !dbg !3642
  %a = load i64, ptr %12, align 8, !dbg !3642, !noundef !44
  store i64 %a, ptr %a.dbg.spill, align 8, !dbg !3642
  call void @llvm.dbg.declare(metadata ptr %a.dbg.spill, metadata !3620, metadata !DIExpression()), !dbg !3643
  %13 = getelementptr inbounds i8, ptr %_5, i64 8, !dbg !3644
  %14 = getelementptr inbounds i8, ptr %13, i64 8, !dbg !3644
  %b = load i64, ptr %14, align 8, !dbg !3644, !noundef !44
  store i64 %b, ptr %b.dbg.spill, align 8, !dbg !3644
  call void @llvm.dbg.declare(metadata ptr %b.dbg.spill, metadata !3622, metadata !DIExpression()), !dbg !3645
  %_11 = load i64, ptr %self, align 8, !dbg !3646, !noundef !44
  store i64 %_11, ptr %i, align 8, !dbg !3646
  %15 = getelementptr inbounds i8, ptr %i, i64 8, !dbg !3646
  store i64 %a, ptr %15, align 8, !dbg !3646
  %16 = load i64, ptr %i, align 8, !dbg !3647, !noundef !44
  %17 = getelementptr inbounds i8, ptr %i, i64 8, !dbg !3647
  %18 = load i64, ptr %17, align 8, !dbg !3647, !noundef !44
; call core::str::traits::<impl core::slice::index::SliceIndex<str> for core::ops::range::Range<usize>>::get_unchecked
  %19 = call { ptr, i64 } @"_ZN4core3str6traits108_$LT$impl$u20$core..slice..index..SliceIndex$LT$str$GT$$u20$for$u20$core..ops..range..Range$LT$usize$GT$$GT$13get_unchecked17hbc021224bda3f21fE"(i64 %16, i64 %18, ptr %haystack.0, i64 %haystack.1), !dbg !3647
  %elt.0 = extractvalue { ptr, i64 } %19, 0, !dbg !3647
  %elt.1 = extractvalue { ptr, i64 } %19, 1, !dbg !3647
  store ptr %elt.0, ptr %elt.dbg.spill, align 8, !dbg !3647
  %20 = getelementptr inbounds i8, ptr %elt.dbg.spill, i64 8, !dbg !3647
  store i64 %elt.1, ptr %20, align 8, !dbg !3647
  call void @llvm.dbg.declare(metadata ptr %elt.dbg.spill, metadata !3623, metadata !DIExpression()), !dbg !3648
  store i64 %b, ptr %self, align 8, !dbg !3649
  store ptr %elt.0, ptr %_0, align 8, !dbg !3650
  %21 = getelementptr inbounds i8, ptr %_0, i64 8, !dbg !3650
  store i64 %elt.1, ptr %21, align 8, !dbg !3650
  br label %bb8, !dbg !3651

bb8:                                              ; preds = %bb7, %bb6
  br label %bb9, !dbg !3640

bb9:                                              ; preds = %bb1, %bb8
  %22 = load ptr, ptr %_0, align 8, !dbg !3640, !align !2565, !noundef !44
  %23 = getelementptr inbounds i8, ptr %_0, i64 8, !dbg !3640
  %24 = load i64, ptr %23, align 8, !dbg !3640
  %25 = insertvalue { ptr, i64 } poison, ptr %22, 0, !dbg !3640
  %26 = insertvalue { ptr, i64 } %25, i64 %24, 1, !dbg !3640
  ret { ptr, i64 } %26, !dbg !3640

bb5:                                              ; No predecessors!
  unreachable, !dbg !3637
}

; core::str::iter::SplitInternal<P>::next
; Function Attrs: inlinehint uwtable
define { ptr, i64 } @"_ZN4core3str4iter22SplitInternal$LT$P$GT$4next17h643d222b0025ee28E"(ptr align 8 %self) unnamed_addr #0 !dbg !3652 {
start:
  %elt.dbg.spill = alloca { ptr, i64 }, align 8
  %b.dbg.spill = alloca i64, align 8
  %a.dbg.spill = alloca i64, align 8
  %haystack.dbg.spill = alloca { ptr, i64 }, align 8
  %self.dbg.spill = alloca ptr, align 8
  %i = alloca %"core::ops::range::Range<usize>", align 8
  %_5 = alloca %"core::option::Option<(usize, usize)>", align 8
  %_0 = alloca %"core::option::Option<&str>", align 8
  store ptr %self, ptr %self.dbg.spill, align 8
  call void @llvm.dbg.declare(metadata ptr %self.dbg.spill, metadata !3658, metadata !DIExpression()), !dbg !3666
  call void @llvm.dbg.declare(metadata ptr %i, metadata !3667, metadata !DIExpression()), !dbg !3672
  %0 = getelementptr inbounds i8, ptr %self, i64 57, !dbg !3674
  %1 = load i8, ptr %0, align 1, !dbg !3674, !range !746, !noundef !44
  %_2 = trunc i8 %1 to i1, !dbg !3674
  br i1 %_2, label %bb1, label %bb2, !dbg !3674

bb2:                                              ; preds = %start
  %_4 = getelementptr inbounds i8, ptr %self, i64 16, !dbg !3675
; call <core::str::pattern::CharPredicateSearcher<F> as core::str::pattern::Searcher>::haystack
  %2 = call { ptr, i64 } @"_ZN99_$LT$core..str..pattern..CharPredicateSearcher$LT$F$GT$$u20$as$u20$core..str..pattern..Searcher$GT$8haystack17he10ebbd4bd1248ebE"(ptr align 8 %_4), !dbg !3675
  %haystack.0 = extractvalue { ptr, i64 } %2, 0, !dbg !3675
  %haystack.1 = extractvalue { ptr, i64 } %2, 1, !dbg !3675
  store ptr %haystack.0, ptr %haystack.dbg.spill, align 8, !dbg !3675
  %3 = getelementptr inbounds i8, ptr %haystack.dbg.spill, i64 8, !dbg !3675
  store i64 %haystack.1, ptr %3, align 8, !dbg !3675
  call void @llvm.dbg.declare(metadata ptr %haystack.dbg.spill, metadata !3659, metadata !DIExpression()), !dbg !3676
  call void @llvm.dbg.declare(metadata ptr %haystack.dbg.spill, metadata !3671, metadata !DIExpression()), !dbg !3677
  %_6 = getelementptr inbounds i8, ptr %self, i64 16, !dbg !3678
; call <core::str::pattern::CharPredicateSearcher<F> as core::str::pattern::Searcher>::next_match
  call void @"_ZN99_$LT$core..str..pattern..CharPredicateSearcher$LT$F$GT$$u20$as$u20$core..str..pattern..Searcher$GT$10next_match17hed92a8434e83af5cE"(ptr sret(%"core::option::Option<(usize, usize)>") align 8 %_5, ptr align 8 %_6), !dbg !3678
  %_7 = load i64, ptr %_5, align 8, !dbg !3678, !range !828, !noundef !44
  %4 = icmp eq i64 %_7, 0, !dbg !3679
  br i1 %4, label %bb6, label %bb7, !dbg !3679

bb1:                                              ; preds = %start
  %5 = load ptr, ptr @0, align 8, !dbg !3680, !align !2565, !noundef !44
  %6 = load i64, ptr getelementptr inbounds (i8, ptr @0, i64 8), align 8, !dbg !3680
  store ptr %5, ptr %_0, align 8, !dbg !3680
  %7 = getelementptr inbounds i8, ptr %_0, i64 8, !dbg !3680
  store i64 %6, ptr %7, align 8, !dbg !3680
