; ModuleID = '4w3s44uaw6tjami3'
source_filename = "4w3s44uaw6tjami3"
target datalayout = "e-m:o-i64:64-i128:128-n32:64-S128"
target triple = "arm64-apple-macosx11.0.0"

%"core::ops::range::Range<usize>" = type { i64, i64 }
%"core::ptr::metadata::PtrComponents<[usize]>" = type { ptr, i64 }
%"core::ptr::metadata::PtrRepr<[usize]>" = type { [2 x i64] }
%"core::option::Option<core::convert::Infallible>::None" = type {}
%"core::ops::control_flow::ControlFlow<core::option::Option<core::convert::Infallible>, usize>" = type { i64, [1 x i64] }
%"core::option::Option<usize>" = type { i64, [1 x i64] }
%"{closure@src/permutations.rs:163:58: 163:66}" = type {}
%"{closure@src/combinations.rs:189:53: 189:67}" = type { ptr, ptr }
%"{closure@<core::iter::adapters::enumerate::Enumerate<I> as core::iter::traits::iterator::Iterator>::try_fold::enumerate<'_, &usize, usize, core::option::Option<usize>, {closure@src/combinations.rs:189:53: 189:67}>::{closure#0}}" = type { %"{closure@src/combinations.rs:189:53: 189:67}", ptr }
%"{closure@<core::iter::adapters::enumerate::Enumerate<I> as core::iter::traits::iterator::Iterator>::try_fold::enumerate<'_, &usize, usize, core::option::Option<usize>, {closure@src/permutations.rs:177:72: 177:86}>::{closure#0}}" = type { ptr, ptr }
%"{closure@<core::iter::adapters::enumerate::Enumerate<I> as core::iter::traits::iterator::Iterator>::try_fold::enumerate<'_, &usize, usize, core::option::Option<usize>, {closure@src/combinations_with_replacement.rs:168:53: 168:67}>::{closure#0}}" = type { %"{closure@src/combinations_with_replacement.rs:168:53: 168:67}", ptr }
%"{closure@src/combinations_with_replacement.rs:168:53: 168:67}" = type { ptr, ptr, ptr }
%"core::fmt::Arguments<'_>" = type { { ptr, i64 }, { ptr, i64 }, %"core::option::Option<&[core::fmt::rt::Placeholder]>" }
%"core::option::Option<&[core::fmt::rt::Placeholder]>" = type { ptr, [1 x i64] }
%"core::ops::range::RangeInclusive<usize>" = type { i64, i64, i8, [7 x i8] }
%"core::iter::adapters::rev::Rev<core::ops::range::Range<usize>>" = type { %"core::ops::range::Range<usize>" }
%"core::iter::adapters::enumerate::Enumerate<core::slice::iter::Iter<'_, usize>>" = type { %"core::slice::iter::Iter<'_, usize>", i64 }
%"core::slice::iter::Iter<'_, usize>" = type { ptr, ptr, %"core::marker::PhantomData<&usize>" }
%"core::marker::PhantomData<&usize>" = type {}
%"core::ptr::non_null::NonNull<[usize]>" = type { { ptr, i64 } }
%"core::mem::maybe_uninit::MaybeUninit<([usize; 32], [usize; 0])>" = type { [32 x i64] }
%"{closure@src/combinations_with_replacement.rs:138:17: 138:37}" = type {}
%"{closure@src/permutations.rs:161:24: 161:30}" = type {}
%"core::option::Option<core::fmt::Arguments<'_>>" = type { ptr, [5 x i64] }

@alloc_8bc4d99c9de504799214701ea609a64b = private unnamed_addr constant <{ [68 x i8] }> <{ [68 x i8] c"slice::get_unchecked_mut requires that the range is within the slice" }>, align 1
@alloc_a5869cf5c211a4021ad47df57f69cf0d = private unnamed_addr constant <{ [91 x i8] }> <{ [91 x i8] c"/rustc/46b180ec2452d388c5d9c14009442e2e0beb01d7/library/core/src/iter/adapters/enumerate.rs" }>, align 1
@alloc_ca61f256367d8768c8a303e30b504f48 = private unnamed_addr constant <{ ptr, [16 x i8] }> <{ ptr @alloc_a5869cf5c211a4021ad47df57f69cf0d, [16 x i8] c"[\00\00\00\00\00\00\00W\00\00\00\11\00\00\00" }>, align 8
@str.0 = internal unnamed_addr constant [28 x i8] c"attempt to add with overflow"
@alloc_763310d78c99c2c1ad3f8a9821e942f3 = private unnamed_addr constant <{ [61 x i8] }> <{ [61 x i8] c"is_nonoverlapping: `size_of::<T>() * count` overflows a usize" }>, align 1
@alloc_8df0580a595a87d56789d20c7318e185 = private unnamed_addr constant <{ [166 x i8] }> <{ [166 x i8] c"unsafe precondition(s) violated: ptr::copy_nonoverlapping requires that both pointer arguments are aligned and non-null and the specified memory ranges do not overlap" }>, align 1
@alloc_fad0cd83b7d1858a846a172eb260e593 = private unnamed_addr constant <{ [42 x i8] }> <{ [42 x i8] c"is_aligned_to: align is not a power-of-two" }>, align 1
@alloc_041983ee8170efdaaf95ba67fd072d26 = private unnamed_addr constant <{ ptr, [8 x i8] }> <{ ptr @alloc_fad0cd83b7d1858a846a172eb260e593, [8 x i8] c"*\00\00\00\00\00\00\00" }>, align 8
@alloc_513570631223a12912d85da2bec3b15a = private unnamed_addr constant <{}> zeroinitializer, align 8
@0 = private unnamed_addr constant <{ [8 x i8], [8 x i8] }> <{ [8 x i8] zeroinitializer, [8 x i8] undef }>, align 8
@alloc_f1802761b0cba8787ff63a6853b741ad = private unnamed_addr constant <{ [81 x i8] }> <{ [81 x i8] c"/rustc/46b180ec2452d388c5d9c14009442e2e0beb01d7/library/core/src/ptr/const_ptr.rs" }>, align 1
@alloc_33f991fa5bbac1da9d8a778b0f014caf = private unnamed_addr constant <{ ptr, [16 x i8] }> <{ ptr @alloc_f1802761b0cba8787ff63a6853b741ad, [16 x i8] c"Q\00\00\00\00\00\00\00T\06\00\00\0D\00\00\00" }>, align 8
@alloc_546a48d82dbbd37bfd409d4513b73f46 = private unnamed_addr constant <{ [166 x i8] }> <{ [166 x i8] c"unsafe precondition(s) violated: ptr::swap_nonoverlapping requires that both pointer arguments are aligned and non-null and the specified memory ranges do not overlap" }>, align 1
@alloc_ea6621cdd6914f24c3ab8fcf458cbc5c = private unnamed_addr constant <{ [104 x i8] }> <{ [104 x i8] c"unsafe precondition(s) violated: ptr::replace requires that the pointer argument is aligned and non-null" }>, align 1
@alloc_fddaeef1fe1a23c45402ef8f58614acb = private unnamed_addr constant <{ [35 x i8] }> <{ [35 x i8] c"assertion failed: mid <= self.len()" }>, align 1
@alloc_96d8bf47b8f8068abd4a6033285d2d72 = private unnamed_addr constant <{ [77 x i8] }> <{ [77 x i8] c"/rustc/46b180ec2452d388c5d9c14009442e2e0beb01d7/library/core/src/slice/mod.rs" }>, align 1
@alloc_c39d069578c8b1b3f29c68f4201efae1 = private unnamed_addr constant <{ ptr, [16 x i8] }> <{ ptr @alloc_96d8bf47b8f8068abd4a6033285d2d72, [16 x i8] c"M\00\00\00\00\00\00\00I\0D\00\00\09\00\00\00" }>, align 8
@vtable.1 = private constant <{ ptr, [16 x i8], ptr }> <{ ptr @"_ZN4core3ptr30drop_in_place$LT$$RF$usize$GT$17h11529856a2db493eE", [16 x i8] c"\08\00\00\00\00\00\00\00\08\00\00\00\00\00\00\00", ptr @"_ZN42_$LT$$RF$T$u20$as$u20$core..fmt..Debug$GT$3fmt17h06f73833bcf43dd8E" }>, align 8, !dbg !0
@alloc_10cde1fcafb2461c082e2dae3f64694c = private unnamed_addr constant <{ [19 x i8] }> <{ [19 x i8] c"src/adaptors/mod.rs" }>, align 1
@alloc_2e275a44d1e216c8142279a14c067936 = private unnamed_addr constant <{ ptr, [16 x i8] }> <{ ptr @alloc_10cde1fcafb2461c082e2dae3f64694c, [16 x i8] c"\13\00\00\00\00\00\00\00?\03\00\00\09\00\00\00" }>, align 8
@str.2 = internal unnamed_addr constant [33 x i8] c"attempt to subtract with overflow"
@alloc_fd2b31f9b42221b97d0b602fe5c7af66 = private unnamed_addr constant <{ ptr, [16 x i8] }> <{ ptr @alloc_10cde1fcafb2461c082e2dae3f64694c, [16 x i8] c"\13\00\00\00\00\00\00\00B\03\00\00\0D\00\00\00" }>, align 8
@str.3 = internal unnamed_addr constant [25 x i8] c"attempt to divide by zero"
@alloc_8a8114662aff99b61ff13c7beac94afc = private unnamed_addr constant <{ ptr, [16 x i8] }> <{ ptr @alloc_10cde1fcafb2461c082e2dae3f64694c, [16 x i8] c"\13\00\00\00\00\00\00\00D\03\00\00\1A\00\00\00" }>, align 8
@str.4 = internal unnamed_addr constant [57 x i8] c"attempt to calculate the remainder with a divisor of zero"
@alloc_639fb0d176b2e3ee1ed5fbc2414b99be = private unnamed_addr constant <{ ptr, [16 x i8] }> <{ ptr @alloc_10cde1fcafb2461c082e2dae3f64694c, [16 x i8] c"\13\00\00\00\00\00\00\00E\03\00\00\09\00\00\00" }>, align 8
@alloc_a2893379222c182a75a45f5e9d1ab941 = private unnamed_addr constant <{ [19 x i8] }> <{ [19 x i8] c"src/combinations.rs" }>, align 1
@alloc_f0e1afb0411be5a8616a76150b985fdf = private unnamed_addr constant <{ ptr, [16 x i8] }> <{ ptr @alloc_a2893379222c182a75a45f5e9d1ab941, [16 x i8] c"\13\00\00\00\00\00\00\00\BE\00\00\00.\00\00\00" }>, align 8
@alloc_8eb4f397ff55b2bc6f838e309aba26dd = private unnamed_addr constant <{ ptr, [16 x i8] }> <{ ptr @alloc_a2893379222c182a75a45f5e9d1ab941, [16 x i8] c"\13\00\00\00\00\00\00\00\BE\00\00\00;\00\00\00" }>, align 8
@alloc_be3d313b6aeed90c2b2553742bf2978a = private unnamed_addr constant <{ [36 x i8] }> <{ [36 x i8] c"src/combinations_with_replacement.rs" }>, align 1
@alloc_e85c063736fcc8199c160fe1615c67c5 = private unnamed_addr constant <{ ptr, [16 x i8] }> <{ ptr @alloc_be3d313b6aeed90c2b2553742bf2978a, [16 x i8] c"$\00\00\00\00\00\00\00\8E\00\00\00\0D\00\00\00" }>, align 8
@alloc_1b777212a2d3404f0777e1c582089545 = private unnamed_addr constant <{ ptr, [16 x i8] }> <{ ptr @alloc_be3d313b6aeed90c2b2553742bf2978a, [16 x i8] c"$\00\00\00\00\00\00\00\A9\00\00\00#\00\00\00" }>, align 8
@alloc_d01e3f0e473ef930c78a58ce54768520 = private unnamed_addr constant <{ ptr, [16 x i8] }> <{ ptr @alloc_be3d313b6aeed90c2b2553742bf2978a, [16 x i8] c"$\00\00\00\00\00\00\00\A9\00\00\000\00\00\00" }>, align 8
@alloc_1fddd313dd45c2ef6fed5f138b401526 = private unnamed_addr constant <{ [19 x i8] }> <{ [19 x i8] c"src/permutations.rs" }>, align 1
@alloc_e957faa9099ef4ebc202a4a73d7356c9 = private unnamed_addr constant <{ ptr, [16 x i8] }> <{ ptr @alloc_1fddd313dd45c2ef6fed5f138b401526, [16 x i8] c"\13\00\00\00\00\00\00\00\91\00\00\00\0C\00\00\00" }>, align 8
@alloc_4f08dec29e6d01f8737a2222bc886bae = private unnamed_addr constant <{ ptr, [16 x i8] }> <{ ptr @alloc_1fddd313dd45c2ef6fed5f138b401526, [16 x i8] c"\13\00\00\00\00\00\00\00\92\00\00\00\19\00\00\00" }>, align 8
@alloc_dcbea2fd3df4e880bbb8acd1403dcff6 = private unnamed_addr constant <{ ptr, [16 x i8] }> <{ ptr @alloc_1fddd313dd45c2ef6fed5f138b401526, [16 x i8] c"\13\00\00\00\00\00\00\00\92\00\00\00\0D\00\00\00" }>, align 8
@alloc_d6719f17d938e1411a1a9f68a0f6376b = private unnamed_addr constant <{ ptr, [16 x i8] }> <{ ptr @alloc_1fddd313dd45c2ef6fed5f138b401526, [16 x i8] c"\13\00\00\00\00\00\00\00\93\00\00\00\14\00\00\00" }>, align 8
@alloc_0a982896ed1c4e877a7b53d9303e785a = private unnamed_addr constant <{ ptr, [16 x i8] }> <{ ptr @alloc_1fddd313dd45c2ef6fed5f138b401526, [16 x i8] c"\13\00\00\00\00\00\00\00\95\00\00\00\22\00\00\00" }>, align 8
@alloc_b20c33895bdcbbf0436306596d732e87 = private unnamed_addr constant <{ ptr, [16 x i8] }> <{ ptr @alloc_1fddd313dd45c2ef6fed5f138b401526, [16 x i8] c"\13\00\00\00\00\00\00\00\95\00\00\00\1E\00\00\00" }>, align 8
@alloc_310552312c0007cbb50450aca4e7de54 = private unnamed_addr constant <{ ptr, [16 x i8] }> <{ ptr @alloc_1fddd313dd45c2ef6fed5f138b401526, [16 x i8] c"\13\00\00\00\00\00\00\00\96\00\00\00\15\00\00\00" }>, align 8
@alloc_d597728b0dfe91c00ed75022502eebf8 = private unnamed_addr constant <{ ptr, [16 x i8] }> <{ ptr @alloc_1fddd313dd45c2ef6fed5f138b401526, [16 x i8] c"\13\00\00\00\00\00\00\00\97\00\00\00\0D\00\00\00" }>, align 8
@alloc_d0d9b3036a13449b25d8922b31711d92 = private unnamed_addr constant <{ ptr, [16 x i8] }> <{ ptr @alloc_1fddd313dd45c2ef6fed5f138b401526, [16 x i8] c"\13\00\00\00\00\00\00\00\AB\00\00\007\00\00\00" }>, align 8
@alloc_2faf78e3f024f092c7f5c4c9be27c344 = private unnamed_addr constant <{ [24 x i8] }> <{ [24 x i8] c"assertion failed: n >= k" }>, align 1
@alloc_6dc60e863a885ae3be50fc7a79fd83f6 = private unnamed_addr constant <{ ptr, [16 x i8] }> <{ ptr @alloc_1fddd313dd45c2ef6fed5f138b401526, [16 x i8] c"\13\00\00\00\00\00\00\00\A2\00\00\00\0D\00\00\00" }>, align 8
@alloc_80faad598542f259e8e797a839f548e8 = private unnamed_addr constant <{ ptr, [16 x i8] }> <{ ptr @alloc_1fddd313dd45c2ef6fed5f138b401526, [16 x i8] c"\13\00\00\00\00\00\00\00\A3\00\00\00\1A\00\00\00" }>, align 8
@alloc_eee84889b151d76c15626071ff4657d3 = private unnamed_addr constant <{ ptr, [16 x i8] }> <{ ptr @alloc_1fddd313dd45c2ef6fed5f138b401526, [16 x i8] c"\13\00\00\00\00\00\00\00\B2\00\00\00%\00\00\00" }>, align 8
@alloc_b1d34e5adfb2e00f5a576519c0a2e718 = private unnamed_addr constant <{ [15 x i8] }> <{ [15 x i8] c"src/powerset.rs" }>, align 1
@alloc_4694c4911decae20270a37acc8084e30 = private unnamed_addr constant <{ ptr, [16 x i8] }> <{ ptr @alloc_b1d34e5adfb2e00f5a576519c0a2e718, [16 x i8] c"\0F\00\00\00\00\00\00\00i\00\00\00\06\00\00\00" }>, align 8
@alloc_53973d2fe29b4adba8bb7390b5678745 = private unnamed_addr constant <{ [8 x i8] }> zeroinitializer, align 8
@alloc_ddae43f879fb6bff585b5a28276e256f = private unnamed_addr constant <{ [17 x i8] }> <{ [17 x i8] c"src/tuple_impl.rs" }>, align 1
@alloc_19b869e152c6bb1242b97b6c3b24b462 = private unnamed_addr constant <{ ptr, [16 x i8] }> <{ ptr @alloc_ddae43f879fb6bff585b5a28276e256f, [16 x i8] c"\11\00\00\00\00\00\00\00\82\00\00\00\05\00\00\00" }>, align 8
@alloc_28db6949fafbaa52bd17c6f1647ae9a0 = private unnamed_addr constant <{ ptr, [16 x i8] }> <{ ptr @alloc_ddae43f879fb6bff585b5a28276e256f, [16 x i8] c"\11\00\00\00\00\00\00\00\82\00\00\00\19\00\00\00" }>, align 8
@alloc_ec839380c6b3d292d5afd73b174733cd = private unnamed_addr constant <{ ptr, [16 x i8] }> <{ ptr @alloc_ddae43f879fb6bff585b5a28276e256f, [16 x i8] c"\11\00\00\00\00\00\00\00\82\00\00\00.\00\00\00" }>, align 8
@alloc_aded0a6bfd07b0cd16b76c42a1a36b0f = private unnamed_addr constant <{ ptr, [16 x i8] }> <{ ptr @alloc_ddae43f879fb6bff585b5a28276e256f, [16 x i8] c"\11\00\00\00\00\00\00\00\82\00\00\006\00\00\00" }>, align 8
@alloc_5cdb6a4f24baadcb105f72698204538f = private unnamed_addr constant <{ ptr, [16 x i8] }> <{ ptr @alloc_ddae43f879fb6bff585b5a28276e256f, [16 x i8] c"\11\00\00\00\00\00\00\00\82\00\00\00-\00\00\00" }>, align 8
@alloc_1e4d14a197f0f034284cb0509063821c = private unnamed_addr constant <{ ptr, [16 x i8] }> <{ ptr @alloc_ddae43f879fb6bff585b5a28276e256f, [16 x i8] c"\11\00\00\00\00\00\00\00\81\00\00\00\05\00\00\00" }>, align 8

; <core::ops::range::Range<usize> as core::slice::index::SliceIndex<[T]>>::get_unchecked_mut
; Function Attrs: inlinehint uwtable
define { ptr, i64 } @"_ZN106_$LT$core..ops..range..Range$LT$usize$GT$$u20$as$u20$core..slice..index..SliceIndex$LT$$u5b$T$u5d$$GT$$GT$17get_unchecked_mut17hd857e221935f41afE"(i64 %self.0, i64 %self.1, ptr %slice.0, i64 %slice.1) unnamed_addr #0 !dbg !45 {
start:
  %data_pointer.dbg.spill = alloca ptr, align 8
  %data.dbg.spill = alloca ptr, align 8
  %self.dbg.spill1 = alloca ptr, align 8
  %new_len.dbg.spill = alloca i64, align 8
  %count.dbg.spill = alloca i64, align 8
  %ptr.dbg.spill = alloca { ptr, i64 }, align 8
  %slice.dbg.spill = alloca { ptr, i64 }, align 8
  %self.dbg.spill = alloca %"core::ops::range::Range<usize>", align 8
  %_19 = alloca %"core::ptr::metadata::PtrComponents<[usize]>", align 8
  %_18 = alloca %"core::ptr::metadata::PtrRepr<[usize]>", align 8
  %_16 = alloca %"core::ptr::metadata::PtrRepr<[usize]>", align 8
  store i64 %self.0, ptr %self.dbg.spill, align 8
  %0 = getelementptr inbounds i8, ptr %self.dbg.spill, i64 8
  store i64 %self.1, ptr %0, align 8
  call void @llvm.dbg.declare(metadata ptr %self.dbg.spill, metadata !66, metadata !DIExpression()), !dbg !72
  store ptr %slice.0, ptr %slice.dbg.spill, align 8
  %1 = getelementptr inbounds i8, ptr %slice.dbg.spill, i64 8
  store i64 %slice.1, ptr %1, align 8
  call void @llvm.dbg.declare(metadata ptr %slice.dbg.spill, metadata !67, metadata !DIExpression()), !dbg !73
  call void @llvm.dbg.declare(metadata ptr %slice.dbg.spill, metadata !74, metadata !DIExpression()), !dbg !84
  call void @llvm.dbg.declare(metadata ptr %slice.dbg.spill, metadata !86, metadata !DIExpression()), !dbg !93
  br label %bb1, !dbg !95

bb1:                                              ; preds = %start
  %_4 = icmp uge i64 %self.1, %self.0, !dbg !96
  br i1 %_4, label %bb2, label %bb5, !dbg !96

bb5:                                              ; preds = %bb1
  br label %bb6, !dbg !97

bb2:                                              ; preds = %bb1
  store ptr %slice.0, ptr %ptr.dbg.spill, align 8, !dbg !100
  %2 = getelementptr inbounds i8, ptr %ptr.dbg.spill, i64 8, !dbg !100
  store i64 %slice.1, ptr %2, align 8, !dbg !100
  call void @llvm.dbg.declare(metadata ptr %ptr.dbg.spill, metadata !101, metadata !DIExpression()), !dbg !113
  store ptr %slice.0, ptr %_16, align 8, !dbg !115
  %3 = getelementptr inbounds i8, ptr %_16, i64 8, !dbg !115
  store i64 %slice.1, ptr %3, align 8, !dbg !115
  %4 = getelementptr inbounds i8, ptr %_16, i64 8, !dbg !115
  %_8 = load i64, ptr %4, align 8, !dbg !115, !noundef !13
  %_7 = icmp ule i64 %self.1, %_8, !dbg !116
  br i1 %_7, label %bb3, label %bb4, !dbg !116

bb6:                                              ; preds = %bb4, %bb5
; call core::panicking::panic_nounwind
  call void @_ZN4core9panicking14panic_nounwind17h50c31e15afde233eE(ptr align 1 @alloc_8bc4d99c9de504799214701ea609a64b, i64 68) #9, !dbg !95
  unreachable, !dbg !95

bb4:                                              ; preds = %bb2
  br label %bb6, !dbg !97

bb3:                                              ; preds = %bb2
  br label %bb7, !dbg !95

bb7:                                              ; preds = %bb3
  store i64 %self.0, ptr %count.dbg.spill, align 8, !dbg !117
  call void @llvm.dbg.declare(metadata ptr %count.dbg.spill, metadata !118, metadata !DIExpression()), !dbg !126
  %new_len = sub nuw i64 %self.1, %self.0, !dbg !128
  store i64 %new_len, ptr %new_len.dbg.spill, align 8, !dbg !128
  call void @llvm.dbg.declare(metadata ptr %new_len.dbg.spill, metadata !68, metadata !DIExpression()), !dbg !129
  call void @llvm.dbg.declare(metadata ptr %new_len.dbg.spill, metadata !130, metadata !DIExpression()), !dbg !138
  call void @llvm.dbg.declare(metadata ptr %new_len.dbg.spill, metadata !140, metadata !DIExpression()), !dbg !148
  store ptr %slice.0, ptr %self.dbg.spill1, align 8, !dbg !150
  call void @llvm.dbg.declare(metadata ptr %self.dbg.spill1, metadata !125, metadata !DIExpression()), !dbg !151
  %data = getelementptr inbounds i64, ptr %slice.0, i64 %self.0, !dbg !152
  store ptr %data, ptr %data.dbg.spill, align 8, !dbg !152
  call void @llvm.dbg.declare(metadata ptr %data.dbg.spill, metadata !137, metadata !DIExpression()), !dbg !153
  call void @llvm.dbg.declare(metadata ptr %data.dbg.spill, metadata !154, metadata !DIExpression()), !dbg !162
  store ptr %data, ptr %data_pointer.dbg.spill, align 8, !dbg !164
  call void @llvm.dbg.declare(metadata ptr %data_pointer.dbg.spill, metadata !147, metadata !DIExpression()), !dbg !165
  store ptr %data, ptr %_19, align 8, !dbg !166
  %5 = getelementptr inbounds i8, ptr %_19, i64 8, !dbg !166
  store i64 %new_len, ptr %5, align 8, !dbg !166
  %6 = load ptr, ptr %_19, align 8, !dbg !167, !noundef !13
  %7 = getelementptr inbounds i8, ptr %_19, i64 8, !dbg !167
  %8 = load i64, ptr %7, align 8, !dbg !167, !noundef !13
  store ptr %6, ptr %_18, align 8, !dbg !167
  %9 = getelementptr inbounds i8, ptr %_18, i64 8, !dbg !167
  store i64 %8, ptr %9, align 8, !dbg !167
  %_0.0 = load ptr, ptr %_18, align 8, !dbg !167, !noundef !13
  %10 = getelementptr inbounds i8, ptr %_18, i64 8, !dbg !167
  %_0.1 = load i64, ptr %10, align 8, !dbg !167, !noundef !13
  %11 = insertvalue { ptr, i64 } poison, ptr %_0.0, 0, !dbg !168
  %12 = insertvalue { ptr, i64 } %11, i64 %_0.1, 1, !dbg !168
  ret { ptr, i64 } %12, !dbg !168
}

; <core::ops::range::RangeInclusive<T> as core::iter::range::RangeInclusiveIteratorImpl>::spec_try_fold
; Function Attrs: inlinehint uwtable
define { i64, i64 } @"_ZN107_$LT$core..ops..range..RangeInclusive$LT$T$GT$$u20$as$u20$core..iter..range..RangeInclusiveIteratorImpl$GT$13spec_try_fold17ha67b8e4c3c4dd6feE"(ptr align 8 %self, i64 %init) unnamed_addr #0 personality ptr @rust_eh_personality !dbg !169 {
start:
  %self.dbg.spill.i15 = alloca ptr, align 8
  %self.dbg.spill.i13 = alloca ptr, align 8
  %other.dbg.spill.i8 = alloca ptr, align 8
  %self.dbg.spill.i9 = alloca ptr, align 8
  %other.dbg.spill.i = alloca ptr, align 8
  %self.dbg.spill.i = alloca ptr, align 8
  %val.dbg.spill7 = alloca i64, align 8
  %n.dbg.spill5 = alloca i64, align 8
  %dest.dbg.spill = alloca ptr, align 8
  %n.dbg.spill = alloca i64, align 8
  %val.dbg.spill = alloca i64, align 8
  %0 = alloca { ptr, i32, [1 x i32] }, align 8
  %residual.dbg.spill1 = alloca %"core::option::Option<core::convert::Infallible>::None", align 1
  %residual.dbg.spill = alloca %"core::option::Option<core::convert::Infallible>::None", align 1
  %init.dbg.spill = alloca i64, align 8
  %self.dbg.spill = alloca ptr, align 8
  %_39 = alloca i8, align 1
  %_38 = alloca i8, align 1
  %_37 = alloca i8, align 1
  %_29 = alloca { i64, i64 }, align 8
  %_26 = alloca %"core::ops::control_flow::ControlFlow<core::option::Option<core::convert::Infallible>, usize>", align 8
  %_18 = alloca { i64, i64 }, align 8
  %_15 = alloca %"core::ops::control_flow::ControlFlow<core::option::Option<core::convert::Infallible>, usize>", align 8
  %accum = alloca i64, align 8
  %_0 = alloca %"core::option::Option<usize>", align 8
  %f = alloca %"{closure@src/permutations.rs:163:58: 163:66}", align 1
  store ptr %self, ptr %self.dbg.spill, align 8
  call void @llvm.dbg.declare(metadata ptr %self.dbg.spill, metadata !203, metadata !DIExpression()), !dbg !240
  call void @llvm.dbg.declare(metadata ptr %self.dbg.spill, metadata !241, metadata !DIExpression()), !dbg !250
  store i64 %init, ptr %init.dbg.spill, align 8
  call void @llvm.dbg.declare(metadata ptr %init.dbg.spill, metadata !204, metadata !DIExpression()), !dbg !252
  call void @llvm.dbg.declare(metadata ptr %f, metadata !205, metadata !DIExpression()), !dbg !253
  call void @llvm.dbg.declare(metadata ptr %accum, metadata !206, metadata !DIExpression()), !dbg !254
  call void @llvm.dbg.declare(metadata ptr %residual.dbg.spill, metadata !212, metadata !DIExpression()), !dbg !255
  call void @llvm.dbg.declare(metadata ptr %residual.dbg.spill1, metadata !232, metadata !DIExpression()), !dbg !256
  store i8 1, ptr %_39, align 1, !dbg !257
  %1 = getelementptr inbounds i8, ptr %self, i64 16, !dbg !258
  %2 = load i8, ptr %1, align 8, !dbg !258, !range !259, !noundef !13
  %_40 = trunc i8 %2 to i1, !dbg !258
  br i1 %_40, label %bb38, label %bb39, !dbg !258

bb39:                                             ; preds = %start
  %_43 = getelementptr inbounds i8, ptr %self, i64 8, !dbg !260
  store ptr %self, ptr %self.dbg.spill.i, align 8
  call void @llvm.dbg.declare(metadata ptr %self.dbg.spill.i, metadata !261, metadata !DIExpression()), !dbg !270
  store ptr %_43, ptr %other.dbg.spill.i, align 8
  call void @llvm.dbg.declare(metadata ptr %other.dbg.spill.i, metadata !269, metadata !DIExpression()), !dbg !272
  %_3.i = load i64, ptr %self, align 8, !dbg !273, !noundef !13
  %_4.i = load i64, ptr %_43, align 8, !dbg !274, !noundef !13
  %_0.i = icmp ule i64 %_3.i, %_4.i, !dbg !273
  br label %bb40, !dbg !275

bb38:                                             ; preds = %start
  br label %bb1, !dbg !276

bb30:                                             ; preds = %bb34, %bb35, %cleanup
  br label %bb37, !dbg !277

cleanup:                                          ; preds = %bb1
  %3 = landingpad { ptr, i32 }
          cleanup
  %4 = extractvalue { ptr, i32 } %3, 0
  %5 = extractvalue { ptr, i32 } %3, 1
  store ptr %4, ptr %0, align 8
  %6 = getelementptr inbounds i8, ptr %0, i64 8
  store i32 %5, ptr %6, align 8
  br label %bb30

bb40:                                             ; preds = %bb39
  %_4 = xor i1 %_0.i, true, !dbg !278
  br i1 %_4, label %bb1, label %bb3, !dbg !276

bb3:                                              ; preds = %bb40
  store i8 0, ptr %_39, align 1, !dbg !279
  store i8 1, ptr %_38, align 1, !dbg !279
  store i64 %init, ptr %accum, align 8, !dbg !279
  br label %bb4, !dbg !280

bb1:                                              ; preds = %bb38, %bb40
  store i8 0, ptr %_39, align 1, !dbg !281
; invoke <core::option::Option<T> as core::ops::try_trait::Try>::from_output
  %7 = invoke { i64, i64 } @"_ZN75_$LT$core..option..Option$LT$T$GT$$u20$as$u20$core..ops..try_trait..Try$GT$11from_output17h5fd9ce5e9e6dc670E"(i64 %init)
          to label %bb2 unwind label %cleanup, !dbg !281

bb4:                                              ; preds = %bb12, %bb3
  %_9 = getelementptr inbounds i8, ptr %self, i64 8, !dbg !282
  store ptr %self, ptr %self.dbg.spill.i9, align 8
  call void @llvm.dbg.declare(metadata ptr %self.dbg.spill.i9, metadata !283, metadata !DIExpression()), !dbg !287
  store ptr %_9, ptr %other.dbg.spill.i8, align 8
  call void @llvm.dbg.declare(metadata ptr %other.dbg.spill.i8, metadata !286, metadata !DIExpression()), !dbg !289
  %_3.i10 = load i64, ptr %self, align 8, !dbg !290, !noundef !13
  %_4.i11 = load i64, ptr %_9, align 8, !dbg !291, !noundef !13
  %_0.i12 = icmp ult i64 %_3.i10, %_4.i11, !dbg !290
  br label %bb5, !dbg !292

bb35:                                             ; preds = %bb32, %bb33, %cleanup2
  %8 = load i8, ptr %_38, align 1, !dbg !277, !range !259, !noundef !13
  %9 = trunc i8 %8 to i1, !dbg !277
  br i1 %9, label %bb34, label %bb30, !dbg !277

cleanup2.loopexit:                                ; preds = %bb7, %bb8, %bb9
  %lpad.loopexit = landingpad { ptr, i32 }
          cleanup
  br label %cleanup2

cleanup2.loopexit.split-lp:                       ; preds = %bb15, %bb19, %bb25, %bb22, %bb13
  %lpad.loopexit.split-lp = landingpad { ptr, i32 }
          cleanup
  br label %cleanup2

cleanup2:                                         ; preds = %cleanup2.loopexit.split-lp, %cleanup2.loopexit
  %lpad.phi = phi { ptr, i32 } [ %lpad.loopexit, %cleanup2.loopexit ], [ %lpad.loopexit.split-lp, %cleanup2.loopexit.split-lp ]
  %10 = extractvalue { ptr, i32 } %lpad.phi, 0
  %11 = extractvalue { ptr, i32 } %lpad.phi, 1
  store ptr %10, ptr %0, align 8
  %12 = getelementptr inbounds i8, ptr %0, i64 8
  store i32 %11, ptr %12, align 8
  br label %bb35

bb5:                                              ; preds = %bb4
  br i1 %_0.i12, label %bb6, label %bb15, !dbg !293

bb15:                                             ; preds = %bb5
  %13 = getelementptr inbounds i8, ptr %self, i64 16, !dbg !294
  store i8 1, ptr %13, align 8, !dbg !294
  %_25 = getelementptr inbounds i8, ptr %self, i64 8, !dbg !295
; invoke core::cmp::impls::<impl core::cmp::PartialEq for usize>::eq
  %_23 = invoke zeroext i1 @"_ZN4core3cmp5impls56_$LT$impl$u20$core..cmp..PartialEq$u20$for$u20$usize$GT$2eq17h8efac3f2105ac75cE"(ptr align 8 %self, ptr align 8 %_25)
          to label %bb16 unwind label %cleanup2.loopexit.split-lp, !dbg !296

bb6:                                              ; preds = %bb5
  store ptr %self, ptr %self.dbg.spill.i13, align 8
  call void @llvm.dbg.declare(metadata ptr %self.dbg.spill.i13, metadata !297, metadata !DIExpression()), !dbg !306
  %_0.i14 = load i64, ptr %self, align 8, !dbg !308, !noundef !13
  br label %bb7, !dbg !309

bb16:                                             ; preds = %bb15
  br i1 %_23, label %bb17, label %bb24, !dbg !296

bb24:                                             ; preds = %bb16
  br label %bb25, !dbg !310

bb17:                                             ; preds = %bb16
  store i8 0, ptr %_38, align 1, !dbg !311
  store i8 1, ptr %_37, align 1, !dbg !311
  %_30 = load i64, ptr %accum, align 8, !dbg !311, !noundef !13
  store ptr %self, ptr %self.dbg.spill.i15, align 8
  call void @llvm.dbg.declare(metadata ptr %self.dbg.spill.i15, metadata !297, metadata !DIExpression()), !dbg !312
  %_0.i16 = load i64, ptr %self, align 8, !dbg !314, !noundef !13
  br label %bb18, !dbg !315

bb25:                                             ; preds = %bb21, %bb24
  store i8 0, ptr %_38, align 1, !dbg !316
  %_36 = load i64, ptr %accum, align 8, !dbg !316, !noundef !13
; invoke <core::option::Option<T> as core::ops::try_trait::Try>::from_output
  %14 = invoke { i64, i64 } @"_ZN75_$LT$core..option..Option$LT$T$GT$$u20$as$u20$core..ops..try_trait..Try$GT$11from_output17h5fd9ce5e9e6dc670E"(i64 %_36)
          to label %bb26 unwind label %cleanup2.loopexit.split-lp, !dbg !316

bb33:                                             ; preds = %cleanup3
  %15 = load i8, ptr %_37, align 1, !dbg !317, !range !259, !noundef !13
  %16 = trunc i8 %15 to i1, !dbg !317
  br i1 %16, label %bb32, label %bb35, !dbg !317

cleanup3:                                         ; preds = %bb18
  %17 = landingpad { ptr, i32 }
          cleanup
  %18 = extractvalue { ptr, i32 } %17, 0
  %19 = extractvalue { ptr, i32 } %17, 1
  store ptr %18, ptr %0, align 8
  %20 = getelementptr inbounds i8, ptr %0, i64 8
  store i32 %19, ptr %20, align 8
  br label %bb33

bb18:                                             ; preds = %bb17
  store i8 0, ptr %_37, align 1, !dbg !318
  store i64 %_30, ptr %_29, align 8, !dbg !318
  %21 = getelementptr inbounds i8, ptr %_29, i64 8, !dbg !318
  store i64 %_0.i16, ptr %21, align 8, !dbg !318
  %22 = load i64, ptr %_29, align 8, !dbg !318, !noundef !13
  %23 = getelementptr inbounds i8, ptr %_29, i64 8, !dbg !318
  %24 = load i64, ptr %23, align 8, !dbg !318, !noundef !13
; invoke itertools::permutations::PermutationState::size_hint_for::{{closure}}::{{closure}}
  %25 = invoke { i64, i64 } @"_ZN9itertools12permutations16PermutationState13size_hint_for28_$u7b$$u7b$closure$u7d$$u7d$28_$u7b$$u7b$closure$u7d$$u7d$17h94c68e703c836bdaE"(ptr align 1 %f, i64 %22, i64 %24)
          to label %bb19 unwind label %cleanup3, !dbg !318

bb19:                                             ; preds = %bb18
  %_27.0 = extractvalue { i64, i64 } %25, 0, !dbg !318
  %_27.1 = extractvalue { i64, i64 } %25, 1, !dbg !318
; invoke <core::option::Option<T> as core::ops::try_trait::Try>::branch
  %26 = invoke { i64, i64 } @"_ZN75_$LT$core..option..Option$LT$T$GT$$u20$as$u20$core..ops..try_trait..Try$GT$6branch17h8c882f8e72763602E"(i64 %_27.0, i64 %_27.1)
          to label %bb20 unwind label %cleanup2.loopexit.split-lp, !dbg !318

bb20:                                             ; preds = %bb19
  %27 = extractvalue { i64, i64 } %26, 0, !dbg !318
  %28 = extractvalue { i64, i64 } %26, 1, !dbg !318
  store i64 %27, ptr %_26, align 8, !dbg !318
  %29 = getelementptr inbounds i8, ptr %_26, i64 8, !dbg !318
  store i64 %28, ptr %29, align 8, !dbg !318
  %_33 = load i64, ptr %_26, align 8, !dbg !318, !range !319, !noundef !13
  %30 = icmp eq i64 %_33, 0, !dbg !318
  br i1 %30, label %bb21, label %bb22, !dbg !318

bb21:                                             ; preds = %bb20
  %31 = getelementptr inbounds i8, ptr %_26, i64 8, !dbg !318
  %val = load i64, ptr %31, align 8, !dbg !318, !noundef !13
  store i64 %val, ptr %val.dbg.spill, align 8, !dbg !318
  call void @llvm.dbg.declare(metadata ptr %val.dbg.spill, metadata !234, metadata !DIExpression()), !dbg !320
  store i64 %val, ptr %accum, align 8, !dbg !321
  br label %bb25, !dbg !310

bb22:                                             ; preds = %bb20
; invoke <core::option::Option<T> as core::ops::try_trait::FromResidual>::from_residual
  %32 = invoke { i64, i64 } @"_ZN84_$LT$core..option..Option$LT$T$GT$$u20$as$u20$core..ops..try_trait..FromResidual$GT$13from_residual17h8d3f3e6e6ce3322aE"()
          to label %bb23 unwind label %cleanup2.loopexit.split-lp, !dbg !322

bb26:                                             ; preds = %bb25
  %33 = extractvalue { i64, i64 } %14, 0, !dbg !316
  %34 = extractvalue { i64, i64 } %14, 1, !dbg !316
  store i64 %33, ptr %_0, align 8, !dbg !316
  %35 = getelementptr inbounds i8, ptr %_0, i64 8, !dbg !316
  store i64 %34, ptr %35, align 8, !dbg !316
  br label %bb29, !dbg !277

bb29:                                             ; preds = %bb28, %bb26
  %36 = load i64, ptr %_0, align 8, !dbg !323, !range !319, !noundef !13
  %37 = getelementptr inbounds i8, ptr %_0, i64 8, !dbg !323
  %38 = load i64, ptr %37, align 8, !dbg !323
  %39 = insertvalue { i64, i64 } poison, i64 %36, 0, !dbg !323
  %40 = insertvalue { i64, i64 } %39, i64 %38, 1, !dbg !323
  ret { i64, i64 } %40, !dbg !323

bb23:                                             ; preds = %bb22
  %41 = extractvalue { i64, i64 } %32, 0, !dbg !322
  %42 = extractvalue { i64, i64 } %32, 1, !dbg !322
  store i64 %41, ptr %_0, align 8, !dbg !322
  %43 = getelementptr inbounds i8, ptr %_0, i64 8, !dbg !322
  store i64 %42, ptr %43, align 8, !dbg !322
  br label %bb27, !dbg !324

bb27:                                             ; preds = %bb14, %bb23
  br label %bb28, !dbg !326

bb32:                                             ; preds = %bb33
  br label %bb35, !dbg !317

bb7:                                              ; preds = %bb6
; invoke <usize as core::iter::range::Step>::forward_unchecked
  %n = invoke i64 @"_ZN49_$LT$usize$u20$as$u20$core..iter..range..Step$GT$17forward_unchecked17hc08ef21cfd3bb3c6E"(i64 %_0.i14, i64 1)
          to label %bb8 unwind label %cleanup2.loopexit, !dbg !328

bb8:                                              ; preds = %bb7
  store i64 %n, ptr %n.dbg.spill, align 8, !dbg !328
  call void @llvm.dbg.declare(metadata ptr %n.dbg.spill, metadata !208, metadata !DIExpression()), !dbg !329
  call void @llvm.dbg.declare(metadata ptr %n.dbg.spill, metadata !330, metadata !DIExpression()), !dbg !342
  call void @llvm.dbg.declare(metadata ptr %n.dbg.spill, metadata !344, metadata !DIExpression()), !dbg !351
  store ptr %self, ptr %dest.dbg.spill, align 8, !dbg !353
  call void @llvm.dbg.declare(metadata ptr %dest.dbg.spill, metadata !339, metadata !DIExpression()), !dbg !354
  call void @llvm.dbg.declare(metadata ptr %dest.dbg.spill, metadata !355, metadata !DIExpression()), !dbg !362
  call void @llvm.dbg.declare(metadata ptr %dest.dbg.spill, metadata !350, metadata !DIExpression()), !dbg !364
  %n4 = load i64, ptr %self, align 8, !dbg !365, !noundef !13
  store i64 %n4, ptr %n.dbg.spill5, align 8, !dbg !365
  call void @llvm.dbg.declare(metadata ptr %n.dbg.spill5, metadata !210, metadata !DIExpression()), !dbg !366
  call void @llvm.dbg.declare(metadata ptr %n.dbg.spill5, metadata !340, metadata !DIExpression()), !dbg !367
  store i64 %n, ptr %self, align 8, !dbg !368
  store i8 0, ptr %_38, align 1, !dbg !369
  %_19 = load i64, ptr %accum, align 8, !dbg !369, !noundef !13
  store i64 %_19, ptr %_18, align 8, !dbg !370
  %44 = getelementptr inbounds i8, ptr %_18, i64 8, !dbg !370
  store i64 %n4, ptr %44, align 8, !dbg !370
  %45 = load i64, ptr %_18, align 8, !dbg !370, !noundef !13
  %46 = getelementptr inbounds i8, ptr %_18, i64 8, !dbg !370
  %47 = load i64, ptr %46, align 8, !dbg !370, !noundef !13
; invoke itertools::permutations::PermutationState::size_hint_for::{{closure}}::{{closure}}
  %48 = invoke { i64, i64 } @"_ZN9itertools12permutations16PermutationState13size_hint_for28_$u7b$$u7b$closure$u7d$$u7d$28_$u7b$$u7b$closure$u7d$$u7d$17h94c68e703c836bdaE"(ptr align 1 %f, i64 %45, i64 %47)
          to label %bb9 unwind label %cleanup2.loopexit, !dbg !370

bb9:                                              ; preds = %bb8
  %_16.0 = extractvalue { i64, i64 } %48, 0, !dbg !370
  %_16.1 = extractvalue { i64, i64 } %48, 1, !dbg !370
; invoke <core::option::Option<T> as core::ops::try_trait::Try>::branch
  %49 = invoke { i64, i64 } @"_ZN75_$LT$core..option..Option$LT$T$GT$$u20$as$u20$core..ops..try_trait..Try$GT$6branch17h8c882f8e72763602E"(i64 %_16.0, i64 %_16.1)
          to label %bb10 unwind label %cleanup2.loopexit, !dbg !370

bb10:                                             ; preds = %bb9
  %50 = extractvalue { i64, i64 } %49, 0, !dbg !370
  %51 = extractvalue { i64, i64 } %49, 1, !dbg !370
  store i64 %50, ptr %_15, align 8, !dbg !370
  %52 = getelementptr inbounds i8, ptr %_15, i64 8, !dbg !370
  store i64 %51, ptr %52, align 8, !dbg !370
  %_20 = load i64, ptr %_15, align 8, !dbg !370, !range !319, !noundef !13
  %53 = icmp eq i64 %_20, 0, !dbg !370
  br i1 %53, label %bb12, label %bb13, !dbg !370

bb12:                                             ; preds = %bb10
  %54 = getelementptr inbounds i8, ptr %_15, i64 8, !dbg !370
  %val6 = load i64, ptr %54, align 8, !dbg !370, !noundef !13
  store i64 %val6, ptr %val.dbg.spill7, align 8, !dbg !370
  call void @llvm.dbg.declare(metadata ptr %val.dbg.spill7, metadata !230, metadata !DIExpression()), !dbg !371
  store i8 1, ptr %_38, align 1, !dbg !372
  store i64 %val6, ptr %accum, align 8, !dbg !372
  br label %bb4, !dbg !280

bb13:                                             ; preds = %bb10
; invoke <core::option::Option<T> as core::ops::try_trait::FromResidual>::from_residual
  %55 = invoke { i64, i64 } @"_ZN84_$LT$core..option..Option$LT$T$GT$$u20$as$u20$core..ops..try_trait..FromResidual$GT$13from_residual17h8d3f3e6e6ce3322aE"()
          to label %bb14 unwind label %cleanup2.loopexit.split-lp, !dbg !373

bb14:                                             ; preds = %bb13
  %56 = extractvalue { i64, i64 } %55, 0, !dbg !373
  %57 = extractvalue { i64, i64 } %55, 1, !dbg !373
  store i64 %56, ptr %_0, align 8, !dbg !373
  %58 = getelementptr inbounds i8, ptr %_0, i64 8, !dbg !373
  store i64 %57, ptr %58, align 8, !dbg !373
  br label %bb27, !dbg !324

bb28:                                             ; preds = %bb2, %bb27
  br label %bb29, !dbg !277

bb11:                                             ; No predecessors!
  unreachable, !dbg !370

bb34:                                             ; preds = %bb35
  br label %bb30, !dbg !277

bb2:                                              ; preds = %bb1
  %59 = extractvalue { i64, i64 } %7, 0, !dbg !281
  %60 = extractvalue { i64, i64 } %7, 1, !dbg !281
  store i64 %59, ptr %_0, align 8, !dbg !281
  %61 = getelementptr inbounds i8, ptr %_0, i64 8, !dbg !281
  store i64 %60, ptr %61, align 8, !dbg !281
  br label %bb28, !dbg !326

bb37:                                             ; preds = %bb30
  %62 = load i8, ptr %_39, align 1, !dbg !277, !range !259, !noundef !13
  %63 = trunc i8 %62 to i1, !dbg !277
  br i1 %63, label %bb36, label %bb31, !dbg !277

bb31:                                             ; preds = %bb36, %bb37
  %64 = load ptr, ptr %0, align 8, !dbg !374, !noundef !13
  %65 = getelementptr inbounds i8, ptr %0, i64 8, !dbg !374
  %66 = load i32, ptr %65, align 8, !dbg !374, !noundef !13
  %67 = insertvalue { ptr, i32 } poison, ptr %64, 0, !dbg !374
  %68 = insertvalue { ptr, i32 } %67, i32 %66, 1, !dbg !374
  resume { ptr, i32 } %68, !dbg !374

bb36:                                             ; preds = %bb37
  br label %bb31, !dbg !277
}

; <core::ops::range::RangeInclusive<T> as core::iter::range::RangeInclusiveIteratorImpl>::spec_try_fold
; Function Attrs: inlinehint uwtable
define { i64, i64 } @"_ZN107_$LT$core..ops..range..RangeInclusive$LT$T$GT$$u20$as$u20$core..iter..range..RangeInclusiveIteratorImpl$GT$13spec_try_fold17hda1288874011fc8aE"(ptr align 8 %self, i64 %init, ptr align 8 %0) unnamed_addr #0 personality ptr @rust_eh_personality !dbg !375 {
start:
  %self.dbg.spill.i15 = alloca ptr, align 8
  %self.dbg.spill.i13 = alloca ptr, align 8
  %other.dbg.spill.i8 = alloca ptr, align 8
  %self.dbg.spill.i9 = alloca ptr, align 8
  %other.dbg.spill.i = alloca ptr, align 8
  %self.dbg.spill.i = alloca ptr, align 8
  %val.dbg.spill7 = alloca i64, align 8
  %n.dbg.spill5 = alloca i64, align 8
  %dest.dbg.spill = alloca ptr, align 8
  %n.dbg.spill = alloca i64, align 8
  %val.dbg.spill = alloca i64, align 8
  %1 = alloca { ptr, i32, [1 x i32] }, align 8
  %residual.dbg.spill1 = alloca %"core::option::Option<core::convert::Infallible>::None", align 1
  %residual.dbg.spill = alloca %"core::option::Option<core::convert::Infallible>::None", align 1
  %init.dbg.spill = alloca i64, align 8
  %self.dbg.spill = alloca ptr, align 8
  %_39 = alloca i8, align 1
  %_38 = alloca i8, align 1
  %_37 = alloca i8, align 1
  %_29 = alloca { i64, i64 }, align 8
  %_26 = alloca %"core::ops::control_flow::ControlFlow<core::option::Option<core::convert::Infallible>, usize>", align 8
  %_18 = alloca { i64, i64 }, align 8
  %_15 = alloca %"core::ops::control_flow::ControlFlow<core::option::Option<core::convert::Infallible>, usize>", align 8
  %accum = alloca i64, align 8
  %_0 = alloca %"core::option::Option<usize>", align 8
  %f = alloca ptr, align 8
  store ptr %0, ptr %f, align 8
  store ptr %self, ptr %self.dbg.spill, align 8
  call void @llvm.dbg.declare(metadata ptr %self.dbg.spill, metadata !384, metadata !DIExpression()), !dbg !403
  call void @llvm.dbg.declare(metadata ptr %self.dbg.spill, metadata !404, metadata !DIExpression()), !dbg !408
  store i64 %init, ptr %init.dbg.spill, align 8
  call void @llvm.dbg.declare(metadata ptr %init.dbg.spill, metadata !385, metadata !DIExpression()), !dbg !410
  call void @llvm.dbg.declare(metadata ptr %f, metadata !386, metadata !DIExpression()), !dbg !411
  call void @llvm.dbg.declare(metadata ptr %accum, metadata !387, metadata !DIExpression()), !dbg !412
  call void @llvm.dbg.declare(metadata ptr %residual.dbg.spill, metadata !393, metadata !DIExpression()), !dbg !413
  call void @llvm.dbg.declare(metadata ptr %residual.dbg.spill1, metadata !397, metadata !DIExpression()), !dbg !414
  store i8 1, ptr %_39, align 1, !dbg !415
  %2 = getelementptr inbounds i8, ptr %self, i64 16, !dbg !416
  %3 = load i8, ptr %2, align 8, !dbg !416, !range !259, !noundef !13
  %_40 = trunc i8 %3 to i1, !dbg !416
  br i1 %_40, label %bb38, label %bb39, !dbg !416

bb39:                                             ; preds = %start
  %_43 = getelementptr inbounds i8, ptr %self, i64 8, !dbg !417
  store ptr %self, ptr %self.dbg.spill.i, align 8
  call void @llvm.dbg.declare(metadata ptr %self.dbg.spill.i, metadata !261, metadata !DIExpression()), !dbg !418
  store ptr %_43, ptr %other.dbg.spill.i, align 8
  call void @llvm.dbg.declare(metadata ptr %other.dbg.spill.i, metadata !269, metadata !DIExpression()), !dbg !420
  %_3.i = load i64, ptr %self, align 8, !dbg !421, !noundef !13
  %_4.i = load i64, ptr %_43, align 8, !dbg !422, !noundef !13
  %_0.i = icmp ule i64 %_3.i, %_4.i, !dbg !421
  br label %bb40, !dbg !423

bb38:                                             ; preds = %start
  br label %bb1, !dbg !424

bb30:                                             ; preds = %bb34, %bb35, %cleanup
  br label %bb37, !dbg !425

cleanup:                                          ; preds = %bb1
  %4 = landingpad { ptr, i32 }
          cleanup
  %5 = extractvalue { ptr, i32 } %4, 0
  %6 = extractvalue { ptr, i32 } %4, 1
  store ptr %5, ptr %1, align 8
  %7 = getelementptr inbounds i8, ptr %1, i64 8
  store i32 %6, ptr %7, align 8
  br label %bb30

bb40:                                             ; preds = %bb39
  %_4 = xor i1 %_0.i, true, !dbg !426
  br i1 %_4, label %bb1, label %bb3, !dbg !424

bb3:                                              ; preds = %bb40
  store i8 0, ptr %_39, align 1, !dbg !427
  store i8 1, ptr %_38, align 1, !dbg !427
  store i64 %init, ptr %accum, align 8, !dbg !427
  br label %bb4, !dbg !428

bb1:                                              ; preds = %bb38, %bb40
  store i8 0, ptr %_39, align 1, !dbg !429
; invoke <core::option::Option<T> as core::ops::try_trait::Try>::from_output
  %8 = invoke { i64, i64 } @"_ZN75_$LT$core..option..Option$LT$T$GT$$u20$as$u20$core..ops..try_trait..Try$GT$11from_output17h5fd9ce5e9e6dc670E"(i64 %init)
          to label %bb2 unwind label %cleanup, !dbg !429

bb4:                                              ; preds = %bb12, %bb3
  %_9 = getelementptr inbounds i8, ptr %self, i64 8, !dbg !430
  store ptr %self, ptr %self.dbg.spill.i9, align 8
  call void @llvm.dbg.declare(metadata ptr %self.dbg.spill.i9, metadata !283, metadata !DIExpression()), !dbg !431
  store ptr %_9, ptr %other.dbg.spill.i8, align 8
  call void @llvm.dbg.declare(metadata ptr %other.dbg.spill.i8, metadata !286, metadata !DIExpression()), !dbg !433
  %_3.i10 = load i64, ptr %self, align 8, !dbg !434, !noundef !13
  %_4.i11 = load i64, ptr %_9, align 8, !dbg !435, !noundef !13
  %_0.i12 = icmp ult i64 %_3.i10, %_4.i11, !dbg !434
  br label %bb5, !dbg !436

bb35:                                             ; preds = %bb32, %bb33, %cleanup2
  %9 = load i8, ptr %_38, align 1, !dbg !425, !range !259, !noundef !13
  %10 = trunc i8 %9 to i1, !dbg !425
  br i1 %10, label %bb34, label %bb30, !dbg !425

cleanup2.loopexit:                                ; preds = %bb7, %bb8, %bb9
  %lpad.loopexit = landingpad { ptr, i32 }
          cleanup
  br label %cleanup2

cleanup2.loopexit.split-lp:                       ; preds = %bb15, %bb19, %bb25, %bb22, %bb13
  %lpad.loopexit.split-lp = landingpad { ptr, i32 }
          cleanup
  br label %cleanup2

cleanup2:                                         ; preds = %cleanup2.loopexit.split-lp, %cleanup2.loopexit
  %lpad.phi = phi { ptr, i32 } [ %lpad.loopexit, %cleanup2.loopexit ], [ %lpad.loopexit.split-lp, %cleanup2.loopexit.split-lp ]
  %11 = extractvalue { ptr, i32 } %lpad.phi, 0
  %12 = extractvalue { ptr, i32 } %lpad.phi, 1
  store ptr %11, ptr %1, align 8
  %13 = getelementptr inbounds i8, ptr %1, i64 8
  store i32 %12, ptr %13, align 8
  br label %bb35

bb5:                                              ; preds = %bb4
  br i1 %_0.i12, label %bb6, label %bb15, !dbg !437

bb15:                                             ; preds = %bb5
  %14 = getelementptr inbounds i8, ptr %self, i64 16, !dbg !438
  store i8 1, ptr %14, align 8, !dbg !438
  %_25 = getelementptr inbounds i8, ptr %self, i64 8, !dbg !439
; invoke core::cmp::impls::<impl core::cmp::PartialEq for usize>::eq
  %_23 = invoke zeroext i1 @"_ZN4core3cmp5impls56_$LT$impl$u20$core..cmp..PartialEq$u20$for$u20$usize$GT$2eq17h8efac3f2105ac75cE"(ptr align 8 %self, ptr align 8 %_25)
          to label %bb16 unwind label %cleanup2.loopexit.split-lp, !dbg !440

bb6:                                              ; preds = %bb5
  store ptr %self, ptr %self.dbg.spill.i13, align 8
  call void @llvm.dbg.declare(metadata ptr %self.dbg.spill.i13, metadata !297, metadata !DIExpression()), !dbg !441
  %_0.i14 = load i64, ptr %self, align 8, !dbg !443, !noundef !13
  br label %bb7, !dbg !444

bb16:                                             ; preds = %bb15
  br i1 %_23, label %bb17, label %bb24, !dbg !440

bb24:                                             ; preds = %bb16
  br label %bb25, !dbg !445

bb17:                                             ; preds = %bb16
  store i8 0, ptr %_38, align 1, !dbg !446
  store i8 1, ptr %_37, align 1, !dbg !446
  %_30 = load i64, ptr %accum, align 8, !dbg !446, !noundef !13
  store ptr %self, ptr %self.dbg.spill.i15, align 8
  call void @llvm.dbg.declare(metadata ptr %self.dbg.spill.i15, metadata !297, metadata !DIExpression()), !dbg !447
  %_0.i16 = load i64, ptr %self, align 8, !dbg !449, !noundef !13
  br label %bb18, !dbg !450

bb25:                                             ; preds = %bb21, %bb24
  store i8 0, ptr %_38, align 1, !dbg !451
  %_36 = load i64, ptr %accum, align 8, !dbg !451, !noundef !13
; invoke <core::option::Option<T> as core::ops::try_trait::Try>::from_output
  %15 = invoke { i64, i64 } @"_ZN75_$LT$core..option..Option$LT$T$GT$$u20$as$u20$core..ops..try_trait..Try$GT$11from_output17h5fd9ce5e9e6dc670E"(i64 %_36)
          to label %bb26 unwind label %cleanup2.loopexit.split-lp, !dbg !451

bb33:                                             ; preds = %cleanup3
  %16 = load i8, ptr %_37, align 1, !dbg !452, !range !259, !noundef !13
  %17 = trunc i8 %16 to i1, !dbg !452
  br i1 %17, label %bb32, label %bb35, !dbg !452

cleanup3:                                         ; preds = %bb18
  %18 = landingpad { ptr, i32 }
          cleanup
  %19 = extractvalue { ptr, i32 } %18, 0
  %20 = extractvalue { ptr, i32 } %18, 1
  store ptr %19, ptr %1, align 8
  %21 = getelementptr inbounds i8, ptr %1, i64 8
  store i32 %20, ptr %21, align 8
  br label %bb33

bb18:                                             ; preds = %bb17
  store i8 0, ptr %_37, align 1, !dbg !453
  store i64 %_30, ptr %_29, align 8, !dbg !453
  %22 = getelementptr inbounds i8, ptr %_29, i64 8, !dbg !453
  store i64 %_0.i16, ptr %22, align 8, !dbg !453
  %23 = load i64, ptr %_29, align 8, !dbg !453, !noundef !13
  %24 = getelementptr inbounds i8, ptr %_29, i64 8, !dbg !453
  %25 = load i64, ptr %24, align 8, !dbg !453, !noundef !13
; invoke itertools::powerset::remaining_for::{{closure}}
  %26 = invoke { i64, i64 } @"_ZN9itertools8powerset13remaining_for28_$u7b$$u7b$closure$u7d$$u7d$17hc87f4c7b2166baceE"(ptr align 8 %f, i64 %23, i64 %25)
          to label %bb19 unwind label %cleanup3, !dbg !453

bb19:                                             ; preds = %bb18
  %_27.0 = extractvalue { i64, i64 } %26, 0, !dbg !453
  %_27.1 = extractvalue { i64, i64 } %26, 1, !dbg !453
; invoke <core::option::Option<T> as core::ops::try_trait::Try>::branch
  %27 = invoke { i64, i64 } @"_ZN75_$LT$core..option..Option$LT$T$GT$$u20$as$u20$core..ops..try_trait..Try$GT$6branch17h8c882f8e72763602E"(i64 %_27.0, i64 %_27.1)
          to label %bb20 unwind label %cleanup2.loopexit.split-lp, !dbg !453

bb20:                                             ; preds = %bb19
  %28 = extractvalue { i64, i64 } %27, 0, !dbg !453
  %29 = extractvalue { i64, i64 } %27, 1, !dbg !453
  store i64 %28, ptr %_26, align 8, !dbg !453
  %30 = getelementptr inbounds i8, ptr %_26, i64 8, !dbg !453
  store i64 %29, ptr %30, align 8, !dbg !453
  %_33 = load i64, ptr %_26, align 8, !dbg !453, !range !319, !noundef !13
  %31 = icmp eq i64 %_33, 0, !dbg !453
  br i1 %31, label %bb21, label %bb22, !dbg !453

bb21:                                             ; preds = %bb20
  %32 = getelementptr inbounds i8, ptr %_26, i64 8, !dbg !453
  %val = load i64, ptr %32, align 8, !dbg !453, !noundef !13
  store i64 %val, ptr %val.dbg.spill, align 8, !dbg !453
  call void @llvm.dbg.declare(metadata ptr %val.dbg.spill, metadata !399, metadata !DIExpression()), !dbg !454
  store i64 %val, ptr %accum, align 8, !dbg !455
  br label %bb25, !dbg !445

bb22:                                             ; preds = %bb20
; invoke <core::option::Option<T> as core::ops::try_trait::FromResidual>::from_residual
  %33 = invoke { i64, i64 } @"_ZN84_$LT$core..option..Option$LT$T$GT$$u20$as$u20$core..ops..try_trait..FromResidual$GT$13from_residual17h8d3f3e6e6ce3322aE"()
          to label %bb23 unwind label %cleanup2.loopexit.split-lp, !dbg !456

bb26:                                             ; preds = %bb25
  %34 = extractvalue { i64, i64 } %15, 0, !dbg !451
  %35 = extractvalue { i64, i64 } %15, 1, !dbg !451
  store i64 %34, ptr %_0, align 8, !dbg !451
  %36 = getelementptr inbounds i8, ptr %_0, i64 8, !dbg !451
  store i64 %35, ptr %36, align 8, !dbg !451
  br label %bb29, !dbg !425

bb29:                                             ; preds = %bb28, %bb26
  %37 = load i64, ptr %_0, align 8, !dbg !457, !range !319, !noundef !13
  %38 = getelementptr inbounds i8, ptr %_0, i64 8, !dbg !457
  %39 = load i64, ptr %38, align 8, !dbg !457
  %40 = insertvalue { i64, i64 } poison, i64 %37, 0, !dbg !457
  %41 = insertvalue { i64, i64 } %40, i64 %39, 1, !dbg !457
  ret { i64, i64 } %41, !dbg !457

bb23:                                             ; preds = %bb22
  %42 = extractvalue { i64, i64 } %33, 0, !dbg !456
  %43 = extractvalue { i64, i64 } %33, 1, !dbg !456
  store i64 %42, ptr %_0, align 8, !dbg !456
  %44 = getelementptr inbounds i8, ptr %_0, i64 8, !dbg !456
  store i64 %43, ptr %44, align 8, !dbg !456
  br label %bb27, !dbg !458

bb27:                                             ; preds = %bb14, %bb23
  br label %bb28, !dbg !460

bb32:                                             ; preds = %bb33
  br label %bb35, !dbg !452

bb7:                                              ; preds = %bb6
; invoke <usize as core::iter::range::Step>::forward_unchecked
  %n = invoke i64 @"_ZN49_$LT$usize$u20$as$u20$core..iter..range..Step$GT$17forward_unchecked17hc08ef21cfd3bb3c6E"(i64 %_0.i14, i64 1)
          to label %bb8 unwind label %cleanup2.loopexit, !dbg !462

bb8:                                              ; preds = %bb7
  store i64 %n, ptr %n.dbg.spill, align 8, !dbg !462
  call void @llvm.dbg.declare(metadata ptr %n.dbg.spill, metadata !389, metadata !DIExpression()), !dbg !463
  call void @llvm.dbg.declare(metadata ptr %n.dbg.spill, metadata !464, metadata !DIExpression()), !dbg !471
  call void @llvm.dbg.declare(metadata ptr %n.dbg.spill, metadata !473, metadata !DIExpression()), !dbg !478
  store ptr %self, ptr %dest.dbg.spill, align 8, !dbg !480
  call void @llvm.dbg.declare(metadata ptr %dest.dbg.spill, metadata !468, metadata !DIExpression()), !dbg !481
  call void @llvm.dbg.declare(metadata ptr %dest.dbg.spill, metadata !482, metadata !DIExpression()), !dbg !486
  call void @llvm.dbg.declare(metadata ptr %dest.dbg.spill, metadata !477, metadata !DIExpression()), !dbg !488
  %n4 = load i64, ptr %self, align 8, !dbg !489, !noundef !13
  store i64 %n4, ptr %n.dbg.spill5, align 8, !dbg !489
  call void @llvm.dbg.declare(metadata ptr %n.dbg.spill5, metadata !391, metadata !DIExpression()), !dbg !490
  call void @llvm.dbg.declare(metadata ptr %n.dbg.spill5, metadata !469, metadata !DIExpression()), !dbg !491
  store i64 %n, ptr %self, align 8, !dbg !492
  store i8 0, ptr %_38, align 1, !dbg !493
  %_19 = load i64, ptr %accum, align 8, !dbg !493, !noundef !13
  store i64 %_19, ptr %_18, align 8, !dbg !494
  %45 = getelementptr inbounds i8, ptr %_18, i64 8, !dbg !494
  store i64 %n4, ptr %45, align 8, !dbg !494
  %46 = load i64, ptr %_18, align 8, !dbg !494, !noundef !13
  %47 = getelementptr inbounds i8, ptr %_18, i64 8, !dbg !494
  %48 = load i64, ptr %47, align 8, !dbg !494, !noundef !13
; invoke itertools::powerset::remaining_for::{{closure}}
  %49 = invoke { i64, i64 } @"_ZN9itertools8powerset13remaining_for28_$u7b$$u7b$closure$u7d$$u7d$17hc87f4c7b2166baceE"(ptr align 8 %f, i64 %46, i64 %48)
          to label %bb9 unwind label %cleanup2.loopexit, !dbg !494

bb9:                                              ; preds = %bb8
  %_16.0 = extractvalue { i64, i64 } %49, 0, !dbg !494
  %_16.1 = extractvalue { i64, i64 } %49, 1, !dbg !494
; invoke <core::option::Option<T> as core::ops::try_trait::Try>::branch
  %50 = invoke { i64, i64 } @"_ZN75_$LT$core..option..Option$LT$T$GT$$u20$as$u20$core..ops..try_trait..Try$GT$6branch17h8c882f8e72763602E"(i64 %_16.0, i64 %_16.1)
          to label %bb10 unwind label %cleanup2.loopexit, !dbg !494

bb10:                                             ; preds = %bb9
  %51 = extractvalue { i64, i64 } %50, 0, !dbg !494
  %52 = extractvalue { i64, i64 } %50, 1, !dbg !494
  store i64 %51, ptr %_15, align 8, !dbg !494
  %53 = getelementptr inbounds i8, ptr %_15, i64 8, !dbg !494
  store i64 %52, ptr %53, align 8, !dbg !494
  %_20 = load i64, ptr %_15, align 8, !dbg !494, !range !319, !noundef !13
  %54 = icmp eq i64 %_20, 0, !dbg !494
  br i1 %54, label %bb12, label %bb13, !dbg !494

bb12:                                             ; preds = %bb10
  %55 = getelementptr inbounds i8, ptr %_15, i64 8, !dbg !494
  %val6 = load i64, ptr %55, align 8, !dbg !494, !noundef !13
  store i64 %val6, ptr %val.dbg.spill7, align 8, !dbg !494
  call void @llvm.dbg.declare(metadata ptr %val.dbg.spill7, metadata !395, metadata !DIExpression()), !dbg !495
  store i8 1, ptr %_38, align 1, !dbg !496
  store i64 %val6, ptr %accum, align 8, !dbg !496
  br label %bb4, !dbg !428

bb13:                                             ; preds = %bb10
; invoke <core::option::Option<T> as core::ops::try_trait::FromResidual>::from_residual
  %56 = invoke { i64, i64 } @"_ZN84_$LT$core..option..Option$LT$T$GT$$u20$as$u20$core..ops..try_trait..FromResidual$GT$13from_residual17h8d3f3e6e6ce3322aE"()
          to label %bb14 unwind label %cleanup2.loopexit.split-lp, !dbg !497

bb14:                                             ; preds = %bb13
  %57 = extractvalue { i64, i64 } %56, 0, !dbg !497
  %58 = extractvalue { i64, i64 } %56, 1, !dbg !497
  store i64 %57, ptr %_0, align 8, !dbg !497
  %59 = getelementptr inbounds i8, ptr %_0, i64 8, !dbg !497
  store i64 %58, ptr %59, align 8, !dbg !497
  br label %bb27, !dbg !458

bb28:                                             ; preds = %bb2, %bb27
  br label %bb29, !dbg !425

bb11:                                             ; No predecessors!
  unreachable, !dbg !494

bb34:                                             ; preds = %bb35
  br label %bb30, !dbg !425

bb2:                                              ; preds = %bb1
  %60 = extractvalue { i64, i64 } %8, 0, !dbg !429
  %61 = extractvalue { i64, i64 } %8, 1, !dbg !429
  store i64 %60, ptr %_0, align 8, !dbg !429
  %62 = getelementptr inbounds i8, ptr %_0, i64 8, !dbg !429
  store i64 %61, ptr %62, align 8, !dbg !429
  br label %bb28, !dbg !460

bb37:                                             ; preds = %bb30
  %63 = load i8, ptr %_39, align 1, !dbg !425, !range !259, !noundef !13
  %64 = trunc i8 %63 to i1, !dbg !425
  br i1 %64, label %bb36, label %bb31, !dbg !425

bb31:                                             ; preds = %bb36, %bb37
  %65 = load ptr, ptr %1, align 8, !dbg !498, !noundef !13
  %66 = getelementptr inbounds i8, ptr %1, i64 8, !dbg !498
  %67 = load i32, ptr %66, align 8, !dbg !498, !noundef !13
  %68 = insertvalue { ptr, i32 } poison, ptr %65, 0, !dbg !498
  %69 = insertvalue { ptr, i32 } %68, i32 %67, 1, !dbg !498
  resume { ptr, i32 } %69, !dbg !498

bb36:                                             ; preds = %bb37
  br label %bb31, !dbg !425
}

; <core::ops::range::RangeInclusive<T> as core::iter::range::RangeInclusiveIteratorImpl>::spec_next
; Function Attrs: inlinehint uwtable
define { i64, i64 } @"_ZN107_$LT$core..ops..range..RangeInclusive$LT$T$GT$$u20$as$u20$core..iter..range..RangeInclusiveIteratorImpl$GT$9spec_next17h3805585fb65837c8E"(ptr align 8 %self) unnamed_addr #0 !dbg !499 {
start:
  %self.dbg.spill.i8 = alloca ptr, align 8
  %self.dbg.spill.i6 = alloca ptr, align 8
  %other.dbg.spill.i1 = alloca ptr, align 8
  %self.dbg.spill.i2 = alloca ptr, align 8
  %other.dbg.spill.i = alloca ptr, align 8
  %self.dbg.spill.i = alloca ptr, align 8
  %dest.dbg.spill = alloca ptr, align 8
  %n.dbg.spill = alloca i64, align 8
  %is_iterating.dbg.spill = alloca i8, align 1
  %self.dbg.spill = alloca ptr, align 8
  %result = alloca i64, align 8
  %_0 = alloca %"core::option::Option<usize>", align 8
  store ptr %self, ptr %self.dbg.spill, align 8
  call void @llvm.dbg.declare(metadata ptr %self.dbg.spill, metadata !503, metadata !DIExpression()), !dbg !508
  call void @llvm.dbg.declare(metadata ptr %self.dbg.spill, metadata !509, metadata !DIExpression()), !dbg !513
  call void @llvm.dbg.declare(metadata ptr %result, metadata !515, metadata !DIExpression()), !dbg !522
  %0 = getelementptr inbounds i8, ptr %self, i64 16, !dbg !524
  %1 = load i8, ptr %0, align 8, !dbg !524, !range !259, !noundef !13
  %_12 = trunc i8 %1 to i1, !dbg !524
  br i1 %_12, label %bb11, label %bb12, !dbg !524

bb12:                                             ; preds = %start
  %_15 = getelementptr inbounds i8, ptr %self, i64 8, !dbg !525
  store ptr %self, ptr %self.dbg.spill.i, align 8
  call void @llvm.dbg.declare(metadata ptr %self.dbg.spill.i, metadata !261, metadata !DIExpression()), !dbg !526
  store ptr %_15, ptr %other.dbg.spill.i, align 8
  call void @llvm.dbg.declare(metadata ptr %other.dbg.spill.i, metadata !269, metadata !DIExpression()), !dbg !528
  %_3.i = load i64, ptr %self, align 8, !dbg !529, !noundef !13
  %_4.i = load i64, ptr %_15, align 8, !dbg !530, !noundef !13
  %_0.i = icmp ule i64 %_3.i, %_4.i, !dbg !529
  %_2 = xor i1 %_0.i, true, !dbg !531
  br i1 %_2, label %bb1, label %bb2, !dbg !532

bb11:                                             ; preds = %start
  br label %bb1, !dbg !532

bb2:                                              ; preds = %bb12
  %_5 = getelementptr inbounds i8, ptr %self, i64 8, !dbg !533
  store ptr %self, ptr %self.dbg.spill.i2, align 8
  call void @llvm.dbg.declare(metadata ptr %self.dbg.spill.i2, metadata !283, metadata !DIExpression()), !dbg !534
  store ptr %_5, ptr %other.dbg.spill.i1, align 8
  call void @llvm.dbg.declare(metadata ptr %other.dbg.spill.i1, metadata !286, metadata !DIExpression()), !dbg !536
  %_3.i3 = load i64, ptr %self, align 8, !dbg !537, !noundef !13
  %_4.i4 = load i64, ptr %_5, align 8, !dbg !538, !noundef !13
  %_0.i5 = icmp ult i64 %_3.i3, %_4.i4, !dbg !537
  %2 = zext i1 %_0.i5 to i8, !dbg !539
  store i8 %2, ptr %is_iterating.dbg.spill, align 1, !dbg !539
  call void @llvm.dbg.declare(metadata ptr %is_iterating.dbg.spill, metadata !504, metadata !DIExpression()), !dbg !540
  br i1 %_0.i5, label %bb4, label %bb7, !dbg !541

bb1:                                              ; preds = %bb11, %bb12
  store i64 0, ptr %_0, align 8, !dbg !542
  br label %bb10, !dbg !543

bb7:                                              ; preds = %bb2
  %3 = getelementptr inbounds i8, ptr %self, i64 16, !dbg !544
  store i8 1, ptr %3, align 8, !dbg !544
  store ptr %self, ptr %self.dbg.spill.i8, align 8
  call void @llvm.dbg.declare(metadata ptr %self.dbg.spill.i8, metadata !297, metadata !DIExpression()), !dbg !545
  %_0.i9 = load i64, ptr %self, align 8, !dbg !547, !noundef !13
  store i64 %_0.i9, ptr %result, align 8, !dbg !548
  br label %bb9, !dbg !549

bb4:                                              ; preds = %bb2
  store ptr %self, ptr %self.dbg.spill.i6, align 8
  call void @llvm.dbg.declare(metadata ptr %self.dbg.spill.i6, metadata !297, metadata !DIExpression()), !dbg !550
  %_0.i7 = load i64, ptr %self, align 8, !dbg !552, !noundef !13
; call <usize as core::iter::range::Step>::forward_unchecked
  %n = call i64 @"_ZN49_$LT$usize$u20$as$u20$core..iter..range..Step$GT$17forward_unchecked17hc08ef21cfd3bb3c6E"(i64 %_0.i7, i64 1), !dbg !553
  store i64 %n, ptr %n.dbg.spill, align 8, !dbg !553
  call void @llvm.dbg.declare(metadata ptr %n.dbg.spill, metadata !506, metadata !DIExpression()), !dbg !554
  call void @llvm.dbg.declare(metadata ptr %n.dbg.spill, metadata !521, metadata !DIExpression()), !dbg !555
  call void @llvm.dbg.declare(metadata ptr %n.dbg.spill, metadata !556, metadata !DIExpression()), !dbg !561
  store ptr %self, ptr %dest.dbg.spill, align 8, !dbg !563
  call void @llvm.dbg.declare(metadata ptr %dest.dbg.spill, metadata !520, metadata !DIExpression()), !dbg !564
  call void @llvm.dbg.declare(metadata ptr %dest.dbg.spill, metadata !565, metadata !DIExpression()), !dbg !569
  call void @llvm.dbg.declare(metadata ptr %dest.dbg.spill, metadata !560, metadata !DIExpression()), !dbg !571
  %4 = load i64, ptr %self, align 8, !dbg !572, !noundef !13
  store i64 %4, ptr %result, align 8, !dbg !572
  store i64 %n, ptr %self, align 8, !dbg !573
  br label %bb9, !dbg !549

bb9:                                              ; preds = %bb4, %bb7
  %5 = load i64, ptr %result, align 8, !dbg !574, !noundef !13
  %6 = getelementptr inbounds i8, ptr %_0, i64 8, !dbg !574
  store i64 %5, ptr %6, align 8, !dbg !574
  store i64 1, ptr %_0, align 8, !dbg !574
  br label %bb10, !dbg !543

bb10:                                             ; preds = %bb1, %bb9
  %7 = load i64, ptr %_0, align 8, !dbg !543, !range !319, !noundef !13
  %8 = getelementptr inbounds i8, ptr %_0, i64 8, !dbg !543
  %9 = load i64, ptr %8, align 8, !dbg !543
  %10 = insertvalue { i64, i64 } poison, i64 %7, 0, !dbg !543
  %11 = insertvalue { i64, i64 } %10, i64 %9, 1, !dbg !543
  ret { i64, i64 } %11, !dbg !543
}

; <core::iter::adapters::enumerate::Enumerate<I> as core::iter::traits::iterator::Iterator>::try_fold
; Function Attrs: inlinehint uwtable
define { i64, i64 } @"_ZN110_$LT$core..iter..adapters..enumerate..Enumerate$LT$I$GT$$u20$as$u20$core..iter..traits..iterator..Iterator$GT$8try_fold17h0c5fbae18603e5d3E"(ptr align 8 %self, i64 %init, ptr align 8 %fold.0, ptr align 8 %fold.1) unnamed_addr #0 !dbg !575 {
start:
  %count.dbg.spill = alloca ptr, align 8
  %fold.dbg.spill = alloca %"{closure@src/combinations.rs:189:53: 189:67}", align 8
  %init.dbg.spill = alloca i64, align 8
  %self.dbg.spill = alloca ptr, align 8
  %_5 = alloca %"{closure@<core::iter::adapters::enumerate::Enumerate<I> as core::iter::traits::iterator::Iterator>::try_fold::enumerate<'_, &usize, usize, core::option::Option<usize>, {closure@src/combinations.rs:189:53: 189:67}>::{closure#0}}", align 8
  store ptr %self, ptr %self.dbg.spill, align 8
  call void @llvm.dbg.declare(metadata ptr %self.dbg.spill, metadata !610, metadata !DIExpression()), !dbg !616
  store i64 %init, ptr %init.dbg.spill, align 8
  call void @llvm.dbg.declare(metadata ptr %init.dbg.spill, metadata !611, metadata !DIExpression()), !dbg !617
  store ptr %fold.0, ptr %fold.dbg.spill, align 8
  %0 = getelementptr inbounds i8, ptr %fold.dbg.spill, i64 8
  store ptr %fold.1, ptr %0, align 8
  call void @llvm.dbg.declare(metadata ptr %fold.dbg.spill, metadata !612, metadata !DIExpression()), !dbg !618
  call void @llvm.dbg.declare(metadata ptr %fold.dbg.spill, metadata !619, metadata !DIExpression()), !dbg !634
  %count = getelementptr inbounds i8, ptr %self, i64 16, !dbg !636
  store ptr %count, ptr %count.dbg.spill, align 8, !dbg !636
  call void @llvm.dbg.declare(metadata ptr %count.dbg.spill, metadata !631, metadata !DIExpression()), !dbg !637
  store ptr %fold.0, ptr %_5, align 8, !dbg !638
  %1 = getelementptr inbounds i8, ptr %_5, i64 8, !dbg !638
  store ptr %fold.1, ptr %1, align 8, !dbg !638
  %2 = getelementptr inbounds i8, ptr %_5, i64 16, !dbg !638
  store ptr %count, ptr %2, align 8, !dbg !638
; call core::iter::traits::iterator::Iterator::try_fold
  %3 = call { i64, i64 } @_ZN4core4iter6traits8iterator8Iterator8try_fold17hb25e79ebf7f4ea4fE(ptr align 8 %self, i64 %init, ptr align 8 %_5), !dbg !639
  %_0.0 = extractvalue { i64, i64 } %3, 0, !dbg !639
  %_0.1 = extractvalue { i64, i64 } %3, 1, !dbg !639
  %4 = insertvalue { i64, i64 } poison, i64 %_0.0, 0, !dbg !640
  %5 = insertvalue { i64, i64 } %4, i64 %_0.1, 1, !dbg !640
  ret { i64, i64 } %5, !dbg !640
}

; <core::iter::adapters::enumerate::Enumerate<I> as core::iter::traits::iterator::Iterator>::try_fold
; Function Attrs: inlinehint uwtable
define { i64, i64 } @"_ZN110_$LT$core..iter..adapters..enumerate..Enumerate$LT$I$GT$$u20$as$u20$core..iter..traits..iterator..Iterator$GT$8try_fold17haf0acc9b3d1acf2fE"(ptr align 8 %self, i64 %init, ptr align 8 %fold) unnamed_addr #0 !dbg !641 {
start:
  %count.dbg.spill = alloca ptr, align 8
  %fold.dbg.spill = alloca ptr, align 8
  %init.dbg.spill = alloca i64, align 8
  %self.dbg.spill = alloca ptr, align 8
  %_5 = alloca %"{closure@<core::iter::adapters::enumerate::Enumerate<I> as core::iter::traits::iterator::Iterator>::try_fold::enumerate<'_, &usize, usize, core::option::Option<usize>, {closure@src/permutations.rs:177:72: 177:86}>::{closure#0}}", align 8
  store ptr %self, ptr %self.dbg.spill, align 8
  call void @llvm.dbg.declare(metadata ptr %self.dbg.spill, metadata !654, metadata !DIExpression()), !dbg !659
  store i64 %init, ptr %init.dbg.spill, align 8
  call void @llvm.dbg.declare(metadata ptr %init.dbg.spill, metadata !655, metadata !DIExpression()), !dbg !660
  store ptr %fold, ptr %fold.dbg.spill, align 8
  call void @llvm.dbg.declare(metadata ptr %fold.dbg.spill, metadata !656, metadata !DIExpression()), !dbg !661
  call void @llvm.dbg.declare(metadata ptr %fold.dbg.spill, metadata !662, metadata !DIExpression()), !dbg !675
  %count = getelementptr inbounds i8, ptr %self, i64 16, !dbg !677
  store ptr %count, ptr %count.dbg.spill, align 8, !dbg !677
  call void @llvm.dbg.declare(metadata ptr %count.dbg.spill, metadata !672, metadata !DIExpression()), !dbg !678
  store ptr %fold, ptr %_5, align 8, !dbg !679
  %0 = getelementptr inbounds i8, ptr %_5, i64 8, !dbg !679
  store ptr %count, ptr %0, align 8, !dbg !679
  %1 = load ptr, ptr %_5, align 8, !dbg !680, !nonnull !13, !align !681, !noundef !13
  %2 = getelementptr inbounds i8, ptr %_5, i64 8, !dbg !680
  %3 = load ptr, ptr %2, align 8, !dbg !680, !nonnull !13, !align !681, !noundef !13
; call core::iter::traits::iterator::Iterator::try_fold
  %4 = call { i64, i64 } @_ZN4core4iter6traits8iterator8Iterator8try_fold17h950f0164dc796000E(ptr align 8 %self, i64 %init, ptr align 8 %1, ptr align 8 %3), !dbg !680
  %_0.0 = extractvalue { i64, i64 } %4, 0, !dbg !680
  %_0.1 = extractvalue { i64, i64 } %4, 1, !dbg !680
  %5 = insertvalue { i64, i64 } poison, i64 %_0.0, 0, !dbg !682
  %6 = insertvalue { i64, i64 } %5, i64 %_0.1, 1, !dbg !682
  ret { i64, i64 } %6, !dbg !682
}

; <core::iter::adapters::enumerate::Enumerate<I> as core::iter::traits::iterator::Iterator>::try_fold
; Function Attrs: inlinehint uwtable
define { i64, i64 } @"_ZN110_$LT$core..iter..adapters..enumerate..Enumerate$LT$I$GT$$u20$as$u20$core..iter..traits..iterator..Iterator$GT$8try_fold17heae6ed774050f67aE"(ptr align 8 %self, i64 %init, ptr align 8 %fold) unnamed_addr #0 !dbg !683 {
start:
  %count.dbg.spill = alloca ptr, align 8
  %init.dbg.spill = alloca i64, align 8
  %self.dbg.spill = alloca ptr, align 8
  %_5 = alloca %"{closure@<core::iter::adapters::enumerate::Enumerate<I> as core::iter::traits::iterator::Iterator>::try_fold::enumerate<'_, &usize, usize, core::option::Option<usize>, {closure@src/combinations_with_replacement.rs:168:53: 168:67}>::{closure#0}}", align 8
  store ptr %self, ptr %self.dbg.spill, align 8
  call void @llvm.dbg.declare(metadata ptr %self.dbg.spill, metadata !696, metadata !DIExpression()), !dbg !701
  store i64 %init, ptr %init.dbg.spill, align 8
  call void @llvm.dbg.declare(metadata ptr %init.dbg.spill, metadata !697, metadata !DIExpression()), !dbg !702
  call void @llvm.dbg.declare(metadata ptr %fold, metadata !698, metadata !DIExpression()), !dbg !703
  call void @llvm.dbg.declare(metadata ptr %fold, metadata !704, metadata !DIExpression()), !dbg !717
  %count = getelementptr inbounds i8, ptr %self, i64 16, !dbg !719
  store ptr %count, ptr %count.dbg.spill, align 8, !dbg !719
  call void @llvm.dbg.declare(metadata ptr %count.dbg.spill, metadata !714, metadata !DIExpression()), !dbg !720
  call void @llvm.memcpy.p0.p0.i64(ptr align 8 %_5, ptr align 8 %fold, i64 24, i1 false), !dbg !721
  %0 = getelementptr inbounds i8, ptr %_5, i64 24, !dbg !721
  store ptr %count, ptr %0, align 8, !dbg !721
; call core::iter::traits::iterator::Iterator::try_fold
  %1 = call { i64, i64 } @_ZN4core4iter6traits8iterator8Iterator8try_fold17h5d3df80521af4e7dE(ptr align 8 %self, i64 %init, ptr align 8 %_5), !dbg !722
  %_0.0 = extractvalue { i64, i64 } %1, 0, !dbg !722
  %_0.1 = extractvalue { i64, i64 } %1, 1, !dbg !722
  %2 = insertvalue { i64, i64 } poison, i64 %_0.0, 0, !dbg !723
  %3 = insertvalue { i64, i64 } %2, i64 %_0.1, 1, !dbg !723
  ret { i64, i64 } %3, !dbg !723
}

; <core::iter::adapters::enumerate::Enumerate<I> as core::iter::traits::iterator::Iterator>::try_fold::enumerate::{{closure}}
; Function Attrs: inlinehint uwtable
define { i64, i64 } @"_ZN110_$LT$core..iter..adapters..enumerate..Enumerate$LT$I$GT$$u20$as$u20$core..iter..traits..iterator..Iterator$GT$8try_fold9enumerate28_$u7b$$u7b$closure$u7d$$u7d$17h3f0bebab8bfde041E"(ptr align 8 %_1, i64 %acc, ptr align 8 %item) unnamed_addr #0 personality ptr @rust_eh_personality !dbg !724 {
start:
  %0 = alloca { ptr, i32, [1 x i32] }, align 8
  %acc.dbg.spill1 = alloca %"core::option::Option<usize>", align 8
  %item.dbg.spill = alloca ptr, align 8
  %acc.dbg.spill = alloca i64, align 8
  %_1.dbg.spill = alloca ptr, align 8
  %_7 = alloca { i64, ptr }, align 8
  %_6 = alloca { i64, { i64, ptr } }, align 8
  store ptr %_1, ptr %_1.dbg.spill, align 8
  call void @llvm.dbg.declare(metadata ptr %_1.dbg.spill, metadata !731, metadata !DIExpression(DW_OP_deref)), !dbg !735
  call void @llvm.dbg.declare(metadata ptr %_1.dbg.spill, metadata !732, metadata !DIExpression(DW_OP_deref, DW_OP_plus_uconst, 24)), !dbg !736
  store i64 %acc, ptr %acc.dbg.spill, align 8
  call void @llvm.dbg.declare(metadata ptr %acc.dbg.spill, metadata !729, metadata !DIExpression()), !dbg !737
  store ptr %item, ptr %item.dbg.spill, align 8
  call void @llvm.dbg.declare(metadata ptr %item.dbg.spill, metadata !730, metadata !DIExpression()), !dbg !738
  %1 = getelementptr inbounds i8, ptr %_1, i64 24, !dbg !739
  %_10 = load ptr, ptr %1, align 8, !dbg !739, !nonnull !13, !align !681, !noundef !13
  %_8 = load i64, ptr %_10, align 8, !dbg !739, !noundef !13
  store i64 %_8, ptr %_7, align 8, !dbg !740
  %2 = getelementptr inbounds i8, ptr %_7, i64 8, !dbg !740
  store ptr %item, ptr %2, align 8, !dbg !740
  store i64 %acc, ptr %_6, align 8, !dbg !741
  %3 = load i64, ptr %_7, align 8, !dbg !741, !noundef !13
  %4 = getelementptr inbounds i8, ptr %_7, i64 8, !dbg !741
  %5 = load ptr, ptr %4, align 8, !dbg !741, !nonnull !13, !align !681, !noundef !13
  %6 = getelementptr inbounds i8, ptr %_6, i64 8, !dbg !741
  store i64 %3, ptr %6, align 8, !dbg !741
  %7 = getelementptr inbounds i8, ptr %6, i64 8, !dbg !741
  store ptr %5, ptr %7, align 8, !dbg !741
  %8 = load i64, ptr %_6, align 8, !dbg !741, !noundef !13
  %9 = getelementptr inbounds i8, ptr %_6, i64 8, !dbg !741
  %10 = load i64, ptr %9, align 8, !dbg !741, !noundef !13
  %11 = getelementptr inbounds i8, ptr %9, i64 8, !dbg !741
  %12 = load ptr, ptr %11, align 8, !dbg !741, !nonnull !13, !align !681, !noundef !13
; call itertools::combinations_with_replacement::remaining_for::{{closure}}
  %13 = call { i64, i64 } @"_ZN9itertools29combinations_with_replacement13remaining_for28_$u7b$$u7b$closure$u7d$$u7d$17h6d390d2f286507f6E"(ptr align 8 %_1, i64 %8, i64 %10, ptr align 8 %12), !dbg !741
  %acc.0 = extractvalue { i64, i64 } %13, 0, !dbg !741
  %acc.1 = extractvalue { i64, i64 } %13, 1, !dbg !741
  store i64 %acc.0, ptr %acc.dbg.spill1, align 8, !dbg !741
  %14 = getelementptr inbounds i8, ptr %acc.dbg.spill1, i64 8, !dbg !741
  store i64 %acc.1, ptr %14, align 8, !dbg !741
  call void @llvm.dbg.declare(metadata ptr %acc.dbg.spill1, metadata !733, metadata !DIExpression()), !dbg !742
  %15 = getelementptr inbounds i8, ptr %_1, i64 24, !dbg !743
  %_11 = load ptr, ptr %15, align 8, !dbg !743, !nonnull !13, !align !681, !noundef !13
  %16 = load i64, ptr %_11, align 8, !dbg !743, !noundef !13
  %17 = call { i64, i1 } @llvm.uadd.with.overflow.i64(i64 %16, i64 1), !dbg !743
  %_9.0 = extractvalue { i64, i1 } %17, 0, !dbg !743
  %_9.1 = extractvalue { i64, i1 } %17, 1, !dbg !743
  %18 = getelementptr inbounds i8, ptr %_1, i64 24, !dbg !743
  %_12 = load ptr, ptr %18, align 8, !dbg !743, !nonnull !13, !align !681, !noundef !13
  %19 = call i1 @llvm.expect.i1(i1 %_9.1, i1 false), !dbg !743
  br i1 %19, label %panic, label %bb2, !dbg !743

bb2:                                              ; preds = %start
  %20 = getelementptr inbounds i8, ptr %_1, i64 24, !dbg !743
  %_13 = load ptr, ptr %20, align 8, !dbg !743, !nonnull !13, !align !681, !noundef !13
  store i64 %_9.0, ptr %_13, align 8, !dbg !743
  %21 = insertvalue { i64, i64 } poison, i64 %acc.0, 0, !dbg !744
  %22 = insertvalue { i64, i64 } %21, i64 %acc.1, 1, !dbg !744
  ret { i64, i64 } %22, !dbg !744

panic:                                            ; preds = %start
; invoke core::panicking::panic
  invoke void @_ZN4core9panicking5panic17h5884aad3a9044857E(ptr align 1 @str.0, i64 28, ptr align 8 @alloc_ca61f256367d8768c8a303e30b504f48) #10
          to label %unreachable unwind label %cleanup, !dbg !743

bb3:                                              ; preds = %cleanup
  %23 = load ptr, ptr %0, align 8, !dbg !745, !noundef !13
  %24 = getelementptr inbounds i8, ptr %0, i64 8, !dbg !745
  %25 = load i32, ptr %24, align 8, !dbg !745, !noundef !13
  %26 = insertvalue { ptr, i32 } poison, ptr %23, 0, !dbg !745
  %27 = insertvalue { ptr, i32 } %26, i32 %25, 1, !dbg !745
  resume { ptr, i32 } %27, !dbg !745

cleanup:                                          ; preds = %panic
  %28 = landingpad { ptr, i32 }
          cleanup
  %29 = extractvalue { ptr, i32 } %28, 0
  %30 = extractvalue { ptr, i32 } %28, 1
  store ptr %29, ptr %0, align 8
  %31 = getelementptr inbounds i8, ptr %0, i64 8
  store i32 %30, ptr %31, align 8
  br label %bb3

unreachable:                                      ; preds = %panic
  unreachable
}

; <core::iter::adapters::enumerate::Enumerate<I> as core::iter::traits::iterator::Iterator>::try_fold::enumerate::{{closure}}
; Function Attrs: inlinehint uwtable
define { i64, i64 } @"_ZN110_$LT$core..iter..adapters..enumerate..Enumerate$LT$I$GT$$u20$as$u20$core..iter..traits..iterator..Iterator$GT$8try_fold9enumerate28_$u7b$$u7b$closure$u7d$$u7d$17hdc57038c7ccc69e8E"(ptr align 8 %_1, i64 %acc, ptr align 8 %item) unnamed_addr #0 personality ptr @rust_eh_personality !dbg !746 {
start:
  %0 = alloca { ptr, i32, [1 x i32] }, align 8
  %acc.dbg.spill1 = alloca %"core::option::Option<usize>", align 8
  %item.dbg.spill = alloca ptr, align 8
  %acc.dbg.spill = alloca i64, align 8
  %_1.dbg.spill = alloca ptr, align 8
  %_7 = alloca { i64, ptr }, align 8
  %_6 = alloca { i64, { i64, ptr } }, align 8
  store ptr %_1, ptr %_1.dbg.spill, align 8
  call void @llvm.dbg.declare(metadata ptr %_1.dbg.spill, metadata !753, metadata !DIExpression(DW_OP_deref)), !dbg !757
  call void @llvm.dbg.declare(metadata ptr %_1.dbg.spill, metadata !754, metadata !DIExpression(DW_OP_deref, DW_OP_plus_uconst, 16)), !dbg !758
  store i64 %acc, ptr %acc.dbg.spill, align 8
  call void @llvm.dbg.declare(metadata ptr %acc.dbg.spill, metadata !751, metadata !DIExpression()), !dbg !759
  store ptr %item, ptr %item.dbg.spill, align 8
  call void @llvm.dbg.declare(metadata ptr %item.dbg.spill, metadata !752, metadata !DIExpression()), !dbg !760
  %1 = getelementptr inbounds i8, ptr %_1, i64 16, !dbg !761
  %_10 = load ptr, ptr %1, align 8, !dbg !761, !nonnull !13, !align !681, !noundef !13
  %_8 = load i64, ptr %_10, align 8, !dbg !761, !noundef !13
  store i64 %_8, ptr %_7, align 8, !dbg !762
  %2 = getelementptr inbounds i8, ptr %_7, i64 8, !dbg !762
  store ptr %item, ptr %2, align 8, !dbg !762
  store i64 %acc, ptr %_6, align 8, !dbg !763
  %3 = load i64, ptr %_7, align 8, !dbg !763, !noundef !13
  %4 = getelementptr inbounds i8, ptr %_7, i64 8, !dbg !763
  %5 = load ptr, ptr %4, align 8, !dbg !763, !nonnull !13, !align !681, !noundef !13
  %6 = getelementptr inbounds i8, ptr %_6, i64 8, !dbg !763
  store i64 %3, ptr %6, align 8, !dbg !763
  %7 = getelementptr inbounds i8, ptr %6, i64 8, !dbg !763
  store ptr %5, ptr %7, align 8, !dbg !763
  %8 = load i64, ptr %_6, align 8, !dbg !763, !noundef !13
  %9 = getelementptr inbounds i8, ptr %_6, i64 8, !dbg !763
  %10 = load i64, ptr %9, align 8, !dbg !763, !noundef !13
  %11 = getelementptr inbounds i8, ptr %9, i64 8, !dbg !763
  %12 = load ptr, ptr %11, align 8, !dbg !763, !nonnull !13, !align !681, !noundef !13
; call itertools::combinations::remaining_for::{{closure}}
  %13 = call { i64, i64 } @"_ZN9itertools12combinations13remaining_for28_$u7b$$u7b$closure$u7d$$u7d$17h0c0a99aed52d66a0E"(ptr align 8 %_1, i64 %8, i64 %10, ptr align 8 %12), !dbg !763
  %acc.0 = extractvalue { i64, i64 } %13, 0, !dbg !763
  %acc.1 = extractvalue { i64, i64 } %13, 1, !dbg !763
  store i64 %acc.0, ptr %acc.dbg.spill1, align 8, !dbg !763
  %14 = getelementptr inbounds i8, ptr %acc.dbg.spill1, i64 8, !dbg !763
  store i64 %acc.1, ptr %14, align 8, !dbg !763
  call void @llvm.dbg.declare(metadata ptr %acc.dbg.spill1, metadata !755, metadata !DIExpression()), !dbg !764
  %15 = getelementptr inbounds i8, ptr %_1, i64 16, !dbg !765
  %_11 = load ptr, ptr %15, align 8, !dbg !765, !nonnull !13, !align !681, !noundef !13
  %16 = load i64, ptr %_11, align 8, !dbg !765, !noundef !13
  %17 = call { i64, i1 } @llvm.uadd.with.overflow.i64(i64 %16, i64 1), !dbg !765
  %_9.0 = extractvalue { i64, i1 } %17, 0, !dbg !765
  %_9.1 = extractvalue { i64, i1 } %17, 1, !dbg !765
  %18 = getelementptr inbounds i8, ptr %_1, i64 16, !dbg !765
  %_12 = load ptr, ptr %18, align 8, !dbg !765, !nonnull !13, !align !681, !noundef !13
  %19 = call i1 @llvm.expect.i1(i1 %_9.1, i1 false), !dbg !765
  br i1 %19, label %panic, label %bb2, !dbg !765

bb2:                                              ; preds = %start
  %20 = getelementptr inbounds i8, ptr %_1, i64 16, !dbg !765
  %_13 = load ptr, ptr %20, align 8, !dbg !765, !nonnull !13, !align !681, !noundef !13
  store i64 %_9.0, ptr %_13, align 8, !dbg !765
  %21 = insertvalue { i64, i64 } poison, i64 %acc.0, 0, !dbg !766
  %22 = insertvalue { i64, i64 } %21, i64 %acc.1, 1, !dbg !766
  ret { i64, i64 } %22, !dbg !766

panic:                                            ; preds = %start
; invoke core::panicking::panic
  invoke void @_ZN4core9panicking5panic17h5884aad3a9044857E(ptr align 1 @str.0, i64 28, ptr align 8 @alloc_ca61f256367d8768c8a303e30b504f48) #10
          to label %unreachable unwind label %cleanup, !dbg !765

bb3:                                              ; preds = %cleanup
  %23 = load ptr, ptr %0, align 8, !dbg !767, !noundef !13
  %24 = getelementptr inbounds i8, ptr %0, i64 8, !dbg !767
  %25 = load i32, ptr %24, align 8, !dbg !767, !noundef !13
  %26 = insertvalue { ptr, i32 } poison, ptr %23, 0, !dbg !767
  %27 = insertvalue { ptr, i32 } %26, i32 %25, 1, !dbg !767
  resume { ptr, i32 } %27, !dbg !767

cleanup:                                          ; preds = %panic
  %28 = landingpad { ptr, i32 }
          cleanup
  %29 = extractvalue { ptr, i32 } %28, 0
  %30 = extractvalue { ptr, i32 } %28, 1
  store ptr %29, ptr %0, align 8
  %31 = getelementptr inbounds i8, ptr %0, i64 8
  store i32 %30, ptr %31, align 8
  br label %bb3

unreachable:                                      ; preds = %panic
  unreachable
}

; <core::iter::adapters::enumerate::Enumerate<I> as core::iter::traits::iterator::Iterator>::try_fold::enumerate::{{closure}}
; Function Attrs: inlinehint uwtable
define { i64, i64 } @"_ZN110_$LT$core..iter..adapters..enumerate..Enumerate$LT$I$GT$$u20$as$u20$core..iter..traits..iterator..Iterator$GT$8try_fold9enumerate28_$u7b$$u7b$closure$u7d$$u7d$17hefde485d9d7c4fc6E"(ptr align 8 %_1, i64 %acc, ptr align 8 %item) unnamed_addr #0 personality ptr @rust_eh_personality !dbg !768 {
start:
  %0 = alloca { ptr, i32, [1 x i32] }, align 8
  %acc.dbg.spill1 = alloca %"core::option::Option<usize>", align 8
  %item.dbg.spill = alloca ptr, align 8
  %acc.dbg.spill = alloca i64, align 8
  %_1.dbg.spill = alloca ptr, align 8
  %_7 = alloca { i64, ptr }, align 8
  %_6 = alloca { i64, { i64, ptr } }, align 8
  store ptr %_1, ptr %_1.dbg.spill, align 8
  call void @llvm.dbg.declare(metadata ptr %_1.dbg.spill, metadata !775, metadata !DIExpression(DW_OP_deref)), !dbg !779
  call void @llvm.dbg.declare(metadata ptr %_1.dbg.spill, metadata !776, metadata !DIExpression(DW_OP_deref, DW_OP_plus_uconst, 8)), !dbg !780
  store i64 %acc, ptr %acc.dbg.spill, align 8
  call void @llvm.dbg.declare(metadata ptr %acc.dbg.spill, metadata !773, metadata !DIExpression()), !dbg !781
  store ptr %item, ptr %item.dbg.spill, align 8
  call void @llvm.dbg.declare(metadata ptr %item.dbg.spill, metadata !774, metadata !DIExpression()), !dbg !782
  %1 = getelementptr inbounds i8, ptr %_1, i64 8, !dbg !783
  %_10 = load ptr, ptr %1, align 8, !dbg !783, !nonnull !13, !align !681, !noundef !13
  %_8 = load i64, ptr %_10, align 8, !dbg !783, !noundef !13
  store i64 %_8, ptr %_7, align 8, !dbg !784
  %2 = getelementptr inbounds i8, ptr %_7, i64 8, !dbg !784
  store ptr %item, ptr %2, align 8, !dbg !784
  store i64 %acc, ptr %_6, align 8, !dbg !785
  %3 = load i64, ptr %_7, align 8, !dbg !785, !noundef !13
  %4 = getelementptr inbounds i8, ptr %_7, i64 8, !dbg !785
  %5 = load ptr, ptr %4, align 8, !dbg !785, !nonnull !13, !align !681, !noundef !13
  %6 = getelementptr inbounds i8, ptr %_6, i64 8, !dbg !785
  store i64 %3, ptr %6, align 8, !dbg !785
  %7 = getelementptr inbounds i8, ptr %6, i64 8, !dbg !785
  store ptr %5, ptr %7, align 8, !dbg !785
  %8 = load i64, ptr %_6, align 8, !dbg !785, !noundef !13
  %9 = getelementptr inbounds i8, ptr %_6, i64 8, !dbg !785
  %10 = load i64, ptr %9, align 8, !dbg !785, !noundef !13
  %11 = getelementptr inbounds i8, ptr %9, i64 8, !dbg !785
  %12 = load ptr, ptr %11, align 8, !dbg !785, !nonnull !13, !align !681, !noundef !13
; call itertools::permutations::PermutationState::size_hint_for::{{closure}}
  %13 = call { i64, i64 } @"_ZN9itertools12permutations16PermutationState13size_hint_for28_$u7b$$u7b$closure$u7d$$u7d$17h3a770b8b4c2444a2E"(ptr align 8 %_1, i64 %8, i64 %10, ptr align 8 %12), !dbg !785
  %acc.0 = extractvalue { i64, i64 } %13, 0, !dbg !785
  %acc.1 = extractvalue { i64, i64 } %13, 1, !dbg !785
  store i64 %acc.0, ptr %acc.dbg.spill1, align 8, !dbg !785
  %14 = getelementptr inbounds i8, ptr %acc.dbg.spill1, i64 8, !dbg !785
  store i64 %acc.1, ptr %14, align 8, !dbg !785
  call void @llvm.dbg.declare(metadata ptr %acc.dbg.spill1, metadata !777, metadata !DIExpression()), !dbg !786
  %15 = getelementptr inbounds i8, ptr %_1, i64 8, !dbg !787
  %_11 = load ptr, ptr %15, align 8, !dbg !787, !nonnull !13, !align !681, !noundef !13
  %16 = load i64, ptr %_11, align 8, !dbg !787, !noundef !13
  %17 = call { i64, i1 } @llvm.uadd.with.overflow.i64(i64 %16, i64 1), !dbg !787
  %_9.0 = extractvalue { i64, i1 } %17, 0, !dbg !787
  %_9.1 = extractvalue { i64, i1 } %17, 1, !dbg !787
  %18 = getelementptr inbounds i8, ptr %_1, i64 8, !dbg !787
  %_12 = load ptr, ptr %18, align 8, !dbg !787, !nonnull !13, !align !681, !noundef !13
  %19 = call i1 @llvm.expect.i1(i1 %_9.1, i1 false), !dbg !787
  br i1 %19, label %panic, label %bb2, !dbg !787

bb2:                                              ; preds = %start
  %20 = getelementptr inbounds i8, ptr %_1, i64 8, !dbg !787
  %_13 = load ptr, ptr %20, align 8, !dbg !787, !nonnull !13, !align !681, !noundef !13
  store i64 %_9.0, ptr %_13, align 8, !dbg !787
  %21 = insertvalue { i64, i64 } poison, i64 %acc.0, 0, !dbg !788
  %22 = insertvalue { i64, i64 } %21, i64 %acc.1, 1, !dbg !788
  ret { i64, i64 } %22, !dbg !788

panic:                                            ; preds = %start
; invoke core::panicking::panic
  invoke void @_ZN4core9panicking5panic17h5884aad3a9044857E(ptr align 1 @str.0, i64 28, ptr align 8 @alloc_ca61f256367d8768c8a303e30b504f48) #10
          to label %unreachable unwind label %cleanup, !dbg !787

bb3:                                              ; preds = %cleanup
  %23 = load ptr, ptr %0, align 8, !dbg !789, !noundef !13
  %24 = getelementptr inbounds i8, ptr %0, i64 8, !dbg !789
  %25 = load i32, ptr %24, align 8, !dbg !789, !noundef !13
  %26 = insertvalue { ptr, i32 } poison, ptr %23, 0, !dbg !789
  %27 = insertvalue { ptr, i32 } %26, i32 %25, 1, !dbg !789
  resume { ptr, i32 } %27, !dbg !789

cleanup:                                          ; preds = %panic
  %28 = landingpad { ptr, i32 }
          cleanup
  %29 = extractvalue { ptr, i32 } %28, 0
  %30 = extractvalue { ptr, i32 } %28, 1
  store ptr %29, ptr %0, align 8
  %31 = getelementptr inbounds i8, ptr %0, i64 8
  store i32 %30, ptr %31, align 8
  br label %bb3

unreachable:                                      ; preds = %panic
  unreachable
}

; <core::ops::range::RangeFrom<usize> as core::slice::index::SliceIndex<[T]>>::index_mut
; Function Attrs: inlinehint uwtable
define { ptr, i64 } @"_ZN110_$LT$core..ops..range..RangeFrom$LT$usize$GT$$u20$as$u20$core..slice..index..SliceIndex$LT$$u5b$T$u5d$$GT$$GT$9index_mut17h015340f934d50eb5E"(i64 %self, ptr align 8 %slice.0, i64 %slice.1, ptr align 8 %0) unnamed_addr #0 !dbg !790 {
start:
  %ptr.dbg.spill = alloca { ptr, i64 }, align 8
  %slice.dbg.spill2 = alloca { ptr, i64 }, align 8
  %self.dbg.spill1 = alloca i64, align 8
  %slice.dbg.spill = alloca { ptr, i64 }, align 8
  %self.dbg.spill = alloca i64, align 8
  %_13 = alloca %"core::ptr::metadata::PtrRepr<[usize]>", align 8
  %_10 = alloca %"core::ops::range::Range<usize>", align 8
  store i64 %self, ptr %self.dbg.spill, align 8
  call void @llvm.dbg.declare(metadata ptr %self.dbg.spill, metadata !816, metadata !DIExpression()), !dbg !818
  store ptr %slice.0, ptr %slice.dbg.spill, align 8
  %1 = getelementptr inbounds i8, ptr %slice.dbg.spill, i64 8
  store i64 %slice.1, ptr %1, align 8
  call void @llvm.dbg.declare(metadata ptr %slice.dbg.spill, metadata !817, metadata !DIExpression()), !dbg !819
  store i64 %self, ptr %self.dbg.spill1, align 8, !dbg !820
  call void @llvm.dbg.declare(metadata ptr %self.dbg.spill1, metadata !821, metadata !DIExpression()), !dbg !828
  %_3 = icmp ugt i64 %self, %slice.1, !dbg !820
  br i1 %_3, label %bb1, label %bb2, !dbg !820

bb2:                                              ; preds = %start
  store ptr %slice.0, ptr %slice.dbg.spill2, align 8, !dbg !830
  %2 = getelementptr inbounds i8, ptr %slice.dbg.spill2, i64 8, !dbg !830
  store i64 %slice.1, ptr %2, align 8, !dbg !830
  call void @llvm.dbg.declare(metadata ptr %slice.dbg.spill2, metadata !827, metadata !DIExpression()), !dbg !831
  call void @llvm.dbg.declare(metadata ptr %slice.dbg.spill2, metadata !832, metadata !DIExpression()), !dbg !836
  store ptr %slice.0, ptr %ptr.dbg.spill, align 8, !dbg !838
  %3 = getelementptr inbounds i8, ptr %ptr.dbg.spill, i64 8, !dbg !838
  store i64 %slice.1, ptr %3, align 8, !dbg !838
  call void @llvm.dbg.declare(metadata ptr %ptr.dbg.spill, metadata !839, metadata !DIExpression()), !dbg !843
  store ptr %slice.0, ptr %_13, align 8, !dbg !845
  %4 = getelementptr inbounds i8, ptr %_13, i64 8, !dbg !845
  store i64 %slice.1, ptr %4, align 8, !dbg !845
  %5 = getelementptr inbounds i8, ptr %_13, i64 8, !dbg !845
  %_11 = load i64, ptr %5, align 8, !dbg !845, !noundef !13
  store i64 %self, ptr %_10, align 8, !dbg !846
  %6 = getelementptr inbounds i8, ptr %_10, i64 8, !dbg !846
  store i64 %_11, ptr %6, align 8, !dbg !846
  %7 = load i64, ptr %_10, align 8, !dbg !846, !noundef !13
  %8 = getelementptr inbounds i8, ptr %_10, i64 8, !dbg !846
  %9 = load i64, ptr %8, align 8, !dbg !846, !noundef !13
; call <core::ops::range::Range<usize> as core::slice::index::SliceIndex<[T]>>::get_unchecked_mut
  %10 = call { ptr, i64 } @"_ZN106_$LT$core..ops..range..Range$LT$usize$GT$$u20$as$u20$core..slice..index..SliceIndex$LT$$u5b$T$u5d$$GT$$GT$17get_unchecked_mut17hd857e221935f41afE"(i64 %7, i64 %9, ptr %slice.0, i64 %slice.1), !dbg !846
  %_8.0 = extractvalue { ptr, i64 } %10, 0, !dbg !846
  %_8.1 = extractvalue { ptr, i64 } %10, 1, !dbg !846
  %11 = insertvalue { ptr, i64 } poison, ptr %_8.0, 0, !dbg !847
  %12 = insertvalue { ptr, i64 } %11, i64 %_8.1, 1, !dbg !847
  ret { ptr, i64 } %12, !dbg !847

bb1:                                              ; preds = %start
; call core::slice::index::slice_start_index_len_fail
  call void @_ZN4core5slice5index26slice_start_index_len_fail17hdf66d65d95069d8dE(i64 %self, i64 %slice.1, ptr align 8 %0) #10, !dbg !848
  unreachable, !dbg !848
}

; <&T as core::fmt::Debug>::fmt
; Function Attrs: uwtable
define zeroext i1 @"_ZN42_$LT$$RF$T$u20$as$u20$core..fmt..Debug$GT$3fmt17h06f73833bcf43dd8E"(ptr align 8 %self, ptr align 8 %f) unnamed_addr #1 !dbg !849 {
start:
  %f.dbg.spill = alloca ptr, align 8
  %self.dbg.spill = alloca ptr, align 8
  store ptr %self, ptr %self.dbg.spill, align 8
  call void @llvm.dbg.declare(metadata ptr %self.dbg.spill, metadata !894, metadata !DIExpression()), !dbg !896
  store ptr %f, ptr %f.dbg.spill, align 8
  call void @llvm.dbg.declare(metadata ptr %f.dbg.spill, metadata !895, metadata !DIExpression()), !dbg !897
  %_3 = load ptr, ptr %self, align 8, !dbg !898, !nonnull !13, !align !681, !noundef !13
; call core::fmt::num::<impl core::fmt::Debug for usize>::fmt
  %_0 = call zeroext i1 @"_ZN4core3fmt3num52_$LT$impl$u20$core..fmt..Debug$u20$for$u20$usize$GT$3fmt17hb86d82ccb855da0aE"(ptr align 8 %_3, ptr align 8 %f), !dbg !899
  ret i1 %_0, !dbg !900
}

; <usize as core::iter::range::Step>::forward_unchecked
; Function Attrs: inlinehint uwtable
define internal i64 @"_ZN49_$LT$usize$u20$as$u20$core..iter..range..Step$GT$17forward_unchecked17hc08ef21cfd3bb3c6E"(i64 %start1, i64 %n) unnamed_addr #0 !dbg !901 {
start:
  %n.dbg.spill = alloca i64, align 8
  %start.dbg.spill = alloca i64, align 8
  store i64 %start1, ptr %start.dbg.spill, align 8
  call void @llvm.dbg.declare(metadata ptr %start.dbg.spill, metadata !906, metadata !DIExpression()), !dbg !908
  call void @llvm.dbg.declare(metadata ptr %start.dbg.spill, metadata !909, metadata !DIExpression()), !dbg !919
  store i64 %n, ptr %n.dbg.spill, align 8
  call void @llvm.dbg.declare(metadata ptr %n.dbg.spill, metadata !907, metadata !DIExpression()), !dbg !921
  call void @llvm.dbg.declare(metadata ptr %n.dbg.spill, metadata !918, metadata !DIExpression()), !dbg !919
  %_0 = add nuw i64 %start1, %n, !dbg !919
  ret i64 %_0, !dbg !922
}

; <usize as core::iter::range::Step>::backward_unchecked
; Function Attrs: inlinehint uwtable
define internal i64 @"_ZN49_$LT$usize$u20$as$u20$core..iter..range..Step$GT$18backward_unchecked17h762893a61a3c8d7cE"(i64 %start1, i64 %n) unnamed_addr #0 !dbg !923 {
start:
  %n.dbg.spill = alloca i64, align 8
  %start.dbg.spill = alloca i64, align 8
  store i64 %start1, ptr %start.dbg.spill, align 8
  call void @llvm.dbg.declare(metadata ptr %start.dbg.spill, metadata !925, metadata !DIExpression()), !dbg !927
  call void @llvm.dbg.declare(metadata ptr %start.dbg.spill, metadata !928, metadata !DIExpression()), !dbg !934
  store i64 %n, ptr %n.dbg.spill, align 8
  call void @llvm.dbg.declare(metadata ptr %n.dbg.spill, metadata !926, metadata !DIExpression()), !dbg !936
  call void @llvm.dbg.declare(metadata ptr %n.dbg.spill, metadata !933, metadata !DIExpression()), !dbg !934
  %_0 = sub nuw i64 %start1, %n, !dbg !934
  ret i64 %_0, !dbg !937
}

; core::intrinsics::is_nonoverlapping
; Function Attrs: inlinehint uwtable
define internal zeroext i1 @_ZN4core10intrinsics17is_nonoverlapping17h7adfdad8dca5c0c5E(ptr %src, ptr %dst, i64 %size, i64 %count) unnamed_addr #0 !dbg !938 {
start:
  %size.dbg.spill3 = alloca i64, align 8
  %0 = alloca i8, align 1
  %a.dbg.spill1 = alloca i64, align 8
  %b.dbg.spill = alloca i8, align 1
  %a.dbg.spill = alloca i64, align 8
  %dst_usize.dbg.spill = alloca i64, align 8
  %src_usize.dbg.spill = alloca i64, align 8
  %count.dbg.spill = alloca i64, align 8
  %size.dbg.spill = alloca i64, align 8
  %dst.dbg.spill = alloca ptr, align 8
  %src.dbg.spill = alloca ptr, align 8
  %diff = alloca i64, align 8
  %_9 = alloca %"core::option::Option<usize>", align 8
  store ptr %src, ptr %src.dbg.spill, align 8
  call void @llvm.dbg.declare(metadata ptr %src.dbg.spill, metadata !944, metadata !DIExpression()), !dbg !956
  call void @llvm.dbg.declare(metadata ptr %src.dbg.spill, metadata !957, metadata !DIExpression()), !dbg !969
  call void @llvm.dbg.declare(metadata ptr %src.dbg.spill, metadata !971, metadata !DIExpression()), !dbg !980
  store ptr %dst, ptr %dst.dbg.spill, align 8
  call void @llvm.dbg.declare(metadata ptr %dst.dbg.spill, metadata !945, metadata !DIExpression()), !dbg !982
  call void @llvm.dbg.declare(metadata ptr %dst.dbg.spill, metadata !966, metadata !DIExpression()), !dbg !983
  call void @llvm.dbg.declare(metadata ptr %dst.dbg.spill, metadata !977, metadata !DIExpression()), !dbg !985
  store i64 %size, ptr %size.dbg.spill, align 8
  call void @llvm.dbg.declare(metadata ptr %size.dbg.spill, metadata !946, metadata !DIExpression()), !dbg !987
  call void @llvm.dbg.declare(metadata ptr %size.dbg.spill, metadata !988, metadata !DIExpression()), !dbg !1000
  call void @llvm.dbg.declare(metadata ptr %size.dbg.spill, metadata !1002, metadata !DIExpression()), !dbg !1018
  store i64 %count, ptr %count.dbg.spill, align 8
  call void @llvm.dbg.declare(metadata ptr %count.dbg.spill, metadata !947, metadata !DIExpression()), !dbg !1020
  call void @llvm.dbg.declare(metadata ptr %count.dbg.spill, metadata !995, metadata !DIExpression()), !dbg !1000
  call void @llvm.dbg.declare(metadata ptr %count.dbg.spill, metadata !1013, metadata !DIExpression()), !dbg !1018
  call void @llvm.dbg.declare(metadata ptr %diff, metadata !954, metadata !DIExpression()), !dbg !1021
  %src_usize = ptrtoint ptr %src to i64, !dbg !1022
  store i64 %src_usize, ptr %src_usize.dbg.spill, align 8, !dbg !1022
  call void @llvm.dbg.declare(metadata ptr %src_usize.dbg.spill, metadata !948, metadata !DIExpression()), !dbg !1023
  call void @llvm.dbg.declare(metadata ptr %src_usize.dbg.spill, metadata !1024, metadata !DIExpression()), !dbg !1030
  %dst_usize = ptrtoint ptr %dst to i64, !dbg !1032
  store i64 %dst_usize, ptr %dst_usize.dbg.spill, align 8, !dbg !1032
  call void @llvm.dbg.declare(metadata ptr %dst_usize.dbg.spill, metadata !950, metadata !DIExpression()), !dbg !1033
  call void @llvm.dbg.declare(metadata ptr %dst_usize.dbg.spill, metadata !1029, metadata !DIExpression()), !dbg !1030
  %1 = call { i64, i1 } @llvm.umul.with.overflow.i64(i64 %size, i64 %count), !dbg !1018
  %_15.0 = extractvalue { i64, i1 } %1, 0, !dbg !1018
  %_15.1 = extractvalue { i64, i1 } %1, 1, !dbg !1018
  store i64 %_15.0, ptr %a.dbg.spill, align 8, !dbg !1018
  call void @llvm.dbg.declare(metadata ptr %a.dbg.spill, metadata !1014, metadata !DIExpression()), !dbg !1034
  %2 = zext i1 %_15.1 to i8, !dbg !1018
  store i8 %2, ptr %b.dbg.spill, align 1, !dbg !1018
  call void @llvm.dbg.declare(metadata ptr %b.dbg.spill, metadata !999, metadata !DIExpression()), !dbg !1035
  call void @llvm.dbg.declare(metadata ptr %b.dbg.spill, metadata !1017, metadata !DIExpression()), !dbg !1034
  store i64 %_15.0, ptr %a.dbg.spill1, align 8, !dbg !1034
  call void @llvm.dbg.declare(metadata ptr %a.dbg.spill1, metadata !996, metadata !DIExpression()), !dbg !1035
  %3 = call i1 @llvm.expect.i1(i1 %_15.1, i1 false), !dbg !1035
  %4 = zext i1 %3 to i8, !dbg !1035
  store i8 %4, ptr %0, align 1, !dbg !1035
  %5 = load i8, ptr %0, align 1, !dbg !1035, !range !259, !noundef !13
  %_12 = trunc i8 %5 to i1, !dbg !1035
  br i1 %_12, label %bb2, label %bb3, !dbg !1035

bb3:                                              ; preds = %start
  %6 = getelementptr inbounds i8, ptr %_9, i64 8, !dbg !1035
  store i64 %_15.0, ptr %6, align 8, !dbg !1035
  store i64 1, ptr %_9, align 8, !dbg !1035
  %7 = getelementptr inbounds i8, ptr %_9, i64 8, !dbg !1036
  %size2 = load i64, ptr %7, align 8, !dbg !1036, !noundef !13
  store i64 %size2, ptr %size.dbg.spill3, align 8, !dbg !1036
  call void @llvm.dbg.declare(metadata ptr %size.dbg.spill3, metadata !952, metadata !DIExpression()), !dbg !1037
  %_22 = icmp ult i64 %src_usize, %dst_usize, !dbg !1030
  br i1 %_22, label %bb4, label %bb5, !dbg !1030

bb2:                                              ; preds = %start
; call core::panicking::panic_nounwind
  call void @_ZN4core9panicking14panic_nounwind17h50c31e15afde233eE(ptr align 1 @alloc_763310d78c99c2c1ad3f8a9821e942f3, i64 61) #9, !dbg !1038
  unreachable, !dbg !1038

bb5:                                              ; preds = %bb3
  %8 = sub i64 %src_usize, %dst_usize, !dbg !1030
  store i64 %8, ptr %diff, align 8, !dbg !1030
  br label %bb6, !dbg !1030

bb4:                                              ; preds = %bb3
  %9 = sub i64 %dst_usize, %src_usize, !dbg !1030
  store i64 %9, ptr %diff, align 8, !dbg !1030
  br label %bb6, !dbg !1030

bb6:                                              ; preds = %bb4, %bb5
  %_11 = load i64, ptr %diff, align 8, !dbg !1039, !noundef !13
  %_0 = icmp uge i64 %_11, %size2, !dbg !1039
  ret i1 %_0, !dbg !1040
}

; core::intrinsics::copy_nonoverlapping::precondition_check
; Function Attrs: inlinehint nounwind uwtable
define internal void @_ZN4core10intrinsics19copy_nonoverlapping18precondition_check17heb665b386cf8b624E(ptr %src, ptr %dst, i64 %size, i64 %align, i64 %count) unnamed_addr #2 personality ptr @rust_eh_personality !dbg !1041 {
start:
  %count.dbg.spill = alloca i64, align 8
  %align.dbg.spill = alloca i64, align 8
  %size.dbg.spill = alloca i64, align 8
  %dst.dbg.spill = alloca ptr, align 8
  %src.dbg.spill = alloca ptr, align 8
  store ptr %src, ptr %src.dbg.spill, align 8
  call void @llvm.dbg.declare(metadata ptr %src.dbg.spill, metadata !1046, metadata !DIExpression()), !dbg !1051
  store ptr %dst, ptr %dst.dbg.spill, align 8
  call void @llvm.dbg.declare(metadata ptr %dst.dbg.spill, metadata !1047, metadata !DIExpression()), !dbg !1051
  store i64 %size, ptr %size.dbg.spill, align 8
  call void @llvm.dbg.declare(metadata ptr %size.dbg.spill, metadata !1048, metadata !DIExpression()), !dbg !1051
  store i64 %align, ptr %align.dbg.spill, align 8
  call void @llvm.dbg.declare(metadata ptr %align.dbg.spill, metadata !1049, metadata !DIExpression()), !dbg !1051
  store i64 %count, ptr %count.dbg.spill, align 8
  call void @llvm.dbg.declare(metadata ptr %count.dbg.spill, metadata !1050, metadata !DIExpression()), !dbg !1051
; invoke core::intrinsics::is_aligned_and_not_null
  %_6 = invoke zeroext i1 @_ZN4core10intrinsics23is_aligned_and_not_null17h72cba3e3168818f5E(ptr %src, i64 %align)
          to label %bb1 unwind label %terminate, !dbg !1052

terminate:                                        ; preds = %bb4, %bb2, %start
  %0 = landingpad { ptr, i32 }
          filter [0 x ptr] zeroinitializer
  %1 = extractvalue { ptr, i32 } %0, 0
  %2 = extractvalue { ptr, i32 } %0, 1
; call core::panicking::panic_cannot_unwind
  call void @_ZN4core9panicking19panic_cannot_unwind17h3626040c0976c0c3E() #11, !dbg !1053
  unreachable, !dbg !1053

bb1:                                              ; preds = %start
  br i1 %_6, label %bb2, label %bb7, !dbg !1052

bb7:                                              ; preds = %bb5, %bb3, %bb1
; call core::panicking::panic_nounwind
  call void @_ZN4core9panicking14panic_nounwind17h50c31e15afde233eE(ptr align 1 @alloc_8df0580a595a87d56789d20c7318e185, i64 166) #9, !dbg !1054
  unreachable, !dbg !1054

bb2:                                              ; preds = %bb1
; invoke core::intrinsics::is_aligned_and_not_null
  %_7 = invoke zeroext i1 @_ZN4core10intrinsics23is_aligned_and_not_null17h72cba3e3168818f5E(ptr %dst, i64 %align)
          to label %bb3 unwind label %terminate, !dbg !1055

bb3:                                              ; preds = %bb2
  br i1 %_7, label %bb4, label %bb7, !dbg !1055

bb4:                                              ; preds = %bb3
; invoke core::intrinsics::is_nonoverlapping
  %_9 = invoke zeroext i1 @_ZN4core10intrinsics17is_nonoverlapping17h7adfdad8dca5c0c5E(ptr %src, ptr %dst, i64 %size, i64 %count)
          to label %bb5 unwind label %terminate, !dbg !1056

bb5:                                              ; preds = %bb4
  br i1 %_9, label %bb6, label %bb7, !dbg !1056

bb6:                                              ; preds = %bb5
  ret void, !dbg !1057
}

; core::intrinsics::is_aligned_and_not_null
; Function Attrs: inlinehint uwtable
define internal zeroext i1 @_ZN4core10intrinsics23is_aligned_and_not_null17h72cba3e3168818f5E(ptr %ptr, i64 %align) unnamed_addr #0 !dbg !1058 {
start:
  %pieces.dbg.spill = alloca { ptr, i64 }, align 8
  %0 = alloca i64, align 8
  %ptr.dbg.spill1 = alloca ptr, align 8
  %align.dbg.spill = alloca i64, align 8
  %ptr.dbg.spill = alloca ptr, align 8
  %_6 = alloca %"core::fmt::Arguments<'_>", align 8
  %_0 = alloca i8, align 1
  store ptr %ptr, ptr %ptr.dbg.spill, align 8
  call void @llvm.dbg.declare(metadata ptr %ptr.dbg.spill, metadata !1062, metadata !DIExpression()), !dbg !1064
  call void @llvm.dbg.declare(metadata ptr %ptr.dbg.spill, metadata !1065, metadata !DIExpression()), !dbg !1071
  call void @llvm.dbg.declare(metadata ptr %ptr.dbg.spill, metadata !1073, metadata !DIExpression()), !dbg !1078
  call void @llvm.dbg.declare(metadata ptr %ptr.dbg.spill, metadata !1080, metadata !DIExpression()), !dbg !1086
  call void @llvm.dbg.declare(metadata ptr %ptr.dbg.spill, metadata !1088, metadata !DIExpression()), !dbg !1094
  call void @llvm.dbg.declare(metadata ptr %ptr.dbg.spill, metadata !1096, metadata !DIExpression()), !dbg !1100
  call void @llvm.dbg.declare(metadata ptr %ptr.dbg.spill, metadata !1084, metadata !DIExpression()), !dbg !1102
  store i64 %align, ptr %align.dbg.spill, align 8
  call void @llvm.dbg.declare(metadata ptr %align.dbg.spill, metadata !1063, metadata !DIExpression()), !dbg !1104
  call void @llvm.dbg.declare(metadata ptr %align.dbg.spill, metadata !1077, metadata !DIExpression()), !dbg !1105
  call void @llvm.dbg.declare(metadata ptr %align.dbg.spill, metadata !1106, metadata !DIExpression()), !dbg !1113
  call void @llvm.dbg.declare(metadata ptr %align.dbg.spill, metadata !1115, metadata !DIExpression()), !dbg !1122
  call void @llvm.dbg.declare(metadata ptr %align.dbg.spill, metadata !1093, metadata !DIExpression()), !dbg !1124
  store ptr %ptr, ptr %ptr.dbg.spill1, align 8, !dbg !1125
  call void @llvm.dbg.declare(metadata ptr %ptr.dbg.spill1, metadata !1126, metadata !DIExpression()), !dbg !1134
  call void @llvm.dbg.declare(metadata ptr %ptr.dbg.spill1, metadata !1136, metadata !DIExpression()), !dbg !1144
  call void @llvm.dbg.declare(metadata ptr %ptr.dbg.spill1, metadata !1146, metadata !DIExpression()), !dbg !1153
  %_4 = ptrtoint ptr %ptr to i64, !dbg !1155
  %1 = icmp eq i64 %_4, 0, !dbg !1156
  br i1 %1, label %bb1, label %bb2, !dbg !1156

bb1:                                              ; preds = %start
  store i8 0, ptr %_0, align 1, !dbg !1157
  br label %bb3, !dbg !1157

bb2:                                              ; preds = %start
  %2 = call i64 @llvm.ctpop.i64(i64 %align), !dbg !1122
  store i64 %2, ptr %0, align 8, !dbg !1122
  %_9 = load i64, ptr %0, align 8, !dbg !1122, !noundef !13
  %_8 = trunc i64 %_9 to i32, !dbg !1122
  %3 = icmp eq i32 %_8, 1, !dbg !1158
  br i1 %3, label %bb4, label %bb5, !dbg !1158

bb3:                                              ; preds = %bb4, %bb1
  %4 = load i8, ptr %_0, align 1, !dbg !1159, !range !259, !noundef !13
  %5 = trunc i8 %4 to i1, !dbg !1159
  ret i1 %5, !dbg !1159

bb4:                                              ; preds = %bb2
  %_13 = sub i64 %align, 1, !dbg !1160
  %_12 = and i64 %_4, %_13, !dbg !1161
  %6 = icmp eq i64 %_12, 0, !dbg !1161
  %7 = zext i1 %6 to i8, !dbg !1161
  store i8 %7, ptr %_0, align 1, !dbg !1161
  br label %bb3, !dbg !1157

bb5:                                              ; preds = %bb2
  store ptr @alloc_041983ee8170efdaaf95ba67fd072d26, ptr %pieces.dbg.spill, align 8, !dbg !1162
  %8 = getelementptr inbounds i8, ptr %pieces.dbg.spill, i64 8, !dbg !1162
  store i64 1, ptr %8, align 8, !dbg !1162
  call void @llvm.dbg.declare(metadata ptr %pieces.dbg.spill, metadata !1163, metadata !DIExpression()), !dbg !1236
  store ptr @alloc_041983ee8170efdaaf95ba67fd072d26, ptr %_6, align 8, !dbg !1240
  %9 = getelementptr inbounds i8, ptr %_6, i64 8, !dbg !1240
  store i64 1, ptr %9, align 8, !dbg !1240
  %10 = load ptr, ptr @0, align 8, !dbg !1240, !align !681, !noundef !13
  %11 = load i64, ptr getelementptr inbounds (i8, ptr @0, i64 8), align 8, !dbg !1240
  %12 = getelementptr inbounds i8, ptr %_6, i64 32, !dbg !1240
  store ptr %10, ptr %12, align 8, !dbg !1240
  %13 = getelementptr inbounds i8, ptr %12, i64 8, !dbg !1240
  store i64 %11, ptr %13, align 8, !dbg !1240
  %14 = getelementptr inbounds i8, ptr %_6, i64 16, !dbg !1240
  store ptr @alloc_513570631223a12912d85da2bec3b15a, ptr %14, align 8, !dbg !1240
  %15 = getelementptr inbounds i8, ptr %14, i64 8, !dbg !1240
  store i64 0, ptr %15, align 8, !dbg !1240
; call core::panicking::panic_fmt
  call void @_ZN4core9panicking9panic_fmt17ha6d62ade15192290E(ptr align 8 %_6, ptr align 8 @alloc_33f991fa5bbac1da9d8a778b0f014caf) #10, !dbg !1241
  unreachable, !dbg !1241
}

; core::intrinsics::copy::precondition_check
; Function Attrs: inlinehint nounwind uwtable
define internal void @_ZN4core10intrinsics4copy18precondition_check17h29bb9def86d88c9dE(ptr %src, ptr %dst, i64 %align) unnamed_addr #2 personality ptr @rust_eh_personality !dbg !1242 {
start:
  %align.dbg.spill = alloca i64, align 8
  %dst.dbg.spill = alloca ptr, align 8
  %src.dbg.spill = alloca ptr, align 8
  store ptr %src, ptr %src.dbg.spill, align 8
  call void @llvm.dbg.declare(metadata ptr %src.dbg.spill, metadata !1247, metadata !DIExpression()), !dbg !1250
  store ptr %dst, ptr %dst.dbg.spill, align 8
  call void @llvm.dbg.declare(metadata ptr %dst.dbg.spill, metadata !1248, metadata !DIExpression()), !dbg !1250
  store i64 %align, ptr %align.dbg.spill, align 8
  call void @llvm.dbg.declare(metadata ptr %align.dbg.spill, metadata !1249, metadata !DIExpression()), !dbg !1250
; invoke core::intrinsics::is_aligned_and_not_null
  %_4 = invoke zeroext i1 @_ZN4core10intrinsics23is_aligned_and_not_null17h72cba3e3168818f5E(ptr %src, i64 %align)
          to label %bb1 unwind label %terminate, !dbg !1251

terminate:                                        ; preds = %bb2, %start
  %0 = landingpad { ptr, i32 }
          filter [0 x ptr] zeroinitializer
  %1 = extractvalue { ptr, i32 } %0, 0
  %2 = extractvalue { ptr, i32 } %0, 1
; call core::panicking::panic_cannot_unwind
  call void @_ZN4core9panicking19panic_cannot_unwind17h3626040c0976c0c3E() #11, !dbg !1252
  unreachable, !dbg !1252

bb1:                                              ; preds = %start
  br i1 %_4, label %bb2, label %bb6, !dbg !1251

bb6:                                              ; preds = %bb5, %bb1
; call core::panicking::panic_nounwind
  call void @_ZN4core9panicking14panic_nounwind17h50c31e15afde233eE(ptr align 1 @alloc_8df0580a595a87d56789d20c7318e185, i64 166) #9, !dbg !1253
  unreachable, !dbg !1253

bb2:                                              ; preds = %bb1
; invoke core::intrinsics::is_aligned_and_not_null
  %_5 = invoke zeroext i1 @_ZN4core10intrinsics23is_aligned_and_not_null17h72cba3e3168818f5E(ptr %dst, i64 %align)
          to label %bb3 unwind label %terminate, !dbg !1254

bb3:                                              ; preds = %bb2
  br i1 %_5, label %bb4, label %bb5, !dbg !1254

bb5:                                              ; preds = %bb3
  br label %bb6, !dbg !1255

bb4:                                              ; preds = %bb3
  ret void, !dbg !1257
}

; core::intrinsics::unlikely
; Function Attrs: nounwind uwtable
define internal zeroext i1 @_ZN4core10intrinsics8unlikely17h07c27bbd813b02dbE(i1 zeroext %b) unnamed_addr #3 !dbg !1258 {
start:
  %b.dbg.spill = alloca i8, align 1
  %0 = zext i1 %b to i8
  store i8 %0, ptr %b.dbg.spill, align 1
  call void @llvm.dbg.declare(metadata ptr %b.dbg.spill, metadata !1262, metadata !DIExpression()), !dbg !1263
  ret i1 %b, !dbg !1264
}

; core::cmp::Ord::min
; Function Attrs: inlinehint uwtable
define i64 @_ZN4core3cmp3Ord3min17h4290a2af52646b34E(i64 %self, i64 %other) unnamed_addr #0 !dbg !1265 {
start:
  %other.dbg.spill = alloca i64, align 8
  %self.dbg.spill = alloca i64, align 8
  store i64 %self, ptr %self.dbg.spill, align 8
  call void @llvm.dbg.declare(metadata ptr %self.dbg.spill, metadata !1268, metadata !DIExpression()), !dbg !1272
  store i64 %other, ptr %other.dbg.spill, align 8
  call void @llvm.dbg.declare(metadata ptr %other.dbg.spill, metadata !1269, metadata !DIExpression()), !dbg !1273
; call core::cmp::min_by
  %_0 = call i64 @_ZN4core3cmp6min_by17h5556c8df34d9726cE(i64 %self, i64 %other), !dbg !1274
  ret i64 %_0, !dbg !1275
}

; core::cmp::impls::<impl core::cmp::Ord for usize>::cmp
; Function Attrs: inlinehint uwtable
define internal i8 @"_ZN4core3cmp5impls50_$LT$impl$u20$core..cmp..Ord$u20$for$u20$usize$GT$3cmp17hbb3453fb6ed8eafcE"(ptr align 8 %self, ptr align 8 %other) unnamed_addr #0 !dbg !1276 {
start:
  %other.dbg.spill = alloca ptr, align 8
  %self.dbg.spill = alloca ptr, align 8
  %_0 = alloca i8, align 1
  store ptr %self, ptr %self.dbg.spill, align 8
  call void @llvm.dbg.declare(metadata ptr %self.dbg.spill, metadata !1281, metadata !DIExpression()), !dbg !1283
  store ptr %other, ptr %other.dbg.spill, align 8
  call void @llvm.dbg.declare(metadata ptr %other.dbg.spill, metadata !1282, metadata !DIExpression()), !dbg !1284
  %_4 = load i64, ptr %self, align 8, !dbg !1285, !noundef !13
  %_5 = load i64, ptr %other, align 8, !dbg !1286, !noundef !13
  %_3 = icmp ult i64 %_4, %_5, !dbg !1285
  br i1 %_3, label %bb1, label %bb2, !dbg !1285

bb2:                                              ; preds = %start
  %_6 = icmp eq i64 %_4, %_5, !dbg !1287
  br i1 %_6, label %bb3, label %bb4, !dbg !1287

bb1:                                              ; preds = %start
  store i8 -1, ptr %_0, align 1, !dbg !1288
  br label %bb6, !dbg !1289

bb4:                                              ; preds = %bb2
  store i8 1, ptr %_0, align 1, !dbg !1290
  br label %bb5, !dbg !1291

bb3:                                              ; preds = %bb2
  store i8 0, ptr %_0, align 1, !dbg !1292
  br label %bb5, !dbg !1291

bb5:                                              ; preds = %bb3, %bb4
  br label %bb6, !dbg !1289

bb6:                                              ; preds = %bb1, %bb5
  %0 = load i8, ptr %_0, align 1, !dbg !1293, !range !1294, !noundef !13
  ret i8 %0, !dbg !1293
}

; core::cmp::impls::<impl core::cmp::PartialEq for usize>::eq
; Function Attrs: inlinehint uwtable
define internal zeroext i1 @"_ZN4core3cmp5impls56_$LT$impl$u20$core..cmp..PartialEq$u20$for$u20$usize$GT$2eq17h8efac3f2105ac75cE"(ptr align 8 %self, ptr align 8 %other) unnamed_addr #0 !dbg !1295 {
start:
  %other.dbg.spill = alloca ptr, align 8
  %self.dbg.spill = alloca ptr, align 8
  store ptr %self, ptr %self.dbg.spill, align 8
  call void @llvm.dbg.declare(metadata ptr %self.dbg.spill, metadata !1298, metadata !DIExpression()), !dbg !1300
  store ptr %other, ptr %other.dbg.spill, align 8
  call void @llvm.dbg.declare(metadata ptr %other.dbg.spill, metadata !1299, metadata !DIExpression()), !dbg !1301
  %_3 = load i64, ptr %self, align 8, !dbg !1302, !noundef !13
  %_4 = load i64, ptr %other, align 8, !dbg !1303, !noundef !13
  %_0 = icmp eq i64 %_3, %_4, !dbg !1302
  ret i1 %_0, !dbg !1304
}

; core::cmp::min_by
; Function Attrs: inlinehint uwtable
define i64 @_ZN4core3cmp6min_by17h5556c8df34d9726cE(i64 %0, i64 %1) unnamed_addr #0 personality ptr @rust_eh_personality !dbg !1305 {
start:
  %2 = alloca { ptr, i32, [1 x i32] }, align 8
  %compare.dbg.spill = alloca {}, align 1
  %_10 = alloca i8, align 1
  %_5 = alloca { ptr, ptr }, align 8
  %_4 = alloca i8, align 1
  %_0 = alloca i64, align 8
  %v2 = alloca i64, align 8
  %v1 = alloca i64, align 8
  store i64 %0, ptr %v1, align 8
  store i64 %1, ptr %v2, align 8
  call void @llvm.dbg.declare(metadata ptr %v1, metadata !1310, metadata !DIExpression()), !dbg !1315
  call void @llvm.dbg.declare(metadata ptr %v2, metadata !1311, metadata !DIExpression()), !dbg !1316
  call void @llvm.dbg.declare(metadata ptr %compare.dbg.spill, metadata !1312, metadata !DIExpression()), !dbg !1317
  store i8 1, ptr %_10, align 1, !dbg !1318
  store ptr %v1, ptr %_5, align 8, !dbg !1318
  %3 = getelementptr inbounds i8, ptr %_5, i64 8, !dbg !1318
  store ptr %v2, ptr %3, align 8, !dbg !1318
  %4 = load ptr, ptr %_5, align 8, !dbg !1318, !nonnull !13, !align !681, !noundef !13
  %5 = getelementptr inbounds i8, ptr %_5, i64 8, !dbg !1318
  %6 = load ptr, ptr %5, align 8, !dbg !1318, !nonnull !13, !align !681, !noundef !13
; invoke core::ops::function::FnOnce::call_once
  %7 = invoke i8 @_ZN4core3ops8function6FnOnce9call_once17h1762bff277ce18cfE(ptr align 8 %4, ptr align 8 %6)
          to label %bb1 unwind label %cleanup, !dbg !1318, !range !1294

bb7:                                              ; preds = %cleanup
  br label %bb12, !dbg !1319

cleanup:                                          ; preds = %start
  %8 = landingpad { ptr, i32 }
          cleanup
  %9 = extractvalue { ptr, i32 } %8, 0
  %10 = extractvalue { ptr, i32 } %8, 1
  store ptr %9, ptr %2, align 8
  %11 = getelementptr inbounds i8, ptr %2, i64 8
  store i32 %10, ptr %11, align 8
  br label %bb7

bb1:                                              ; preds = %start
  store i8 %7, ptr %_4, align 1, !dbg !1318
  %_8 = load i8, ptr %_4, align 1, !dbg !1318, !range !1294, !noundef !13
  switch i8 %_8, label %bb2 [
    i8 -1, label %bb4
    i8 0, label %bb4
    i8 1, label %bb3
  ], !dbg !1320

bb2:                                              ; preds = %bb1
  unreachable, !dbg !1318

bb4:                                              ; preds = %bb1, %bb1
  store i8 0, ptr %_10, align 1, !dbg !1321
  %12 = load i64, ptr %v1, align 8, !dbg !1321, !noundef !13
  store i64 %12, ptr %_0, align 8, !dbg !1321
  br label %bb9, !dbg !1319

bb3:                                              ; preds = %bb1
  %13 = load i64, ptr %v2, align 8, !dbg !1322, !noundef !13
  store i64 %13, ptr %_0, align 8, !dbg !1322
  br label %bb5, !dbg !1319

bb9:                                              ; preds = %bb4
  br label %bb6, !dbg !1319

bb6:                                              ; preds = %bb10, %bb5, %bb9
  %14 = load i64, ptr %_0, align 8, !dbg !1323, !noundef !13
  ret i64 %14, !dbg !1323

bb5:                                              ; preds = %bb3
  %15 = load i8, ptr %_10, align 1, !dbg !1319, !range !259, !noundef !13
  %16 = trunc i8 %15 to i1, !dbg !1319
  br i1 %16, label %bb10, label %bb6, !dbg !1319

bb10:                                             ; preds = %bb5
  br label %bb6, !dbg !1319

bb12:                                             ; preds = %bb7
  %17 = load i8, ptr %_10, align 1, !dbg !1319, !range !259, !noundef !13
  %18 = trunc i8 %17 to i1, !dbg !1319
  br i1 %18, label %bb11, label %bb8, !dbg !1319

bb8:                                              ; preds = %bb11, %bb12
  %19 = load ptr, ptr %2, align 8, !dbg !1324, !noundef !13
  %20 = getelementptr inbounds i8, ptr %2, i64 8, !dbg !1324
  %21 = load i32, ptr %20, align 8, !dbg !1324, !noundef !13
  %22 = insertvalue { ptr, i32 } poison, ptr %19, 0, !dbg !1324
  %23 = insertvalue { ptr, i32 } %22, i32 %21, 1, !dbg !1324
  resume { ptr, i32 } %23, !dbg !1324

bb11:                                             ; preds = %bb12
  br label %bb8, !dbg !1319
}

; core::fmt::num::<impl core::fmt::Debug for usize>::fmt
; Function Attrs: inlinehint uwtable
define internal zeroext i1 @"_ZN4core3fmt3num52_$LT$impl$u20$core..fmt..Debug$u20$for$u20$usize$GT$3fmt17hb86d82ccb855da0aE"(ptr align 8 %self, ptr align 8 %f) unnamed_addr #0 !dbg !1325 {
start:
  %f.dbg.spill = alloca ptr, align 8
  %self.dbg.spill = alloca ptr, align 8
  %_0 = alloca i8, align 1
  store ptr %self, ptr %self.dbg.spill, align 8
  call void @llvm.dbg.declare(metadata ptr %self.dbg.spill, metadata !1332, metadata !DIExpression()), !dbg !1334
  store ptr %f, ptr %f.dbg.spill, align 8
  call void @llvm.dbg.declare(metadata ptr %f.dbg.spill, metadata !1333, metadata !DIExpression()), !dbg !1335
  call void @llvm.dbg.declare(metadata ptr %f.dbg.spill, metadata !1336, metadata !DIExpression()), !dbg !1344
  call void @llvm.dbg.declare(metadata ptr %f.dbg.spill, metadata !1346, metadata !DIExpression()), !dbg !1351
  %0 = getelementptr inbounds i8, ptr %f, i64 52, !dbg !1353
  %_4 = load i32, ptr %0, align 4, !dbg !1353, !noundef !13
  %_3 = and i32 %_4, 16, !dbg !1353
  %1 = icmp eq i32 %_3, 0, !dbg !1354
  br i1 %1, label %bb2, label %bb1, !dbg !1354

bb2:                                              ; preds = %start
  %2 = getelementptr inbounds i8, ptr %f, i64 52, !dbg !1355
  %_6 = load i32, ptr %2, align 4, !dbg !1355, !noundef !13
  %_5 = and i32 %_6, 32, !dbg !1355
  %3 = icmp eq i32 %_5, 0, !dbg !1356
  br i1 %3, label %bb4, label %bb3, !dbg !1356

bb1:                                              ; preds = %start
; call core::fmt::num::<impl core::fmt::LowerHex for usize>::fmt
  %4 = call zeroext i1 @"_ZN4core3fmt3num55_$LT$impl$u20$core..fmt..LowerHex$u20$for$u20$usize$GT$3fmt17h47ab34c38f234db6E"(ptr align 8 %self, ptr align 8 %f), !dbg !1357
  %5 = zext i1 %4 to i8, !dbg !1357
  store i8 %5, ptr %_0, align 1, !dbg !1357
  br label %bb6, !dbg !1357

bb4:                                              ; preds = %bb2
; call core::fmt::num::imp::<impl core::fmt::Display for usize>::fmt
  %6 = call zeroext i1 @"_ZN4core3fmt3num3imp54_$LT$impl$u20$core..fmt..Display$u20$for$u20$usize$GT$3fmt17h5159b867faf653c2E"(ptr align 8 %self, ptr align 8 %f), !dbg !1358
  %7 = zext i1 %6 to i8, !dbg !1358
  store i8 %7, ptr %_0, align 1, !dbg !1358
  br label %bb5, !dbg !1358

bb3:                                              ; preds = %bb2
; call core::fmt::num::<impl core::fmt::UpperHex for usize>::fmt
  %8 = call zeroext i1 @"_ZN4core3fmt3num55_$LT$impl$u20$core..fmt..UpperHex$u20$for$u20$usize$GT$3fmt17h95d968ee1c330b2cE"(ptr align 8 %self, ptr align 8 %f), !dbg !1359
  %9 = zext i1 %8 to i8, !dbg !1359
  store i8 %9, ptr %_0, align 1, !dbg !1359
  br label %bb5, !dbg !1359

bb5:                                              ; preds = %bb3, %bb4
  br label %bb6, !dbg !1360

bb6:                                              ; preds = %bb1, %bb5
  %10 = load i8, ptr %_0, align 1, !dbg !1361, !range !259, !noundef !13
  %11 = trunc i8 %10 to i1, !dbg !1361
  ret i1 %11, !dbg !1361
}

; core::num::<impl usize>::checked_add
; Function Attrs: inlinehint uwtable
define internal { i64, i64 } @"_ZN4core3num23_$LT$impl$u20$usize$GT$11checked_add17h0ee21797dda9529dE"(i64 %self, i64 %rhs) unnamed_addr #0 !dbg !1362 {
start:
  %0 = alloca i8, align 1
  %a.dbg.spill1 = alloca i64, align 8
  %b.dbg.spill = alloca i8, align 1
  %a.dbg.spill = alloca i64, align 8
  %rhs.dbg.spill = alloca i64, align 8
  %self.dbg.spill = alloca i64, align 8
  %_0 = alloca %"core::option::Option<usize>", align 8
  store i64 %self, ptr %self.dbg.spill, align 8
  call void @llvm.dbg.declare(metadata ptr %self.dbg.spill, metadata !1364, metadata !DIExpression()), !dbg !1369
  call void @llvm.dbg.declare(metadata ptr %self.dbg.spill, metadata !1370, metadata !DIExpression()), !dbg !1378
  store i64 %rhs, ptr %rhs.dbg.spill, align 8
  call void @llvm.dbg.declare(metadata ptr %rhs.dbg.spill, metadata !1365, metadata !DIExpression()), !dbg !1380
  call void @llvm.dbg.declare(metadata ptr %rhs.dbg.spill, metadata !1374, metadata !DIExpression()), !dbg !1381
  %1 = call { i64, i1 } @llvm.uadd.with.overflow.i64(i64 %self, i64 %rhs), !dbg !1382
  %_6.0 = extractvalue { i64, i1 } %1, 0, !dbg !1382
  %_6.1 = extractvalue { i64, i1 } %1, 1, !dbg !1382
  store i64 %_6.0, ptr %a.dbg.spill, align 8, !dbg !1383
  call void @llvm.dbg.declare(metadata ptr %a.dbg.spill, metadata !1375, metadata !DIExpression()), !dbg !1384
  %2 = zext i1 %_6.1 to i8, !dbg !1385
  store i8 %2, ptr %b.dbg.spill, align 1, !dbg !1385
  call void @llvm.dbg.declare(metadata ptr %b.dbg.spill, metadata !1368, metadata !DIExpression()), !dbg !1386
  call void @llvm.dbg.declare(metadata ptr %b.dbg.spill, metadata !1377, metadata !DIExpression()), !dbg !1387
  store i64 %_6.0, ptr %a.dbg.spill1, align 8, !dbg !1388
  call void @llvm.dbg.declare(metadata ptr %a.dbg.spill1, metadata !1366, metadata !DIExpression()), !dbg !1389
  %3 = call i1 @llvm.expect.i1(i1 %_6.1, i1 false), !dbg !1390
  %4 = zext i1 %3 to i8, !dbg !1390
  store i8 %4, ptr %0, align 1, !dbg !1390
  %5 = load i8, ptr %0, align 1, !dbg !1390, !range !259, !noundef !13
  %_3 = trunc i8 %5 to i1, !dbg !1390
  br i1 %_3, label %bb2, label %bb3, !dbg !1390

bb3:                                              ; preds = %start
  %6 = getelementptr inbounds i8, ptr %_0, i64 8, !dbg !1391
  store i64 %_6.0, ptr %6, align 8, !dbg !1391
  store i64 1, ptr %_0, align 8, !dbg !1391
  br label %bb4, !dbg !1392

bb2:                                              ; preds = %start
  %7 = load i64, ptr @0, align 8, !dbg !1393, !range !319, !noundef !13
  %8 = load i64, ptr getelementptr inbounds (i8, ptr @0, i64 8), align 8, !dbg !1393
  store i64 %7, ptr %_0, align 8, !dbg !1393
  %9 = getelementptr inbounds i8, ptr %_0, i64 8, !dbg !1393
  store i64 %8, ptr %9, align 8, !dbg !1393
  br label %bb4, !dbg !1392

bb4:                                              ; preds = %bb2, %bb3
  %10 = load i64, ptr %_0, align 8, !dbg !1394, !range !319, !noundef !13
  %11 = getelementptr inbounds i8, ptr %_0, i64 8, !dbg !1394
  %12 = load i64, ptr %11, align 8, !dbg !1394
  %13 = insertvalue { i64, i64 } poison, i64 %10, 0, !dbg !1394
  %14 = insertvalue { i64, i64 } %13, i64 %12, 1, !dbg !1394
  ret { i64, i64 } %14, !dbg !1394
}

; core::num::<impl usize>::checked_mul
; Function Attrs: inlinehint uwtable
define internal { i64, i64 } @"_ZN4core3num23_$LT$impl$u20$usize$GT$11checked_mul17h8b3f434efa2433b2E"(i64 %self, i64 %rhs) unnamed_addr #0 !dbg !1395 {
start:
  %0 = alloca i8, align 1
  %a.dbg.spill1 = alloca i64, align 8
  %b.dbg.spill = alloca i8, align 1
  %a.dbg.spill = alloca i64, align 8
  %rhs.dbg.spill = alloca i64, align 8
  %self.dbg.spill = alloca i64, align 8
  %_0 = alloca %"core::option::Option<usize>", align 8
  store i64 %self, ptr %self.dbg.spill, align 8
  call void @llvm.dbg.declare(metadata ptr %self.dbg.spill, metadata !1397, metadata !DIExpression()), !dbg !1402
  call void @llvm.dbg.declare(metadata ptr %self.dbg.spill, metadata !1403, metadata !DIExpression()), !dbg !1411
  store i64 %rhs, ptr %rhs.dbg.spill, align 8
  call void @llvm.dbg.declare(metadata ptr %rhs.dbg.spill, metadata !1398, metadata !DIExpression()), !dbg !1413
  call void @llvm.dbg.declare(metadata ptr %rhs.dbg.spill, metadata !1407, metadata !DIExpression()), !dbg !1414
  %1 = call { i64, i1 } @llvm.umul.with.overflow.i64(i64 %self, i64 %rhs), !dbg !1415
  %_6.0 = extractvalue { i64, i1 } %1, 0, !dbg !1415
  %_6.1 = extractvalue { i64, i1 } %1, 1, !dbg !1415
  store i64 %_6.0, ptr %a.dbg.spill, align 8, !dbg !1416
  call void @llvm.dbg.declare(metadata ptr %a.dbg.spill, metadata !1408, metadata !DIExpression()), !dbg !1417
  %2 = zext i1 %_6.1 to i8, !dbg !1418
  store i8 %2, ptr %b.dbg.spill, align 1, !dbg !1418
  call void @llvm.dbg.declare(metadata ptr %b.dbg.spill, metadata !1401, metadata !DIExpression()), !dbg !1419
  call void @llvm.dbg.declare(metadata ptr %b.dbg.spill, metadata !1410, metadata !DIExpression()), !dbg !1420
  store i64 %_6.0, ptr %a.dbg.spill1, align 8, !dbg !1421
  call void @llvm.dbg.declare(metadata ptr %a.dbg.spill1, metadata !1399, metadata !DIExpression()), !dbg !1422
  %3 = call i1 @llvm.expect.i1(i1 %_6.1, i1 false), !dbg !1423
  %4 = zext i1 %3 to i8, !dbg !1423
  store i8 %4, ptr %0, align 1, !dbg !1423
  %5 = load i8, ptr %0, align 1, !dbg !1423, !range !259, !noundef !13
  %_3 = trunc i8 %5 to i1, !dbg !1423
  br i1 %_3, label %bb2, label %bb3, !dbg !1423

bb3:                                              ; preds = %start
  %6 = getelementptr inbounds i8, ptr %_0, i64 8, !dbg !1424
  store i64 %_6.0, ptr %6, align 8, !dbg !1424
  store i64 1, ptr %_0, align 8, !dbg !1424
  br label %bb4, !dbg !1425

bb2:                                              ; preds = %start
  %7 = load i64, ptr @0, align 8, !dbg !1426, !range !319, !noundef !13
  %8 = load i64, ptr getelementptr inbounds (i8, ptr @0, i64 8), align 8, !dbg !1426
  store i64 %7, ptr %_0, align 8, !dbg !1426
  %9 = getelementptr inbounds i8, ptr %_0, i64 8, !dbg !1426
  store i64 %8, ptr %9, align 8, !dbg !1426
  br label %bb4, !dbg !1425

bb4:                                              ; preds = %bb2, %bb3
  %10 = load i64, ptr %_0, align 8, !dbg !1427, !range !319, !noundef !13
  %11 = getelementptr inbounds i8, ptr %_0, i64 8, !dbg !1427
  %12 = load i64, ptr %11, align 8, !dbg !1427
  %13 = insertvalue { i64, i64 } poison, i64 %10, 0, !dbg !1427
  %14 = insertvalue { i64, i64 } %13, i64 %12, 1, !dbg !1427
  ret { i64, i64 } %14, !dbg !1427
}

; core::ops::range::RangeInclusive<Idx>::new
; Function Attrs: inlinehint uwtable
define void @"_ZN4core3ops5range25RangeInclusive$LT$Idx$GT$3new17h368a87b44d7100faE"(ptr sret(%"core::ops::range::RangeInclusive<usize>") align 8 %_0, i64 %start1, i64 %end) unnamed_addr #0 !dbg !1428 {
start:
  %end.dbg.spill = alloca i64, align 8
  %start.dbg.spill = alloca i64, align 8
  store i64 %start1, ptr %start.dbg.spill, align 8
  call void @llvm.dbg.declare(metadata ptr %start.dbg.spill, metadata !1433, metadata !DIExpression()), !dbg !1435
  store i64 %end, ptr %end.dbg.spill, align 8
  call void @llvm.dbg.declare(metadata ptr %end.dbg.spill, metadata !1434, metadata !DIExpression()), !dbg !1436
  store i64 %start1, ptr %_0, align 8, !dbg !1437
  %0 = getelementptr inbounds i8, ptr %_0, i64 8, !dbg !1437
  store i64 %end, ptr %0, align 8, !dbg !1437
  %1 = getelementptr inbounds i8, ptr %_0, i64 16, !dbg !1437
  store i8 0, ptr %1, align 8, !dbg !1437
  ret void, !dbg !1438
}

; core::ops::function::FnOnce::call_once
; Function Attrs: inlinehint uwtable
define internal i8 @_ZN4core3ops8function6FnOnce9call_once17h1762bff277ce18cfE(ptr align 8 %0, ptr align 8 %1) unnamed_addr #0 !dbg !1439 {
start:
  %_1.dbg.spill = alloca {}, align 1
  %_2 = alloca { ptr, ptr }, align 8
  store ptr %0, ptr %_2, align 8
  %2 = getelementptr inbounds i8, ptr %_2, i64 8
  store ptr %1, ptr %2, align 8
  call void @llvm.dbg.declare(metadata ptr %_1.dbg.spill, metadata !1446, metadata !DIExpression()), !dbg !1455
  call void @llvm.dbg.declare(metadata ptr %_2, metadata !1447, metadata !DIExpression()), !dbg !1455
  %3 = load ptr, ptr %_2, align 8, !dbg !1455, !nonnull !13, !align !681, !noundef !13
  %4 = getelementptr inbounds i8, ptr %_2, i64 8, !dbg !1455
  %5 = load ptr, ptr %4, align 8, !dbg !1455, !nonnull !13, !align !681, !noundef !13
; call core::cmp::impls::<impl core::cmp::Ord for usize>::cmp
  %_0 = call i8 @"_ZN4core3cmp5impls50_$LT$impl$u20$core..cmp..Ord$u20$for$u20$usize$GT$3cmp17hbb3453fb6ed8eafcE"(ptr align 8 %3, ptr align 8 %5), !dbg !1455, !range !1294
  ret i8 %_0, !dbg !1455
}

; core::ptr::swap_nonoverlapping
; Function Attrs: inlinehint uwtable
define void @_ZN4core3ptr19swap_nonoverlapping17hd60b8c83fb56ab9aE(ptr %x, ptr %y, i64 %count) unnamed_addr #0 !dbg !1456 {
start:
  %b.dbg.spill48 = alloca i8, align 1
  %a.dbg.spill46 = alloca i8, align 1
  %y.dbg.spill44 = alloca ptr, align 8
  %count.dbg.spill42 = alloca i64, align 8
  %x.dbg.spill40 = alloca ptr, align 8
  %count.dbg.spill38 = alloca i64, align 8
  %y.dbg.spill36 = alloca ptr, align 8
  %x.dbg.spill35 = alloca ptr, align 8
  %count.dbg.spill34 = alloca i64, align 8
  %y.dbg.spill32 = alloca ptr, align 8
  %x.dbg.spill31 = alloca ptr, align 8
  %b.dbg.spill30 = alloca i64, align 8
  %a.dbg.spill28 = alloca i64, align 8
  %y.dbg.spill26 = alloca ptr, align 8
  %count.dbg.spill24 = alloca i64, align 8
  %x.dbg.spill22 = alloca ptr, align 8
  %count.dbg.spill20 = alloca i64, align 8
  %y.dbg.spill18 = alloca ptr, align 8
  %x.dbg.spill17 = alloca ptr, align 8
  %b.dbg.spill = alloca i64, align 8
  %a.dbg.spill = alloca i64, align 8
  %y.dbg.spill16 = alloca ptr, align 8
  %count.dbg.spill14 = alloca i64, align 8
  %x.dbg.spill12 = alloca ptr, align 8
  %count.dbg.spill10 = alloca i64, align 8
  %y.dbg.spill8 = alloca ptr, align 8
  %x.dbg.spill7 = alloca ptr, align 8
  %count.dbg.spill6 = alloca i64, align 8
  %y.dbg.spill4 = alloca ptr, align 8
  %x.dbg.spill3 = alloca ptr, align 8
  %0 = alloca i64, align 8
  %self.dbg.spill = alloca i64, align 8
  %count.dbg.spill = alloca i64, align 8
  %y.dbg.spill = alloca ptr, align 8
  %x.dbg.spill = alloca ptr, align 8
  %i2 = alloca i64, align 8
  %i1 = alloca i64, align 8
  %i = alloca i64, align 8
  store ptr %x, ptr %x.dbg.spill, align 8
  call void @llvm.dbg.declare(metadata ptr %x.dbg.spill, metadata !1460, metadata !DIExpression()), !dbg !1476
  call void @llvm.dbg.declare(metadata ptr %x.dbg.spill, metadata !1477, metadata !DIExpression()), !dbg !1487
  call void @llvm.dbg.declare(metadata ptr %x.dbg.spill, metadata !1489, metadata !DIExpression()), !dbg !1499
  call void @llvm.dbg.declare(metadata ptr %x.dbg.spill, metadata !1500, metadata !DIExpression()), !dbg !1540
  call void @llvm.dbg.declare(metadata ptr %x.dbg.spill, metadata !1542, metadata !DIExpression()), !dbg !1556
  store ptr %y, ptr %y.dbg.spill, align 8
  call void @llvm.dbg.declare(metadata ptr %y.dbg.spill, metadata !1461, metadata !DIExpression()), !dbg !1558
  call void @llvm.dbg.declare(metadata ptr %y.dbg.spill, metadata !1483, metadata !DIExpression()), !dbg !1559
  call void @llvm.dbg.declare(metadata ptr %y.dbg.spill, metadata !1495, metadata !DIExpression()), !dbg !1561
  call void @llvm.dbg.declare(metadata ptr %y.dbg.spill, metadata !1528, metadata !DIExpression()), !dbg !1563
  call void @llvm.dbg.declare(metadata ptr %y.dbg.spill, metadata !1552, metadata !DIExpression()), !dbg !1564
  store i64 %count, ptr %count.dbg.spill, align 8
  call void @llvm.dbg.declare(metadata ptr %count.dbg.spill, metadata !1462, metadata !DIExpression()), !dbg !1566
  call void @llvm.dbg.declare(metadata ptr %count.dbg.spill, metadata !1529, metadata !DIExpression()), !dbg !1567
  call void @llvm.dbg.declare(metadata ptr %i, metadata !1522, metadata !DIExpression()), !dbg !1568
  call void @llvm.dbg.declare(metadata ptr %i1, metadata !1570, metadata !DIExpression()), !dbg !1596
  call void @llvm.dbg.declare(metadata ptr %i2, metadata !1534, metadata !DIExpression()), !dbg !1598
  br label %bb1, !dbg !1599

bb1:                                              ; preds = %start
; call core::ptr::swap_nonoverlapping::precondition_check
  call void @_ZN4core3ptr19swap_nonoverlapping18precondition_check17hfd5c2a73f5d021b2E(ptr %x, ptr %y, i64 8, i64 8, i64 %count) #12, !dbg !1599
  br label %bb2, !dbg !1599

bb2:                                              ; preds = %bb1
  br label %bb3, !dbg !1600

bb3:                                              ; preds = %bb2
  store i64 8, ptr %self.dbg.spill, align 8, !dbg !1601
  call void @llvm.dbg.declare(metadata ptr %self.dbg.spill, metadata !1607, metadata !DIExpression()), !dbg !1612
  call void @llvm.dbg.declare(metadata ptr %self.dbg.spill, metadata !1614, metadata !DIExpression()), !dbg !1619
  %1 = call i64 @llvm.ctpop.i64(i64 8), !dbg !1619
  store i64 %1, ptr %0, align 8, !dbg !1619
  %_25 = load i64, ptr %0, align 8, !dbg !1619, !noundef !13
  %_24 = trunc i64 %_25 to i32, !dbg !1619
  %2 = icmp eq i32 %_24, 1, !dbg !1606
  br i1 %2, label %bb4, label %bb5, !dbg !1606

bb4:                                              ; preds = %bb3
  br label %bb13, !dbg !1621

bb5:                                              ; preds = %bb3
  br label %bb6, !dbg !1622

bb13:                                             ; preds = %bb12, %bb4
  store ptr %x, ptr %x.dbg.spill17, align 8, !dbg !1623
  call void @llvm.dbg.declare(metadata ptr %x.dbg.spill17, metadata !1530, metadata !DIExpression()), !dbg !1624
  call void @llvm.dbg.declare(metadata ptr %x.dbg.spill17, metadata !1625, metadata !DIExpression()), !dbg !1643
  store ptr %y, ptr %y.dbg.spill18, align 8, !dbg !1645
  call void @llvm.dbg.declare(metadata ptr %y.dbg.spill18, metadata !1532, metadata !DIExpression()), !dbg !1646
  call void @llvm.dbg.declare(metadata ptr %y.dbg.spill18, metadata !1638, metadata !DIExpression()), !dbg !1647
  store i64 0, ptr %i2, align 8, !dbg !1649
  br label %bb23, !dbg !1650

bb6:                                              ; preds = %bb5
  br label %bb7, !dbg !1651

bb7:                                              ; preds = %bb6
  br label %bb8, !dbg !1651

bb8:                                              ; preds = %bb7
  store ptr %x, ptr %x.dbg.spill3, align 8, !dbg !1652
  call void @llvm.dbg.declare(metadata ptr %x.dbg.spill3, metadata !1463, metadata !DIExpression()), !dbg !1653
  call void @llvm.dbg.declare(metadata ptr %x.dbg.spill3, metadata !1504, metadata !DIExpression()), !dbg !1654
  call void @llvm.dbg.declare(metadata ptr %x.dbg.spill3, metadata !1548, metadata !DIExpression()), !dbg !1655
  store ptr %y, ptr %y.dbg.spill4, align 8, !dbg !1657
  call void @llvm.dbg.declare(metadata ptr %y.dbg.spill4, metadata !1465, metadata !DIExpression()), !dbg !1658
  call void @llvm.dbg.declare(metadata ptr %y.dbg.spill4, metadata !1506, metadata !DIExpression()), !dbg !1659
  call void @llvm.dbg.declare(metadata ptr %y.dbg.spill4, metadata !1550, metadata !DIExpression()), !dbg !1660
  %count5 = mul i64 %count, 1, !dbg !1658
  store i64 %count5, ptr %count.dbg.spill6, align 8, !dbg !1658
  call void @llvm.dbg.declare(metadata ptr %count.dbg.spill6, metadata !1467, metadata !DIExpression()), !dbg !1662
  call void @llvm.dbg.declare(metadata ptr %count.dbg.spill6, metadata !1507, metadata !DIExpression()), !dbg !1663
  store ptr %x, ptr %x.dbg.spill7, align 8, !dbg !1664
  call void @llvm.dbg.declare(metadata ptr %x.dbg.spill7, metadata !1508, metadata !DIExpression()), !dbg !1665
  call void @llvm.dbg.declare(metadata ptr %x.dbg.spill7, metadata !1631, metadata !DIExpression()), !dbg !1666
  store ptr %y, ptr %y.dbg.spill8, align 8, !dbg !1668
  call void @llvm.dbg.declare(metadata ptr %y.dbg.spill8, metadata !1520, metadata !DIExpression()), !dbg !1669
  call void @llvm.dbg.declare(metadata ptr %y.dbg.spill8, metadata !1634, metadata !DIExpression()), !dbg !1670
  store i64 0, ptr %i, align 8, !dbg !1672
  br label %bb17, !dbg !1673

bb17:                                             ; preds = %bb18, %bb8
  %_31 = load i64, ptr %i, align 8, !dbg !1674, !noundef !13
  %_30 = icmp ult i64 %_31, %count5, !dbg !1674
  br i1 %_30, label %bb18, label %bb19, !dbg !1674

bb19:                                             ; preds = %bb17
  br label %bb14, !dbg !1675

bb18:                                             ; preds = %bb17
  %count9 = load i64, ptr %i, align 8, !dbg !1677, !noundef !13
  store i64 %count9, ptr %count.dbg.spill10, align 8, !dbg !1677
  call void @llvm.dbg.declare(metadata ptr %count.dbg.spill10, metadata !1633, metadata !DIExpression()), !dbg !1678
  %x11 = getelementptr inbounds i64, ptr %x, i64 %count9, !dbg !1679
  store ptr %x11, ptr %x.dbg.spill12, align 8, !dbg !1679
  call void @llvm.dbg.declare(metadata ptr %x.dbg.spill12, metadata !1524, metadata !DIExpression()), !dbg !1680
  call void @llvm.dbg.declare(metadata ptr %x.dbg.spill12, metadata !1681, metadata !DIExpression()), !dbg !1700
  call void @llvm.dbg.declare(metadata ptr %x.dbg.spill12, metadata !1702, metadata !DIExpression()), !dbg !1715
  call void @llvm.dbg.declare(metadata ptr %x.dbg.spill12, metadata !1717, metadata !DIExpression()), !dbg !1733
  %count13 = load i64, ptr %i, align 8, !dbg !1735, !noundef !13
  store i64 %count13, ptr %count.dbg.spill14, align 8, !dbg !1735
  call void @llvm.dbg.declare(metadata ptr %count.dbg.spill14, metadata !1636, metadata !DIExpression()), !dbg !1736
  %y15 = getelementptr inbounds i64, ptr %y, i64 %count13, !dbg !1737
  store ptr %y15, ptr %y.dbg.spill16, align 8, !dbg !1737
  call void @llvm.dbg.declare(metadata ptr %y.dbg.spill16, metadata !1526, metadata !DIExpression()), !dbg !1738
  call void @llvm.dbg.declare(metadata ptr %y.dbg.spill16, metadata !1688, metadata !DIExpression()), !dbg !1739
  call void @llvm.dbg.declare(metadata ptr %y.dbg.spill16, metadata !1709, metadata !DIExpression()), !dbg !1740
  call void @llvm.dbg.declare(metadata ptr %y.dbg.spill16, metadata !1724, metadata !DIExpression()), !dbg !1742
  %a = load i64, ptr %x11, align 8, !dbg !1744
  store i64 %a, ptr %a.dbg.spill, align 8, !dbg !1744
  call void @llvm.dbg.declare(metadata ptr %a.dbg.spill, metadata !1689, metadata !DIExpression()), !dbg !1745
  call void @llvm.dbg.declare(metadata ptr %a.dbg.spill, metadata !1726, metadata !DIExpression()), !dbg !1746
  %b = load i64, ptr %y15, align 8, !dbg !1747
  store i64 %b, ptr %b.dbg.spill, align 8, !dbg !1747
  call void @llvm.dbg.declare(metadata ptr %b.dbg.spill, metadata !1691, metadata !DIExpression()), !dbg !1748
  call void @llvm.dbg.declare(metadata ptr %b.dbg.spill, metadata !1723, metadata !DIExpression()), !dbg !1749
  store i64 %b, ptr %x11, align 8, !dbg !1750
  store i64 %a, ptr %y15, align 8, !dbg !1751
  %3 = load i64, ptr %i, align 8, !dbg !1752, !noundef !13
  %4 = add i64 %3, 1, !dbg !1752
  store i64 %4, ptr %i, align 8, !dbg !1752
  br label %bb17, !dbg !1673

bb14:                                             ; preds = %bb22, %bb19
  br label %bb15, !dbg !1753

bb9:                                              ; No predecessors!
  br label %bb10, !dbg !1675

bb10:                                             ; preds = %bb9
  br label %bb11, !dbg !1754

bb11:                                             ; preds = %bb10
  store ptr %x, ptr %x.dbg.spill31, align 8, !dbg !1755
  call void @llvm.dbg.declare(metadata ptr %x.dbg.spill31, metadata !1469, metadata !DIExpression()), !dbg !1756
  call void @llvm.dbg.declare(metadata ptr %x.dbg.spill31, metadata !1579, metadata !DIExpression()), !dbg !1757
  call void @llvm.dbg.declare(metadata ptr %x.dbg.spill31, metadata !1758, metadata !DIExpression()), !dbg !1768
  store ptr %y, ptr %y.dbg.spill32, align 8, !dbg !1770
  call void @llvm.dbg.declare(metadata ptr %y.dbg.spill32, metadata !1472, metadata !DIExpression()), !dbg !1771
  call void @llvm.dbg.declare(metadata ptr %y.dbg.spill32, metadata !1580, metadata !DIExpression()), !dbg !1772
  call void @llvm.dbg.declare(metadata ptr %y.dbg.spill32, metadata !1764, metadata !DIExpression()), !dbg !1773
  %count33 = mul i64 %count, 8, !dbg !1771
  store i64 %count33, ptr %count.dbg.spill34, align 8, !dbg !1771
  call void @llvm.dbg.declare(metadata ptr %count.dbg.spill34, metadata !1474, metadata !DIExpression()), !dbg !1775
  call void @llvm.dbg.declare(metadata ptr %count.dbg.spill34, metadata !1581, metadata !DIExpression()), !dbg !1776
  store ptr %x, ptr %x.dbg.spill35, align 8, !dbg !1777
  call void @llvm.dbg.declare(metadata ptr %x.dbg.spill35, metadata !1582, metadata !DIExpression()), !dbg !1778
  call void @llvm.dbg.declare(metadata ptr %x.dbg.spill35, metadata !1779, metadata !DIExpression()), !dbg !1791
  store ptr %y, ptr %y.dbg.spill36, align 8, !dbg !1793
  call void @llvm.dbg.declare(metadata ptr %y.dbg.spill36, metadata !1591, metadata !DIExpression()), !dbg !1794
  call void @llvm.dbg.declare(metadata ptr %y.dbg.spill36, metadata !1786, metadata !DIExpression()), !dbg !1795
  store i64 0, ptr %i1, align 8, !dbg !1797
  br label %bb20, !dbg !1798

bb12:                                             ; No predecessors!
  br label %bb13, !dbg !1799

bb23:                                             ; preds = %bb24, %bb13
  %_53 = load i64, ptr %i2, align 8, !dbg !1800, !noundef !13
  %_52 = icmp ult i64 %_53, %count, !dbg !1800
  br i1 %_52, label %bb24, label %bb25, !dbg !1800

bb25:                                             ; preds = %bb23
  br label %bb15, !dbg !1753

bb24:                                             ; preds = %bb23
  %count19 = load i64, ptr %i2, align 8, !dbg !1801, !noundef !13
  store i64 %count19, ptr %count.dbg.spill20, align 8, !dbg !1801
  call void @llvm.dbg.declare(metadata ptr %count.dbg.spill20, metadata !1637, metadata !DIExpression()), !dbg !1802
  %x21 = getelementptr inbounds i64, ptr %x, i64 %count19, !dbg !1803
  store ptr %x21, ptr %x.dbg.spill22, align 8, !dbg !1803
  call void @llvm.dbg.declare(metadata ptr %x.dbg.spill22, metadata !1536, metadata !DIExpression()), !dbg !1804
  call void @llvm.dbg.declare(metadata ptr %x.dbg.spill22, metadata !1693, metadata !DIExpression()), !dbg !1805
  call void @llvm.dbg.declare(metadata ptr %x.dbg.spill22, metadata !1711, metadata !DIExpression()), !dbg !1807
  call void @llvm.dbg.declare(metadata ptr %x.dbg.spill22, metadata !1727, metadata !DIExpression()), !dbg !1809
  %count23 = load i64, ptr %i2, align 8, !dbg !1811, !noundef !13
  store i64 %count23, ptr %count.dbg.spill24, align 8, !dbg !1811
  call void @llvm.dbg.declare(metadata ptr %count.dbg.spill24, metadata !1640, metadata !DIExpression()), !dbg !1812
  %y25 = getelementptr inbounds i64, ptr %y, i64 %count23, !dbg !1813
  store ptr %y25, ptr %y.dbg.spill26, align 8, !dbg !1813
  call void @llvm.dbg.declare(metadata ptr %y.dbg.spill26, metadata !1538, metadata !DIExpression()), !dbg !1814
  call void @llvm.dbg.declare(metadata ptr %y.dbg.spill26, metadata !1695, metadata !DIExpression()), !dbg !1815
  call void @llvm.dbg.declare(metadata ptr %y.dbg.spill26, metadata !1713, metadata !DIExpression()), !dbg !1816
  call void @llvm.dbg.declare(metadata ptr %y.dbg.spill26, metadata !1730, metadata !DIExpression()), !dbg !1818
  %a27 = load i64, ptr %x21, align 8, !dbg !1820
  store i64 %a27, ptr %a.dbg.spill28, align 8, !dbg !1820
  call void @llvm.dbg.declare(metadata ptr %a.dbg.spill28, metadata !1696, metadata !DIExpression()), !dbg !1821
  call void @llvm.dbg.declare(metadata ptr %a.dbg.spill28, metadata !1732, metadata !DIExpression()), !dbg !1822
  %b29 = load i64, ptr %y25, align 8, !dbg !1823
  store i64 %b29, ptr %b.dbg.spill30, align 8, !dbg !1823
  call void @llvm.dbg.declare(metadata ptr %b.dbg.spill30, metadata !1698, metadata !DIExpression()), !dbg !1824
  call void @llvm.dbg.declare(metadata ptr %b.dbg.spill30, metadata !1729, metadata !DIExpression()), !dbg !1825
  store i64 %b29, ptr %x21, align 8, !dbg !1826
  store i64 %a27, ptr %y25, align 8, !dbg !1827
  %5 = load i64, ptr %i2, align 8, !dbg !1828, !noundef !13
  %6 = add i64 %5, 1, !dbg !1828
  store i64 %6, ptr %i2, align 8, !dbg !1828
  br label %bb23, !dbg !1650

bb15:                                             ; preds = %bb14, %bb25
  ret void, !dbg !1753

bb20:                                             ; preds = %bb21, %bb11
  %_42 = load i64, ptr %i1, align 8, !dbg !1829, !noundef !13
  %_41 = icmp ult i64 %_42, %count33, !dbg !1829
  br i1 %_41, label %bb21, label %bb22, !dbg !1829

bb22:                                             ; preds = %bb20
  br label %bb14, !dbg !1675

bb21:                                             ; preds = %bb20
  %count37 = load i64, ptr %i1, align 8, !dbg !1830, !noundef !13
  store i64 %count37, ptr %count.dbg.spill38, align 8, !dbg !1830
  call void @llvm.dbg.declare(metadata ptr %count.dbg.spill38, metadata !1785, metadata !DIExpression()), !dbg !1831
  %x39 = getelementptr inbounds i8, ptr %x, i64 %count37, !dbg !1832
  store ptr %x39, ptr %x.dbg.spill40, align 8, !dbg !1832
  call void @llvm.dbg.declare(metadata ptr %x.dbg.spill40, metadata !1592, metadata !DIExpression()), !dbg !1833
  call void @llvm.dbg.declare(metadata ptr %x.dbg.spill40, metadata !1834, metadata !DIExpression()), !dbg !1846
  call void @llvm.dbg.declare(metadata ptr %x.dbg.spill40, metadata !1848, metadata !DIExpression()), !dbg !1857
  call void @llvm.dbg.declare(metadata ptr %x.dbg.spill40, metadata !1859, metadata !DIExpression()), !dbg !1869
  %count41 = load i64, ptr %i1, align 8, !dbg !1871, !noundef !13
  store i64 %count41, ptr %count.dbg.spill42, align 8, !dbg !1871
  call void @llvm.dbg.declare(metadata ptr %count.dbg.spill42, metadata !1788, metadata !DIExpression()), !dbg !1872
  %y43 = getelementptr inbounds i8, ptr %y, i64 %count41, !dbg !1873
  store ptr %y43, ptr %y.dbg.spill44, align 8, !dbg !1873
  call void @llvm.dbg.declare(metadata ptr %y.dbg.spill44, metadata !1594, metadata !DIExpression()), !dbg !1874
  call void @llvm.dbg.declare(metadata ptr %y.dbg.spill44, metadata !1841, metadata !DIExpression()), !dbg !1875
  call void @llvm.dbg.declare(metadata ptr %y.dbg.spill44, metadata !1855, metadata !DIExpression()), !dbg !1876
  call void @llvm.dbg.declare(metadata ptr %y.dbg.spill44, metadata !1866, metadata !DIExpression()), !dbg !1878
  %a45 = load i8, ptr %x39, align 1, !dbg !1880
  store i8 %a45, ptr %a.dbg.spill46, align 1, !dbg !1880
  call void @llvm.dbg.declare(metadata ptr %a.dbg.spill46, metadata !1842, metadata !DIExpression()), !dbg !1881
  call void @llvm.dbg.declare(metadata ptr %a.dbg.spill46, metadata !1868, metadata !DIExpression()), !dbg !1882
  %b47 = load i8, ptr %y43, align 1, !dbg !1883
  store i8 %b47, ptr %b.dbg.spill48, align 1, !dbg !1883
  call void @llvm.dbg.declare(metadata ptr %b.dbg.spill48, metadata !1844, metadata !DIExpression()), !dbg !1884
  call void @llvm.dbg.declare(metadata ptr %b.dbg.spill48, metadata !1865, metadata !DIExpression()), !dbg !1885
  store i8 %b47, ptr %x39, align 1, !dbg !1886
  store i8 %a45, ptr %y43, align 1, !dbg !1887
  %7 = load i64, ptr %i1, align 8, !dbg !1888, !noundef !13
  %8 = add i64 %7, 1, !dbg !1888
  store i64 %8, ptr %i1, align 8, !dbg !1888
  br label %bb20, !dbg !1798
}

; core::ptr::swap_nonoverlapping::precondition_check
; Function Attrs: inlinehint nounwind uwtable
define internal void @_ZN4core3ptr19swap_nonoverlapping18precondition_check17hfd5c2a73f5d021b2E(ptr %x, ptr %y, i64 %size, i64 %align, i64 %count) unnamed_addr #2 personality ptr @rust_eh_personality !dbg !1889 {
start:
  %count.dbg.spill = alloca i64, align 8
  %align.dbg.spill = alloca i64, align 8
  %size.dbg.spill = alloca i64, align 8
  %y.dbg.spill = alloca ptr, align 8
  %x.dbg.spill = alloca ptr, align 8
  store ptr %x, ptr %x.dbg.spill, align 8
  call void @llvm.dbg.declare(metadata ptr %x.dbg.spill, metadata !1894, metadata !DIExpression()), !dbg !1899
  store ptr %y, ptr %y.dbg.spill, align 8
  call void @llvm.dbg.declare(metadata ptr %y.dbg.spill, metadata !1895, metadata !DIExpression()), !dbg !1899
  store i64 %size, ptr %size.dbg.spill, align 8
  call void @llvm.dbg.declare(metadata ptr %size.dbg.spill, metadata !1896, metadata !DIExpression()), !dbg !1899
  store i64 %align, ptr %align.dbg.spill, align 8
  call void @llvm.dbg.declare(metadata ptr %align.dbg.spill, metadata !1897, metadata !DIExpression()), !dbg !1899
  store i64 %count, ptr %count.dbg.spill, align 8
  call void @llvm.dbg.declare(metadata ptr %count.dbg.spill, metadata !1898, metadata !DIExpression()), !dbg !1899
; invoke core::intrinsics::is_aligned_and_not_null
  %_6 = invoke zeroext i1 @_ZN4core10intrinsics23is_aligned_and_not_null17h72cba3e3168818f5E(ptr %x, i64 %align)
          to label %bb1 unwind label %terminate, !dbg !1900

terminate:                                        ; preds = %bb4, %bb2, %start
  %0 = landingpad { ptr, i32 }
          filter [0 x ptr] zeroinitializer
  %1 = extractvalue { ptr, i32 } %0, 0
  %2 = extractvalue { ptr, i32 } %0, 1
; call core::panicking::panic_cannot_unwind
  call void @_ZN4core9panicking19panic_cannot_unwind17h3626040c0976c0c3E() #11, !dbg !1902
  unreachable, !dbg !1902

bb1:                                              ; preds = %start
  br i1 %_6, label %bb2, label %bb7, !dbg !1900

bb7:                                              ; preds = %bb5, %bb3, %bb1
; call core::panicking::panic_nounwind
  call void @_ZN4core9panicking14panic_nounwind17h50c31e15afde233eE(ptr align 1 @alloc_546a48d82dbbd37bfd409d4513b73f46, i64 166) #9, !dbg !1903
  unreachable, !dbg !1903

bb2:                                              ; preds = %bb1
; invoke core::intrinsics::is_aligned_and_not_null
  %_8 = invoke zeroext i1 @_ZN4core10intrinsics23is_aligned_and_not_null17h72cba3e3168818f5E(ptr %y, i64 %align)
          to label %bb3 unwind label %terminate, !dbg !1904

bb3:                                              ; preds = %bb2
  br i1 %_8, label %bb4, label %bb7, !dbg !1904

bb4:                                              ; preds = %bb3
; invoke core::intrinsics::is_nonoverlapping
  %_10 = invoke zeroext i1 @_ZN4core10intrinsics17is_nonoverlapping17h7adfdad8dca5c0c5E(ptr %x, ptr %y, i64 %size, i64 %count)
          to label %bb5 unwind label %terminate, !dbg !1905

bb5:                                              ; preds = %bb4
  br i1 %_10, label %bb6, label %bb7, !dbg !1905

bb6:                                              ; preds = %bb5
  ret void, !dbg !1906
}

; core::ptr::drop_in_place<&usize>
; Function Attrs: inlinehint uwtable
define internal void @"_ZN4core3ptr30drop_in_place$LT$$RF$usize$GT$17h11529856a2db493eE"(ptr align 8 %_1) unnamed_addr #0 !dbg !1907 {
start:
  %_1.dbg.spill = alloca ptr, align 8
  store ptr %_1, ptr %_1.dbg.spill, align 8
  call void @llvm.dbg.declare(metadata ptr %_1.dbg.spill, metadata !1912, metadata !DIExpression()), !dbg !1913
  ret void, !dbg !1913
}

; core::ptr::swap
; Function Attrs: inlinehint uwtable
define void @_ZN4core3ptr4swap17h131da02e56910467E(ptr %x, ptr %y) unnamed_addr #0 !dbg !1914 {
start:
  %dst.dbg.spill = alloca ptr, align 8
  %self.dbg.spill = alloca ptr, align 8
  %src.dbg.spill = alloca ptr, align 8
  %y.dbg.spill = alloca ptr, align 8
  %x.dbg.spill = alloca ptr, align 8
  %_24 = alloca ptr, align 8
  %_23 = alloca i64, align 8
  %_22 = alloca ptr, align 8
  %_21 = alloca ptr, align 8
  %dst4 = alloca ptr, align 8
  %self = alloca ptr, align 8
  %src3 = alloca ptr, align 8
  %dst = alloca ptr, align 8
  %src = alloca ptr, align 8
  %tmp = alloca i64, align 8
  %count.dbg.spill2 = alloca i64, align 8
  %count.dbg.spill1 = alloca i64, align 8
  %count.dbg.spill = alloca i64, align 8
  store i64 1, ptr %count.dbg.spill, align 8, !dbg !1922
  call void @llvm.dbg.declare(metadata ptr %count.dbg.spill, metadata !1930, metadata !DIExpression()), !dbg !1922
  store i64 1, ptr %count.dbg.spill1, align 8, !dbg !1936
  call void @llvm.dbg.declare(metadata ptr %count.dbg.spill1, metadata !1942, metadata !DIExpression()), !dbg !1936
  store i64 1, ptr %count.dbg.spill2, align 8, !dbg !1944
  call void @llvm.dbg.declare(metadata ptr %count.dbg.spill2, metadata !1934, metadata !DIExpression()), !dbg !1944
  store ptr %x, ptr %x.dbg.spill, align 8, !dbg !1944
  call void @llvm.dbg.declare(metadata ptr %x.dbg.spill, metadata !1918, metadata !DIExpression()), !dbg !1946
  store ptr %y, ptr %y.dbg.spill, align 8, !dbg !1944
  call void @llvm.dbg.declare(metadata ptr %y.dbg.spill, metadata !1919, metadata !DIExpression()), !dbg !1947
  call void @llvm.dbg.declare(metadata ptr %tmp, metadata !1920, metadata !DIExpression()), !dbg !1948
  call void @llvm.dbg.declare(metadata ptr %src, metadata !1940, metadata !DIExpression()), !dbg !1949
  call void @llvm.dbg.declare(metadata ptr %dst, metadata !1941, metadata !DIExpression()), !dbg !1950
  call void @llvm.dbg.declare(metadata ptr %src3, metadata !1931, metadata !DIExpression()), !dbg !1951
  call void @llvm.dbg.declare(metadata ptr %self, metadata !1952, metadata !DIExpression()), !dbg !1961
  call void @llvm.dbg.declare(metadata ptr %dst4, metadata !1933, metadata !DIExpression()), !dbg !1963
  store ptr %x, ptr %src.dbg.spill, align 8, !dbg !1964
  call void @llvm.dbg.declare(metadata ptr %src.dbg.spill, metadata !1928, metadata !DIExpression()), !dbg !1965
  store ptr %tmp, ptr %self.dbg.spill, align 8, !dbg !1966
  call void @llvm.dbg.declare(metadata ptr %self.dbg.spill, metadata !1967, metadata !DIExpression()), !dbg !1974
  store ptr %tmp, ptr %dst.dbg.spill, align 8, !dbg !1976
  call void @llvm.dbg.declare(metadata ptr %dst.dbg.spill, metadata !1929, metadata !DIExpression()), !dbg !1977
  br label %bb1, !dbg !1978

bb1:                                              ; preds = %start
; call core::intrinsics::copy_nonoverlapping::precondition_check
  call void @_ZN4core10intrinsics19copy_nonoverlapping18precondition_check17heb665b386cf8b624E(ptr %x, ptr %tmp, i64 8, i64 8, i64 1) #12, !dbg !1978
  call void @llvm.memcpy.p0.p0.i64(ptr align 8 %tmp, ptr align 8 %x, i64 8, i1 false), !dbg !1979
  store ptr %y, ptr %src, align 8, !dbg !1980
  store ptr %x, ptr %dst, align 8, !dbg !1981
  store ptr %y, ptr %_21, align 8, !dbg !1982
  store ptr %x, ptr %_22, align 8, !dbg !1983
  store i64 8, ptr %_23, align 8, !dbg !1984
  %0 = load ptr, ptr %_21, align 8, !dbg !1988, !noundef !13
  %1 = load ptr, ptr %_22, align 8, !dbg !1988, !noundef !13
  %2 = load i64, ptr %_23, align 8, !dbg !1988, !noundef !13
; call core::intrinsics::copy::precondition_check
  call void @_ZN4core10intrinsics4copy18precondition_check17h29bb9def86d88c9dE(ptr %0, ptr %1, i64 %2) #12, !dbg !1988
  %3 = load ptr, ptr %src, align 8, !dbg !1989, !noundef !13
  call void @llvm.memmove.p0.p0.i64(ptr align 8 %x, ptr align 8 %3, i64 8, i1 false), !dbg !1989
  store ptr %tmp, ptr %self, align 8, !dbg !1990
  store ptr %tmp, ptr %_24, align 8, !dbg !1991
  %4 = load ptr, ptr %_24, align 8, !dbg !1991, !noundef !13
  store ptr %4, ptr %src3, align 8, !dbg !1991
  store ptr %y, ptr %dst4, align 8, !dbg !1992
  br label %bb6, !dbg !1993

bb2:                                              ; No predecessors!
  call void @llvm.memcpy.p0.p0.i64(ptr align 8 %tmp, ptr align 8 %x, i64 8, i1 false), !dbg !1979
  store ptr %y, ptr %src, align 8, !dbg !1980
  store ptr %x, ptr %dst, align 8, !dbg !1981
  br label %bb4, !dbg !1988

bb4:                                              ; preds = %bb2
  store ptr %y, ptr %_21, align 8, !dbg !1982
  store ptr %x, ptr %_22, align 8, !dbg !1983
  store i64 8, ptr %_23, align 8, !dbg !1984
  %5 = load ptr, ptr %_21, align 8, !dbg !1988, !noundef !13
  %6 = load ptr, ptr %_22, align 8, !dbg !1988, !noundef !13
  %7 = load i64, ptr %_23, align 8, !dbg !1988, !noundef !13
; call core::intrinsics::copy::precondition_check
  call void @_ZN4core10intrinsics4copy18precondition_check17h29bb9def86d88c9dE(ptr %5, ptr %6, i64 %7) #12, !dbg !1988
  %8 = load ptr, ptr %src, align 8, !dbg !1989, !noundef !13
  call void @llvm.memmove.p0.p0.i64(ptr align 8 %x, ptr align 8 %8, i64 8, i1 false), !dbg !1989
  store ptr %tmp, ptr %self, align 8, !dbg !1990
  store ptr %tmp, ptr %_24, align 8, !dbg !1991
  %9 = load ptr, ptr %_24, align 8, !dbg !1991, !noundef !13
  store ptr %9, ptr %src3, align 8, !dbg !1991
  store ptr %y, ptr %dst4, align 8, !dbg !1992
  br label %bb6, !dbg !1993

bb5:                                              ; No predecessors!
  %10 = load ptr, ptr %src, align 8, !dbg !1989, !noundef !13
  call void @llvm.memmove.p0.p0.i64(ptr align 8 %x, ptr align 8 %10, i64 8, i1 false), !dbg !1989
  store ptr %tmp, ptr %self, align 8, !dbg !1990
  store ptr %tmp, ptr %_24, align 8, !dbg !1991
  %11 = load ptr, ptr %_24, align 8, !dbg !1991, !noundef !13
  store ptr %11, ptr %src3, align 8, !dbg !1991
  store ptr %y, ptr %dst4, align 8, !dbg !1992
  br label %bb6, !dbg !1993

bb6:                                              ; preds = %bb1, %bb4, %bb5
  %_26 = load ptr, ptr %_24, align 8, !dbg !1994, !noundef !13
; call core::intrinsics::copy_nonoverlapping::precondition_check
  call void @_ZN4core10intrinsics19copy_nonoverlapping18precondition_check17heb665b386cf8b624E(ptr %_26, ptr %y, i64 8, i64 8, i64 1) #12, !dbg !1993
  br label %bb7, !dbg !1993

bb7:                                              ; preds = %bb6
  %12 = load ptr, ptr %src3, align 8, !dbg !1995, !noundef !13
  call void @llvm.memcpy.p0.p0.i64(ptr align 8 %y, ptr align 8 %12, i64 8, i1 false), !dbg !1995
  ret void, !dbg !1996
}

; core::ptr::replace
; Function Attrs: inlinehint uwtable
define i64 @_ZN4core3ptr7replace17h648af411ece96d88E(ptr %dst, i64 %0) unnamed_addr #0 personality ptr @rust_eh_personality !dbg !1997 {
start:
  %1 = alloca { ptr, i32, [1 x i32] }, align 8
  %b.dbg.spill = alloca i64, align 8
  %a.dbg.spill = alloca i64, align 8
  %y.dbg.spill = alloca ptr, align 8
  %dst.dbg.spill = alloca ptr, align 8
  %src = alloca i64, align 8
  store i64 %0, ptr %src, align 8
  store ptr %dst, ptr %dst.dbg.spill, align 8
  call void @llvm.dbg.declare(metadata ptr %dst.dbg.spill, metadata !2001, metadata !DIExpression()), !dbg !2003
  call void @llvm.dbg.declare(metadata ptr %dst.dbg.spill, metadata !2004, metadata !DIExpression()), !dbg !2011
  call void @llvm.dbg.declare(metadata ptr %dst.dbg.spill, metadata !2013, metadata !DIExpression()), !dbg !2022
  call void @llvm.dbg.declare(metadata ptr %dst.dbg.spill, metadata !2024, metadata !DIExpression()), !dbg !2030
  call void @llvm.dbg.declare(metadata ptr %dst.dbg.spill, metadata !2032, metadata !DIExpression()), !dbg !2040
  call void @llvm.dbg.declare(metadata ptr %src, metadata !2002, metadata !DIExpression()), !dbg !2042
  br label %bb1, !dbg !2043

bb1:                                              ; preds = %start
; call core::ptr::replace::precondition_check
  call void @_ZN4core3ptr7replace18precondition_check17h2aa8a08404477e7bE(ptr %dst, i64 8) #12, !dbg !2043
  br label %bb2, !dbg !2043

bb2:                                              ; preds = %bb1
  store ptr %src, ptr %y.dbg.spill, align 8, !dbg !2044
  call void @llvm.dbg.declare(metadata ptr %y.dbg.spill, metadata !2010, metadata !DIExpression()), !dbg !2045
  call void @llvm.dbg.declare(metadata ptr %y.dbg.spill, metadata !2017, metadata !DIExpression()), !dbg !2046
  call void @llvm.dbg.declare(metadata ptr %y.dbg.spill, metadata !2028, metadata !DIExpression()), !dbg !2047
  call void @llvm.dbg.declare(metadata ptr %y.dbg.spill, metadata !2037, metadata !DIExpression()), !dbg !2049
  br label %bb8, !dbg !2051

bb8:                                              ; preds = %bb2
  %a = load i64, ptr %dst, align 8, !dbg !2052, !noundef !13
  store i64 %a, ptr %a.dbg.spill, align 8, !dbg !2052
  call void @llvm.dbg.declare(metadata ptr %a.dbg.spill, metadata !2018, metadata !DIExpression()), !dbg !2053
  call void @llvm.dbg.declare(metadata ptr %a.dbg.spill, metadata !2039, metadata !DIExpression()), !dbg !2054
  %b = load i64, ptr %src, align 8, !dbg !2055, !noundef !13
  store i64 %b, ptr %b.dbg.spill, align 8, !dbg !2055
  call void @llvm.dbg.declare(metadata ptr %b.dbg.spill, metadata !2020, metadata !DIExpression()), !dbg !2056
  call void @llvm.dbg.declare(metadata ptr %b.dbg.spill, metadata !2036, metadata !DIExpression()), !dbg !2057
  store i64 %b, ptr %dst, align 8, !dbg !2058
  store i64 %a, ptr %src, align 8, !dbg !2059
  br label %bb5, !dbg !2060

bb5:                                              ; preds = %bb7, %bb8
  %_0 = load i64, ptr %src, align 8, !dbg !2061, !noundef !13
  ret i64 %_0, !dbg !2062

bb6:                                              ; No predecessors!
; invoke core::ptr::swap_nonoverlapping
  invoke void @_ZN4core3ptr19swap_nonoverlapping17hd60b8c83fb56ab9aE(ptr %dst, ptr %src, i64 1)
          to label %bb7 unwind label %cleanup, !dbg !2063

bb3:                                              ; preds = %cleanup
  %2 = load ptr, ptr %1, align 8, !dbg !2064, !noundef !13
  %3 = getelementptr inbounds i8, ptr %1, i64 8, !dbg !2064
  %4 = load i32, ptr %3, align 8, !dbg !2064, !noundef !13
  %5 = insertvalue { ptr, i32 } poison, ptr %2, 0, !dbg !2064
  %6 = insertvalue { ptr, i32 } %5, i32 %4, 1, !dbg !2064
  resume { ptr, i32 } %6, !dbg !2064

cleanup:                                          ; preds = %bb6
  %7 = landingpad { ptr, i32 }
          cleanup
  %8 = extractvalue { ptr, i32 } %7, 0
  %9 = extractvalue { ptr, i32 } %7, 1
  store ptr %8, ptr %1, align 8
  %10 = getelementptr inbounds i8, ptr %1, i64 8
  store i32 %9, ptr %10, align 8
  br label %bb3

bb7:                                              ; preds = %bb6
  br label %bb5, !dbg !2060
}

; core::ptr::replace::precondition_check
; Function Attrs: inlinehint nounwind uwtable
define internal void @_ZN4core3ptr7replace18precondition_check17h2aa8a08404477e7bE(ptr %addr, i64 %align) unnamed_addr #2 personality ptr @rust_eh_personality !dbg !2065 {
start:
  %align.dbg.spill = alloca i64, align 8
  %addr.dbg.spill = alloca ptr, align 8
  store ptr %addr, ptr %addr.dbg.spill, align 8
  call void @llvm.dbg.declare(metadata ptr %addr.dbg.spill, metadata !2070, metadata !DIExpression()), !dbg !2072
  store i64 %align, ptr %align.dbg.spill, align 8
  call void @llvm.dbg.declare(metadata ptr %align.dbg.spill, metadata !2071, metadata !DIExpression()), !dbg !2072
; invoke core::intrinsics::is_aligned_and_not_null
  %_3 = invoke zeroext i1 @_ZN4core10intrinsics23is_aligned_and_not_null17h72cba3e3168818f5E(ptr %addr, i64 %align)
          to label %bb1 unwind label %terminate, !dbg !2073

terminate:                                        ; preds = %start
  %0 = landingpad { ptr, i32 }
          filter [0 x ptr] zeroinitializer
  %1 = extractvalue { ptr, i32 } %0, 0
  %2 = extractvalue { ptr, i32 } %0, 1
; call core::panicking::panic_cannot_unwind
  call void @_ZN4core9panicking19panic_cannot_unwind17h3626040c0976c0c3E() #11, !dbg !2075
  unreachable, !dbg !2075

bb1:                                              ; preds = %start
  br i1 %_3, label %bb2, label %bb3, !dbg !2073

bb3:                                              ; preds = %bb1
; call core::panicking::panic_nounwind
  call void @_ZN4core9panicking14panic_nounwind17h50c31e15afde233eE(ptr align 1 @alloc_ea6621cdd6914f24c3ab8fcf458cbc5c, i64 104) #9, !dbg !2076
  unreachable, !dbg !2076

bb2:                                              ; preds = %bb1
  ret void, !dbg !2077
}

; core::iter::range::<impl core::iter::traits::iterator::Iterator for core::ops::range::RangeInclusive<A>>::next
; Function Attrs: inlinehint uwtable
define { i64, i64 } @"_ZN4core4iter5range110_$LT$impl$u20$core..iter..traits..iterator..Iterator$u20$for$u20$core..ops..range..RangeInclusive$LT$A$GT$$GT$4next17hfb51ba401ae69a3eE"(ptr align 8 %self) unnamed_addr #0 !dbg !2078 {
start:
  %self.dbg.spill = alloca ptr, align 8
  store ptr %self, ptr %self.dbg.spill, align 8
  call void @llvm.dbg.declare(metadata ptr %self.dbg.spill, metadata !2081, metadata !DIExpression()), !dbg !2084
; call <core::ops::range::RangeInclusive<T> as core::iter::range::RangeInclusiveIteratorImpl>::spec_next
  %0 = call { i64, i64 } @"_ZN107_$LT$core..ops..range..RangeInclusive$LT$T$GT$$u20$as$u20$core..iter..range..RangeInclusiveIteratorImpl$GT$9spec_next17h3805585fb65837c8E"(ptr align 8 %self), !dbg !2085
  %_0.0 = extractvalue { i64, i64 } %0, 0, !dbg !2085
  %_0.1 = extractvalue { i64, i64 } %0, 1, !dbg !2085
  %1 = insertvalue { i64, i64 } poison, i64 %_0.0, 0, !dbg !2086
  %2 = insertvalue { i64, i64 } %1, i64 %_0.1, 1, !dbg !2086
  ret { i64, i64 } %2, !dbg !2086
}

; core::iter::range::<impl core::iter::traits::iterator::Iterator for core::ops::range::RangeInclusive<A>>::try_fold
; Function Attrs: inlinehint uwtable
define { i64, i64 } @"_ZN4core4iter5range110_$LT$impl$u20$core..iter..traits..iterator..Iterator$u20$for$u20$core..ops..range..RangeInclusive$LT$A$GT$$GT$8try_fold17h505d49b91748635bE"(ptr align 8 %self, i64 %init) unnamed_addr #0 !dbg !2087 {
start:
  %f.dbg.spill = alloca %"{closure@src/permutations.rs:163:58: 163:66}", align 1
  %init.dbg.spill = alloca i64, align 8
  %self.dbg.spill = alloca ptr, align 8
  store ptr %self, ptr %self.dbg.spill, align 8
  call void @llvm.dbg.declare(metadata ptr %self.dbg.spill, metadata !2089, metadata !DIExpression()), !dbg !2093
  store i64 %init, ptr %init.dbg.spill, align 8
  call void @llvm.dbg.declare(metadata ptr %init.dbg.spill, metadata !2090, metadata !DIExpression()), !dbg !2094
  call void @llvm.dbg.declare(metadata ptr %f.dbg.spill, metadata !2091, metadata !DIExpression()), !dbg !2095
; call <core::ops::range::RangeInclusive<T> as core::iter::range::RangeInclusiveIteratorImpl>::spec_try_fold
  %0 = call { i64, i64 } @"_ZN107_$LT$core..ops..range..RangeInclusive$LT$T$GT$$u20$as$u20$core..iter..range..RangeInclusiveIteratorImpl$GT$13spec_try_fold17ha67b8e4c3c4dd6feE"(ptr align 8 %self, i64 %init), !dbg !2096
  %_0.0 = extractvalue { i64, i64 } %0, 0, !dbg !2096
  %_0.1 = extractvalue { i64, i64 } %0, 1, !dbg !2096
  %1 = insertvalue { i64, i64 } poison, i64 %_0.0, 0, !dbg !2097
  %2 = insertvalue { i64, i64 } %1, i64 %_0.1, 1, !dbg !2097
  ret { i64, i64 } %2, !dbg !2097
}

; core::iter::range::<impl core::iter::traits::iterator::Iterator for core::ops::range::RangeInclusive<A>>::try_fold
; Function Attrs: inlinehint uwtable
define { i64, i64 } @"_ZN4core4iter5range110_$LT$impl$u20$core..iter..traits..iterator..Iterator$u20$for$u20$core..ops..range..RangeInclusive$LT$A$GT$$GT$8try_fold17hdd30206c0d740617E"(ptr align 8 %self, i64 %init, ptr align 8 %f) unnamed_addr #0 !dbg !2098 {
start:
  %f.dbg.spill = alloca ptr, align 8
  %init.dbg.spill = alloca i64, align 8
  %self.dbg.spill = alloca ptr, align 8
  store ptr %self, ptr %self.dbg.spill, align 8
  call void @llvm.dbg.declare(metadata ptr %self.dbg.spill, metadata !2100, metadata !DIExpression()), !dbg !2104
  store i64 %init, ptr %init.dbg.spill, align 8
  call void @llvm.dbg.declare(metadata ptr %init.dbg.spill, metadata !2101, metadata !DIExpression()), !dbg !2105
  store ptr %f, ptr %f.dbg.spill, align 8
  call void @llvm.dbg.declare(metadata ptr %f.dbg.spill, metadata !2102, metadata !DIExpression()), !dbg !2106
; call <core::ops::range::RangeInclusive<T> as core::iter::range::RangeInclusiveIteratorImpl>::spec_try_fold
  %0 = call { i64, i64 } @"_ZN107_$LT$core..ops..range..RangeInclusive$LT$T$GT$$u20$as$u20$core..iter..range..RangeInclusiveIteratorImpl$GT$13spec_try_fold17hda1288874011fc8aE"(ptr align 8 %self, i64 %init, ptr align 8 %f), !dbg !2107
  %_0.0 = extractvalue { i64, i64 } %0, 0, !dbg !2107
  %_0.1 = extractvalue { i64, i64 } %0, 1, !dbg !2107
  %1 = insertvalue { i64, i64 } poison, i64 %_0.0, 0, !dbg !2108
  %2 = insertvalue { i64, i64 } %1, i64 %_0.1, 1, !dbg !2108
  ret { i64, i64 } %2, !dbg !2108
}

; core::iter::range::<impl core::iter::traits::double_ended::DoubleEndedIterator for core::ops::range::Range<A>>::next_back
; Function Attrs: inlinehint uwtable
define { i64, i64 } @"_ZN4core4iter5range116_$LT$impl$u20$core..iter..traits..double_ended..DoubleEndedIterator$u20$for$u20$core..ops..range..Range$LT$A$GT$$GT$9next_back17had4bf70b82f4fb5aE"(ptr align 8 %self) unnamed_addr #0 !dbg !2109 {
start:
  %self.dbg.spill = alloca ptr, align 8
  store ptr %self, ptr %self.dbg.spill, align 8
  call void @llvm.dbg.declare(metadata ptr %self.dbg.spill, metadata !2115, metadata !DIExpression()), !dbg !2116
; call <core::ops::range::Range<T> as core::iter::range::RangeIteratorImpl>::spec_next_back
  %0 = call { i64, i64 } @"_ZN89_$LT$core..ops..range..Range$LT$T$GT$$u20$as$u20$core..iter..range..RangeIteratorImpl$GT$14spec_next_back17h8a3495f3b8e7c481E"(ptr align 8 %self), !dbg !2117
  %_0.0 = extractvalue { i64, i64 } %0, 0, !dbg !2117
  %_0.1 = extractvalue { i64, i64 } %0, 1, !dbg !2117
  %1 = insertvalue { i64, i64 } poison, i64 %_0.0, 0, !dbg !2118
  %2 = insertvalue { i64, i64 } %1, i64 %_0.1, 1, !dbg !2118
  ret { i64, i64 } %2, !dbg !2118
}

; core::iter::traits::iterator::Iterator::rev
; Function Attrs: inlinehint uwtable
define { i64, i64 } @_ZN4core4iter6traits8iterator8Iterator3rev17h784044c4d116ec3dE(i64 %self.0, i64 %self.1) unnamed_addr #0 !dbg !2119 {
start:
  %self.dbg.spill = alloca %"core::ops::range::Range<usize>", align 8
  %_0 = alloca %"core::iter::adapters::rev::Rev<core::ops::range::Range<usize>>", align 8
  store i64 %self.0, ptr %self.dbg.spill, align 8
  %0 = getelementptr inbounds i8, ptr %self.dbg.spill, i64 8
  store i64 %self.1, ptr %0, align 8
  call void @llvm.dbg.declare(metadata ptr %self.dbg.spill, metadata !2133, metadata !DIExpression()), !dbg !2136
  call void @llvm.dbg.declare(metadata ptr %self.dbg.spill, metadata !2137, metadata !DIExpression()), !dbg !2143
  store i64 %self.0, ptr %_0, align 8, !dbg !2145
  %1 = getelementptr inbounds i8, ptr %_0, i64 8, !dbg !2145
  store i64 %self.1, ptr %1, align 8, !dbg !2145
  %2 = load i64, ptr %_0, align 8, !dbg !2146, !noundef !13
  %3 = getelementptr inbounds i8, ptr %_0, i64 8, !dbg !2146
  %4 = load i64, ptr %3, align 8, !dbg !2146, !noundef !13
  %5 = insertvalue { i64, i64 } poison, i64 %2, 0, !dbg !2146
  %6 = insertvalue { i64, i64 } %5, i64 %4, 1, !dbg !2146
  ret { i64, i64 } %6, !dbg !2146
}

; core::iter::traits::iterator::Iterator::try_fold
; Function Attrs: inlinehint uwtable
define { i64, i64 } @_ZN4core4iter6traits8iterator8Iterator8try_fold17h5d3df80521af4e7dE(ptr align 8 %self, i64 %init, ptr align 8 %f) unnamed_addr #0 personality ptr @rust_eh_personality !dbg !2147 {
start:
  %val.dbg.spill = alloca i64, align 8
  %x.dbg.spill = alloca ptr, align 8
  %0 = alloca { ptr, i32, [1 x i32] }, align 8
  %residual.dbg.spill = alloca %"core::option::Option<core::convert::Infallible>::None", align 1
  %init.dbg.spill = alloca i64, align 8
  %self.dbg.spill = alloca ptr, align 8
  %_17 = alloca i8, align 1
  %_11 = alloca { i64, ptr }, align 8
  %_8 = alloca %"core::ops::control_flow::ControlFlow<core::option::Option<core::convert::Infallible>, usize>", align 8
  %_5 = alloca ptr, align 8
  %accum = alloca i64, align 8
  %_0 = alloca %"core::option::Option<usize>", align 8
  store ptr %self, ptr %self.dbg.spill, align 8
  call void @llvm.dbg.declare(metadata ptr %self.dbg.spill, metadata !2152, metadata !DIExpression()), !dbg !2166
  store i64 %init, ptr %init.dbg.spill, align 8
  call void @llvm.dbg.declare(metadata ptr %init.dbg.spill, metadata !2153, metadata !DIExpression()), !dbg !2167
  call void @llvm.dbg.declare(metadata ptr %f, metadata !2154, metadata !DIExpression()), !dbg !2168
  call void @llvm.dbg.declare(metadata ptr %accum, metadata !2155, metadata !DIExpression()), !dbg !2169
  call void @llvm.dbg.declare(metadata ptr %residual.dbg.spill, metadata !2159, metadata !DIExpression()), !dbg !2170
  store i8 1, ptr %_17, align 1, !dbg !2171
  store i64 %init, ptr %accum, align 8, !dbg !2171
  br label %bb1, !dbg !2172

bb1:                                              ; preds = %bb7, %start
; invoke <core::slice::iter::Iter<T> as core::iter::traits::iterator::Iterator>::next
  %1 = invoke align 8 ptr @"_ZN91_$LT$core..slice..iter..Iter$LT$T$GT$$u20$as$u20$core..iter..traits..iterator..Iterator$GT$4next17hfbb328702e190145E"(ptr align 8 %self)
          to label %bb2 unwind label %cleanup.loopexit, !dbg !2173

bb17:                                             ; preds = %cleanup
  %2 = load i8, ptr %_17, align 1, !dbg !2174, !range !259, !noundef !13
  %3 = trunc i8 %2 to i1, !dbg !2174
  br i1 %3, label %bb16, label %bb14, !dbg !2174

cleanup.loopexit:                                 ; preds = %bb1, %bb3, %bb4
  %lpad.loopexit = landingpad { ptr, i32 }
          cleanup
  br label %cleanup

cleanup.loopexit.split-lp:                        ; preds = %bb8, %bb11
  %lpad.loopexit.split-lp = landingpad { ptr, i32 }
          cleanup
  br label %cleanup

cleanup:                                          ; preds = %cleanup.loopexit.split-lp, %cleanup.loopexit
  %lpad.phi = phi { ptr, i32 } [ %lpad.loopexit, %cleanup.loopexit ], [ %lpad.loopexit.split-lp, %cleanup.loopexit.split-lp ]
  %4 = extractvalue { ptr, i32 } %lpad.phi, 0
  %5 = extractvalue { ptr, i32 } %lpad.phi, 1
  store ptr %4, ptr %0, align 8
  %6 = getelementptr inbounds i8, ptr %0, i64 8
  store i32 %5, ptr %6, align 8
  br label %bb17

bb2:                                              ; preds = %bb1
  store ptr %1, ptr %_5, align 8, !dbg !2173
  %7 = load ptr, ptr %_5, align 8, !dbg !2175, !noundef !13
  %8 = ptrtoint ptr %7 to i64, !dbg !2175
  %9 = icmp eq i64 %8, 0, !dbg !2175
  %_6 = select i1 %9, i64 0, i64 1, !dbg !2175
  %10 = icmp eq i64 %_6, 1, !dbg !2175
  br i1 %10, label %bb3, label %bb10, !dbg !2175

bb3:                                              ; preds = %bb2
  %x = load ptr, ptr %_5, align 8, !dbg !2176, !nonnull !13, !align !681, !noundef !13
  store ptr %x, ptr %x.dbg.spill, align 8, !dbg !2176
  call void @llvm.dbg.declare(metadata ptr %x.dbg.spill, metadata !2157, metadata !DIExpression()), !dbg !2176
  store i8 0, ptr %_17, align 1, !dbg !2177
  %_12 = load i64, ptr %accum, align 8, !dbg !2177, !noundef !13
  store i64 %_12, ptr %_11, align 8, !dbg !2178
  %11 = getelementptr inbounds i8, ptr %_11, i64 8, !dbg !2178
  store ptr %x, ptr %11, align 8, !dbg !2178
  %12 = load i64, ptr %_11, align 8, !dbg !2178, !noundef !13
  %13 = getelementptr inbounds i8, ptr %_11, i64 8, !dbg !2178
  %14 = load ptr, ptr %13, align 8, !dbg !2178, !nonnull !13, !align !681, !noundef !13
; invoke <core::iter::adapters::enumerate::Enumerate<I> as core::iter::traits::iterator::Iterator>::try_fold::enumerate::{{closure}}
  %15 = invoke { i64, i64 } @"_ZN110_$LT$core..iter..adapters..enumerate..Enumerate$LT$I$GT$$u20$as$u20$core..iter..traits..iterator..Iterator$GT$8try_fold9enumerate28_$u7b$$u7b$closure$u7d$$u7d$17h3f0bebab8bfde041E"(ptr align 8 %f, i64 %12, ptr align 8 %14)
          to label %bb4 unwind label %cleanup.loopexit, !dbg !2178

bb10:                                             ; preds = %bb2
  br label %bb11, !dbg !2172

bb4:                                              ; preds = %bb3
  %_9.0 = extractvalue { i64, i64 } %15, 0, !dbg !2178
  %_9.1 = extractvalue { i64, i64 } %15, 1, !dbg !2178
; invoke <core::option::Option<T> as core::ops::try_trait::Try>::branch
  %16 = invoke { i64, i64 } @"_ZN75_$LT$core..option..Option$LT$T$GT$$u20$as$u20$core..ops..try_trait..Try$GT$6branch17h8c882f8e72763602E"(i64 %_9.0, i64 %_9.1)
          to label %bb5 unwind label %cleanup.loopexit, !dbg !2178

bb5:                                              ; preds = %bb4
  %17 = extractvalue { i64, i64 } %16, 0, !dbg !2178
  %18 = extractvalue { i64, i64 } %16, 1, !dbg !2178
  store i64 %17, ptr %_8, align 8, !dbg !2178
  %19 = getelementptr inbounds i8, ptr %_8, i64 8, !dbg !2178
  store i64 %18, ptr %19, align 8, !dbg !2178
  %_13 = load i64, ptr %_8, align 8, !dbg !2178, !range !319, !noundef !13
  %20 = icmp eq i64 %_13, 0, !dbg !2178
  br i1 %20, label %bb7, label %bb8, !dbg !2178

bb7:                                              ; preds = %bb5
  %21 = getelementptr inbounds i8, ptr %_8, i64 8, !dbg !2178
  %val = load i64, ptr %21, align 8, !dbg !2178, !noundef !13
  store i64 %val, ptr %val.dbg.spill, align 8, !dbg !2178
  call void @llvm.dbg.declare(metadata ptr %val.dbg.spill, metadata !2161, metadata !DIExpression()), !dbg !2179
  store i8 1, ptr %_17, align 1, !dbg !2180
  store i64 %val, ptr %accum, align 8, !dbg !2180
  br label %bb1, !dbg !2172

bb8:                                              ; preds = %bb5
; invoke <core::option::Option<T> as core::ops::try_trait::FromResidual>::from_residual
  %22 = invoke { i64, i64 } @"_ZN84_$LT$core..option..Option$LT$T$GT$$u20$as$u20$core..ops..try_trait..FromResidual$GT$13from_residual17h8d3f3e6e6ce3322aE"()
          to label %bb9 unwind label %cleanup.loopexit.split-lp, !dbg !2181

bb9:                                              ; preds = %bb8
  %23 = extractvalue { i64, i64 } %22, 0, !dbg !2181
  %24 = extractvalue { i64, i64 } %22, 1, !dbg !2181
  store i64 %23, ptr %_0, align 8, !dbg !2181
  %25 = getelementptr inbounds i8, ptr %_0, i64 8, !dbg !2181
  store i64 %24, ptr %25, align 8, !dbg !2181
  br label %bb13, !dbg !2174

bb13:                                             ; preds = %bb12, %bb9
  %26 = load i64, ptr %_0, align 8, !dbg !2182, !range !319, !noundef !13
  %27 = getelementptr inbounds i8, ptr %_0, i64 8, !dbg !2182
  %28 = load i64, ptr %27, align 8, !dbg !2182
  %29 = insertvalue { i64, i64 } poison, i64 %26, 0, !dbg !2182
  %30 = insertvalue { i64, i64 } %29, i64 %28, 1, !dbg !2182
  ret { i64, i64 } %30, !dbg !2182

bb11:                                             ; preds = %bb10
  store i8 0, ptr %_17, align 1, !dbg !2183
  %_16 = load i64, ptr %accum, align 8, !dbg !2183, !noundef !13
; invoke <core::option::Option<T> as core::ops::try_trait::Try>::from_output
  %31 = invoke { i64, i64 } @"_ZN75_$LT$core..option..Option$LT$T$GT$$u20$as$u20$core..ops..try_trait..Try$GT$11from_output17h5fd9ce5e9e6dc670E"(i64 %_16)
          to label %bb12 unwind label %cleanup.loopexit.split-lp, !dbg !2183

bb12:                                             ; preds = %bb11
  %32 = extractvalue { i64, i64 } %31, 0, !dbg !2183
  %33 = extractvalue { i64, i64 } %31, 1, !dbg !2183
  store i64 %32, ptr %_0, align 8, !dbg !2183
  %34 = getelementptr inbounds i8, ptr %_0, i64 8, !dbg !2183
  store i64 %33, ptr %34, align 8, !dbg !2183
  br label %bb13, !dbg !2174

bb6:                                              ; No predecessors!
  unreachable, !dbg !2178

bb14:                                             ; preds = %bb16, %bb17
  %35 = load ptr, ptr %0, align 8, !dbg !2184, !noundef !13
  %36 = getelementptr inbounds i8, ptr %0, i64 8, !dbg !2184
  %37 = load i32, ptr %36, align 8, !dbg !2184, !noundef !13
  %38 = insertvalue { ptr, i32 } poison, ptr %35, 0, !dbg !2184
  %39 = insertvalue { ptr, i32 } %38, i32 %37, 1, !dbg !2184
  resume { ptr, i32 } %39, !dbg !2184

bb16:                                             ; preds = %bb17
  br label %bb14, !dbg !2174
}

; core::iter::traits::iterator::Iterator::try_fold
; Function Attrs: inlinehint uwtable
define { i64, i64 } @_ZN4core4iter6traits8iterator8Iterator8try_fold17h950f0164dc796000E(ptr align 8 %self, i64 %init, ptr align 8 %0, ptr align 8 %1) unnamed_addr #0 personality ptr @rust_eh_personality !dbg !2185 {
start:
  %val.dbg.spill = alloca i64, align 8
  %x.dbg.spill = alloca ptr, align 8
  %2 = alloca { ptr, i32, [1 x i32] }, align 8
  %residual.dbg.spill = alloca %"core::option::Option<core::convert::Infallible>::None", align 1
  %init.dbg.spill = alloca i64, align 8
  %self.dbg.spill = alloca ptr, align 8
  %_17 = alloca i8, align 1
  %_11 = alloca { i64, ptr }, align 8
  %_8 = alloca %"core::ops::control_flow::ControlFlow<core::option::Option<core::convert::Infallible>, usize>", align 8
  %_5 = alloca ptr, align 8
  %accum = alloca i64, align 8
  %_0 = alloca %"core::option::Option<usize>", align 8
  %f = alloca %"{closure@<core::iter::adapters::enumerate::Enumerate<I> as core::iter::traits::iterator::Iterator>::try_fold::enumerate<'_, &usize, usize, core::option::Option<usize>, {closure@src/permutations.rs:177:72: 177:86}>::{closure#0}}", align 8
  store ptr %0, ptr %f, align 8
  %3 = getelementptr inbounds i8, ptr %f, i64 8
  store ptr %1, ptr %3, align 8
  store ptr %self, ptr %self.dbg.spill, align 8
  call void @llvm.dbg.declare(metadata ptr %self.dbg.spill, metadata !2189, metadata !DIExpression()), !dbg !2202
  store i64 %init, ptr %init.dbg.spill, align 8
  call void @llvm.dbg.declare(metadata ptr %init.dbg.spill, metadata !2190, metadata !DIExpression()), !dbg !2203
  call void @llvm.dbg.declare(metadata ptr %f, metadata !2191, metadata !DIExpression()), !dbg !2204
  call void @llvm.dbg.declare(metadata ptr %accum, metadata !2192, metadata !DIExpression()), !dbg !2205
  call void @llvm.dbg.declare(metadata ptr %residual.dbg.spill, metadata !2196, metadata !DIExpression()), !dbg !2206
  store i8 1, ptr %_17, align 1, !dbg !2207
  store i64 %init, ptr %accum, align 8, !dbg !2207
  br label %bb1, !dbg !2208

bb1:                                              ; preds = %bb7, %start
; invoke <core::slice::iter::Iter<T> as core::iter::traits::iterator::Iterator>::next
  %4 = invoke align 8 ptr @"_ZN91_$LT$core..slice..iter..Iter$LT$T$GT$$u20$as$u20$core..iter..traits..iterator..Iterator$GT$4next17hfbb328702e190145E"(ptr align 8 %self)
          to label %bb2 unwind label %cleanup.loopexit, !dbg !2209

bb17:                                             ; preds = %cleanup
  %5 = load i8, ptr %_17, align 1, !dbg !2210, !range !259, !noundef !13
  %6 = trunc i8 %5 to i1, !dbg !2210
  br i1 %6, label %bb16, label %bb14, !dbg !2210

cleanup.loopexit:                                 ; preds = %bb1, %bb3, %bb4
  %lpad.loopexit = landingpad { ptr, i32 }
          cleanup
  br label %cleanup

cleanup.loopexit.split-lp:                        ; preds = %bb8, %bb11
  %lpad.loopexit.split-lp = landingpad { ptr, i32 }
          cleanup
  br label %cleanup

cleanup:                                          ; preds = %cleanup.loopexit.split-lp, %cleanup.loopexit
  %lpad.phi = phi { ptr, i32 } [ %lpad.loopexit, %cleanup.loopexit ], [ %lpad.loopexit.split-lp, %cleanup.loopexit.split-lp ]
  %7 = extractvalue { ptr, i32 } %lpad.phi, 0
  %8 = extractvalue { ptr, i32 } %lpad.phi, 1
  store ptr %7, ptr %2, align 8
  %9 = getelementptr inbounds i8, ptr %2, i64 8
  store i32 %8, ptr %9, align 8
  br label %bb17

bb2:                                              ; preds = %bb1
  store ptr %4, ptr %_5, align 8, !dbg !2209
  %10 = load ptr, ptr %_5, align 8, !dbg !2211, !noundef !13
  %11 = ptrtoint ptr %10 to i64, !dbg !2211
  %12 = icmp eq i64 %11, 0, !dbg !2211
  %_6 = select i1 %12, i64 0, i64 1, !dbg !2211
  %13 = icmp eq i64 %_6, 1, !dbg !2211
  br i1 %13, label %bb3, label %bb10, !dbg !2211

bb3:                                              ; preds = %bb2
  %x = load ptr, ptr %_5, align 8, !dbg !2212, !nonnull !13, !align !681, !noundef !13
  store ptr %x, ptr %x.dbg.spill, align 8, !dbg !2212
  call void @llvm.dbg.declare(metadata ptr %x.dbg.spill, metadata !2194, metadata !DIExpression()), !dbg !2212
  store i8 0, ptr %_17, align 1, !dbg !2213
  %_12 = load i64, ptr %accum, align 8, !dbg !2213, !noundef !13
  store i64 %_12, ptr %_11, align 8, !dbg !2214
  %14 = getelementptr inbounds i8, ptr %_11, i64 8, !dbg !2214
  store ptr %x, ptr %14, align 8, !dbg !2214
  %15 = load i64, ptr %_11, align 8, !dbg !2214, !noundef !13
  %16 = getelementptr inbounds i8, ptr %_11, i64 8, !dbg !2214
  %17 = load ptr, ptr %16, align 8, !dbg !2214, !nonnull !13, !align !681, !noundef !13
; invoke <core::iter::adapters::enumerate::Enumerate<I> as core::iter::traits::iterator::Iterator>::try_fold::enumerate::{{closure}}
  %18 = invoke { i64, i64 } @"_ZN110_$LT$core..iter..adapters..enumerate..Enumerate$LT$I$GT$$u20$as$u20$core..iter..traits..iterator..Iterator$GT$8try_fold9enumerate28_$u7b$$u7b$closure$u7d$$u7d$17hefde485d9d7c4fc6E"(ptr align 8 %f, i64 %15, ptr align 8 %17)
          to label %bb4 unwind label %cleanup.loopexit, !dbg !2214

bb10:                                             ; preds = %bb2
  br label %bb11, !dbg !2208

bb4:                                              ; preds = %bb3
  %_9.0 = extractvalue { i64, i64 } %18, 0, !dbg !2214
  %_9.1 = extractvalue { i64, i64 } %18, 1, !dbg !2214
; invoke <core::option::Option<T> as core::ops::try_trait::Try>::branch
  %19 = invoke { i64, i64 } @"_ZN75_$LT$core..option..Option$LT$T$GT$$u20$as$u20$core..ops..try_trait..Try$GT$6branch17h8c882f8e72763602E"(i64 %_9.0, i64 %_9.1)
          to label %bb5 unwind label %cleanup.loopexit, !dbg !2214

bb5:                                              ; preds = %bb4
  %20 = extractvalue { i64, i64 } %19, 0, !dbg !2214
  %21 = extractvalue { i64, i64 } %19, 1, !dbg !2214
  store i64 %20, ptr %_8, align 8, !dbg !2214
  %22 = getelementptr inbounds i8, ptr %_8, i64 8, !dbg !2214
  store i64 %21, ptr %22, align 8, !dbg !2214
  %_13 = load i64, ptr %_8, align 8, !dbg !2214, !range !319, !noundef !13
  %23 = icmp eq i64 %_13, 0, !dbg !2214
  br i1 %23, label %bb7, label %bb8, !dbg !2214

bb7:                                              ; preds = %bb5
  %24 = getelementptr inbounds i8, ptr %_8, i64 8, !dbg !2214
  %val = load i64, ptr %24, align 8, !dbg !2214, !noundef !13
  store i64 %val, ptr %val.dbg.spill, align 8, !dbg !2214
  call void @llvm.dbg.declare(metadata ptr %val.dbg.spill, metadata !2198, metadata !DIExpression()), !dbg !2215
  store i8 1, ptr %_17, align 1, !dbg !2216
  store i64 %val, ptr %accum, align 8, !dbg !2216
  br label %bb1, !dbg !2208

bb8:                                              ; preds = %bb5
; invoke <core::option::Option<T> as core::ops::try_trait::FromResidual>::from_residual
  %25 = invoke { i64, i64 } @"_ZN84_$LT$core..option..Option$LT$T$GT$$u20$as$u20$core..ops..try_trait..FromResidual$GT$13from_residual17h8d3f3e6e6ce3322aE"()
          to label %bb9 unwind label %cleanup.loopexit.split-lp, !dbg !2217

bb9:                                              ; preds = %bb8
  %26 = extractvalue { i64, i64 } %25, 0, !dbg !2217
  %27 = extractvalue { i64, i64 } %25, 1, !dbg !2217
  store i64 %26, ptr %_0, align 8, !dbg !2217
  %28 = getelementptr inbounds i8, ptr %_0, i64 8, !dbg !2217
  store i64 %27, ptr %28, align 8, !dbg !2217
  br label %bb13, !dbg !2210

bb13:                                             ; preds = %bb12, %bb9
  %29 = load i64, ptr %_0, align 8, !dbg !2218, !range !319, !noundef !13
  %30 = getelementptr inbounds i8, ptr %_0, i64 8, !dbg !2218
  %31 = load i64, ptr %30, align 8, !dbg !2218
  %32 = insertvalue { i64, i64 } poison, i64 %29, 0, !dbg !2218
  %33 = insertvalue { i64, i64 } %32, i64 %31, 1, !dbg !2218
  ret { i64, i64 } %33, !dbg !2218

bb11:                                             ; preds = %bb10
  store i8 0, ptr %_17, align 1, !dbg !2219
  %_16 = load i64, ptr %accum, align 8, !dbg !2219, !noundef !13
; invoke <core::option::Option<T> as core::ops::try_trait::Try>::from_output
  %34 = invoke { i64, i64 } @"_ZN75_$LT$core..option..Option$LT$T$GT$$u20$as$u20$core..ops..try_trait..Try$GT$11from_output17h5fd9ce5e9e6dc670E"(i64 %_16)
          to label %bb12 unwind label %cleanup.loopexit.split-lp, !dbg !2219

bb12:                                             ; preds = %bb11
  %35 = extractvalue { i64, i64 } %34, 0, !dbg !2219
  %36 = extractvalue { i64, i64 } %34, 1, !dbg !2219
  store i64 %35, ptr %_0, align 8, !dbg !2219
  %37 = getelementptr inbounds i8, ptr %_0, i64 8, !dbg !2219
  store i64 %36, ptr %37, align 8, !dbg !2219
  br label %bb13, !dbg !2210

bb6:                                              ; No predecessors!
  unreachable, !dbg !2214

bb14:                                             ; preds = %bb16, %bb17
  %38 = load ptr, ptr %2, align 8, !dbg !2220, !noundef !13
  %39 = getelementptr inbounds i8, ptr %2, i64 8, !dbg !2220
  %40 = load i32, ptr %39, align 8, !dbg !2220, !noundef !13
  %41 = insertvalue { ptr, i32 } poison, ptr %38, 0, !dbg !2220
  %42 = insertvalue { ptr, i32 } %41, i32 %40, 1, !dbg !2220
  resume { ptr, i32 } %42, !dbg !2220

bb16:                                             ; preds = %bb17
  br label %bb14, !dbg !2210
}

; core::iter::traits::iterator::Iterator::try_fold
; Function Attrs: inlinehint uwtable
define { i64, i64 } @_ZN4core4iter6traits8iterator8Iterator8try_fold17hb25e79ebf7f4ea4fE(ptr align 8 %self, i64 %init, ptr align 8 %f) unnamed_addr #0 personality ptr @rust_eh_personality !dbg !2221 {
start:
  %val.dbg.spill = alloca i64, align 8
  %x.dbg.spill = alloca ptr, align 8
  %0 = alloca { ptr, i32, [1 x i32] }, align 8
  %residual.dbg.spill = alloca %"core::option::Option<core::convert::Infallible>::None", align 1
  %init.dbg.spill = alloca i64, align 8
  %self.dbg.spill = alloca ptr, align 8
  %_17 = alloca i8, align 1
  %_11 = alloca { i64, ptr }, align 8
  %_8 = alloca %"core::ops::control_flow::ControlFlow<core::option::Option<core::convert::Infallible>, usize>", align 8
  %_5 = alloca ptr, align 8
  %accum = alloca i64, align 8
  %_0 = alloca %"core::option::Option<usize>", align 8
  store ptr %self, ptr %self.dbg.spill, align 8
  call void @llvm.dbg.declare(metadata ptr %self.dbg.spill, metadata !2225, metadata !DIExpression()), !dbg !2238
  store i64 %init, ptr %init.dbg.spill, align 8
  call void @llvm.dbg.declare(metadata ptr %init.dbg.spill, metadata !2226, metadata !DIExpression()), !dbg !2239
  call void @llvm.dbg.declare(metadata ptr %f, metadata !2227, metadata !DIExpression()), !dbg !2240
  call void @llvm.dbg.declare(metadata ptr %accum, metadata !2228, metadata !DIExpression()), !dbg !2241
  call void @llvm.dbg.declare(metadata ptr %residual.dbg.spill, metadata !2232, metadata !DIExpression()), !dbg !2242
  store i8 1, ptr %_17, align 1, !dbg !2243
  store i64 %init, ptr %accum, align 8, !dbg !2243
  br label %bb1, !dbg !2244

bb1:                                              ; preds = %bb7, %start
; invoke <core::slice::iter::Iter<T> as core::iter::traits::iterator::Iterator>::next
  %1 = invoke align 8 ptr @"_ZN91_$LT$core..slice..iter..Iter$LT$T$GT$$u20$as$u20$core..iter..traits..iterator..Iterator$GT$4next17hfbb328702e190145E"(ptr align 8 %self)
          to label %bb2 unwind label %cleanup.loopexit, !dbg !2245

bb17:                                             ; preds = %cleanup
  %2 = load i8, ptr %_17, align 1, !dbg !2246, !range !259, !noundef !13
  %3 = trunc i8 %2 to i1, !dbg !2246
  br i1 %3, label %bb16, label %bb14, !dbg !2246

cleanup.loopexit:                                 ; preds = %bb1, %bb3, %bb4
  %lpad.loopexit = landingpad { ptr, i32 }
          cleanup
  br label %cleanup

cleanup.loopexit.split-lp:                        ; preds = %bb8, %bb11
  %lpad.loopexit.split-lp = landingpad { ptr, i32 }
          cleanup
  br label %cleanup

cleanup:                                          ; preds = %cleanup.loopexit.split-lp, %cleanup.loopexit
  %lpad.phi = phi { ptr, i32 } [ %lpad.loopexit, %cleanup.loopexit ], [ %lpad.loopexit.split-lp, %cleanup.loopexit.split-lp ]
  %4 = extractvalue { ptr, i32 } %lpad.phi, 0
  %5 = extractvalue { ptr, i32 } %lpad.phi, 1
  store ptr %4, ptr %0, align 8
  %6 = getelementptr inbounds i8, ptr %0, i64 8
  store i32 %5, ptr %6, align 8
  br label %bb17

bb2:                                              ; preds = %bb1
  store ptr %1, ptr %_5, align 8, !dbg !2245
  %7 = load ptr, ptr %_5, align 8, !dbg !2247, !noundef !13
  %8 = ptrtoint ptr %7 to i64, !dbg !2247
  %9 = icmp eq i64 %8, 0, !dbg !2247
  %_6 = select i1 %9, i64 0, i64 1, !dbg !2247
  %10 = icmp eq i64 %_6, 1, !dbg !2247
  br i1 %10, label %bb3, label %bb10, !dbg !2247

bb3:                                              ; preds = %bb2
  %x = load ptr, ptr %_5, align 8, !dbg !2248, !nonnull !13, !align !681, !noundef !13
  store ptr %x, ptr %x.dbg.spill, align 8, !dbg !2248
  call void @llvm.dbg.declare(metadata ptr %x.dbg.spill, metadata !2230, metadata !DIExpression()), !dbg !2248
  store i8 0, ptr %_17, align 1, !dbg !2249
  %_12 = load i64, ptr %accum, align 8, !dbg !2249, !noundef !13
  store i64 %_12, ptr %_11, align 8, !dbg !2250
  %11 = getelementptr inbounds i8, ptr %_11, i64 8, !dbg !2250
  store ptr %x, ptr %11, align 8, !dbg !2250
  %12 = load i64, ptr %_11, align 8, !dbg !2250, !noundef !13
  %13 = getelementptr inbounds i8, ptr %_11, i64 8, !dbg !2250
  %14 = load ptr, ptr %13, align 8, !dbg !2250, !nonnull !13, !align !681, !noundef !13
; invoke <core::iter::adapters::enumerate::Enumerate<I> as core::iter::traits::iterator::Iterator>::try_fold::enumerate::{{closure}}
  %15 = invoke { i64, i64 } @"_ZN110_$LT$core..iter..adapters..enumerate..Enumerate$LT$I$GT$$u20$as$u20$core..iter..traits..iterator..Iterator$GT$8try_fold9enumerate28_$u7b$$u7b$closure$u7d$$u7d$17hdc57038c7ccc69e8E"(ptr align 8 %f, i64 %12, ptr align 8 %14)
          to label %bb4 unwind label %cleanup.loopexit, !dbg !2250

bb10:                                             ; preds = %bb2
  br label %bb11, !dbg !2244

bb4:                                              ; preds = %bb3
  %_9.0 = extractvalue { i64, i64 } %15, 0, !dbg !2250
  %_9.1 = extractvalue { i64, i64 } %15, 1, !dbg !2250
; invoke <core::option::Option<T> as core::ops::try_trait::Try>::branch
  %16 = invoke { i64, i64 } @"_ZN75_$LT$core..option..Option$LT$T$GT$$u20$as$u20$core..ops..try_trait..Try$GT$6branch17h8c882f8e72763602E"(i64 %_9.0, i64 %_9.1)
          to label %bb5 unwind label %cleanup.loopexit, !dbg !2250

bb5:                                              ; preds = %bb4
  %17 = extractvalue { i64, i64 } %16, 0, !dbg !2250
  %18 = extractvalue { i64, i64 } %16, 1, !dbg !2250
  store i64 %17, ptr %_8, align 8, !dbg !2250
  %19 = getelementptr inbounds i8, ptr %_8, i64 8, !dbg !2250
  store i64 %18, ptr %19, align 8, !dbg !2250
  %_13 = load i64, ptr %_8, align 8, !dbg !2250, !range !319, !noundef !13
  %20 = icmp eq i64 %_13, 0, !dbg !2250
  br i1 %20, label %bb7, label %bb8, !dbg !2250

bb7:                                              ; preds = %bb5
  %21 = getelementptr inbounds i8, ptr %_8, i64 8, !dbg !2250
  %val = load i64, ptr %21, align 8, !dbg !2250, !noundef !13
  store i64 %val, ptr %val.dbg.spill, align 8, !dbg !2250
  call void @llvm.dbg.declare(metadata ptr %val.dbg.spill, metadata !2234, metadata !DIExpression()), !dbg !2251
  store i8 1, ptr %_17, align 1, !dbg !2252
  store i64 %val, ptr %accum, align 8, !dbg !2252
  br label %bb1, !dbg !2244

bb8:                                              ; preds = %bb5
; invoke <core::option::Option<T> as core::ops::try_trait::FromResidual>::from_residual
  %22 = invoke { i64, i64 } @"_ZN84_$LT$core..option..Option$LT$T$GT$$u20$as$u20$core..ops..try_trait..FromResidual$GT$13from_residual17h8d3f3e6e6ce3322aE"()
          to label %bb9 unwind label %cleanup.loopexit.split-lp, !dbg !2253

bb9:                                              ; preds = %bb8
  %23 = extractvalue { i64, i64 } %22, 0, !dbg !2253
  %24 = extractvalue { i64, i64 } %22, 1, !dbg !2253
  store i64 %23, ptr %_0, align 8, !dbg !2253
  %25 = getelementptr inbounds i8, ptr %_0, i64 8, !dbg !2253
  store i64 %24, ptr %25, align 8, !dbg !2253
  br label %bb13, !dbg !2246

bb13:                                             ; preds = %bb12, %bb9
  %26 = load i64, ptr %_0, align 8, !dbg !2254, !range !319, !noundef !13
  %27 = getelementptr inbounds i8, ptr %_0, i64 8, !dbg !2254
  %28 = load i64, ptr %27, align 8, !dbg !2254
  %29 = insertvalue { i64, i64 } poison, i64 %26, 0, !dbg !2254
  %30 = insertvalue { i64, i64 } %29, i64 %28, 1, !dbg !2254
  ret { i64, i64 } %30, !dbg !2254

bb11:                                             ; preds = %bb10
  store i8 0, ptr %_17, align 1, !dbg !2255
  %_16 = load i64, ptr %accum, align 8, !dbg !2255, !noundef !13
; invoke <core::option::Option<T> as core::ops::try_trait::Try>::from_output
  %31 = invoke { i64, i64 } @"_ZN75_$LT$core..option..Option$LT$T$GT$$u20$as$u20$core..ops..try_trait..Try$GT$11from_output17h5fd9ce5e9e6dc670E"(i64 %_16)
          to label %bb12 unwind label %cleanup.loopexit.split-lp, !dbg !2255

bb12:                                             ; preds = %bb11
  %32 = extractvalue { i64, i64 } %31, 0, !dbg !2255
  %33 = extractvalue { i64, i64 } %31, 1, !dbg !2255
  store i64 %32, ptr %_0, align 8, !dbg !2255
  %34 = getelementptr inbounds i8, ptr %_0, i64 8, !dbg !2255
  store i64 %33, ptr %34, align 8, !dbg !2255
  br label %bb13, !dbg !2246

bb6:                                              ; No predecessors!
  unreachable, !dbg !2250

bb14:                                             ; preds = %bb16, %bb17
  %35 = load ptr, ptr %0, align 8, !dbg !2256, !noundef !13
  %36 = getelementptr inbounds i8, ptr %0, i64 8, !dbg !2256
  %37 = load i32, ptr %36, align 8, !dbg !2256, !noundef !13
  %38 = insertvalue { ptr, i32 } poison, ptr %35, 0, !dbg !2256
  %39 = insertvalue { ptr, i32 } %38, i32 %37, 1, !dbg !2256
  resume { ptr, i32 } %39, !dbg !2256

bb16:                                             ; preds = %bb17
  br label %bb14, !dbg !2246
}

; core::iter::traits::iterator::Iterator::enumerate
; Function Attrs: inlinehint uwtable
define void @_ZN4core4iter6traits8iterator8Iterator9enumerate17he0c3fb00a8eb636dE(ptr sret(%"core::iter::adapters::enumerate::Enumerate<core::slice::iter::Iter<'_, usize>>") align 8 %_0, ptr %self.0, ptr %self.1) unnamed_addr #0 !dbg !2257 {
start:
  %self.dbg.spill = alloca %"core::slice::iter::Iter<'_, usize>", align 8
  store ptr %self.0, ptr %self.dbg.spill, align 8
  %0 = getelementptr inbounds i8, ptr %self.dbg.spill, i64 8
  store ptr %self.1, ptr %0, align 8
  call void @llvm.dbg.declare(metadata ptr %self.dbg.spill, metadata !2261, metadata !DIExpression()), !dbg !2263
  call void @llvm.dbg.declare(metadata ptr %self.dbg.spill, metadata !2264, metadata !DIExpression()), !dbg !2269
  store ptr %self.0, ptr %_0, align 8, !dbg !2271
  %1 = getelementptr inbounds i8, ptr %_0, i64 8, !dbg !2271
  store ptr %self.1, ptr %1, align 8, !dbg !2271
  %2 = getelementptr inbounds i8, ptr %_0, i64 16, !dbg !2271
  store i64 0, ptr %2, align 8, !dbg !2271
  ret void, !dbg !2272
}

; core::slice::<impl [T]>::rotate_left
; Function Attrs: uwtable
define void @"_ZN4core5slice29_$LT$impl$u20$$u5b$T$u5d$$GT$11rotate_left17hed3b65df6e388c2aE"(ptr align 8 %self.0, i64 %self.1, i64 %mid) unnamed_addr #1 !dbg !2273 {
start:
  %p.dbg.spill = alloca ptr, align 8
  %k.dbg.spill = alloca i64, align 8
  %mid.dbg.spill = alloca i64, align 8
  %self.dbg.spill = alloca { ptr, i64 }, align 8
  store ptr %self.0, ptr %self.dbg.spill, align 8
  %0 = getelementptr inbounds i8, ptr %self.dbg.spill, i64 8
  store i64 %self.1, ptr %0, align 8
  call void @llvm.dbg.declare(metadata ptr %self.dbg.spill, metadata !2279, metadata !DIExpression()), !dbg !2285
  call void @llvm.dbg.declare(metadata ptr %self.dbg.spill, metadata !2286, metadata !DIExpression()), !dbg !2292
  store i64 %mid, ptr %mid.dbg.spill, align 8
  call void @llvm.dbg.declare(metadata ptr %mid.dbg.spill, metadata !2280, metadata !DIExpression()), !dbg !2294
  call void @llvm.dbg.declare(metadata ptr %mid.dbg.spill, metadata !2295, metadata !DIExpression()), !dbg !2300
  %_3 = icmp ule i64 %mid, %self.1, !dbg !2302
  br i1 %_3, label %bb1, label %bb2, !dbg !2302

bb2:                                              ; preds = %start
; call core::panicking::panic
  call void @_ZN4core9panicking5panic17h5884aad3a9044857E(ptr align 1 @alloc_fddaeef1fe1a23c45402ef8f58614acb, i64 35, ptr align 8 @alloc_c39d069578c8b1b3f29c68f4201efae1) #10, !dbg !2303
  unreachable, !dbg !2303

bb1:                                              ; preds = %start
  %k = sub i64 %self.1, %mid, !dbg !2304
  store i64 %k, ptr %k.dbg.spill, align 8, !dbg !2304
  call void @llvm.dbg.declare(metadata ptr %k.dbg.spill, metadata !2281, metadata !DIExpression()), !dbg !2305
  store ptr %self.0, ptr %p.dbg.spill, align 8, !dbg !2306
  call void @llvm.dbg.declare(metadata ptr %p.dbg.spill, metadata !2283, metadata !DIExpression()), !dbg !2307
  call void @llvm.dbg.declare(metadata ptr %p.dbg.spill, metadata !2299, metadata !DIExpression()), !dbg !2308
  %_10 = getelementptr inbounds i64, ptr %self.0, i64 %mid, !dbg !2309
; call core::slice::rotate::ptr_rotate
  call void @_ZN4core5slice6rotate10ptr_rotate17h1664c5c0143d8d8dE(i64 %mid, ptr %_10, i64 %k), !dbg !2310
  ret void, !dbg !2311
}

; core::slice::<impl [T]>::iter
; Function Attrs: inlinehint uwtable
define { ptr, ptr } @"_ZN4core5slice29_$LT$impl$u20$$u5b$T$u5d$$GT$4iter17hfe3e4dba26d2fbfaE"(ptr align 8 %self.0, i64 %self.1) unnamed_addr #0 !dbg !2312 {
start:
  %self.dbg.spill1 = alloca ptr, align 8
  %len.dbg.spill = alloca i64, align 8
  %self.dbg.spill = alloca { ptr, i64 }, align 8
  %end_or_len = alloca ptr, align 8
  %self = alloca %"core::ptr::non_null::NonNull<[usize]>", align 8
  %ptr = alloca ptr, align 8
  %_0 = alloca %"core::slice::iter::Iter<'_, usize>", align 8
  store ptr %self.0, ptr %self.dbg.spill, align 8
  %0 = getelementptr inbounds i8, ptr %self.dbg.spill, i64 8
  store i64 %self.1, ptr %0, align 8
  call void @llvm.dbg.declare(metadata ptr %self.dbg.spill, metadata !2320, metadata !DIExpression()), !dbg !2321
  call void @llvm.dbg.declare(metadata ptr %self.dbg.spill, metadata !2322, metadata !DIExpression()), !dbg !2334
  call void @llvm.dbg.declare(metadata ptr %self.dbg.spill, metadata !2336, metadata !DIExpression()), !dbg !2347
  call void @llvm.dbg.declare(metadata ptr %ptr, metadata !2330, metadata !DIExpression()), !dbg !2349
  call void @llvm.dbg.declare(metadata ptr %ptr, metadata !2350, metadata !DIExpression()), !dbg !2357
  call void @llvm.dbg.declare(metadata ptr %self, metadata !2359, metadata !DIExpression()), !dbg !2366
  call void @llvm.dbg.declare(metadata ptr %self, metadata !2368, metadata !DIExpression()), !dbg !2375
  call void @llvm.dbg.declare(metadata ptr %end_or_len, metadata !2332, metadata !DIExpression()), !dbg !2377
  store i64 %self.1, ptr %len.dbg.spill, align 8, !dbg !2378
  call void @llvm.dbg.declare(metadata ptr %len.dbg.spill, metadata !2328, metadata !DIExpression()), !dbg !2379
  call void @llvm.dbg.declare(metadata ptr %len.dbg.spill, metadata !2380, metadata !DIExpression()), !dbg !2386
  call void @llvm.dbg.declare(metadata ptr %len.dbg.spill, metadata !2388, metadata !DIExpression()), !dbg !2393
  store ptr %self.0, ptr %self, align 8, !dbg !2395
  %1 = getelementptr inbounds i8, ptr %self, i64 8, !dbg !2395
  store i64 %self.1, ptr %1, align 8, !dbg !2395
  store ptr %self.0, ptr %ptr, align 8, !dbg !2396
  br label %bb2, !dbg !2397

bb2:                                              ; preds = %start
  store ptr %self.0, ptr %self.dbg.spill1, align 8, !dbg !2398
  call void @llvm.dbg.declare(metadata ptr %self.dbg.spill1, metadata !2392, metadata !DIExpression()), !dbg !2399
  %_7 = getelementptr inbounds i64, ptr %self.0, i64 %self.1, !dbg !2400
  store ptr %_7, ptr %end_or_len, align 8, !dbg !2401
  br label %bb3, !dbg !2402

bb3:                                              ; preds = %bb1, %bb2
  %_9 = load ptr, ptr %end_or_len, align 8, !dbg !2403, !noundef !13
  %2 = load ptr, ptr %ptr, align 8, !dbg !2404, !nonnull !13, !noundef !13
  store ptr %2, ptr %_0, align 8, !dbg !2404
  %3 = getelementptr inbounds i8, ptr %_0, i64 8, !dbg !2404
  store ptr %_9, ptr %3, align 8, !dbg !2404
  %4 = load ptr, ptr %_0, align 8, !dbg !2405, !nonnull !13, !noundef !13
  %5 = getelementptr inbounds i8, ptr %_0, i64 8, !dbg !2405
  %6 = load ptr, ptr %5, align 8, !dbg !2405, !noundef !13
  %7 = insertvalue { ptr, ptr } poison, ptr %4, 0, !dbg !2405
  %8 = insertvalue { ptr, ptr } %7, ptr %6, 1, !dbg !2405
  ret { ptr, ptr } %8, !dbg !2405

bb1:                                              ; No predecessors!
  %9 = inttoptr i64 %self.1 to ptr, !dbg !2406
  store ptr %9, ptr %end_or_len, align 8, !dbg !2406
  br label %bb3, !dbg !2402
}

; core::slice::<impl [T]>::swap
; Function Attrs: inlinehint uwtable
define void @"_ZN4core5slice29_$LT$impl$u20$$u5b$T$u5d$$GT$4swap17heb18d7ab5b6ab1d7E"(ptr align 8 %self.0, i64 %self.1, i64 %a, i64 %b, ptr align 8 %0) unnamed_addr #0 !dbg !2407 {
start:
  %pb.dbg.spill = alloca ptr, align 8
  %pa.dbg.spill = alloca ptr, align 8
  %b.dbg.spill = alloca i64, align 8
  %a.dbg.spill = alloca i64, align 8
  %self.dbg.spill = alloca { ptr, i64 }, align 8
  store ptr %self.0, ptr %self.dbg.spill, align 8
  %1 = getelementptr inbounds i8, ptr %self.dbg.spill, i64 8
  store i64 %self.1, ptr %1, align 8
  call void @llvm.dbg.declare(metadata ptr %self.dbg.spill, metadata !2411, metadata !DIExpression()), !dbg !2418
  store i64 %a, ptr %a.dbg.spill, align 8
  call void @llvm.dbg.declare(metadata ptr %a.dbg.spill, metadata !2412, metadata !DIExpression()), !dbg !2419
  store i64 %b, ptr %b.dbg.spill, align 8
  call void @llvm.dbg.declare(metadata ptr %b.dbg.spill, metadata !2413, metadata !DIExpression()), !dbg !2420
  %_6 = icmp ult i64 %a, %self.1, !dbg !2421
  %2 = call i1 @llvm.expect.i1(i1 %_6, i1 true), !dbg !2421
  br i1 %2, label %bb1, label %panic, !dbg !2421

bb1:                                              ; preds = %start
  %pa = getelementptr inbounds [0 x i64], ptr %self.0, i64 0, i64 %a, !dbg !2422
  store ptr %pa, ptr %pa.dbg.spill, align 8, !dbg !2422
  call void @llvm.dbg.declare(metadata ptr %pa.dbg.spill, metadata !2414, metadata !DIExpression()), !dbg !2423
  %_9 = icmp ult i64 %b, %self.1, !dbg !2424
  %3 = call i1 @llvm.expect.i1(i1 %_9, i1 true), !dbg !2424
  br i1 %3, label %bb2, label %panic1, !dbg !2424

panic:                                            ; preds = %start
; call core::panicking::panic_bounds_check
  call void @_ZN4core9panicking18panic_bounds_check17he946c798844ee491E(i64 %a, i64 %self.1, ptr align 8 %0) #10, !dbg !2421
  unreachable, !dbg !2421

bb2:                                              ; preds = %bb1
  %pb = getelementptr inbounds [0 x i64], ptr %self.0, i64 0, i64 %b, !dbg !2425
  store ptr %pb, ptr %pb.dbg.spill, align 8, !dbg !2425
  call void @llvm.dbg.declare(metadata ptr %pb.dbg.spill, metadata !2416, metadata !DIExpression()), !dbg !2426
; call core::ptr::swap
  call void @_ZN4core3ptr4swap17h131da02e56910467E(ptr %pa, ptr %pb), !dbg !2427
  ret void, !dbg !2428

panic1:                                           ; preds = %bb1
; call core::panicking::panic_bounds_check
  call void @_ZN4core9panicking18panic_bounds_check17he946c798844ee491E(i64 %b, i64 %self.1, ptr align 8 %0) #10, !dbg !2424
  unreachable, !dbg !2424
}

; core::slice::rotate::ptr_rotate
; Function Attrs: uwtable
define void @_ZN4core5slice6rotate10ptr_rotate17h1664c5c0143d8d8dE(i64 %0, ptr %1, i64 %2) unnamed_addr #1 personality ptr @rust_eh_personality !dbg !2429 {
start:
  %val.dbg.spill101 = alloca i64, align 8
  %self.dbg.spill99 = alloca ptr, align 8
  %self.dbg.spill97 = alloca ptr, align 8
  %src.dbg.spill95 = alloca i64, align 8
  %self.dbg.spill93 = alloca ptr, align 8
  %count.dbg.spill91 = alloca i64, align 8
  %self.dbg.spill89 = alloca ptr, align 8
  %src.dbg.spill87 = alloca ptr, align 8
  %self.dbg.spill86 = alloca ptr, align 8
  %self.dbg.spill84 = alloca ptr, align 8
  %start.dbg.spill = alloca i64, align 8
  %old.dbg.spill = alloca i64, align 8
  %other.dbg.spill = alloca ptr, align 8
  %self.dbg.spill81 = alloca ptr, align 8
  %self.dbg.spill80 = alloca ptr, align 8
  %val.dbg.spill = alloca i64, align 8
  %self.dbg.spill79 = alloca ptr, align 8
  %3 = alloca { ptr, i32, [1 x i32] }, align 8
  %src.dbg.spill77 = alloca i64, align 8
  %self.dbg.spill75 = alloca ptr, align 8
  %count.dbg.spill73 = alloca i64, align 8
  %self.dbg.spill71 = alloca ptr, align 8
  %src.dbg.spill69 = alloca ptr, align 8
  %self.dbg.spill68 = alloca ptr, align 8
  %count.dbg.spill66 = alloca i64, align 8
  %count.dbg.spill64 = alloca i64, align 8
  %self.dbg.spill62 = alloca ptr, align 8
  %count.dbg.spill60 = alloca i64, align 8
  %src.dbg.spill58 = alloca ptr, align 8
  %count.dbg.spill56 = alloca i64, align 8
  %count.dbg.spill54 = alloca i64, align 8
  %self.dbg.spill52 = alloca ptr, align 8
  %count.dbg.spill50 = alloca i64, align 8
  %src.dbg.spill = alloca ptr, align 8
  %dim.dbg.spill = alloca ptr, align 8
  %count.dbg.spill48 = alloca i64, align 8
  %count.dbg.spill46 = alloca i64, align 8
  %count.dbg.spill44 = alloca i64, align 8
  %self.dbg.spill42 = alloca ptr, align 8
  %buf.dbg.spill = alloca ptr, align 8
  %self.dbg.spill40 = alloca ptr, align 8
  %count.dbg.spill39 = alloca i64, align 8
  %count.dbg.spill37 = alloca i64, align 8
  %self.dbg.spill35 = alloca ptr, align 8
  %count.dbg.spill33 = alloca i64, align 8
  %count.dbg.spill31 = alloca i64, align 8
  %self.dbg.spill29 = alloca ptr, align 8
  %count.dbg.spill27 = alloca i64, align 8
  %self.dbg.spill25 = alloca ptr, align 8
  %count.dbg.spill23 = alloca i64, align 8
  %count.dbg.spill = alloca i64, align 8
  %self.dbg.spill = alloca ptr, align 8
  %v2.dbg.spill = alloca i64, align 8
  %v1.dbg.spill = alloca i64, align 8
  %_188 = alloca i64, align 8
  %count19 = alloca i64, align 8
  %_186 = alloca i8, align 1
  %_181 = alloca i64, align 8
  %count18 = alloca i64, align 8
  %_179 = alloca i8, align 1
  %_165 = alloca i64, align 8
  %count17 = alloca i64, align 8
  %_163 = alloca i8, align 1
  %_138 = alloca i8, align 1
  %_126 = alloca ptr, align 8
  %_118 = alloca ptr, align 8
  %_113 = alloca ptr, align 8
  %count16 = alloca i64, align 8
  %count15 = alloca i64, align 8
  %self14 = alloca ptr, align 8
  %dst13 = alloca ptr, align 8
  %src12 = alloca ptr, align 8
  %count11 = alloca i64, align 8
  %dst10 = alloca ptr, align 8
  %count9 = alloca i64, align 8
  %self8 = alloca ptr, align 8
  %_99 = alloca ptr, align 8
  %src7 = alloca ptr, align 8
  %count6 = alloca i64, align 8
  %dst5 = alloca ptr, align 8
  %src4 = alloca ptr, align 8
  %count3 = alloca i64, align 8
  %count = alloca i64, align 8
  %self2 = alloca ptr, align 8
  %dst = alloca ptr, align 8
  %_86 = alloca ptr, align 8
  %src = alloca ptr, align 8
  %_80 = alloca ptr, align 8
  %self1 = alloca ptr, align 8
  %rawarray = alloca %"core::mem::maybe_uninit::MaybeUninit<([usize; 32], [usize; 0])>", align 8
  %_40 = alloca %"core::option::Option<usize>", align 8
  %iter = alloca %"core::ops::range::Range<usize>", align 8
  %self = alloca %"core::ops::range::Range<usize>", align 8
  %gcd = alloca i64, align 8
  %i = alloca i64, align 8
  %tmp = alloca i64, align 8
  %x = alloca ptr, align 8
  %right = alloca i64, align 8
  %mid = alloca ptr, align 8
  %left = alloca i64, align 8
  store i64 %0, ptr %left, align 8
  store ptr %1, ptr %mid, align 8
  store i64 %2, ptr %right, align 8
  call void @llvm.dbg.declare(metadata ptr %left, metadata !2435, metadata !DIExpression()), !dbg !2475
  call void @llvm.dbg.declare(metadata ptr %mid, metadata !2436, metadata !DIExpression()), !dbg !2476
  call void @llvm.dbg.declare(metadata ptr %right, metadata !2437, metadata !DIExpression()), !dbg !2477
  call void @llvm.dbg.declare(metadata ptr %x, metadata !2438, metadata !DIExpression()), !dbg !2478
  call void @llvm.dbg.declare(metadata ptr %tmp, metadata !2440, metadata !DIExpression()), !dbg !2479
  call void @llvm.dbg.declare(metadata ptr %i, metadata !2442, metadata !DIExpression()), !dbg !2480
  call void @llvm.dbg.declare(metadata ptr %gcd, metadata !2444, metadata !DIExpression()), !dbg !2481
  call void @llvm.dbg.declare(metadata ptr %self, metadata !2482, metadata !DIExpression()), !dbg !2493
  call void @llvm.dbg.declare(metadata ptr %iter, metadata !2446, metadata !DIExpression()), !dbg !2495
  call void @llvm.dbg.declare(metadata ptr %rawarray, metadata !2450, metadata !DIExpression()), !dbg !2496
  call void @llvm.dbg.declare(metadata ptr %self1, metadata !2497, metadata !DIExpression()), !dbg !2517
  call void @llvm.dbg.declare(metadata ptr %src, metadata !2519, metadata !DIExpression()), !dbg !2529
  call void @llvm.dbg.declare(metadata ptr %dst, metadata !2523, metadata !DIExpression()), !dbg !2531
  call void @llvm.dbg.declare(metadata ptr %self2, metadata !2532, metadata !DIExpression()), !dbg !2561
  call void @llvm.dbg.declare(metadata ptr %self2, metadata !2563, metadata !DIExpression()), !dbg !2595
  call void @llvm.dbg.declare(metadata ptr %count, metadata !2545, metadata !DIExpression()), !dbg !2597
  call void @llvm.dbg.declare(metadata ptr %count3, metadata !2524, metadata !DIExpression()), !dbg !2598
  call void @llvm.dbg.declare(metadata ptr %src4, metadata !2599, metadata !DIExpression()), !dbg !2617
  call void @llvm.dbg.declare(metadata ptr %dst5, metadata !2607, metadata !DIExpression()), !dbg !2619
  call void @llvm.dbg.declare(metadata ptr %count6, metadata !2608, metadata !DIExpression()), !dbg !2620
  call void @llvm.dbg.declare(metadata ptr %src7, metadata !2525, metadata !DIExpression()), !dbg !2621
  call void @llvm.dbg.declare(metadata ptr %self8, metadata !2546, metadata !DIExpression()), !dbg !2623
  call void @llvm.dbg.declare(metadata ptr %self8, metadata !2580, metadata !DIExpression()), !dbg !2625
  call void @llvm.dbg.declare(metadata ptr %count9, metadata !2548, metadata !DIExpression()), !dbg !2627
  call void @llvm.dbg.declare(metadata ptr %dst10, metadata !2527, metadata !DIExpression()), !dbg !2628
  call void @llvm.dbg.declare(metadata ptr %count11, metadata !2528, metadata !DIExpression()), !dbg !2629
  call void @llvm.dbg.declare(metadata ptr %src12, metadata !2613, metadata !DIExpression()), !dbg !2630
  call void @llvm.dbg.declare(metadata ptr %dst13, metadata !2615, metadata !DIExpression()), !dbg !2632
  call void @llvm.dbg.declare(metadata ptr %self14, metadata !2549, metadata !DIExpression()), !dbg !2633
  call void @llvm.dbg.declare(metadata ptr %self14, metadata !2583, metadata !DIExpression()), !dbg !2635
  call void @llvm.dbg.declare(metadata ptr %count15, metadata !2551, metadata !DIExpression()), !dbg !2637
  call void @llvm.dbg.declare(metadata ptr %count16, metadata !2616, metadata !DIExpression()), !dbg !2638
  call void @llvm.dbg.declare(metadata ptr %count17, metadata !2579, metadata !DIExpression()), !dbg !2639
  call void @llvm.dbg.declare(metadata ptr %count18, metadata !2582, metadata !DIExpression()), !dbg !2640
  call void @llvm.dbg.declare(metadata ptr %count19, metadata !2585, metadata !DIExpression()), !dbg !2641
  br label %bb2, !dbg !2642

bb2:                                              ; preds = %start
  br label %bb3, !dbg !2643

bb3:                                              ; preds = %bb45, %bb2
  %_5 = load i64, ptr %right, align 8, !dbg !2644, !noundef !13
  %4 = icmp eq i64 %_5, 0, !dbg !2645
  br i1 %4, label %bb4, label %bb5, !dbg !2645

bb4:                                              ; preds = %bb3
  br label %bb7, !dbg !2646

bb5:                                              ; preds = %bb3
  %_6 = load i64, ptr %left, align 8, !dbg !2647, !noundef !13
  %5 = icmp eq i64 %_6, 0, !dbg !2648
  br i1 %5, label %bb6, label %bb8, !dbg !2648

bb7:                                              ; preds = %bb6, %bb4
  br label %bb47, !dbg !2649

bb6:                                              ; preds = %bb5
  br label %bb7, !dbg !2646

bb8:                                              ; preds = %bb5
  %_9 = load i64, ptr %left, align 8, !dbg !2651, !noundef !13
  %_10 = load i64, ptr %right, align 8, !dbg !2652, !noundef !13
  %_8 = add i64 %_9, %_10, !dbg !2651
  %_7 = icmp ult i64 %_8, 24, !dbg !2653
  br i1 %_7, label %bb9, label %bb10, !dbg !2653

bb47:                                             ; preds = %bb1, %bb46, %bb7
  ret void, !dbg !2654

bb10:                                             ; preds = %bb8
  br label %bb28, !dbg !2655

bb9:                                              ; preds = %bb8
  br label %bb11, !dbg !2656

bb28:                                             ; preds = %bb10
  %v1 = load i64, ptr %left, align 8, !dbg !2657, !noundef !13
  store i64 %v1, ptr %v1.dbg.spill, align 8, !dbg !2657
  call void @llvm.dbg.declare(metadata ptr %v1.dbg.spill, metadata !2658, metadata !DIExpression()), !dbg !2663
  call void @llvm.dbg.declare(metadata ptr %v1.dbg.spill, metadata !2665, metadata !DIExpression()), !dbg !2670
  %v2 = load i64, ptr %right, align 8, !dbg !2672, !noundef !13
  store i64 %v2, ptr %v2.dbg.spill, align 8, !dbg !2672
  call void @llvm.dbg.declare(metadata ptr %v2.dbg.spill, metadata !2662, metadata !DIExpression()), !dbg !2673
  call void @llvm.dbg.declare(metadata ptr %v2.dbg.spill, metadata !2669, metadata !DIExpression()), !dbg !2674
; call core::cmp::min_by
  %_63 = call i64 @_ZN4core3cmp6min_by17h5556c8df34d9726cE(i64 %v1, i64 %v2), !dbg !2675
  %_62 = icmp ule i64 %_63, 32, !dbg !2664
  br i1 %_62, label %bb30, label %bb34, !dbg !2664

bb34:                                             ; preds = %bb28
  %_110 = load i64, ptr %left, align 8, !dbg !2676, !noundef !13
  %_111 = load i64, ptr %right, align 8, !dbg !2677, !noundef !13
  %_109 = icmp uge i64 %_110, %_111, !dbg !2676
  br i1 %_109, label %bb35, label %bb40, !dbg !2676

bb30:                                             ; preds = %bb28
  store ptr %rawarray, ptr %self.dbg.spill40, align 8, !dbg !2678
  call void @llvm.dbg.declare(metadata ptr %self.dbg.spill40, metadata !2679, metadata !DIExpression()), !dbg !2688
  store ptr %rawarray, ptr %buf.dbg.spill, align 8, !dbg !2678
  call void @llvm.dbg.declare(metadata ptr %buf.dbg.spill, metadata !2471, metadata !DIExpression()), !dbg !2690
  call void @llvm.dbg.declare(metadata ptr %buf.dbg.spill, metadata !2605, metadata !DIExpression()), !dbg !2691
  call void @llvm.dbg.declare(metadata ptr %buf.dbg.spill, metadata !2611, metadata !DIExpression()), !dbg !2693
  %self41 = load ptr, ptr %mid, align 8, !dbg !2695, !noundef !13
  store ptr %self41, ptr %self.dbg.spill42, align 8, !dbg !2695
  call void @llvm.dbg.declare(metadata ptr %self.dbg.spill42, metadata !2539, metadata !DIExpression()), !dbg !2696
  call void @llvm.dbg.declare(metadata ptr %self.dbg.spill42, metadata !2573, metadata !DIExpression()), !dbg !2698
  %count43 = load i64, ptr %left, align 8, !dbg !2700, !noundef !13
  store i64 %count43, ptr %count.dbg.spill44, align 8, !dbg !2700
  call void @llvm.dbg.declare(metadata ptr %count.dbg.spill44, metadata !2541, metadata !DIExpression()), !dbg !2701
  br label %bb61, !dbg !2702

bb40:                                             ; preds = %bb34
  br label %bb41, !dbg !2703

bb35:                                             ; preds = %bb34
  br label %bb36, !dbg !2704

bb41:                                             ; preds = %bb44, %bb40
  %self20 = load ptr, ptr %mid, align 8, !dbg !2705, !noundef !13
  store ptr %self20, ptr %self.dbg.spill, align 8, !dbg !2705
  call void @llvm.dbg.declare(metadata ptr %self.dbg.spill, metadata !2558, metadata !DIExpression()), !dbg !2706
  call void @llvm.dbg.declare(metadata ptr %self.dbg.spill, metadata !2592, metadata !DIExpression()), !dbg !2708
  %count21 = load i64, ptr %left, align 8, !dbg !2710, !noundef !13
  store i64 %count21, ptr %count.dbg.spill, align 8, !dbg !2710
  call void @llvm.dbg.declare(metadata ptr %count.dbg.spill, metadata !2560, metadata !DIExpression()), !dbg !2711
  br label %bb96, !dbg !2712

bb96:                                             ; preds = %bb41
  %count22 = sub nsw i64 0, %count21, !dbg !2713
  store i64 %count22, ptr %count.dbg.spill23, align 8, !dbg !2713
  call void @llvm.dbg.declare(metadata ptr %count.dbg.spill23, metadata !2594, metadata !DIExpression()), !dbg !2714
  %6 = getelementptr inbounds i64, ptr %self20, i64 %count22, !dbg !2715
  store ptr %6, ptr %_126, align 8, !dbg !2715
  br label %bb97, !dbg !2716

bb97:                                             ; preds = %bb96
  %_129 = load ptr, ptr %mid, align 8, !dbg !2717, !noundef !13
  %_130 = load i64, ptr %left, align 8, !dbg !2718, !noundef !13
  %7 = load ptr, ptr %_126, align 8, !dbg !2719, !noundef !13
; call core::ptr::swap_nonoverlapping
  call void @_ZN4core3ptr19swap_nonoverlapping17hd60b8c83fb56ab9aE(ptr %7, ptr %_129, i64 %_130), !dbg !2719
  %self24 = load ptr, ptr %mid, align 8, !dbg !2720, !noundef !13
  store ptr %self24, ptr %self.dbg.spill25, align 8, !dbg !2720
  call void @llvm.dbg.declare(metadata ptr %self.dbg.spill25, metadata !2514, metadata !DIExpression()), !dbg !2721
  %count26 = load i64, ptr %left, align 8, !dbg !2723, !noundef !13
  store i64 %count26, ptr %count.dbg.spill27, align 8, !dbg !2723
  call void @llvm.dbg.declare(metadata ptr %count.dbg.spill27, metadata !2516, metadata !DIExpression()), !dbg !2724
  %_131 = getelementptr inbounds i64, ptr %self24, i64 %count26, !dbg !2725
  store ptr %_131, ptr %mid, align 8, !dbg !2726
  %_134 = load i64, ptr %left, align 8, !dbg !2727, !noundef !13
  %8 = load i64, ptr %right, align 8, !dbg !2728, !noundef !13
  %9 = sub i64 %8, %_134, !dbg !2728
  store i64 %9, ptr %right, align 8, !dbg !2728
  %_136 = load i64, ptr %right, align 8, !dbg !2729, !noundef !13
  %_137 = load i64, ptr %left, align 8, !dbg !2730, !noundef !13
  %_135 = icmp ult i64 %_136, %_137, !dbg !2729
  br i1 %_135, label %bb43, label %bb44, !dbg !2729

bb95:                                             ; No predecessors!
  store ptr poison, ptr %_126, align 8, !dbg !2731
  unreachable, !dbg !2716

bb44:                                             ; preds = %bb97
  br label %bb41, !dbg !2703

bb43:                                             ; preds = %bb97
  br label %bb45, !dbg !2732

bb45:                                             ; preds = %bb38, %bb43
  br label %bb3, !dbg !2643

bb36:                                             ; preds = %bb39, %bb35
  %self28 = load ptr, ptr %mid, align 8, !dbg !2733, !noundef !13
  store ptr %self28, ptr %self.dbg.spill29, align 8, !dbg !2733
  call void @llvm.dbg.declare(metadata ptr %self.dbg.spill29, metadata !2552, metadata !DIExpression()), !dbg !2734
  call void @llvm.dbg.declare(metadata ptr %self.dbg.spill29, metadata !2586, metadata !DIExpression()), !dbg !2736
  %count30 = load i64, ptr %right, align 8, !dbg !2738, !noundef !13
  store i64 %count30, ptr %count.dbg.spill31, align 8, !dbg !2738
  call void @llvm.dbg.declare(metadata ptr %count.dbg.spill31, metadata !2554, metadata !DIExpression()), !dbg !2739
  br label %bb90, !dbg !2740

bb90:                                             ; preds = %bb36
  %count32 = sub nsw i64 0, %count30, !dbg !2741
  store i64 %count32, ptr %count.dbg.spill33, align 8, !dbg !2741
  call void @llvm.dbg.declare(metadata ptr %count.dbg.spill33, metadata !2588, metadata !DIExpression()), !dbg !2742
  %10 = getelementptr inbounds i64, ptr %self28, i64 %count32, !dbg !2743
  store ptr %10, ptr %_113, align 8, !dbg !2743
  br label %bb91, !dbg !2744

bb91:                                             ; preds = %bb90
  %_116 = load ptr, ptr %mid, align 8, !dbg !2745, !noundef !13
  %_117 = load i64, ptr %right, align 8, !dbg !2746, !noundef !13
  %11 = load ptr, ptr %_113, align 8, !dbg !2747, !noundef !13
; call core::ptr::swap_nonoverlapping
  call void @_ZN4core3ptr19swap_nonoverlapping17hd60b8c83fb56ab9aE(ptr %11, ptr %_116, i64 %_117), !dbg !2747
  %self34 = load ptr, ptr %mid, align 8, !dbg !2748, !noundef !13
  store ptr %self34, ptr %self.dbg.spill35, align 8, !dbg !2748
  call void @llvm.dbg.declare(metadata ptr %self.dbg.spill35, metadata !2555, metadata !DIExpression()), !dbg !2749
  call void @llvm.dbg.declare(metadata ptr %self.dbg.spill35, metadata !2589, metadata !DIExpression()), !dbg !2751
  %count36 = load i64, ptr %right, align 8, !dbg !2753, !noundef !13
  store i64 %count36, ptr %count.dbg.spill37, align 8, !dbg !2753
  call void @llvm.dbg.declare(metadata ptr %count.dbg.spill37, metadata !2557, metadata !DIExpression()), !dbg !2754
  br label %bb93, !dbg !2755

bb89:                                             ; No predecessors!
  store ptr poison, ptr %_113, align 8, !dbg !2756
  unreachable, !dbg !2744

bb93:                                             ; preds = %bb91
  %count38 = sub nsw i64 0, %count36, !dbg !2757
  store i64 %count38, ptr %count.dbg.spill39, align 8, !dbg !2757
  call void @llvm.dbg.declare(metadata ptr %count.dbg.spill39, metadata !2591, metadata !DIExpression()), !dbg !2758
  %12 = getelementptr inbounds i64, ptr %self34, i64 %count38, !dbg !2759
  store ptr %12, ptr %_118, align 8, !dbg !2759
  br label %bb94, !dbg !2760

bb94:                                             ; preds = %bb93
  %13 = load ptr, ptr %_118, align 8, !dbg !2761, !noundef !13
  store ptr %13, ptr %mid, align 8, !dbg !2761
  %_121 = load i64, ptr %right, align 8, !dbg !2762, !noundef !13
  %14 = load i64, ptr %left, align 8, !dbg !2763, !noundef !13
  %15 = sub i64 %14, %_121, !dbg !2763
  store i64 %15, ptr %left, align 8, !dbg !2763
  %_123 = load i64, ptr %left, align 8, !dbg !2764, !noundef !13
  %_124 = load i64, ptr %right, align 8, !dbg !2765, !noundef !13
  %_122 = icmp ult i64 %_123, %_124, !dbg !2764
  br i1 %_122, label %bb38, label %bb39, !dbg !2764

bb92:                                             ; No predecessors!
  store ptr poison, ptr %_118, align 8, !dbg !2766
  unreachable, !dbg !2760

bb39:                                             ; preds = %bb94
  br label %bb36, !dbg !2704

bb38:                                             ; preds = %bb94
  br label %bb45, !dbg !2732

bb61:                                             ; preds = %bb30
  %count45 = sub nsw i64 0, %count43, !dbg !2767
  store i64 %count45, ptr %count.dbg.spill46, align 8, !dbg !2767
  call void @llvm.dbg.declare(metadata ptr %count.dbg.spill46, metadata !2575, metadata !DIExpression()), !dbg !2768
  %16 = getelementptr inbounds i64, ptr %self41, i64 %count45, !dbg !2769
  store ptr %16, ptr %self1, align 8, !dbg !2769
  br label %bb62, !dbg !2770

bb62:                                             ; preds = %bb60, %bb61
  %count47 = load i64, ptr %right, align 8, !dbg !2771, !noundef !13
  store i64 %count47, ptr %count.dbg.spill48, align 8, !dbg !2771
  call void @llvm.dbg.declare(metadata ptr %count.dbg.spill48, metadata !2513, metadata !DIExpression()), !dbg !2772
  %17 = load ptr, ptr %self1, align 8, !dbg !2773, !noundef !13
  %dim = getelementptr inbounds i64, ptr %17, i64 %count47, !dbg !2773
  store ptr %dim, ptr %dim.dbg.spill, align 8, !dbg !2773
  call void @llvm.dbg.declare(metadata ptr %dim.dbg.spill, metadata !2473, metadata !DIExpression()), !dbg !2774
  %_77 = load i64, ptr %left, align 8, !dbg !2775, !noundef !13
  %_78 = load i64, ptr %right, align 8, !dbg !2776, !noundef !13
  %_76 = icmp ule i64 %_77, %_78, !dbg !2775
  br i1 %_76, label %bb31, label %bb32, !dbg !2775

bb60:                                             ; No predecessors!
  store ptr %self41, ptr %self1, align 8, !dbg !2777
  br label %bb62, !dbg !2770

bb32:                                             ; preds = %bb62
  %_95 = load ptr, ptr %mid, align 8, !dbg !2778, !noundef !13
  store ptr %_95, ptr %src.dbg.spill, align 8, !dbg !2778
  call void @llvm.dbg.declare(metadata ptr %src.dbg.spill, metadata !2609, metadata !DIExpression()), !dbg !2779
  %count49 = load i64, ptr %right, align 8, !dbg !2780, !noundef !13
  store i64 %count49, ptr %count.dbg.spill50, align 8, !dbg !2780
  call void @llvm.dbg.declare(metadata ptr %count.dbg.spill50, metadata !2612, metadata !DIExpression()), !dbg !2781
  br label %bb76, !dbg !2782

bb31:                                             ; preds = %bb62
  %self51 = load ptr, ptr %mid, align 8, !dbg !2783, !noundef !13
  store ptr %self51, ptr %self.dbg.spill52, align 8, !dbg !2783
  call void @llvm.dbg.declare(metadata ptr %self.dbg.spill52, metadata !2542, metadata !DIExpression()), !dbg !2784
  call void @llvm.dbg.declare(metadata ptr %self.dbg.spill52, metadata !2576, metadata !DIExpression()), !dbg !2786
  %count53 = load i64, ptr %left, align 8, !dbg !2788, !noundef !13
  store i64 %count53, ptr %count.dbg.spill54, align 8, !dbg !2788
  call void @llvm.dbg.declare(metadata ptr %count.dbg.spill54, metadata !2544, metadata !DIExpression()), !dbg !2789
  br label %bb64, !dbg !2790

bb76:                                             ; preds = %bb32
; call core::intrinsics::copy_nonoverlapping::precondition_check
  call void @_ZN4core10intrinsics19copy_nonoverlapping18precondition_check17heb665b386cf8b624E(ptr %_95, ptr %rawarray, i64 8, i64 8, i64 %count49) #12, !dbg !2782
  %18 = mul i64 %count49, 8, !dbg !2791
  call void @llvm.memcpy.p0.p0.i64(ptr align 8 %rawarray, ptr align 8 %_95, i64 %18, i1 false), !dbg !2791
  %19 = load ptr, ptr %mid, align 8, !dbg !2792, !noundef !13
  store ptr %19, ptr %self8, align 8, !dbg !2792
  %20 = load i64, ptr %left, align 8, !dbg !2793, !noundef !13
  store i64 %20, ptr %count9, align 8, !dbg !2793
  store i8 0, ptr %_179, align 1, !dbg !2794
  %21 = load i8, ptr %_179, align 1, !dbg !2794, !range !259, !noundef !13
  %22 = trunc i8 %21 to i1, !dbg !2794
  br i1 %22, label %bb104, label %bb105, !dbg !2794

bb77:                                             ; No predecessors!
  %23 = mul i64 %count49, 8, !dbg !2791
  call void @llvm.memcpy.p0.p0.i64(ptr align 8 %rawarray, ptr align 8 %_95, i64 %23, i1 false), !dbg !2791
  %24 = load ptr, ptr %mid, align 8, !dbg !2792, !noundef !13
  store ptr %24, ptr %self8, align 8, !dbg !2792
  %25 = load i64, ptr %left, align 8, !dbg !2793, !noundef !13
  store i64 %25, ptr %count9, align 8, !dbg !2793
  store i8 0, ptr %_179, align 1, !dbg !2794
  %26 = load i8, ptr %_179, align 1, !dbg !2794, !range !259, !noundef !13
  %27 = trunc i8 %26 to i1, !dbg !2794
  br i1 %27, label %bb78, label %bb79, !dbg !2794

bb79:                                             ; preds = %bb77
  %28 = load i64, ptr %count9, align 8, !dbg !2795, !noundef !13
  store i64 %28, ptr %_181, align 8, !dbg !2795
  %29 = load i64, ptr %_181, align 8, !dbg !2796, !noundef !13
  %30 = sub nsw i64 0, %29, !dbg !2796
  store i64 %30, ptr %count18, align 8, !dbg !2796
  %31 = load ptr, ptr %self8, align 8, !dbg !2797, !noundef !13
  %32 = load i64, ptr %count18, align 8, !dbg !2797, !noundef !13
  %33 = getelementptr inbounds i64, ptr %31, i64 %32, !dbg !2797
  store ptr %33, ptr %_99, align 8, !dbg !2797
  br label %bb80, !dbg !2798

bb78:                                             ; preds = %bb77
  %34 = load ptr, ptr %self8, align 8, !dbg !2799, !noundef !13
  store ptr %34, ptr %_99, align 8, !dbg !2799
  br label %bb80, !dbg !2798

bb80:                                             ; preds = %bb78, %bb79
  %35 = load ptr, ptr %_99, align 8, !dbg !2792, !noundef !13
  store ptr %35, ptr %src7, align 8, !dbg !2792
  store ptr %dim, ptr %dst10, align 8, !dbg !2800
  %36 = load i64, ptr %left, align 8, !dbg !2801, !noundef !13
  store i64 %36, ptr %count11, align 8, !dbg !2801
  br label %bb82, !dbg !2802

bb82:                                             ; preds = %bb104, %bb105, %bb80
  %_183 = load ptr, ptr %src7, align 8, !dbg !2803, !noundef !13
; call core::intrinsics::copy::precondition_check
  call void @_ZN4core10intrinsics4copy18precondition_check17h29bb9def86d88c9dE(ptr %_183, ptr %dim, i64 8) #12, !dbg !2802
  %37 = load ptr, ptr %src7, align 8, !dbg !2804, !noundef !13
  %38 = load i64, ptr %count11, align 8, !dbg !2804, !noundef !13
  %39 = mul i64 8, %38, !dbg !2804
  call void @llvm.memmove.p0.p0.i64(ptr align 8 %dim, ptr align 8 %37, i64 %39, i1 false), !dbg !2804
  store ptr %rawarray, ptr %src12, align 8, !dbg !2805
  %40 = load ptr, ptr %mid, align 8, !dbg !2806, !noundef !13
  store ptr %40, ptr %self14, align 8, !dbg !2806
  %41 = load i64, ptr %left, align 8, !dbg !2807, !noundef !13
  store i64 %41, ptr %count15, align 8, !dbg !2807
  store i8 0, ptr %_186, align 1, !dbg !2808
  %42 = load i8, ptr %_186, align 1, !dbg !2808, !range !259, !noundef !13
  %43 = trunc i8 %42 to i1, !dbg !2808
  br i1 %43, label %bb108, label %bb109, !dbg !2808

bb83:                                             ; No predecessors!
  %44 = load ptr, ptr %src7, align 8, !dbg !2804, !noundef !13
  %45 = load i64, ptr %count11, align 8, !dbg !2804, !noundef !13
  %46 = mul i64 8, %45, !dbg !2804
  call void @llvm.memmove.p0.p0.i64(ptr align 8 %dim, ptr align 8 %44, i64 %46, i1 false), !dbg !2804
  store ptr %rawarray, ptr %src12, align 8, !dbg !2805
  %47 = load ptr, ptr %mid, align 8, !dbg !2806, !noundef !13
  store ptr %47, ptr %self14, align 8, !dbg !2806
  %48 = load i64, ptr %left, align 8, !dbg !2807, !noundef !13
  store i64 %48, ptr %count15, align 8, !dbg !2807
  store i8 0, ptr %_186, align 1, !dbg !2808
  %49 = load i8, ptr %_186, align 1, !dbg !2808, !range !259, !noundef !13
  %50 = trunc i8 %49 to i1, !dbg !2808
  br i1 %50, label %bb84, label %bb85, !dbg !2808

bb85:                                             ; preds = %bb83
  %51 = load i64, ptr %count15, align 8, !dbg !2809, !noundef !13
  store i64 %51, ptr %_188, align 8, !dbg !2809
  %52 = load i64, ptr %_188, align 8, !dbg !2810, !noundef !13
  %53 = sub nsw i64 0, %52, !dbg !2810
  store i64 %53, ptr %count19, align 8, !dbg !2810
  %54 = load ptr, ptr %self14, align 8, !dbg !2811, !noundef !13
  %55 = load i64, ptr %count19, align 8, !dbg !2811, !noundef !13
  %56 = getelementptr inbounds i64, ptr %54, i64 %55, !dbg !2811
  store ptr %56, ptr %dst13, align 8, !dbg !2811
  br label %bb86, !dbg !2812

bb84:                                             ; preds = %bb83
  %57 = load ptr, ptr %self14, align 8, !dbg !2813, !noundef !13
  store ptr %57, ptr %dst13, align 8, !dbg !2813
  br label %bb86, !dbg !2812

bb86:                                             ; preds = %bb84, %bb85
  %58 = load i64, ptr %right, align 8, !dbg !2814, !noundef !13
  store i64 %58, ptr %count16, align 8, !dbg !2814
  br label %bb87, !dbg !2815

bb87:                                             ; preds = %bb108, %bb109, %bb86
  %_191 = load ptr, ptr %dst13, align 8, !dbg !2816, !noundef !13
  %59 = load i64, ptr %count16, align 8, !dbg !2815, !noundef !13
; call core::intrinsics::copy_nonoverlapping::precondition_check
  call void @_ZN4core10intrinsics19copy_nonoverlapping18precondition_check17heb665b386cf8b624E(ptr %rawarray, ptr %_191, i64 8, i64 8, i64 %59) #12, !dbg !2815
  br label %bb88, !dbg !2815

bb105:                                            ; preds = %bb76
  %60 = load i64, ptr %count9, align 8, !dbg !2795, !noundef !13
  store i64 %60, ptr %_181, align 8, !dbg !2795
  %61 = load i64, ptr %_181, align 8, !dbg !2796, !noundef !13
  %62 = sub nsw i64 0, %61, !dbg !2796
  store i64 %62, ptr %count18, align 8, !dbg !2796
  %63 = load ptr, ptr %self8, align 8, !dbg !2797, !noundef !13
  %64 = load i64, ptr %count18, align 8, !dbg !2797, !noundef !13
  %65 = getelementptr inbounds i64, ptr %63, i64 %64, !dbg !2797
  store ptr %65, ptr %_99, align 8, !dbg !2797
  %66 = load ptr, ptr %_99, align 8, !dbg !2792, !noundef !13
  store ptr %66, ptr %src7, align 8, !dbg !2792
  store ptr %dim, ptr %dst10, align 8, !dbg !2800
  %67 = load i64, ptr %left, align 8, !dbg !2801, !noundef !13
  store i64 %67, ptr %count11, align 8, !dbg !2801
  br label %bb82, !dbg !2802

bb104:                                            ; preds = %bb76
  %68 = load ptr, ptr %self8, align 8, !dbg !2799, !noundef !13
  store ptr %68, ptr %_99, align 8, !dbg !2799
  %69 = load ptr, ptr %_99, align 8, !dbg !2792, !noundef !13
  store ptr %69, ptr %src7, align 8, !dbg !2792
  store ptr %dim, ptr %dst10, align 8, !dbg !2800
  %70 = load i64, ptr %left, align 8, !dbg !2801, !noundef !13
  store i64 %70, ptr %count11, align 8, !dbg !2801
  br label %bb82, !dbg !2802

bb109:                                            ; preds = %bb82
  %71 = load i64, ptr %count15, align 8, !dbg !2809, !noundef !13
  store i64 %71, ptr %_188, align 8, !dbg !2809
  %72 = load i64, ptr %_188, align 8, !dbg !2810, !noundef !13
  %73 = sub nsw i64 0, %72, !dbg !2810
  store i64 %73, ptr %count19, align 8, !dbg !2810
  %74 = load ptr, ptr %self14, align 8, !dbg !2811, !noundef !13
  %75 = load i64, ptr %count19, align 8, !dbg !2811, !noundef !13
  %76 = getelementptr inbounds i64, ptr %74, i64 %75, !dbg !2811
  store ptr %76, ptr %dst13, align 8, !dbg !2811
  %77 = load i64, ptr %right, align 8, !dbg !2814, !noundef !13
  store i64 %77, ptr %count16, align 8, !dbg !2814
  br label %bb87, !dbg !2815

bb108:                                            ; preds = %bb82
  %78 = load ptr, ptr %self14, align 8, !dbg !2813, !noundef !13
  store ptr %78, ptr %dst13, align 8, !dbg !2813
  %79 = load i64, ptr %right, align 8, !dbg !2814, !noundef !13
  store i64 %79, ptr %count16, align 8, !dbg !2814
  br label %bb87, !dbg !2815

bb88:                                             ; preds = %bb87
  %80 = load ptr, ptr %dst13, align 8, !dbg !2817, !noundef !13
  %81 = load ptr, ptr %src12, align 8, !dbg !2817, !noundef !13
  %82 = load i64, ptr %count16, align 8, !dbg !2817, !noundef !13
  %83 = mul i64 %82, 8, !dbg !2817
  call void @llvm.memcpy.p0.p0.i64(ptr align 8 %80, ptr align 8 %81, i64 %83, i1 false), !dbg !2817
  br label %bb33, !dbg !2818

bb33:                                             ; preds = %bb75, %bb88
  br label %bb46, !dbg !2649

bb64:                                             ; preds = %bb31
  %count55 = sub nsw i64 0, %count53, !dbg !2819
  store i64 %count55, ptr %count.dbg.spill56, align 8, !dbg !2819
  call void @llvm.dbg.declare(metadata ptr %count.dbg.spill56, metadata !2578, metadata !DIExpression()), !dbg !2820
  %84 = getelementptr inbounds i64, ptr %self51, i64 %count55, !dbg !2821
  store ptr %84, ptr %_80, align 8, !dbg !2821
  br label %bb65, !dbg !2822

bb65:                                             ; preds = %bb63, %bb64
  %src57 = load ptr, ptr %_80, align 8, !dbg !2783, !noundef !13
  store ptr %src57, ptr %src.dbg.spill58, align 8, !dbg !2783
  call void @llvm.dbg.declare(metadata ptr %src.dbg.spill58, metadata !2603, metadata !DIExpression()), !dbg !2823
  %count59 = load i64, ptr %left, align 8, !dbg !2824, !noundef !13
  store i64 %count59, ptr %count.dbg.spill60, align 8, !dbg !2824
  call void @llvm.dbg.declare(metadata ptr %count.dbg.spill60, metadata !2606, metadata !DIExpression()), !dbg !2825
  br label %bb66, !dbg !2826

bb63:                                             ; No predecessors!
  store ptr %self51, ptr %_80, align 8, !dbg !2827
  br label %bb65, !dbg !2822

bb66:                                             ; preds = %bb65
; call core::intrinsics::copy_nonoverlapping::precondition_check
  call void @_ZN4core10intrinsics19copy_nonoverlapping18precondition_check17heb665b386cf8b624E(ptr %src57, ptr %rawarray, i64 8, i64 8, i64 %count59) #12, !dbg !2826
  %85 = mul i64 %count59, 8, !dbg !2828
  call void @llvm.memcpy.p0.p0.i64(ptr align 8 %rawarray, ptr align 8 %src57, i64 %85, i1 false), !dbg !2828
  %86 = load ptr, ptr %mid, align 8, !dbg !2829, !noundef !13
  store ptr %86, ptr %_86, align 8, !dbg !2829
  %87 = load ptr, ptr %_86, align 8, !dbg !2829, !noundef !13
  store ptr %87, ptr %src, align 8, !dbg !2829
  %88 = load ptr, ptr %mid, align 8, !dbg !2830, !noundef !13
  store ptr %88, ptr %self2, align 8, !dbg !2830
  %89 = load i64, ptr %left, align 8, !dbg !2831, !noundef !13
  store i64 %89, ptr %count, align 8, !dbg !2831
  store i8 0, ptr %_163, align 1, !dbg !2832
  %90 = load i8, ptr %_163, align 1, !dbg !2832, !range !259, !noundef !13
  %91 = trunc i8 %90 to i1, !dbg !2832
  br i1 %91, label %bb99, label %bb100, !dbg !2832

bb67:                                             ; No predecessors!
  %92 = mul i64 %count59, 8, !dbg !2828
  call void @llvm.memcpy.p0.p0.i64(ptr align 8 %rawarray, ptr align 8 %src57, i64 %92, i1 false), !dbg !2828
  %93 = load ptr, ptr %mid, align 8, !dbg !2829, !noundef !13
  store ptr %93, ptr %_86, align 8, !dbg !2829
  %94 = load ptr, ptr %_86, align 8, !dbg !2829, !noundef !13
  store ptr %94, ptr %src, align 8, !dbg !2829
  %95 = load ptr, ptr %mid, align 8, !dbg !2830, !noundef !13
  store ptr %95, ptr %self2, align 8, !dbg !2830
  %96 = load i64, ptr %left, align 8, !dbg !2831, !noundef !13
  store i64 %96, ptr %count, align 8, !dbg !2831
  store i8 0, ptr %_163, align 1, !dbg !2832
  %97 = load i8, ptr %_163, align 1, !dbg !2832, !range !259, !noundef !13
  %98 = trunc i8 %97 to i1, !dbg !2832
  br i1 %98, label %bb68, label %bb69, !dbg !2832

bb69:                                             ; preds = %bb67
  %99 = load i64, ptr %count, align 8, !dbg !2833, !noundef !13
  store i64 %99, ptr %_165, align 8, !dbg !2833
  %100 = load i64, ptr %_165, align 8, !dbg !2834, !noundef !13
  %101 = sub nsw i64 0, %100, !dbg !2834
  store i64 %101, ptr %count17, align 8, !dbg !2834
  %102 = load ptr, ptr %self2, align 8, !dbg !2835, !noundef !13
  %103 = load i64, ptr %count17, align 8, !dbg !2835, !noundef !13
  %104 = getelementptr inbounds i64, ptr %102, i64 %103, !dbg !2835
  store ptr %104, ptr %dst, align 8, !dbg !2835
  br label %bb70, !dbg !2836

bb68:                                             ; preds = %bb67
  %105 = load ptr, ptr %self2, align 8, !dbg !2837, !noundef !13
  store ptr %105, ptr %dst, align 8, !dbg !2837
  br label %bb70, !dbg !2836

bb70:                                             ; preds = %bb68, %bb69
  %106 = load i64, ptr %right, align 8, !dbg !2838, !noundef !13
  store i64 %106, ptr %count3, align 8, !dbg !2838
  br label %bb72, !dbg !2839

bb72:                                             ; preds = %bb99, %bb100, %bb70
  %_167 = load ptr, ptr %_86, align 8, !dbg !2840, !noundef !13
  %_168 = load ptr, ptr %dst, align 8, !dbg !2841, !noundef !13
; call core::intrinsics::copy::precondition_check
  call void @_ZN4core10intrinsics4copy18precondition_check17h29bb9def86d88c9dE(ptr %_167, ptr %_168, i64 8) #12, !dbg !2839
  %107 = load ptr, ptr %src, align 8, !dbg !2842, !noundef !13
  %108 = load ptr, ptr %dst, align 8, !dbg !2842, !noundef !13
  %109 = load i64, ptr %count3, align 8, !dbg !2842, !noundef !13
  %110 = mul i64 8, %109, !dbg !2842
  call void @llvm.memmove.p0.p0.i64(ptr align 8 %108, ptr align 8 %107, i64 %110, i1 false), !dbg !2842
  store ptr %rawarray, ptr %src4, align 8, !dbg !2843
  store ptr %dim, ptr %dst5, align 8, !dbg !2844
  %111 = load i64, ptr %left, align 8, !dbg !2845, !noundef !13
  store i64 %111, ptr %count6, align 8, !dbg !2845
  br label %bb74, !dbg !2846

bb73:                                             ; No predecessors!
  %112 = load ptr, ptr %src, align 8, !dbg !2842, !noundef !13
  %113 = load ptr, ptr %dst, align 8, !dbg !2842, !noundef !13
  %114 = load i64, ptr %count3, align 8, !dbg !2842, !noundef !13
  %115 = mul i64 8, %114, !dbg !2842
  call void @llvm.memmove.p0.p0.i64(ptr align 8 %113, ptr align 8 %112, i64 %115, i1 false), !dbg !2842
  store ptr %rawarray, ptr %src4, align 8, !dbg !2843
  store ptr %dim, ptr %dst5, align 8, !dbg !2844
  %116 = load i64, ptr %left, align 8, !dbg !2845, !noundef !13
  store i64 %116, ptr %count6, align 8, !dbg !2845
  br label %bb74, !dbg !2846

bb74:                                             ; preds = %bb72, %bb73
  %117 = load i64, ptr %count6, align 8, !dbg !2846, !noundef !13
; call core::intrinsics::copy_nonoverlapping::precondition_check
  call void @_ZN4core10intrinsics19copy_nonoverlapping18precondition_check17heb665b386cf8b624E(ptr %rawarray, ptr %dim, i64 8, i64 8, i64 %117) #12, !dbg !2846
  br label %bb75, !dbg !2846

bb100:                                            ; preds = %bb66
  %118 = load i64, ptr %count, align 8, !dbg !2833, !noundef !13
  store i64 %118, ptr %_165, align 8, !dbg !2833
  %119 = load i64, ptr %_165, align 8, !dbg !2834, !noundef !13
  %120 = sub nsw i64 0, %119, !dbg !2834
  store i64 %120, ptr %count17, align 8, !dbg !2834
  %121 = load ptr, ptr %self2, align 8, !dbg !2835, !noundef !13
  %122 = load i64, ptr %count17, align 8, !dbg !2835, !noundef !13
  %123 = getelementptr inbounds i64, ptr %121, i64 %122, !dbg !2835
  store ptr %123, ptr %dst, align 8, !dbg !2835
  %124 = load i64, ptr %right, align 8, !dbg !2838, !noundef !13
  store i64 %124, ptr %count3, align 8, !dbg !2838
  br label %bb72, !dbg !2839

bb99:                                             ; preds = %bb66
  %125 = load ptr, ptr %self2, align 8, !dbg !2837, !noundef !13
  store ptr %125, ptr %dst, align 8, !dbg !2837
  %126 = load i64, ptr %right, align 8, !dbg !2838, !noundef !13
  store i64 %126, ptr %count3, align 8, !dbg !2838
  br label %bb72, !dbg !2839

bb75:                                             ; preds = %bb74
  %127 = load ptr, ptr %src4, align 8, !dbg !2847, !noundef !13
  %128 = load i64, ptr %count6, align 8, !dbg !2847, !noundef !13
  %129 = mul i64 %128, 8, !dbg !2847
  call void @llvm.memcpy.p0.p0.i64(ptr align 8 %dim, ptr align 8 %127, i64 %129, i1 false), !dbg !2847
  br label %bb33, !dbg !2818

bb46:                                             ; preds = %bb57, %bb33
  br label %bb47, !dbg !2649

bb11:                                             ; preds = %bb9
  %self61 = load ptr, ptr %mid, align 8, !dbg !2848, !noundef !13
  store ptr %self61, ptr %self.dbg.spill62, align 8, !dbg !2848
  call void @llvm.dbg.declare(metadata ptr %self.dbg.spill62, metadata !2536, metadata !DIExpression()), !dbg !2849
  call void @llvm.dbg.declare(metadata ptr %self.dbg.spill62, metadata !2570, metadata !DIExpression()), !dbg !2851
  %count63 = load i64, ptr %left, align 8, !dbg !2853, !noundef !13
  store i64 %count63, ptr %count.dbg.spill64, align 8, !dbg !2853
  call void @llvm.dbg.declare(metadata ptr %count.dbg.spill64, metadata !2538, metadata !DIExpression()), !dbg !2854
  br label %bb52, !dbg !2855

bb52:                                             ; preds = %bb11
  %count65 = sub nsw i64 0, %count63, !dbg !2856
  store i64 %count65, ptr %count.dbg.spill66, align 8, !dbg !2856
  call void @llvm.dbg.declare(metadata ptr %count.dbg.spill66, metadata !2572, metadata !DIExpression()), !dbg !2857
  %130 = getelementptr inbounds i64, ptr %self61, i64 %count65, !dbg !2858
  store ptr %130, ptr %x, align 8, !dbg !2858
  br label %bb53, !dbg !2859

bb53:                                             ; preds = %bb51, %bb52
  %self67 = load ptr, ptr %x, align 8, !dbg !2860, !noundef !13
  store ptr %self67, ptr %self.dbg.spill68, align 8, !dbg !2860
  call void @llvm.dbg.declare(metadata ptr %self.dbg.spill68, metadata !2861, metadata !DIExpression()), !dbg !2869
  store ptr %self67, ptr %src.dbg.spill69, align 8, !dbg !2871
  call void @llvm.dbg.declare(metadata ptr %src.dbg.spill69, metadata !2872, metadata !DIExpression()), !dbg !2878
  %131 = load i64, ptr %self67, align 8, !dbg !2880, !noundef !13
  store i64 %131, ptr %tmp, align 8, !dbg !2880
  %132 = load i64, ptr %right, align 8, !dbg !2881, !noundef !13
  store i64 %132, ptr %i, align 8, !dbg !2881
  %133 = load i64, ptr %right, align 8, !dbg !2882, !noundef !13
  store i64 %133, ptr %gcd, align 8, !dbg !2882
  br label %bb12, !dbg !2883

bb51:                                             ; No predecessors!
  store ptr %self61, ptr %x, align 8, !dbg !2884
  br label %bb53, !dbg !2859

bb12:                                             ; preds = %bb20, %bb53
  %self70 = load ptr, ptr %x, align 8, !dbg !2885, !noundef !13
  store ptr %self70, ptr %self.dbg.spill71, align 8, !dbg !2885
  call void @llvm.dbg.declare(metadata ptr %self.dbg.spill71, metadata !2501, metadata !DIExpression()), !dbg !2886
  %count72 = load i64, ptr %i, align 8, !dbg !2888, !noundef !13
  store i64 %count72, ptr %count.dbg.spill73, align 8, !dbg !2888
  call void @llvm.dbg.declare(metadata ptr %count.dbg.spill73, metadata !2503, metadata !DIExpression()), !dbg !2889
  %self74 = getelementptr inbounds i64, ptr %self70, i64 %count72, !dbg !2890
  store ptr %self74, ptr %self.dbg.spill75, align 8, !dbg !2890
  call void @llvm.dbg.declare(metadata ptr %self.dbg.spill75, metadata !2891, metadata !DIExpression()), !dbg !2899
  store i8 0, ptr %_138, align 1, !dbg !2901
  %src76 = load i64, ptr %tmp, align 8, !dbg !2901, !noundef !13
  store i64 %src76, ptr %src.dbg.spill77, align 8, !dbg !2901
  call void @llvm.dbg.declare(metadata ptr %src.dbg.spill77, metadata !2895, metadata !DIExpression()), !dbg !2902
; invoke core::ptr::replace
  %_20 = invoke i64 @_ZN4core3ptr7replace17h648af411ece96d88E(ptr %self74, i64 %src76)
          to label %bb54 unwind label %cleanup.loopexit.split-lp.loopexit.split-lp, !dbg !2903

bb50:                                             ; preds = %cleanup
  %134 = load i8, ptr %_138, align 1, !dbg !2904, !range !259, !noundef !13
  %135 = trunc i8 %134 to i1, !dbg !2904
  br i1 %135, label %bb49, label %bb48, !dbg !2904

cleanup.loopexit:                                 ; preds = %bb22
  %lpad.loopexit = landingpad { ptr, i32 }
          cleanup
  br label %cleanup

cleanup.loopexit.split-lp.loopexit:               ; preds = %bb55
