; ModuleID = '3o01now2fbcu6ycw'
source_filename = "3o01now2fbcu6ycw"
target datalayout = "e-m:o-i64:64-i128:128-n32:64-S128"
target triple = "arm64-apple-macosx11.0.0"

%"unix::group" = type { ptr, ptr, i32, [1 x i32], ptr }
%"unix::rusage" = type { %"unix::timeval", %"unix::timeval", i64, i64, i64, i64, i64, i64, i64, i64, i64, i64, i64, i64, i64, i64 }
%"unix::timeval" = type { i64, i32, [1 x i32] }
%"unix::ipv6_mreq" = type { %"unix::align::in6_addr", i32 }
%"unix::align::in6_addr" = type { [16 x i8] }
%"unix::hostent" = type { ptr, ptr, i32, i32, ptr }
%"unix::pollfd" = type { i32, i16, i16 }
%"unix::winsize" = type { i16, i16, i16, i16 }
%"unix::sigval" = type { ptr }
%"unix::itimerval" = type { %"unix::timeval", %"unix::timeval" }
%"unix::tms" = type { i64, i64, i64, i64 }
%"unix::servent" = type { ptr, ptr, i32, [1 x i32], ptr }
%"unix::protoent" = type { ptr, ptr, i32, [1 x i32] }
%"unix::bsd::sockaddr" = type { i8, i8, [14 x i8] }
%"unix::bsd::sockaddr_in6" = type { i8, i8, i16, i32, %"unix::align::in6_addr", i32 }
%"unix::bsd::passwd" = type { ptr, ptr, i32, i32, i64, ptr, ptr, ptr, ptr, i64 }
%"unix::bsd::ifaddrs" = type { ptr, ptr, i32, [1 x i32], ptr, ptr, ptr, ptr }
%"unix::bsd::fd_set" = type { [32 x i32] }
%"unix::bsd::tm" = type { i32, i32, i32, i32, i32, i32, i32, i32, i32, [1 x i32], i64, ptr }
%"unix::bsd::msghdr" = type { ptr, i32, [1 x i32], ptr, i32, [1 x i32], ptr, i32, i32 }
%"unix::bsd::cmsghdr" = type { i32, i32, i32 }
%"unix::bsd::fsid_t" = type { [2 x i32] }
%"unix::bsd::regex_t" = type { i32, [1 x i32], i64, ptr, ptr }
%"unix::bsd::option" = type { ptr, i32, [1 x i32], ptr, i32, [1 x i32] }
%"unix::bsd::sockaddr_un" = type { i8, i8, [104 x i8] }
%"unix::bsd::utsname" = type { [256 x i8], [256 x i8], [256 x i8], [256 x i8], [256 x i8] }
%"unix::bsd::apple::ip_mreq" = type { %"unix::bsd::apple::in_addr", %"unix::bsd::apple::in_addr" }
%"unix::bsd::apple::in_addr" = type { i32 }
%"unix::bsd::apple::ip_mreqn" = type { %"unix::bsd::apple::in_addr", %"unix::bsd::apple::in_addr", i32 }
%"unix::bsd::apple::ip_mreq_source" = type { %"unix::bsd::apple::in_addr", %"unix::bsd::apple::in_addr", %"unix::bsd::apple::in_addr" }
%"unix::bsd::apple::aiocb" = type { i32, [1 x i32], i64, ptr, i64, i32, [1 x i32], %"unix::bsd::apple::sigevent", i32, [1 x i32] }
%"unix::bsd::apple::sigevent" = type { i32, i32, %"unix::sigval", ptr, ptr }
%"unix::bsd::apple::glob_t" = type { i64, i32, [1 x i32], i64, i32, [1 x i32], ptr, ptr, ptr, ptr, ptr, ptr, ptr }
%"unix::bsd::apple::addrinfo" = type { i32, i32, i32, i32, i32, [1 x i32], ptr, ptr, ptr }
%"unix::bsd::apple::stat" = type { i32, i16, i16, i64, i32, i32, i32, [1 x i32], i64, i64, i64, i64, i64, i64, i64, i64, i64, i64, i32, i32, i32, i32, [2 x i64] }
%"unix::bsd::apple::pthread_mutexattr_t" = type { i64, [8 x i8] }
%"unix::bsd::apple::pthread_condattr_t" = type { i64, [8 x i8] }
%"unix::bsd::apple::pthread_rwlockattr_t" = type { i64, [16 x i8] }
%"unix::bsd::apple::siginfo_t" = type { i32, i32, i32, i32, i32, i32, ptr, [9 x i64] }
%"unix::bsd::apple::sigaction" = type { i64, i32, i32 }
%"unix::bsd::apple::stack_t" = type { ptr, i64, i32, [1 x i32] }
%"unix::bsd::apple::fstore_t" = type { i32, i32, i64, i64, i64 }
%"unix::bsd::apple::fpunchhole_t" = type { i32, i32, i64, i64 }
%"unix::bsd::apple::fspecread_t" = type { i32, i32, i64, i64 }
%"unix::bsd::apple::statvfs" = type { i64, i64, i32, i32, i32, i32, i32, i32, i64, i64, i64 }
%"unix::bsd::apple::Dl_info" = type { ptr, ptr, ptr, ptr }
%"unix::bsd::apple::sockaddr_in" = type { i8, i8, i16, %"unix::bsd::apple::in_addr", [8 x i8] }
%"unix::bsd::apple::kevent64_s" = type { i64, i16, i16, i32, i64, i64, [2 x i64] }
%"unix::bsd::apple::dqblk" = type { i64, i64, i64, i32, i32, i32, i32, i32, i32, [4 x i32] }
%"unix::bsd::apple::if_msghdr" = type { i16, i8, i8, i32, i32, i16, [1 x i16], %"unix::bsd::apple::b64::if_data" }
%"unix::bsd::apple::b64::if_data" = type { i8, i8, i8, i8, i8, i8, i8, i8, i32, i32, i32, i32, i32, i32, i32, i32, i32, i32, i32, i32, i32, i32, i32, i32, %"unix::bsd::apple::b64::timeval32", i32, i32, i32, i32 }
%"unix::bsd::apple::b64::timeval32" = type { i32, i32 }
%"unix::bsd::apple::ifa_msghdr" = type { i16, i8, i8, i32, i32, i16, [1 x i16], i32 }
%"unix::bsd::apple::ifma_msghdr" = type { i16, i8, i8, i32, i32, i16, [1 x i16] }
%"unix::bsd::apple::ifma_msghdr2" = type { i16, i8, i8, i32, i32, i16, [1 x i16], i32 }
%"unix::bsd::apple::rt_metrics" = type { i32, i32, i32, i32, i32, i32, i32, i32, i32, i32, i32, [3 x i32] }
%"unix::bsd::apple::rt_msghdr" = type { i16, i8, i8, i16, [1 x i16], i32, i32, i32, i32, i32, i32, i32, %"unix::bsd::apple::rt_metrics" }
%"unix::bsd::apple::rt_msghdr2" = type { i16, i8, i8, i16, [1 x i16], i32, i32, i32, i32, i32, i32, i32, %"unix::bsd::apple::rt_metrics" }
%"unix::bsd::apple::termios" = type { i64, i64, i64, i64, [20 x i8], [4 x i8], i64, i64 }
%"unix::bsd::apple::flock" = type { i64, i64, i32, i16, i16 }
%"unix::bsd::apple::sf_hdtr" = type { ptr, i32, [1 x i32], ptr, i32, [1 x i32] }
%"unix::bsd::apple::lconv" = type { ptr, ptr, ptr, ptr, ptr, ptr, ptr, ptr, ptr, ptr, i8, i8, i8, i8, i8, i8, i8, i8, i8, i8, i8, i8, i8, i8, [2 x i8] }
%"unix::bsd::apple::proc_taskinfo" = type { i64, i64, i64, i64, i64, i64, i32, i32, i32, i32, i32, i32, i32, i32, i32, i32, i32, i32 }
%"unix::bsd::apple::proc_bsdinfo" = type { i32, i32, i32, i32, i32, i32, i32, i32, i32, i32, i32, i32, [16 x i8], [32 x i8], i32, i32, i32, i32, i32, i32, i64, i64 }
%"unix::bsd::apple::proc_taskallinfo" = type { %"unix::bsd::apple::proc_bsdinfo", %"unix::bsd::apple::proc_taskinfo" }
%"unix::bsd::apple::xsw_usage" = type { i64, i64, i64, i32, i32 }
%"unix::bsd::apple::xucred" = type { i32, i32, i16, [1 x i16], [16 x i32] }
%"unix::bsd::apple::segment_command" = type { i32, i32, [16 x i8], i32, i32, i32, i32, i32, i32, i32, i32 }
%"unix::bsd::apple::segment_command_64" = type { i32, i32, [16 x i8], i64, i64, i64, i64, i32, i32, i32, i32 }
%"unix::bsd::apple::sockaddr_dl" = type { i8, i8, i16, i8, i8, i8, i8, [12 x i8] }
%"unix::bsd::apple::sockaddr_inarp" = type { i8, i8, i16, %"unix::bsd::apple::in_addr", %"unix::bsd::apple::in_addr", i16, i16 }
%"unix::bsd::apple::sockaddr_ctl" = type { i8, i8, i16, i32, i32, [5 x i32] }
%"unix::bsd::apple::in_pktinfo" = type { i32, %"unix::bsd::apple::in_addr", %"unix::bsd::apple::in_addr" }
%"unix::bsd::apple::in6_pktinfo" = type { %"unix::align::in6_addr", i32 }
%"unix::bsd::apple::ipc_perm" = type { i32, i32, i32, i32, i16, i16, i32 }
%"unix::bsd::apple::sembuf" = type { i16, i16, i16 }
%"unix::bsd::apple::arphdr" = type { i16, i16, i8, i8, i16 }
%"unix::bsd::apple::sockaddr_ndrv" = type { i8, i8, [16 x i8] }
%"unix::bsd::apple::sa_endpoints_t" = type { i32, [1 x i32], ptr, i32, [1 x i32], ptr, i32, [1 x i32] }
%"unix::bsd::apple::timex" = type { i32, [1 x i32], i64, i64, i64, i64, i32, [1 x i32], i64, i64, i64, i64, i64, i32, [1 x i32], i64, i64, i64, i64, i64 }
%"unix::bsd::apple::ntptimeval" = type { %"unix::timespec", i64, i64, i64, i32, [1 x i32] }
%"unix::timespec" = type { i64, i64 }
%"unix::bsd::apple::thread_standard_policy" = type { i32 }
%"unix::bsd::apple::thread_extended_policy" = type { i32 }
%"unix::bsd::apple::thread_time_constraint_policy" = type { i32, i32, i32, i32 }
%"unix::bsd::apple::thread_precedence_policy" = type { i32 }
%"unix::bsd::apple::thread_affinity_policy" = type { i32 }
%"unix::bsd::apple::thread_background_policy" = type { i32 }
%"unix::bsd::apple::thread_latency_qos_policy" = type { i32 }
%"unix::bsd::apple::thread_throughput_qos_policy" = type { i32 }
%"unix::bsd::apple::malloc_statistics_t" = type { i32, [1 x i32], i64, i64, i64 }
%"unix::bsd::apple::mstats" = type { i64, i64, i64, i64, i64 }
%"unix::bsd::apple::sched_param" = type { i32, [4 x i8] }
%"unix::bsd::apple::vinfo_stat" = type { i32, i16, i16, i64, i32, i32, i64, i64, i64, i64, i64, i64, i64, i64, i64, i64, i32, i32, i32, i32, [2 x i64] }
%"unix::bsd::apple::vnode_info" = type { %"unix::bsd::apple::vinfo_stat", i32, i32, %"unix::bsd::fsid_t" }
%"unix::bsd::apple::vnode_info_path" = type { %"unix::bsd::apple::vnode_info", [32 x [32 x i8]] }
%"unix::bsd::apple::proc_vnodepathinfo" = type { %"unix::bsd::apple::vnode_info_path", %"unix::bsd::apple::vnode_info_path" }
%"unix::bsd::apple::vm_statistics" = type { i32, i32, i32, i32, i32, i32, i32, i32, i32, i32, i32, i32, i32, i32, i32 }
%"unix::bsd::apple::task_thread_times_info" = type { %"unix::bsd::apple::time_value_t", %"unix::bsd::apple::time_value_t" }
%"unix::bsd::apple::time_value_t" = type { i32, i32 }
%"unix::bsd::apple::rusage_info_v0" = type { [16 x i8], i64, i64, i64, i64, i64, i64, i64, i64, i64, i64 }
%"unix::bsd::apple::rusage_info_v1" = type { [16 x i8], i64, i64, i64, i64, i64, i64, i64, i64, i64, i64, i64, i64, i64, i64, i64, i64 }
%"unix::bsd::apple::rusage_info_v2" = type { [16 x i8], i64, i64, i64, i64, i64, i64, i64, i64, i64, i64, i64, i64, i64, i64, i64, i64, i64, i64 }
%"unix::bsd::apple::rusage_info_v3" = type { [16 x i8], i64, i64, i64, i64, i64, i64, i64, i64, i64, i64, i64, i64, i64, i64, i64, i64, i64, i64, i64, i64, i64, i64, i64, i64, i64, i64, i64 }
%"unix::bsd::apple::rusage_info_v4" = type { [16 x i8], i64, i64, i64, i64, i64, i64, i64, i64, i64, i64, i64, i64, i64, i64, i64, i64, i64, i64, i64, i64, i64, i64, i64, i64, i64, i64, i64, i64, i64, i64, i64, i64, i64, i64, i64 }
%"unix::bsd::apple::image_offset" = type { [16 x i8], i32 }
%"unix::bsd::apple::attrlist" = type { i16, i16, i32, i32, i32, i32, i32 }
%"unix::bsd::apple::vol_capabilities_attr_t" = type { [4 x i32], [4 x i32] }
%"unix::bsd::apple::attribute_set_t" = type { i32, i32, i32, i32, i32 }
%"unix::bsd::apple::vol_attributes_attr_t" = type { %"unix::bsd::apple::attribute_set_t", %"unix::bsd::apple::attribute_set_t" }
%"unix::bsd::apple::ifconf" = type <{ i32, %"unix::bsd::apple::__c_anonymous_ifc_ifcu" }>
%"unix::bsd::apple::__c_anonymous_ifc_ifcu" = type { [1 x i64] }
%"unix::bsd::apple::tcp_connection_info" = type { i8, i8, i8, i8, i32, i32, i32, i32, i32, i32, i32, i32, i32, i32, i32, i32, i32, i32, i32, i32, i32, i32, i32, i32, i32, i32, i32, i32, i32, i32, i32, i32, [1 x i32], i64, i64, i64, i64, i64, i64, i64 }
%"unix::bsd::apple::kevent" = type <{ i64, i16, i16, i32, i64, ptr }>
%"unix::bsd::apple::semid_ds" = type <{ %"unix::bsd::apple::ipc_perm", i32, i16, [1 x i16], i64, i32, i64, i32, [4 x i32] }>
%"unix::bsd::apple::shmid_ds" = type <{ %"unix::bsd::apple::ipc_perm", i64, i32, i32, i16, [1 x i16], i64, i64, i64, ptr }>
%"unix::bsd::apple::proc_threadinfo" = type { i64, i64, i32, i32, i32, i32, i32, i32, i32, i32, [64 x i8] }
%"unix::bsd::apple::statfs" = type { i32, i32, i64, i64, i64, i64, i64, %"unix::bsd::fsid_t", i32, i32, i32, i32, [16 x i8], [1024 x i8], [1024 x i8], i32, [7 x i32] }
%"unix::bsd::apple::dirent" = type { i64, i64, i16, i16, i8, [1024 x i8], [3 x i8] }
%"unix::bsd::apple::pthread_rwlock_t" = type { i64, [192 x i8] }
%"unix::bsd::apple::pthread_mutex_t" = type { i64, [56 x i8] }
%"unix::bsd::apple::pthread_cond_t" = type { i64, [40 x i8] }
%"unix::bsd::apple::sockaddr_storage" = type { i8, i8, [6 x i8], i64, [112 x i8] }
%"unix::bsd::apple::utmpx" = type { [256 x i8], [4 x i8], [32 x i8], i32, i16, [3 x i16], %"unix::timeval", [256 x i8], [16 x i32] }
%"unix::bsd::apple::processor_cpu_load_info" = type { [4 x i32] }
%"unix::bsd::apple::processor_basic_info" = type { i32, i32, i32, i32, i32 }
%"unix::bsd::apple::processor_set_load_info" = type { i32, i32, i32, i32 }
%"unix::bsd::apple::thread_basic_info" = type { %"unix::bsd::apple::time_value_t", %"unix::bsd::apple::time_value_t", i32, i32, i32, i32, i32, i32 }
%"unix::bsd::apple::thread_identifier_info" = type { i64, i64, i64 }
%"unix::bsd::apple::thread_extended_info" = type { i64, i64, i32, i32, i32, i32, i32, i32, i32, i32, [64 x i8] }
%"unix::bsd::apple::if_data64" = type <{ i8, i8, i8, i8, i8, i8, i8, i8, i32, i32, i64, i64, i64, i64, i64, i64, i64, i64, i64, i64, i64, i64, i32, i32, %"unix::bsd::apple::b64::timeval32" }>
%"unix::bsd::apple::if_msghdr2" = type { i16, i8, i8, i32, i32, i16, [1 x i16], i32, i32, i32, i32, %"unix::bsd::apple::if_data64" }
%"unix::bsd::apple::vm_statistics64" = type { i32, i32, i32, i32, i64, i64, i64, i64, i64, i64, i64, i64, i64, i32, i32, i64, i64, i64, i64, i32, i32, i32, i32, i64 }
%"unix::bsd::apple::mach_task_basic_info" = type <{ i64, i64, i64, %"unix::bsd::apple::time_value_t", %"unix::bsd::apple::time_value_t", i32, i32 }>
%"unix::bsd::apple::log2phys" = type <{ i32, i64, i64 }>
%"unix::bsd::apple::os_unfair_lock_s" = type { i32 }
%"unix::bsd::apple::sockaddr_vm" = type <{ i8, i8, i16, i32, i32 }>
%"unix::bsd::apple::ifdevmtu" = type { i32, i32, i32 }
%"unix::bsd::apple::__c_anonymous_ifk_data" = type { [1 x i64] }
%"unix::bsd::apple::ifkpi" = type <{ i32, i32, %"unix::bsd::apple::__c_anonymous_ifk_data" }>
%"unix::bsd::apple::__c_anonymous_ifr_ifru" = type { [2 x i64] }
%"unix::bsd::apple::ifreq" = type { [16 x i8], %"unix::bsd::apple::__c_anonymous_ifr_ifru" }
%"unix::bsd::apple::semun" = type { [1 x i64] }
%"unix::bsd::apple::b64::bpf_hdr" = type { %"unix::bsd::apple::b64::timeval32", i32, i32, i16, [1 x i16] }
%"unix::bsd::apple::b64::pthread_attr_t" = type { i64, [56 x i8] }
%"unix::bsd::apple::b64::aarch64::malloc_zone_t" = type { [18 x i64] }
%"unix::bsd::apple::b64::aarch64::align::max_align_t" = type { double }
%"unix::bsd::apple::b64::aarch64::align::ucontext_t" = type { i32, i32, %"unix::bsd::apple::stack_t", ptr, i64, ptr }
%"unix::bsd::apple::b64::aarch64::align::__darwin_mcontext64" = type { %"unix::bsd::apple::b64::aarch64::align::__darwin_arm_exception_state64", %"unix::bsd::apple::b64::aarch64::align::__darwin_arm_thread_state64", %"unix::bsd::apple::b64::aarch64::align::__darwin_arm_neon_state64" }
%"unix::bsd::apple::b64::aarch64::align::__darwin_arm_exception_state64" = type { i64, i32, i32 }
%"unix::bsd::apple::b64::aarch64::align::__darwin_arm_thread_state64" = type { [29 x i64], i64, i64, i64, i64, i32, i32 }
%"unix::bsd::apple::b64::aarch64::align::__darwin_arm_neon_state64" = type { [32 x i128], i32, i32, [2 x i32] }
%"unix::bsd::apple::long_array::ctl_info" = type { i32, [96 x i8] }

@alloc_ed9efc7e6f9b76bf7cb03f385cb0e879 = private unnamed_addr constant <{ [25 x i8] }> <{ [25 x i8] c"src/unix/bsd/apple/mod.rs" }>, align 1
@alloc_2714d36b3b07dbc721cb5f46b1aeb5a9 = private unnamed_addr constant <{ ptr, [16 x i8] }> <{ ptr @alloc_ed9efc7e6f9b76bf7cb03f385cb0e879, [16 x i8] c"\19\00\00\00\00\00\00\00\9C\14\00\00\05\00\00\00" }>, align 8
@str.0 = internal unnamed_addr constant [28 x i8] c"attempt to add with overflow"
@mach_task_self_ = external global i32

; <libc::unix::group as core::clone::Clone>::clone
; Function Attrs: uwtable
define void @"_ZN56_$LT$libc..unix..group$u20$as$u20$core..clone..Clone$GT$5clone17h563995e0cdcc0570E"(ptr sret(%"unix::group") align 8 %_0, ptr align 8 %self) unnamed_addr #0 !dbg !61 {
start:
  %self.dbg.spill = alloca ptr, align 8
  store ptr %self, ptr %self.dbg.spill, align 8
  call void @llvm.dbg.declare(metadata ptr %self.dbg.spill, metadata !78, metadata !DIExpression()), !dbg !79
  call void @llvm.memcpy.p0.p0.i64(ptr align 8 %_0, ptr align 8 %self, i64 32, i1 false), !dbg !80
  ret void, !dbg !81
}

; <libc::unix::utimbuf as core::clone::Clone>::clone
; Function Attrs: uwtable
define { i64, i64 } @"_ZN58_$LT$libc..unix..utimbuf$u20$as$u20$core..clone..Clone$GT$5clone17h424c4c045d682301E"(ptr align 8 %self) unnamed_addr #0 !dbg !82 {
start:
  %self.dbg.spill = alloca ptr, align 8
  store ptr %self, ptr %self.dbg.spill, align 8
  call void @llvm.dbg.declare(metadata ptr %self.dbg.spill, metadata !93, metadata !DIExpression()), !dbg !94
  %_0.0 = load i64, ptr %self, align 8, !dbg !95, !noundef !75
  %0 = getelementptr inbounds i8, ptr %self, i64 8, !dbg !95
  %_0.1 = load i64, ptr %0, align 8, !dbg !95, !noundef !75
  %1 = insertvalue { i64, i64 } poison, i64 %_0.0, 0, !dbg !96
  %2 = insertvalue { i64, i64 } %1, i64 %_0.1, 1, !dbg !96
  ret { i64, i64 } %2, !dbg !96
}

; <libc::unix::timeval as core::clone::Clone>::clone
; Function Attrs: uwtable
define { i64, i32 } @"_ZN58_$LT$libc..unix..timeval$u20$as$u20$core..clone..Clone$GT$5clone17hed3b0f095623fd46E"(ptr align 8 %self) unnamed_addr #0 !dbg !97 {
start:
  %self.dbg.spill = alloca ptr, align 8
  store ptr %self, ptr %self.dbg.spill, align 8
  call void @llvm.dbg.declare(metadata ptr %self.dbg.spill, metadata !108, metadata !DIExpression()), !dbg !109
  %_0.0 = load i64, ptr %self, align 8, !dbg !110, !noundef !75
  %0 = getelementptr inbounds i8, ptr %self, i64 8, !dbg !110
  %_0.1 = load i32, ptr %0, align 8, !dbg !110, !noundef !75
  %1 = insertvalue { i64, i32 } poison, i64 %_0.0, 0, !dbg !111
  %2 = insertvalue { i64, i32 } %1, i32 %_0.1, 1, !dbg !111
  ret { i64, i32 } %2, !dbg !111
}

; <libc::unix::timespec as core::clone::Clone>::clone
; Function Attrs: uwtable
define { i64, i64 } @"_ZN59_$LT$libc..unix..timespec$u20$as$u20$core..clone..Clone$GT$5clone17h4ccaa316fb219f4aE"(ptr align 8 %self) unnamed_addr #0 !dbg !112 {
start:
  %self.dbg.spill = alloca ptr, align 8
  store ptr %self, ptr %self.dbg.spill, align 8
  call void @llvm.dbg.declare(metadata ptr %self.dbg.spill, metadata !122, metadata !DIExpression()), !dbg !123
  %_0.0 = load i64, ptr %self, align 8, !dbg !124, !noundef !75
  %0 = getelementptr inbounds i8, ptr %self, i64 8, !dbg !124
  %_0.1 = load i64, ptr %0, align 8, !dbg !124, !noundef !75
  %1 = insertvalue { i64, i64 } poison, i64 %_0.0, 0, !dbg !125
  %2 = insertvalue { i64, i64 } %1, i64 %_0.1, 1, !dbg !125
  ret { i64, i64 } %2, !dbg !125
}

; <libc::unix::rlimit as core::clone::Clone>::clone
; Function Attrs: uwtable
define { i64, i64 } @"_ZN57_$LT$libc..unix..rlimit$u20$as$u20$core..clone..Clone$GT$5clone17h3cb49cb0708d47f9E"(ptr align 8 %self) unnamed_addr #0 !dbg !126 {
start:
  %self.dbg.spill = alloca ptr, align 8
  store ptr %self, ptr %self.dbg.spill, align 8
  call void @llvm.dbg.declare(metadata ptr %self.dbg.spill, metadata !137, metadata !DIExpression()), !dbg !138
  %_0.0 = load i64, ptr %self, align 8, !dbg !139, !noundef !75
  %0 = getelementptr inbounds i8, ptr %self, i64 8, !dbg !139
  %_0.1 = load i64, ptr %0, align 8, !dbg !139, !noundef !75
  %1 = insertvalue { i64, i64 } poison, i64 %_0.0, 0, !dbg !140
  %2 = insertvalue { i64, i64 } %1, i64 %_0.1, 1, !dbg !140
  ret { i64, i64 } %2, !dbg !140
}

; <libc::unix::rusage as core::clone::Clone>::clone
; Function Attrs: uwtable
define void @"_ZN57_$LT$libc..unix..rusage$u20$as$u20$core..clone..Clone$GT$5clone17h4c7846c379e8acdbE"(ptr sret(%"unix::rusage") align 8 %_0, ptr align 8 %self) unnamed_addr #0 !dbg !141 {
start:
  %self.dbg.spill = alloca ptr, align 8
  store ptr %self, ptr %self.dbg.spill, align 8
  call void @llvm.dbg.declare(metadata ptr %self.dbg.spill, metadata !165, metadata !DIExpression()), !dbg !166
  call void @llvm.memcpy.p0.p0.i64(ptr align 8 %_0, ptr align 8 %self, i64 144, i1 false), !dbg !167
  ret void, !dbg !168
}

; <libc::unix::ipv6_mreq as core::clone::Clone>::clone
; Function Attrs: uwtable
define void @"_ZN60_$LT$libc..unix..ipv6_mreq$u20$as$u20$core..clone..Clone$GT$5clone17h28f112f5323dfee2E"(ptr sret(%"unix::ipv6_mreq") align 4 %_0, ptr align 4 %self) unnamed_addr #0 !dbg !169 {
start:
  %self.dbg.spill = alloca ptr, align 8
  store ptr %self, ptr %self.dbg.spill, align 8
  call void @llvm.dbg.declare(metadata ptr %self.dbg.spill, metadata !186, metadata !DIExpression()), !dbg !187
  call void @llvm.memcpy.p0.p0.i64(ptr align 4 %_0, ptr align 4 %self, i64 20, i1 false), !dbg !188
  ret void, !dbg !189
}

; <libc::unix::hostent as core::clone::Clone>::clone
; Function Attrs: uwtable
define void @"_ZN58_$LT$libc..unix..hostent$u20$as$u20$core..clone..Clone$GT$5clone17h89b254619c21aa8eE"(ptr sret(%"unix::hostent") align 8 %_0, ptr align 8 %self) unnamed_addr #0 !dbg !190 {
start:
  %self.dbg.spill = alloca ptr, align 8
  store ptr %self, ptr %self.dbg.spill, align 8
  call void @llvm.dbg.declare(metadata ptr %self.dbg.spill, metadata !203, metadata !DIExpression()), !dbg !204
  call void @llvm.memcpy.p0.p0.i64(ptr align 8 %_0, ptr align 8 %self, i64 32, i1 false), !dbg !205
  ret void, !dbg !206
}

; <libc::unix::iovec as core::clone::Clone>::clone
; Function Attrs: uwtable
define { ptr, i64 } @"_ZN56_$LT$libc..unix..iovec$u20$as$u20$core..clone..Clone$GT$5clone17ha7226ff67a805b19E"(ptr align 8 %self) unnamed_addr #0 !dbg !207 {
start:
  %self.dbg.spill = alloca ptr, align 8
  store ptr %self, ptr %self.dbg.spill, align 8
  call void @llvm.dbg.declare(metadata ptr %self.dbg.spill, metadata !219, metadata !DIExpression()), !dbg !220
  %_0.0 = load ptr, ptr %self, align 8, !dbg !221, !noundef !75
  %0 = getelementptr inbounds i8, ptr %self, i64 8, !dbg !221
  %_0.1 = load i64, ptr %0, align 8, !dbg !221, !noundef !75
  %1 = insertvalue { ptr, i64 } poison, ptr %_0.0, 0, !dbg !222
  %2 = insertvalue { ptr, i64 } %1, i64 %_0.1, 1, !dbg !222
  ret { ptr, i64 } %2, !dbg !222
}

; <libc::unix::pollfd as core::clone::Clone>::clone
; Function Attrs: uwtable
define i64 @"_ZN57_$LT$libc..unix..pollfd$u20$as$u20$core..clone..Clone$GT$5clone17hd1c9e2a2bbe8f162E"(ptr align 4 %self) unnamed_addr #0 !dbg !223 {
start:
  %self.dbg.spill = alloca ptr, align 8
  %_0 = alloca %"unix::pollfd", align 4
  store ptr %self, ptr %self.dbg.spill, align 8
  call void @llvm.dbg.declare(metadata ptr %self.dbg.spill, metadata !235, metadata !DIExpression()), !dbg !236
  call void @llvm.memcpy.p0.p0.i64(ptr align 4 %_0, ptr align 4 %self, i64 8, i1 false), !dbg !237
  %0 = load i64, ptr %_0, align 4, !dbg !238
  ret i64 %0, !dbg !238
}

; <libc::unix::winsize as core::clone::Clone>::clone
; Function Attrs: uwtable
define i64 @"_ZN58_$LT$libc..unix..winsize$u20$as$u20$core..clone..Clone$GT$5clone17h8accf3674e49358dE"(ptr align 2 %self) unnamed_addr #0 !dbg !239 {
start:
  %self.dbg.spill = alloca ptr, align 8
  %_0 = alloca %"unix::winsize", align 2
  store ptr %self, ptr %self.dbg.spill, align 8
  call void @llvm.dbg.declare(metadata ptr %self.dbg.spill, metadata !252, metadata !DIExpression()), !dbg !253
  call void @llvm.memcpy.p0.p0.i64(ptr align 2 %_0, ptr align 2 %self, i64 8, i1 false), !dbg !254
  %0 = load i64, ptr %_0, align 2, !dbg !255
  ret i64 %0, !dbg !255
}

; <libc::unix::linger as core::clone::Clone>::clone
; Function Attrs: uwtable
define { i32, i32 } @"_ZN57_$LT$libc..unix..linger$u20$as$u20$core..clone..Clone$GT$5clone17h7052f5fab7fe1753E"(ptr align 4 %self) unnamed_addr #0 !dbg !256 {
start:
  %self.dbg.spill = alloca ptr, align 8
  store ptr %self, ptr %self.dbg.spill, align 8
  call void @llvm.dbg.declare(metadata ptr %self.dbg.spill, metadata !266, metadata !DIExpression()), !dbg !267
  %_0.0 = load i32, ptr %self, align 4, !dbg !268, !noundef !75
  %0 = getelementptr inbounds i8, ptr %self, i64 4, !dbg !268
  %_0.1 = load i32, ptr %0, align 4, !dbg !268, !noundef !75
  %1 = insertvalue { i32, i32 } poison, i32 %_0.0, 0, !dbg !269
  %2 = insertvalue { i32, i32 } %1, i32 %_0.1, 1, !dbg !269
  ret { i32, i32 } %2, !dbg !269
}

; <libc::unix::sigval as core::clone::Clone>::clone
; Function Attrs: uwtable
define i64 @"_ZN57_$LT$libc..unix..sigval$u20$as$u20$core..clone..Clone$GT$5clone17he16218bf8a6f9c11E"(ptr align 8 %self) unnamed_addr #0 !dbg !270 {
start:
  %self.dbg.spill = alloca ptr, align 8
  %_0 = alloca %"unix::sigval", align 8
  store ptr %self, ptr %self.dbg.spill, align 8
  call void @llvm.dbg.declare(metadata ptr %self.dbg.spill, metadata !279, metadata !DIExpression()), !dbg !280
  call void @llvm.memcpy.p0.p0.i64(ptr align 8 %_0, ptr align 8 %self, i64 8, i1 false), !dbg !281
  %0 = load i64, ptr %_0, align 8, !dbg !282
  ret i64 %0, !dbg !282
}

; <libc::unix::itimerval as core::clone::Clone>::clone
; Function Attrs: uwtable
define void @"_ZN60_$LT$libc..unix..itimerval$u20$as$u20$core..clone..Clone$GT$5clone17h02f4ef625299b605E"(ptr sret(%"unix::itimerval") align 8 %_0, ptr align 8 %self) unnamed_addr #0 !dbg !283 {
start:
  %self.dbg.spill = alloca ptr, align 8
  store ptr %self, ptr %self.dbg.spill, align 8
  call void @llvm.dbg.declare(metadata ptr %self.dbg.spill, metadata !293, metadata !DIExpression()), !dbg !294
  call void @llvm.memcpy.p0.p0.i64(ptr align 8 %_0, ptr align 8 %self, i64 32, i1 false), !dbg !295
  ret void, !dbg !296
}

; <libc::unix::tms as core::clone::Clone>::clone
; Function Attrs: uwtable
define void @"_ZN54_$LT$libc..unix..tms$u20$as$u20$core..clone..Clone$GT$5clone17hcea2d6b6535b63b3E"(ptr sret(%"unix::tms") align 8 %_0, ptr align 8 %self) unnamed_addr #0 !dbg !297 {
start:
  %self.dbg.spill = alloca ptr, align 8
  store ptr %self, ptr %self.dbg.spill, align 8
  call void @llvm.dbg.declare(metadata ptr %self.dbg.spill, metadata !309, metadata !DIExpression()), !dbg !310
  call void @llvm.memcpy.p0.p0.i64(ptr align 8 %_0, ptr align 8 %self, i64 32, i1 false), !dbg !311
  ret void, !dbg !312
}

; <libc::unix::servent as core::clone::Clone>::clone
; Function Attrs: uwtable
define void @"_ZN58_$LT$libc..unix..servent$u20$as$u20$core..clone..Clone$GT$5clone17h95544c7665c704b3E"(ptr sret(%"unix::servent") align 8 %_0, ptr align 8 %self) unnamed_addr #0 !dbg !313 {
start:
  %self.dbg.spill = alloca ptr, align 8
  store ptr %self, ptr %self.dbg.spill, align 8
  call void @llvm.dbg.declare(metadata ptr %self.dbg.spill, metadata !325, metadata !DIExpression()), !dbg !326
  call void @llvm.memcpy.p0.p0.i64(ptr align 8 %_0, ptr align 8 %self, i64 32, i1 false), !dbg !327
  ret void, !dbg !328
}

; <libc::unix::protoent as core::clone::Clone>::clone
; Function Attrs: uwtable
define void @"_ZN59_$LT$libc..unix..protoent$u20$as$u20$core..clone..Clone$GT$5clone17hacf6290c1afa4715E"(ptr sret(%"unix::protoent") align 8 %_0, ptr align 8 %self) unnamed_addr #0 !dbg !329 {
start:
  %self.dbg.spill = alloca ptr, align 8
  store ptr %self, ptr %self.dbg.spill, align 8
  call void @llvm.dbg.declare(metadata ptr %self.dbg.spill, metadata !340, metadata !DIExpression()), !dbg !341
  call void @llvm.memcpy.p0.p0.i64(ptr align 8 %_0, ptr align 8 %self, i64 24, i1 false), !dbg !342
  ret void, !dbg !343
}

; <libc::unix::bsd::sockaddr as core::clone::Clone>::clone
; Function Attrs: uwtable
define void @"_ZN64_$LT$libc..unix..bsd..sockaddr$u20$as$u20$core..clone..Clone$GT$5clone17h367c18b0a153483aE"(ptr sret(%"unix::bsd::sockaddr") align 1 %_0, ptr align 1 %self) unnamed_addr #0 !dbg !344 {
start:
  %self.dbg.spill = alloca ptr, align 8
  store ptr %self, ptr %self.dbg.spill, align 8
  call void @llvm.dbg.declare(metadata ptr %self.dbg.spill, metadata !358, metadata !DIExpression()), !dbg !359
  call void @llvm.memcpy.p0.p0.i64(ptr align 1 %_0, ptr align 1 %self, i64 16, i1 false), !dbg !360
  ret void, !dbg !361
}

; <libc::unix::bsd::sockaddr_in6 as core::clone::Clone>::clone
; Function Attrs: uwtable
define void @"_ZN68_$LT$libc..unix..bsd..sockaddr_in6$u20$as$u20$core..clone..Clone$GT$5clone17hc44c282451929a2fE"(ptr sret(%"unix::bsd::sockaddr_in6") align 4 %_0, ptr align 4 %self) unnamed_addr #0 !dbg !362 {
start:
  %self.dbg.spill = alloca ptr, align 8
  store ptr %self, ptr %self.dbg.spill, align 8
  call void @llvm.dbg.declare(metadata ptr %self.dbg.spill, metadata !376, metadata !DIExpression()), !dbg !377
  call void @llvm.memcpy.p0.p0.i64(ptr align 4 %_0, ptr align 4 %self, i64 28, i1 false), !dbg !378
  ret void, !dbg !379
}

; <libc::unix::bsd::passwd as core::clone::Clone>::clone
; Function Attrs: uwtable
define void @"_ZN62_$LT$libc..unix..bsd..passwd$u20$as$u20$core..clone..Clone$GT$5clone17hc57e65c36acb5809E"(ptr sret(%"unix::bsd::passwd") align 8 %_0, ptr align 8 %self) unnamed_addr #0 !dbg !380 {
start:
  %self.dbg.spill = alloca ptr, align 8
  store ptr %self, ptr %self.dbg.spill, align 8
  call void @llvm.dbg.declare(metadata ptr %self.dbg.spill, metadata !398, metadata !DIExpression()), !dbg !399
  call void @llvm.memcpy.p0.p0.i64(ptr align 8 %_0, ptr align 8 %self, i64 72, i1 false), !dbg !400
  ret void, !dbg !401
}

; <libc::unix::bsd::ifaddrs as core::clone::Clone>::clone
; Function Attrs: uwtable
define void @"_ZN63_$LT$libc..unix..bsd..ifaddrs$u20$as$u20$core..clone..Clone$GT$5clone17hfcf8c03bafdf438bE"(ptr sret(%"unix::bsd::ifaddrs") align 8 %_0, ptr align 8 %self) unnamed_addr #0 !dbg !402 {
start:
  %self.dbg.spill = alloca ptr, align 8
  store ptr %self, ptr %self.dbg.spill, align 8
  call void @llvm.dbg.declare(metadata ptr %self.dbg.spill, metadata !419, metadata !DIExpression()), !dbg !420
  call void @llvm.memcpy.p0.p0.i64(ptr align 8 %_0, ptr align 8 %self, i64 56, i1 false), !dbg !421
  ret void, !dbg !422
}

; <libc::unix::bsd::fd_set as core::clone::Clone>::clone
; Function Attrs: uwtable
define void @"_ZN62_$LT$libc..unix..bsd..fd_set$u20$as$u20$core..clone..Clone$GT$5clone17h3e1a266e79bc768aE"(ptr sret(%"unix::bsd::fd_set") align 4 %_0, ptr align 4 %self) unnamed_addr #0 !dbg !423 {
start:
  %self.dbg.spill = alloca ptr, align 8
  store ptr %self, ptr %self.dbg.spill, align 8
  call void @llvm.dbg.declare(metadata ptr %self.dbg.spill, metadata !435, metadata !DIExpression()), !dbg !436
  call void @llvm.memcpy.p0.p0.i64(ptr align 4 %_0, ptr align 4 %self, i64 128, i1 false), !dbg !437
  ret void, !dbg !438
}

; <libc::unix::bsd::tm as core::clone::Clone>::clone
; Function Attrs: uwtable
define void @"_ZN58_$LT$libc..unix..bsd..tm$u20$as$u20$core..clone..Clone$GT$5clone17h3a6f83dbe004cdbdE"(ptr sret(%"unix::bsd::tm") align 8 %_0, ptr align 8 %self) unnamed_addr #0 !dbg !439 {
start:
  %self.dbg.spill = alloca ptr, align 8
  store ptr %self, ptr %self.dbg.spill, align 8
  call void @llvm.dbg.declare(metadata ptr %self.dbg.spill, metadata !458, metadata !DIExpression()), !dbg !459
  call void @llvm.memcpy.p0.p0.i64(ptr align 8 %_0, ptr align 8 %self, i64 56, i1 false), !dbg !460
  ret void, !dbg !461
}

; <libc::unix::bsd::msghdr as core::clone::Clone>::clone
; Function Attrs: uwtable
define void @"_ZN62_$LT$libc..unix..bsd..msghdr$u20$as$u20$core..clone..Clone$GT$5clone17h447103519ae64567E"(ptr sret(%"unix::bsd::msghdr") align 8 %_0, ptr align 8 %self) unnamed_addr #0 !dbg !462 {
start:
  %self.dbg.spill = alloca ptr, align 8
  store ptr %self, ptr %self.dbg.spill, align 8
  call void @llvm.dbg.declare(metadata ptr %self.dbg.spill, metadata !478, metadata !DIExpression()), !dbg !479
  call void @llvm.memcpy.p0.p0.i64(ptr align 8 %_0, ptr align 8 %self, i64 48, i1 false), !dbg !480
  ret void, !dbg !481
}

; <libc::unix::bsd::cmsghdr as core::clone::Clone>::clone
; Function Attrs: uwtable
define void @"_ZN63_$LT$libc..unix..bsd..cmsghdr$u20$as$u20$core..clone..Clone$GT$5clone17hcd6fdfb33e77744aE"(ptr sret(%"unix::bsd::cmsghdr") align 4 %_0, ptr align 4 %self) unnamed_addr #0 !dbg !482 {
start:
  %self.dbg.spill = alloca ptr, align 8
  store ptr %self, ptr %self.dbg.spill, align 8
  call void @llvm.dbg.declare(metadata ptr %self.dbg.spill, metadata !493, metadata !DIExpression()), !dbg !494
  call void @llvm.memcpy.p0.p0.i64(ptr align 4 %_0, ptr align 4 %self, i64 12, i1 false), !dbg !495
  ret void, !dbg !496
}

; <libc::unix::bsd::fsid_t as core::clone::Clone>::clone
; Function Attrs: uwtable
define i64 @"_ZN62_$LT$libc..unix..bsd..fsid_t$u20$as$u20$core..clone..Clone$GT$5clone17h70b4afe3b0ff01dbE"(ptr align 4 %self) unnamed_addr #0 !dbg !497 {
start:
  %self.dbg.spill = alloca ptr, align 8
  %_0 = alloca %"unix::bsd::fsid_t", align 4
  store ptr %self, ptr %self.dbg.spill, align 8
  call void @llvm.dbg.declare(metadata ptr %self.dbg.spill, metadata !509, metadata !DIExpression()), !dbg !510
  call void @llvm.memcpy.p0.p0.i64(ptr align 4 %_0, ptr align 4 %self, i64 8, i1 false), !dbg !511
  %0 = load i64, ptr %_0, align 4, !dbg !512
  ret i64 %0, !dbg !512
}

; <libc::unix::bsd::if_nameindex as core::clone::Clone>::clone
; Function Attrs: uwtable
define { i32, ptr } @"_ZN68_$LT$libc..unix..bsd..if_nameindex$u20$as$u20$core..clone..Clone$GT$5clone17hbf2bdc51869d57b5E"(ptr align 8 %self) unnamed_addr #0 !dbg !513 {
start:
  %self.dbg.spill = alloca ptr, align 8
  store ptr %self, ptr %self.dbg.spill, align 8
  call void @llvm.dbg.declare(metadata ptr %self.dbg.spill, metadata !523, metadata !DIExpression()), !dbg !524
  %_0.0 = load i32, ptr %self, align 8, !dbg !525, !noundef !75
  %0 = getelementptr inbounds i8, ptr %self, i64 8, !dbg !525
  %_0.1 = load ptr, ptr %0, align 8, !dbg !525, !noundef !75
  %1 = insertvalue { i32, ptr } poison, i32 %_0.0, 0, !dbg !526
  %2 = insertvalue { i32, ptr } %1, ptr %_0.1, 1, !dbg !526
  ret { i32, ptr } %2, !dbg !526
}

; <libc::unix::bsd::regex_t as core::clone::Clone>::clone
; Function Attrs: uwtable
define void @"_ZN63_$LT$libc..unix..bsd..regex_t$u20$as$u20$core..clone..Clone$GT$5clone17hfd208eac67afdff6E"(ptr sret(%"unix::bsd::regex_t") align 8 %_0, ptr align 8 %self) unnamed_addr #0 !dbg !527 {
start:
  %self.dbg.spill = alloca ptr, align 8
  store ptr %self, ptr %self.dbg.spill, align 8
  call void @llvm.dbg.declare(metadata ptr %self.dbg.spill, metadata !540, metadata !DIExpression()), !dbg !541
  call void @llvm.memcpy.p0.p0.i64(ptr align 8 %_0, ptr align 8 %self, i64 32, i1 false), !dbg !542
  ret void, !dbg !543
}

; <libc::unix::bsd::regmatch_t as core::clone::Clone>::clone
; Function Attrs: uwtable
define { i64, i64 } @"_ZN66_$LT$libc..unix..bsd..regmatch_t$u20$as$u20$core..clone..Clone$GT$5clone17hc2d05ef2cd82f4adE"(ptr align 8 %self) unnamed_addr #0 !dbg !544 {
start:
  %self.dbg.spill = alloca ptr, align 8
  store ptr %self, ptr %self.dbg.spill, align 8
  call void @llvm.dbg.declare(metadata ptr %self.dbg.spill, metadata !554, metadata !DIExpression()), !dbg !555
  %_0.0 = load i64, ptr %self, align 8, !dbg !556, !noundef !75
  %0 = getelementptr inbounds i8, ptr %self, i64 8, !dbg !556
  %_0.1 = load i64, ptr %0, align 8, !dbg !556, !noundef !75
  %1 = insertvalue { i64, i64 } poison, i64 %_0.0, 0, !dbg !557
  %2 = insertvalue { i64, i64 } %1, i64 %_0.1, 1, !dbg !557
  ret { i64, i64 } %2, !dbg !557
}

; <libc::unix::bsd::option as core::clone::Clone>::clone
; Function Attrs: uwtable
define void @"_ZN62_$LT$libc..unix..bsd..option$u20$as$u20$core..clone..Clone$GT$5clone17h2e979e5664476cb1E"(ptr sret(%"unix::bsd::option") align 8 %_0, ptr align 8 %self) unnamed_addr #0 !dbg !558 {
start:
  %self.dbg.spill = alloca ptr, align 8
  store ptr %self, ptr %self.dbg.spill, align 8
  call void @llvm.dbg.declare(metadata ptr %self.dbg.spill, metadata !571, metadata !DIExpression()), !dbg !572
  call void @llvm.memcpy.p0.p0.i64(ptr align 8 %_0, ptr align 8 %self, i64 32, i1 false), !dbg !573
  ret void, !dbg !574
}

; <libc::unix::bsd::sockaddr_un as core::clone::Clone>::clone
; Function Attrs: uwtable
define void @"_ZN67_$LT$libc..unix..bsd..sockaddr_un$u20$as$u20$core..clone..Clone$GT$5clone17h829c993aa8280979E"(ptr sret(%"unix::bsd::sockaddr_un") align 1 %_0, ptr align 1 %self) unnamed_addr #0 !dbg !575 {
start:
  %self.dbg.spill = alloca ptr, align 8
  store ptr %self, ptr %self.dbg.spill, align 8
  call void @llvm.dbg.declare(metadata ptr %self.dbg.spill, metadata !589, metadata !DIExpression()), !dbg !590
  call void @llvm.memcpy.p0.p0.i64(ptr align 1 %_0, ptr align 1 %self, i64 106, i1 false), !dbg !591
  ret void, !dbg !592
}

; <libc::unix::bsd::utsname as core::clone::Clone>::clone
; Function Attrs: uwtable
define void @"_ZN63_$LT$libc..unix..bsd..utsname$u20$as$u20$core..clone..Clone$GT$5clone17h0495069a35119046E"(ptr sret(%"unix::bsd::utsname") align 1 %_0, ptr align 1 %self) unnamed_addr #0 !dbg !593 {
start:
  %self.dbg.spill = alloca ptr, align 8
  store ptr %self, ptr %self.dbg.spill, align 8
  call void @llvm.dbg.declare(metadata ptr %self.dbg.spill, metadata !609, metadata !DIExpression()), !dbg !610
  call void @llvm.memcpy.p0.p0.i64(ptr align 1 %_0, ptr align 1 %self, i64 1280, i1 false), !dbg !611
  ret void, !dbg !612
}

; <libc::unix::bsd::apple::timezone as core::clone::Clone>::clone
; Function Attrs: noreturn uwtable
define void @"_ZN71_$LT$libc..unix..bsd..apple..timezone$u20$as$u20$core..clone..Clone$GT$5clone17h1daf7524a4785607E"(ptr align 1 %self) unnamed_addr #1 !dbg !613 {
start:
  %self.dbg.spill = alloca ptr, align 8
  store ptr %self, ptr %self.dbg.spill, align 8
  call void @llvm.dbg.declare(metadata ptr %self.dbg.spill, metadata !623, metadata !DIExpression()), !dbg !624
  call void @llvm.trap(), !dbg !625
  unreachable, !dbg !625
}

; <libc::unix::bsd::apple::qos_class_t as core::clone::Clone>::clone
; Function Attrs: uwtable
define i32 @"_ZN74_$LT$libc..unix..bsd..apple..qos_class_t$u20$as$u20$core..clone..Clone$GT$5clone17h088a74227783fea5E"(ptr align 4 %self) unnamed_addr #0 !dbg !626 {
start:
  %self.dbg.spill = alloca ptr, align 8
  store ptr %self, ptr %self.dbg.spill, align 8
  call void @llvm.dbg.declare(metadata ptr %self.dbg.spill, metadata !632, metadata !DIExpression()), !dbg !633
  %_0 = load i32, ptr %self, align 4, !dbg !634, !range !635, !noundef !75
  ret i32 %_0, !dbg !636
}

; <libc::unix::bsd::apple::sysdir_search_path_directory_t as core::clone::Clone>::clone
; Function Attrs: uwtable
define i32 @"_ZN93_$LT$libc..unix..bsd..apple..sysdir_search_path_directory_t$u20$as$u20$core..clone..Clone$GT$5clone17h733c0c7578983355E"(ptr align 4 %self) unnamed_addr #0 !dbg !637 {
start:
  %self.dbg.spill = alloca ptr, align 8
  store ptr %self, ptr %self.dbg.spill, align 8
  call void @llvm.dbg.declare(metadata ptr %self.dbg.spill, metadata !643, metadata !DIExpression()), !dbg !644
  %_0 = load i32, ptr %self, align 4, !dbg !645, !range !646, !noundef !75
  ret i32 %_0, !dbg !647
}

; <libc::unix::bsd::apple::sysdir_search_path_domain_mask_t as core::clone::Clone>::clone
; Function Attrs: uwtable
define i32 @"_ZN95_$LT$libc..unix..bsd..apple..sysdir_search_path_domain_mask_t$u20$as$u20$core..clone..Clone$GT$5clone17he3c3ed1b0f795973E"(ptr align 4 %self) unnamed_addr #0 !dbg !648 {
start:
  %self.dbg.spill = alloca ptr, align 8
  store ptr %self, ptr %self.dbg.spill, align 8
  call void @llvm.dbg.declare(metadata ptr %self.dbg.spill, metadata !654, metadata !DIExpression()), !dbg !655
  %_0 = load i32, ptr %self, align 4, !dbg !656, !range !657, !noundef !75
  ret i32 %_0, !dbg !658
}

; libc::unix::bsd::apple::siginfo_t::si_addr
; Function Attrs: uwtable
define ptr @_ZN4libc4unix3bsd5apple9siginfo_t7si_addr17h131c8d49d9234bacE(ptr align 8 %self) unnamed_addr #0 !dbg !659 {
start:
  %self.dbg.spill = alloca ptr, align 8
  store ptr %self, ptr %self.dbg.spill, align 8
  call void @llvm.dbg.declare(metadata ptr %self.dbg.spill, metadata !678, metadata !DIExpression()), !dbg !679
  %0 = getelementptr inbounds i8, ptr %self, i64 24, !dbg !680
  %_0 = load ptr, ptr %0, align 8, !dbg !680, !noundef !75
  ret ptr %_0, !dbg !681
}

; libc::unix::bsd::apple::siginfo_t::si_value
; Function Attrs: uwtable
define i64 @_ZN4libc4unix3bsd5apple9siginfo_t8si_value17hf52b940d1c4c2282E(ptr align 8 %self) unnamed_addr #0 !dbg !682 {
start:
  %self.dbg.spill = alloca ptr, align 8
  %_0 = alloca %"unix::sigval", align 8
  store ptr %self, ptr %self.dbg.spill, align 8
  call void @llvm.dbg.declare(metadata ptr %self.dbg.spill, metadata !687, metadata !DIExpression()), !dbg !688
  %0 = getelementptr inbounds i8, ptr %self, i64 32, !dbg !689
  call void @llvm.memcpy.p0.p0.i64(ptr align 8 %_0, ptr align 8 %0, i64 8, i1 false), !dbg !689
  %1 = load i64, ptr %_0, align 8, !dbg !690
  ret i64 %1, !dbg !690
}

; libc::unix::bsd::apple::siginfo_t::si_pid
; Function Attrs: uwtable
define i32 @_ZN4libc4unix3bsd5apple9siginfo_t6si_pid17hbc72082daf84ddbcE(ptr align 8 %self) unnamed_addr #0 !dbg !691 {
start:
  %self.dbg.spill = alloca ptr, align 8
  store ptr %self, ptr %self.dbg.spill, align 8
  call void @llvm.dbg.declare(metadata ptr %self.dbg.spill, metadata !696, metadata !DIExpression()), !dbg !697
  %0 = getelementptr inbounds i8, ptr %self, i64 12, !dbg !698
  %_0 = load i32, ptr %0, align 4, !dbg !698, !noundef !75
  ret i32 %_0, !dbg !699
}

; libc::unix::bsd::apple::siginfo_t::si_uid
; Function Attrs: uwtable
define i32 @_ZN4libc4unix3bsd5apple9siginfo_t6si_uid17h6951bf7ecdedec57E(ptr align 8 %self) unnamed_addr #0 !dbg !700 {
start:
  %self.dbg.spill = alloca ptr, align 8
  store ptr %self, ptr %self.dbg.spill, align 8
  call void @llvm.dbg.declare(metadata ptr %self.dbg.spill, metadata !705, metadata !DIExpression()), !dbg !706
  %0 = getelementptr inbounds i8, ptr %self, i64 16, !dbg !707
  %_0 = load i32, ptr %0, align 8, !dbg !707, !noundef !75
  ret i32 %_0, !dbg !708
}

; libc::unix::bsd::apple::siginfo_t::si_status
; Function Attrs: uwtable
define i32 @_ZN4libc4unix3bsd5apple9siginfo_t9si_status17h60c2c135ff58d895E(ptr align 8 %self) unnamed_addr #0 !dbg !709 {
start:
  %self.dbg.spill = alloca ptr, align 8
  store ptr %self, ptr %self.dbg.spill, align 8
  call void @llvm.dbg.declare(metadata ptr %self.dbg.spill, metadata !712, metadata !DIExpression()), !dbg !713
  %0 = getelementptr inbounds i8, ptr %self, i64 20, !dbg !714
  %_0 = load i32, ptr %0, align 4, !dbg !714, !noundef !75
  ret i32 %_0, !dbg !715
}

; libc::unix::bsd::apple::__DARWIN_ALIGN32
; Function Attrs: uwtable
define i64 @_ZN4libc4unix3bsd5apple16__DARWIN_ALIGN3217ha2a8433e1ff6a578E(i64 %p) unnamed_addr #0 !dbg !716 {
start:
  %p.dbg.spill = alloca i64, align 8
  store i64 %p, ptr %p.dbg.spill, align 8
  call void @llvm.dbg.declare(metadata ptr %p.dbg.spill, metadata !720, metadata !DIExpression()), !dbg !721
  %0 = call { i64, i1 } @llvm.uadd.with.overflow.i64(i64 %p, i64 3), !dbg !722
  %_3.0 = extractvalue { i64, i1 } %0, 0, !dbg !722
  %_3.1 = extractvalue { i64, i1 } %0, 1, !dbg !722
  %1 = call i1 @llvm.expect.i1(i1 %_3.1, i1 false), !dbg !722
  br i1 %1, label %panic, label %bb1, !dbg !722

bb1:                                              ; preds = %start
  %_0 = and i64 %_3.0, -4, !dbg !722
  ret i64 %_0, !dbg !723

panic:                                            ; preds = %start
; call core::panicking::panic
  call void @_ZN4core9panicking5panic17h5884aad3a9044857E(ptr align 1 @str.0, i64 28, ptr align 8 @alloc_2714d36b3b07dbc721cb5f46b1aeb5a9) #7, !dbg !722
  unreachable, !dbg !722
}

; libc::unix::bsd::apple::mach_task_self
; Function Attrs: uwtable
define i32 @_ZN4libc4unix3bsd5apple14mach_task_self17hb4a9a779c6570d6dE() unnamed_addr #0 !dbg !724 {
start:
  %_0 = load i32, ptr @mach_task_self_, align 4, !dbg !727, !noundef !75
  ret i32 %_0, !dbg !728
}

; <libc::unix::bsd::apple::ip_mreq as core::clone::Clone>::clone
; Function Attrs: uwtable
define i64 @"_ZN70_$LT$libc..unix..bsd..apple..ip_mreq$u20$as$u20$core..clone..Clone$GT$5clone17h74c1ab7085494a91E"(ptr align 4 %self) unnamed_addr #0 !dbg !729 {
start:
  %self.dbg.spill = alloca ptr, align 8
  %_0 = alloca %"unix::bsd::apple::ip_mreq", align 4
  store ptr %self, ptr %self.dbg.spill, align 8
  call void @llvm.dbg.declare(metadata ptr %self.dbg.spill, metadata !742, metadata !DIExpression()), !dbg !743
  call void @llvm.memcpy.p0.p0.i64(ptr align 4 %_0, ptr align 4 %self, i64 8, i1 false), !dbg !744
  %0 = load i64, ptr %_0, align 4, !dbg !745
  ret i64 %0, !dbg !745
}

; <libc::unix::bsd::apple::ip_mreqn as core::clone::Clone>::clone
; Function Attrs: uwtable
define void @"_ZN71_$LT$libc..unix..bsd..apple..ip_mreqn$u20$as$u20$core..clone..Clone$GT$5clone17h0eeb7eb52e6f462bE"(ptr sret(%"unix::bsd::apple::ip_mreqn") align 4 %_0, ptr align 4 %self) unnamed_addr #0 !dbg !746 {
start:
  %self.dbg.spill = alloca ptr, align 8
  store ptr %self, ptr %self.dbg.spill, align 8
  call void @llvm.dbg.declare(metadata ptr %self.dbg.spill, metadata !757, metadata !DIExpression()), !dbg !758
  call void @llvm.memcpy.p0.p0.i64(ptr align 4 %_0, ptr align 4 %self, i64 12, i1 false), !dbg !759
  ret void, !dbg !760
}

; <libc::unix::bsd::apple::ip_mreq_source as core::clone::Clone>::clone
; Function Attrs: uwtable
define void @"_ZN77_$LT$libc..unix..bsd..apple..ip_mreq_source$u20$as$u20$core..clone..Clone$GT$5clone17hb4bd54698e6f027eE"(ptr sret(%"unix::bsd::apple::ip_mreq_source") align 4 %_0, ptr align 4 %self) unnamed_addr #0 !dbg !761 {
start:
  %self.dbg.spill = alloca ptr, align 8
  store ptr %self, ptr %self.dbg.spill, align 8
  call void @llvm.dbg.declare(metadata ptr %self.dbg.spill, metadata !772, metadata !DIExpression()), !dbg !773
  call void @llvm.memcpy.p0.p0.i64(ptr align 4 %_0, ptr align 4 %self, i64 12, i1 false), !dbg !774
  ret void, !dbg !775
}

; <libc::unix::bsd::apple::aiocb as core::clone::Clone>::clone
; Function Attrs: uwtable
define void @"_ZN68_$LT$libc..unix..bsd..apple..aiocb$u20$as$u20$core..clone..Clone$GT$5clone17h0e7cdfa6334111b7E"(ptr sret(%"unix::bsd::apple::aiocb") align 8 %_0, ptr align 8 %self) unnamed_addr #0 !dbg !776 {
start:
  %self.dbg.spill = alloca ptr, align 8
  store ptr %self, ptr %self.dbg.spill, align 8
  call void @llvm.dbg.declare(metadata ptr %self.dbg.spill, metadata !807, metadata !DIExpression()), !dbg !808
  call void @llvm.memcpy.p0.p0.i64(ptr align 8 %_0, ptr align 8 %self, i64 80, i1 false), !dbg !809
  ret void, !dbg !810
}

; <libc::unix::bsd::apple::glob_t as core::clone::Clone>::clone
; Function Attrs: uwtable
define void @"_ZN69_$LT$libc..unix..bsd..apple..glob_t$u20$as$u20$core..clone..Clone$GT$5clone17he37d1f2473a060fcE"(ptr sret(%"unix::bsd::apple::glob_t") align 8 %_0, ptr align 8 %self) unnamed_addr #0 !dbg !811 {
start:
  %self.dbg.spill = alloca ptr, align 8
  store ptr %self, ptr %self.dbg.spill, align 8
  call void @llvm.dbg.declare(metadata ptr %self.dbg.spill, metadata !830, metadata !DIExpression()), !dbg !831
  call void @llvm.memcpy.p0.p0.i64(ptr align 8 %_0, ptr align 8 %self, i64 88, i1 false), !dbg !832
  ret void, !dbg !833
}

; <libc::unix::bsd::apple::addrinfo as core::clone::Clone>::clone
; Function Attrs: uwtable
define void @"_ZN71_$LT$libc..unix..bsd..apple..addrinfo$u20$as$u20$core..clone..Clone$GT$5clone17h4b707a061fad9901E"(ptr sret(%"unix::bsd::apple::addrinfo") align 8 %_0, ptr align 8 %self) unnamed_addr #0 !dbg !834 {
start:
  %self.dbg.spill = alloca ptr, align 8
  store ptr %self, ptr %self.dbg.spill, align 8
  call void @llvm.dbg.declare(metadata ptr %self.dbg.spill, metadata !851, metadata !DIExpression()), !dbg !852
  call void @llvm.memcpy.p0.p0.i64(ptr align 8 %_0, ptr align 8 %self, i64 48, i1 false), !dbg !853
  ret void, !dbg !854
}

; <libc::unix::bsd::apple::stat as core::clone::Clone>::clone
; Function Attrs: uwtable
define void @"_ZN67_$LT$libc..unix..bsd..apple..stat$u20$as$u20$core..clone..Clone$GT$5clone17h7c5a01c4e97339e1E"(ptr sret(%"unix::bsd::apple::stat") align 8 %_0, ptr align 8 %self) unnamed_addr #0 !dbg !855 {
start:
  %self.dbg.spill = alloca ptr, align 8
  store ptr %self, ptr %self.dbg.spill, align 8
  call void @llvm.dbg.declare(metadata ptr %self.dbg.spill, metadata !886, metadata !DIExpression()), !dbg !887
  call void @llvm.memcpy.p0.p0.i64(ptr align 8 %_0, ptr align 8 %self, i64 144, i1 false), !dbg !888
  ret void, !dbg !889
}

; <libc::unix::bsd::apple::pthread_mutexattr_t as core::clone::Clone>::clone
; Function Attrs: uwtable
define void @"_ZN82_$LT$libc..unix..bsd..apple..pthread_mutexattr_t$u20$as$u20$core..clone..Clone$GT$5clone17h48cc287657fbdde4E"(ptr sret(%"unix::bsd::apple::pthread_mutexattr_t") align 8 %_0, ptr align 8 %self) unnamed_addr #0 !dbg !890 {
start:
  %self.dbg.spill = alloca ptr, align 8
  store ptr %self, ptr %self.dbg.spill, align 8
  call void @llvm.dbg.declare(metadata ptr %self.dbg.spill, metadata !903, metadata !DIExpression()), !dbg !904
  call void @llvm.memcpy.p0.p0.i64(ptr align 8 %_0, ptr align 8 %self, i64 16, i1 false), !dbg !905
  ret void, !dbg !906
}

; <libc::unix::bsd::apple::pthread_condattr_t as core::clone::Clone>::clone
; Function Attrs: uwtable
define void @"_ZN81_$LT$libc..unix..bsd..apple..pthread_condattr_t$u20$as$u20$core..clone..Clone$GT$5clone17hdb68379625191378E"(ptr sret(%"unix::bsd::apple::pthread_condattr_t") align 8 %_0, ptr align 8 %self) unnamed_addr #0 !dbg !907 {
start:
  %self.dbg.spill = alloca ptr, align 8
  store ptr %self, ptr %self.dbg.spill, align 8
  call void @llvm.dbg.declare(metadata ptr %self.dbg.spill, metadata !917, metadata !DIExpression()), !dbg !918
  call void @llvm.memcpy.p0.p0.i64(ptr align 8 %_0, ptr align 8 %self, i64 16, i1 false), !dbg !919
  ret void, !dbg !920
}

; <libc::unix::bsd::apple::pthread_rwlockattr_t as core::clone::Clone>::clone
; Function Attrs: uwtable
define void @"_ZN83_$LT$libc..unix..bsd..apple..pthread_rwlockattr_t$u20$as$u20$core..clone..Clone$GT$5clone17h3d49b1ec8d1d332fE"(ptr sret(%"unix::bsd::apple::pthread_rwlockattr_t") align 8 %_0, ptr align 8 %self) unnamed_addr #0 !dbg !921 {
start:
  %self.dbg.spill = alloca ptr, align 8
  store ptr %self, ptr %self.dbg.spill, align 8
  call void @llvm.dbg.declare(metadata ptr %self.dbg.spill, metadata !931, metadata !DIExpression()), !dbg !932
  call void @llvm.memcpy.p0.p0.i64(ptr align 8 %_0, ptr align 8 %self, i64 24, i1 false), !dbg !933
  ret void, !dbg !934
}

; <libc::unix::bsd::apple::siginfo_t as core::clone::Clone>::clone
; Function Attrs: uwtable
define void @"_ZN72_$LT$libc..unix..bsd..apple..siginfo_t$u20$as$u20$core..clone..Clone$GT$5clone17h81f87d06aacae25eE"(ptr sret(%"unix::bsd::apple::siginfo_t") align 8 %_0, ptr align 8 %self) unnamed_addr #0 !dbg !935 {
start:
  %self.dbg.spill = alloca ptr, align 8
  store ptr %self, ptr %self.dbg.spill, align 8
  call void @llvm.dbg.declare(metadata ptr %self.dbg.spill, metadata !940, metadata !DIExpression()), !dbg !941
  call void @llvm.memcpy.p0.p0.i64(ptr align 8 %_0, ptr align 8 %self, i64 104, i1 false), !dbg !942
  ret void, !dbg !943
}

; <libc::unix::bsd::apple::sigaction as core::clone::Clone>::clone
; Function Attrs: uwtable
define void @"_ZN72_$LT$libc..unix..bsd..apple..sigaction$u20$as$u20$core..clone..Clone$GT$5clone17h6fecaca6f8e3e7faE"(ptr sret(%"unix::bsd::apple::sigaction") align 8 %_0, ptr align 8 %self) unnamed_addr #0 !dbg !944 {
start:
  %self.dbg.spill = alloca ptr, align 8
  store ptr %self, ptr %self.dbg.spill, align 8
  call void @llvm.dbg.declare(metadata ptr %self.dbg.spill, metadata !955, metadata !DIExpression()), !dbg !956
  call void @llvm.memcpy.p0.p0.i64(ptr align 8 %_0, ptr align 8 %self, i64 16, i1 false), !dbg !957
  ret void, !dbg !958
}

; <libc::unix::bsd::apple::stack_t as core::clone::Clone>::clone
; Function Attrs: uwtable
define void @"_ZN70_$LT$libc..unix..bsd..apple..stack_t$u20$as$u20$core..clone..Clone$GT$5clone17h7c4f0924645f3bdfE"(ptr sret(%"unix::bsd::apple::stack_t") align 8 %_0, ptr align 8 %self) unnamed_addr #0 !dbg !959 {
start:
  %self.dbg.spill = alloca ptr, align 8
  store ptr %self, ptr %self.dbg.spill, align 8
  call void @llvm.dbg.declare(metadata ptr %self.dbg.spill, metadata !970, metadata !DIExpression()), !dbg !971
  call void @llvm.memcpy.p0.p0.i64(ptr align 8 %_0, ptr align 8 %self, i64 24, i1 false), !dbg !972
  ret void, !dbg !973
}

; <libc::unix::bsd::apple::fstore_t as core::clone::Clone>::clone
; Function Attrs: uwtable
define void @"_ZN71_$LT$libc..unix..bsd..apple..fstore_t$u20$as$u20$core..clone..Clone$GT$5clone17hfc955a8e915cda6aE"(ptr sret(%"unix::bsd::apple::fstore_t") align 8 %_0, ptr align 8 %self) unnamed_addr #0 !dbg !974 {
start:
  %self.dbg.spill = alloca ptr, align 8
  store ptr %self, ptr %self.dbg.spill, align 8
  call void @llvm.dbg.declare(metadata ptr %self.dbg.spill, metadata !987, metadata !DIExpression()), !dbg !988
  call void @llvm.memcpy.p0.p0.i64(ptr align 8 %_0, ptr align 8 %self, i64 32, i1 false), !dbg !989
  ret void, !dbg !990
}

; <libc::unix::bsd::apple::fpunchhole_t as core::clone::Clone>::clone
; Function Attrs: uwtable
define void @"_ZN75_$LT$libc..unix..bsd..apple..fpunchhole_t$u20$as$u20$core..clone..Clone$GT$5clone17h2875c66a7b55f873E"(ptr sret(%"unix::bsd::apple::fpunchhole_t") align 8 %_0, ptr align 8 %self) unnamed_addr #0 !dbg !991 {
start:
  %self.dbg.spill = alloca ptr, align 8
  store ptr %self, ptr %self.dbg.spill, align 8
  call void @llvm.dbg.declare(metadata ptr %self.dbg.spill, metadata !1003, metadata !DIExpression()), !dbg !1004
  call void @llvm.memcpy.p0.p0.i64(ptr align 8 %_0, ptr align 8 %self, i64 24, i1 false), !dbg !1005
  ret void, !dbg !1006
}

; <libc::unix::bsd::apple::ftrimactivefile_t as core::clone::Clone>::clone
; Function Attrs: uwtable
define { i64, i64 } @"_ZN80_$LT$libc..unix..bsd..apple..ftrimactivefile_t$u20$as$u20$core..clone..Clone$GT$5clone17ha1e3982b37c7cdacE"(ptr align 8 %self) unnamed_addr #0 !dbg !1007 {
start:
  %self.dbg.spill = alloca ptr, align 8
  store ptr %self, ptr %self.dbg.spill, align 8
  call void @llvm.dbg.declare(metadata ptr %self.dbg.spill, metadata !1017, metadata !DIExpression()), !dbg !1018
  %_0.0 = load i64, ptr %self, align 8, !dbg !1019, !noundef !75
  %0 = getelementptr inbounds i8, ptr %self, i64 8, !dbg !1019
  %_0.1 = load i64, ptr %0, align 8, !dbg !1019, !noundef !75
  %1 = insertvalue { i64, i64 } poison, i64 %_0.0, 0, !dbg !1020
  %2 = insertvalue { i64, i64 } %1, i64 %_0.1, 1, !dbg !1020
  ret { i64, i64 } %2, !dbg !1020
}

; <libc::unix::bsd::apple::fspecread_t as core::clone::Clone>::clone
; Function Attrs: uwtable
define void @"_ZN74_$LT$libc..unix..bsd..apple..fspecread_t$u20$as$u20$core..clone..Clone$GT$5clone17h9736875444875af5E"(ptr sret(%"unix::bsd::apple::fspecread_t") align 8 %_0, ptr align 8 %self) unnamed_addr #0 !dbg !1021 {
start:
  %self.dbg.spill = alloca ptr, align 8
  store ptr %self, ptr %self.dbg.spill, align 8
  call void @llvm.dbg.declare(metadata ptr %self.dbg.spill, metadata !1033, metadata !DIExpression()), !dbg !1034
  call void @llvm.memcpy.p0.p0.i64(ptr align 8 %_0, ptr align 8 %self, i64 24, i1 false), !dbg !1035
  ret void, !dbg !1036
}

; <libc::unix::bsd::apple::radvisory as core::clone::Clone>::clone
; Function Attrs: uwtable
define { i64, i32 } @"_ZN72_$LT$libc..unix..bsd..apple..radvisory$u20$as$u20$core..clone..Clone$GT$5clone17h51f36c4a2f6ab4a9E"(ptr align 8 %self) unnamed_addr #0 !dbg !1037 {
start:
  %self.dbg.spill = alloca ptr, align 8
  store ptr %self, ptr %self.dbg.spill, align 8
  call void @llvm.dbg.declare(metadata ptr %self.dbg.spill, metadata !1047, metadata !DIExpression()), !dbg !1048
  %_0.0 = load i64, ptr %self, align 8, !dbg !1049, !noundef !75
  %0 = getelementptr inbounds i8, ptr %self, i64 8, !dbg !1049
  %_0.1 = load i32, ptr %0, align 8, !dbg !1049, !noundef !75
  %1 = insertvalue { i64, i32 } poison, i64 %_0.0, 0, !dbg !1050
  %2 = insertvalue { i64, i32 } %1, i32 %_0.1, 1, !dbg !1050
  ret { i64, i32 } %2, !dbg !1050
}

; <libc::unix::bsd::apple::statvfs as core::clone::Clone>::clone
; Function Attrs: uwtable
define void @"_ZN70_$LT$libc..unix..bsd..apple..statvfs$u20$as$u20$core..clone..Clone$GT$5clone17hb03177ac82507d2aE"(ptr sret(%"unix::bsd::apple::statvfs") align 8 %_0, ptr align 8 %self) unnamed_addr #0 !dbg !1051 {
start:
  %self.dbg.spill = alloca ptr, align 8
  store ptr %self, ptr %self.dbg.spill, align 8
  call void @llvm.dbg.declare(metadata ptr %self.dbg.spill, metadata !1070, metadata !DIExpression()), !dbg !1071
  call void @llvm.memcpy.p0.p0.i64(ptr align 8 %_0, ptr align 8 %self, i64 64, i1 false), !dbg !1072
  ret void, !dbg !1073
}

; <libc::unix::bsd::apple::Dl_info as core::clone::Clone>::clone
; Function Attrs: uwtable
define void @"_ZN70_$LT$libc..unix..bsd..apple..Dl_info$u20$as$u20$core..clone..Clone$GT$5clone17hffa150e4e4cb599cE"(ptr sret(%"unix::bsd::apple::Dl_info") align 8 %_0, ptr align 8 %self) unnamed_addr #0 !dbg !1074 {
start:
  %self.dbg.spill = alloca ptr, align 8
  store ptr %self, ptr %self.dbg.spill, align 8
  call void @llvm.dbg.declare(metadata ptr %self.dbg.spill, metadata !1086, metadata !DIExpression()), !dbg !1087
  call void @llvm.memcpy.p0.p0.i64(ptr align 8 %_0, ptr align 8 %self, i64 32, i1 false), !dbg !1088
  ret void, !dbg !1089
}

; <libc::unix::bsd::apple::sockaddr_in as core::clone::Clone>::clone
; Function Attrs: uwtable
define void @"_ZN74_$LT$libc..unix..bsd..apple..sockaddr_in$u20$as$u20$core..clone..Clone$GT$5clone17hcc4c2ec8bb404d4bE"(ptr sret(%"unix::bsd::apple::sockaddr_in") align 4 %_0, ptr align 4 %self) unnamed_addr #0 !dbg !1090 {
start:
  %self.dbg.spill = alloca ptr, align 8
  store ptr %self, ptr %self.dbg.spill, align 8
  call void @llvm.dbg.declare(metadata ptr %self.dbg.spill, metadata !1104, metadata !DIExpression()), !dbg !1105
  call void @llvm.memcpy.p0.p0.i64(ptr align 4 %_0, ptr align 4 %self, i64 16, i1 false), !dbg !1106
  ret void, !dbg !1107
}

; <libc::unix::bsd::apple::kevent64_s as core::clone::Clone>::clone
; Function Attrs: uwtable
define void @"_ZN73_$LT$libc..unix..bsd..apple..kevent64_s$u20$as$u20$core..clone..Clone$GT$5clone17h46e8f689a308923eE"(ptr sret(%"unix::bsd::apple::kevent64_s") align 8 %_0, ptr align 8 %self) unnamed_addr #0 !dbg !1108 {
start:
  %self.dbg.spill = alloca ptr, align 8
  store ptr %self, ptr %self.dbg.spill, align 8
  call void @llvm.dbg.declare(metadata ptr %self.dbg.spill, metadata !1124, metadata !DIExpression()), !dbg !1125
  call void @llvm.memcpy.p0.p0.i64(ptr align 8 %_0, ptr align 8 %self, i64 48, i1 false), !dbg !1126
  ret void, !dbg !1127
}

; <libc::unix::bsd::apple::dqblk as core::clone::Clone>::clone
; Function Attrs: uwtable
define void @"_ZN68_$LT$libc..unix..bsd..apple..dqblk$u20$as$u20$core..clone..Clone$GT$5clone17h3d7dfabcfd6c141eE"(ptr sret(%"unix::bsd::apple::dqblk") align 8 %_0, ptr align 8 %self) unnamed_addr #0 !dbg !1128 {
start:
  %self.dbg.spill = alloca ptr, align 8
  store ptr %self, ptr %self.dbg.spill, align 8
  call void @llvm.dbg.declare(metadata ptr %self.dbg.spill, metadata !1149, metadata !DIExpression()), !dbg !1150
  call void @llvm.memcpy.p0.p0.i64(ptr align 8 %_0, ptr align 8 %self, i64 64, i1 false), !dbg !1151
  ret void, !dbg !1152
}

; <libc::unix::bsd::apple::if_msghdr as core::clone::Clone>::clone
; Function Attrs: uwtable
define void @"_ZN72_$LT$libc..unix..bsd..apple..if_msghdr$u20$as$u20$core..clone..Clone$GT$5clone17h49b2281c3f24df86E"(ptr sret(%"unix::bsd::apple::if_msghdr") align 4 %_0, ptr align 4 %self) unnamed_addr #0 !dbg !1153 {
start:
  %self.dbg.spill = alloca ptr, align 8
  store ptr %self, ptr %self.dbg.spill, align 8
  call void @llvm.dbg.declare(metadata ptr %self.dbg.spill, metadata !1203, metadata !DIExpression()), !dbg !1204
  call void @llvm.memcpy.p0.p0.i64(ptr align 4 %_0, ptr align 4 %self, i64 112, i1 false), !dbg !1205
  ret void, !dbg !1206
}

; <libc::unix::bsd::apple::ifa_msghdr as core::clone::Clone>::clone
; Function Attrs: uwtable
define void @"_ZN73_$LT$libc..unix..bsd..apple..ifa_msghdr$u20$as$u20$core..clone..Clone$GT$5clone17hbfa6a0966260af8fE"(ptr sret(%"unix::bsd::apple::ifa_msghdr") align 4 %_0, ptr align 4 %self) unnamed_addr #0 !dbg !1207 {
start:
  %self.dbg.spill = alloca ptr, align 8
  store ptr %self, ptr %self.dbg.spill, align 8
  call void @llvm.dbg.declare(metadata ptr %self.dbg.spill, metadata !1222, metadata !DIExpression()), !dbg !1223
  call void @llvm.memcpy.p0.p0.i64(ptr align 4 %_0, ptr align 4 %self, i64 20, i1 false), !dbg !1224
  ret void, !dbg !1225
}

; <libc::unix::bsd::apple::ifma_msghdr as core::clone::Clone>::clone
; Function Attrs: uwtable
define void @"_ZN74_$LT$libc..unix..bsd..apple..ifma_msghdr$u20$as$u20$core..clone..Clone$GT$5clone17hdf461248e3388415E"(ptr sret(%"unix::bsd::apple::ifma_msghdr") align 4 %_0, ptr align 4 %self) unnamed_addr #0 !dbg !1226 {
start:
  %self.dbg.spill = alloca ptr, align 8
  store ptr %self, ptr %self.dbg.spill, align 8
  call void @llvm.dbg.declare(metadata ptr %self.dbg.spill, metadata !1240, metadata !DIExpression()), !dbg !1241
  call void @llvm.memcpy.p0.p0.i64(ptr align 4 %_0, ptr align 4 %self, i64 16, i1 false), !dbg !1242
  ret void, !dbg !1243
}

; <libc::unix::bsd::apple::ifma_msghdr2 as core::clone::Clone>::clone
; Function Attrs: uwtable
define void @"_ZN75_$LT$libc..unix..bsd..apple..ifma_msghdr2$u20$as$u20$core..clone..Clone$GT$5clone17h7e2dc9f20abefd8aE"(ptr sret(%"unix::bsd::apple::ifma_msghdr2") align 4 %_0, ptr align 4 %self) unnamed_addr #0 !dbg !1244 {
start:
  %self.dbg.spill = alloca ptr, align 8
  store ptr %self, ptr %self.dbg.spill, align 8
  call void @llvm.dbg.declare(metadata ptr %self.dbg.spill, metadata !1259, metadata !DIExpression()), !dbg !1260
  call void @llvm.memcpy.p0.p0.i64(ptr align 4 %_0, ptr align 4 %self, i64 20, i1 false), !dbg !1261
  ret void, !dbg !1262
}

; <libc::unix::bsd::apple::rt_metrics as core::clone::Clone>::clone
; Function Attrs: uwtable
define void @"_ZN73_$LT$libc..unix..bsd..apple..rt_metrics$u20$as$u20$core..clone..Clone$GT$5clone17h39832124d6a66795E"(ptr sret(%"unix::bsd::apple::rt_metrics") align 4 %_0, ptr align 4 %self) unnamed_addr #0 !dbg !1263 {
start:
  %self.dbg.spill = alloca ptr, align 8
  store ptr %self, ptr %self.dbg.spill, align 8
  call void @llvm.dbg.declare(metadata ptr %self.dbg.spill, metadata !1286, metadata !DIExpression()), !dbg !1287
  call void @llvm.memcpy.p0.p0.i64(ptr align 4 %_0, ptr align 4 %self, i64 56, i1 false), !dbg !1288
  ret void, !dbg !1289
}

; <libc::unix::bsd::apple::rt_msghdr as core::clone::Clone>::clone
; Function Attrs: uwtable
define void @"_ZN72_$LT$libc..unix..bsd..apple..rt_msghdr$u20$as$u20$core..clone..Clone$GT$5clone17h3db7ac7609028230E"(ptr sret(%"unix::bsd::apple::rt_msghdr") align 4 %_0, ptr align 4 %self) unnamed_addr #0 !dbg !1290 {
start:
  %self.dbg.spill = alloca ptr, align 8
  store ptr %self, ptr %self.dbg.spill, align 8
  call void @llvm.dbg.declare(metadata ptr %self.dbg.spill, metadata !1310, metadata !DIExpression()), !dbg !1311
  call void @llvm.memcpy.p0.p0.i64(ptr align 4 %_0, ptr align 4 %self, i64 92, i1 false), !dbg !1312
  ret void, !dbg !1313
}

; <libc::unix::bsd::apple::rt_msghdr2 as core::clone::Clone>::clone
; Function Attrs: uwtable
define void @"_ZN73_$LT$libc..unix..bsd..apple..rt_msghdr2$u20$as$u20$core..clone..Clone$GT$5clone17h521ff06ea995825aE"(ptr sret(%"unix::bsd::apple::rt_msghdr2") align 4 %_0, ptr align 4 %self) unnamed_addr #0 !dbg !1314 {
start:
  %self.dbg.spill = alloca ptr, align 8
  store ptr %self, ptr %self.dbg.spill, align 8
  call void @llvm.dbg.declare(metadata ptr %self.dbg.spill, metadata !1334, metadata !DIExpression()), !dbg !1335
  call void @llvm.memcpy.p0.p0.i64(ptr align 4 %_0, ptr align 4 %self, i64 92, i1 false), !dbg !1336
  ret void, !dbg !1337
}

; <libc::unix::bsd::apple::termios as core::clone::Clone>::clone
; Function Attrs: uwtable
define void @"_ZN70_$LT$libc..unix..bsd..apple..termios$u20$as$u20$core..clone..Clone$GT$5clone17hb9e58bd42a393c3dE"(ptr sret(%"unix::bsd::apple::termios") align 8 %_0, ptr align 8 %self) unnamed_addr #0 !dbg !1338 {
start:
  %self.dbg.spill = alloca ptr, align 8
  store ptr %self, ptr %self.dbg.spill, align 8
  call void @llvm.dbg.declare(metadata ptr %self.dbg.spill, metadata !1356, metadata !DIExpression()), !dbg !1357
  call void @llvm.memcpy.p0.p0.i64(ptr align 8 %_0, ptr align 8 %self, i64 72, i1 false), !dbg !1358
  ret void, !dbg !1359
}

; <libc::unix::bsd::apple::flock as core::clone::Clone>::clone
; Function Attrs: uwtable
define void @"_ZN68_$LT$libc..unix..bsd..apple..flock$u20$as$u20$core..clone..Clone$GT$5clone17ha813764c16ce84feE"(ptr sret(%"unix::bsd::apple::flock") align 8 %_0, ptr align 8 %self) unnamed_addr #0 !dbg !1360 {
start:
  %self.dbg.spill = alloca ptr, align 8
  store ptr %self, ptr %self.dbg.spill, align 8
  call void @llvm.dbg.declare(metadata ptr %self.dbg.spill, metadata !1373, metadata !DIExpression()), !dbg !1374
  call void @llvm.memcpy.p0.p0.i64(ptr align 8 %_0, ptr align 8 %self, i64 24, i1 false), !dbg !1375
  ret void, !dbg !1376
}

; <libc::unix::bsd::apple::sf_hdtr as core::clone::Clone>::clone
; Function Attrs: uwtable
define void @"_ZN70_$LT$libc..unix..bsd..apple..sf_hdtr$u20$as$u20$core..clone..Clone$GT$5clone17hb6b80aa0995ab94eE"(ptr sret(%"unix::bsd::apple::sf_hdtr") align 8 %_0, ptr align 8 %self) unnamed_addr #0 !dbg !1377 {
start:
  %self.dbg.spill = alloca ptr, align 8
  store ptr %self, ptr %self.dbg.spill, align 8
  call void @llvm.dbg.declare(metadata ptr %self.dbg.spill, metadata !1389, metadata !DIExpression()), !dbg !1390
  call void @llvm.memcpy.p0.p0.i64(ptr align 8 %_0, ptr align 8 %self, i64 32, i1 false), !dbg !1391
  ret void, !dbg !1392
}

; <libc::unix::bsd::apple::lconv as core::clone::Clone>::clone
; Function Attrs: uwtable
define void @"_ZN68_$LT$libc..unix..bsd..apple..lconv$u20$as$u20$core..clone..Clone$GT$5clone17h060954507085134aE"(ptr sret(%"unix::bsd::apple::lconv") align 8 %_0, ptr align 8 %self) unnamed_addr #0 !dbg !1393 {
start:
  %self.dbg.spill = alloca ptr, align 8
  store ptr %self, ptr %self.dbg.spill, align 8
  call void @llvm.dbg.declare(metadata ptr %self.dbg.spill, metadata !1425, metadata !DIExpression()), !dbg !1426
  call void @llvm.memcpy.p0.p0.i64(ptr align 8 %_0, ptr align 8 %self, i64 96, i1 false), !dbg !1427
  ret void, !dbg !1428
}

; <libc::unix::bsd::apple::proc_taskinfo as core::clone::Clone>::clone
; Function Attrs: uwtable
define void @"_ZN76_$LT$libc..unix..bsd..apple..proc_taskinfo$u20$as$u20$core..clone..Clone$GT$5clone17ha796b50447809e4cE"(ptr sret(%"unix::bsd::apple::proc_taskinfo") align 8 %_0, ptr align 8 %self) unnamed_addr #0 !dbg !1429 {
start:
  %self.dbg.spill = alloca ptr, align 8
  store ptr %self, ptr %self.dbg.spill, align 8
  call void @llvm.dbg.declare(metadata ptr %self.dbg.spill, metadata !1455, metadata !DIExpression()), !dbg !1456
  call void @llvm.memcpy.p0.p0.i64(ptr align 8 %_0, ptr align 8 %self, i64 96, i1 false), !dbg !1457
  ret void, !dbg !1458
}

; <libc::unix::bsd::apple::proc_bsdinfo as core::clone::Clone>::clone
; Function Attrs: uwtable
define void @"_ZN75_$LT$libc..unix..bsd..apple..proc_bsdinfo$u20$as$u20$core..clone..Clone$GT$5clone17hd77a6aacb64951f8E"(ptr sret(%"unix::bsd::apple::proc_bsdinfo") align 8 %_0, ptr align 8 %self) unnamed_addr #0 !dbg !1459 {
start:
  %self.dbg.spill = alloca ptr, align 8
  store ptr %self, ptr %self.dbg.spill, align 8
  call void @llvm.dbg.declare(metadata ptr %self.dbg.spill, metadata !1491, metadata !DIExpression()), !dbg !1492
  call void @llvm.memcpy.p0.p0.i64(ptr align 8 %_0, ptr align 8 %self, i64 136, i1 false), !dbg !1493
  ret void, !dbg !1494
}

; <libc::unix::bsd::apple::proc_taskallinfo as core::clone::Clone>::clone
; Function Attrs: uwtable
define void @"_ZN79_$LT$libc..unix..bsd..apple..proc_taskallinfo$u20$as$u20$core..clone..Clone$GT$5clone17ha134879528826922E"(ptr sret(%"unix::bsd::apple::proc_taskallinfo") align 8 %_0, ptr align 8 %self) unnamed_addr #0 !dbg !1495 {
start:
  %self.dbg.spill = alloca ptr, align 8
  store ptr %self, ptr %self.dbg.spill, align 8
  call void @llvm.dbg.declare(metadata ptr %self.dbg.spill, metadata !1505, metadata !DIExpression()), !dbg !1506
  call void @llvm.memcpy.p0.p0.i64(ptr align 8 %_0, ptr align 8 %self, i64 232, i1 false), !dbg !1507
  ret void, !dbg !1508
}

; <libc::unix::bsd::apple::xsw_usage as core::clone::Clone>::clone
; Function Attrs: uwtable
define void @"_ZN72_$LT$libc..unix..bsd..apple..xsw_usage$u20$as$u20$core..clone..Clone$GT$5clone17h07acf9b9b1fe882aE"(ptr sret(%"unix::bsd::apple::xsw_usage") align 8 %_0, ptr align 8 %self) unnamed_addr #0 !dbg !1509 {
start:
  %self.dbg.spill = alloca ptr, align 8
  store ptr %self, ptr %self.dbg.spill, align 8
  call void @llvm.dbg.declare(metadata ptr %self.dbg.spill, metadata !1522, metadata !DIExpression()), !dbg !1523
  call void @llvm.memcpy.p0.p0.i64(ptr align 8 %_0, ptr align 8 %self, i64 32, i1 false), !dbg !1524
  ret void, !dbg !1525
}

; <libc::unix::bsd::apple::xucred as core::clone::Clone>::clone
; Function Attrs: uwtable
define void @"_ZN69_$LT$libc..unix..bsd..apple..xucred$u20$as$u20$core..clone..Clone$GT$5clone17h0dcbf9a86f79498bE"(ptr sret(%"unix::bsd::apple::xucred") align 4 %_0, ptr align 4 %self) unnamed_addr #0 !dbg !1526 {
start:
  %self.dbg.spill = alloca ptr, align 8
  store ptr %self, ptr %self.dbg.spill, align 8
  call void @llvm.dbg.declare(metadata ptr %self.dbg.spill, metadata !1539, metadata !DIExpression()), !dbg !1540
  call void @llvm.memcpy.p0.p0.i64(ptr align 4 %_0, ptr align 4 %self, i64 76, i1 false), !dbg !1541
  ret void, !dbg !1542
}

; <libc::unix::bsd::apple::segment_command as core::clone::Clone>::clone
; Function Attrs: uwtable
define void @"_ZN78_$LT$libc..unix..bsd..apple..segment_command$u20$as$u20$core..clone..Clone$GT$5clone17h6746534311ee161aE"(ptr sret(%"unix::bsd::apple::segment_command") align 4 %_0, ptr align 4 %self) unnamed_addr #0 !dbg !1543 {
start:
  %self.dbg.spill = alloca ptr, align 8
  store ptr %self, ptr %self.dbg.spill, align 8
  call void @llvm.dbg.declare(metadata ptr %self.dbg.spill, metadata !1562, metadata !DIExpression()), !dbg !1563
  call void @llvm.memcpy.p0.p0.i64(ptr align 4 %_0, ptr align 4 %self, i64 56, i1 false), !dbg !1564
  ret void, !dbg !1565
}

; <libc::unix::bsd::apple::segment_command_64 as core::clone::Clone>::clone
; Function Attrs: uwtable
define void @"_ZN81_$LT$libc..unix..bsd..apple..segment_command_64$u20$as$u20$core..clone..Clone$GT$5clone17hc98ca84753aa7f87E"(ptr sret(%"unix::bsd::apple::segment_command_64") align 8 %_0, ptr align 8 %self) unnamed_addr #0 !dbg !1566 {
start:
  %self.dbg.spill = alloca ptr, align 8
  store ptr %self, ptr %self.dbg.spill, align 8
  call void @llvm.dbg.declare(metadata ptr %self.dbg.spill, metadata !1585, metadata !DIExpression()), !dbg !1586
  call void @llvm.memcpy.p0.p0.i64(ptr align 8 %_0, ptr align 8 %self, i64 72, i1 false), !dbg !1587
  ret void, !dbg !1588
}

; <libc::unix::bsd::apple::load_command as core::clone::Clone>::clone
; Function Attrs: uwtable
define { i32, i32 } @"_ZN75_$LT$libc..unix..bsd..apple..load_command$u20$as$u20$core..clone..Clone$GT$5clone17h997e4a663e4cd33bE"(ptr align 4 %self) unnamed_addr #0 !dbg !1589 {
start:
  %self.dbg.spill = alloca ptr, align 8
  store ptr %self, ptr %self.dbg.spill, align 8
  call void @llvm.dbg.declare(metadata ptr %self.dbg.spill, metadata !1599, metadata !DIExpression()), !dbg !1600
  %_0.0 = load i32, ptr %self, align 4, !dbg !1601, !noundef !75
  %0 = getelementptr inbounds i8, ptr %self, i64 4, !dbg !1601
  %_0.1 = load i32, ptr %0, align 4, !dbg !1601, !noundef !75
  %1 = insertvalue { i32, i32 } poison, i32 %_0.0, 0, !dbg !1602
  %2 = insertvalue { i32, i32 } %1, i32 %_0.1, 1, !dbg !1602
  ret { i32, i32 } %2, !dbg !1602
}

; <libc::unix::bsd::apple::sockaddr_dl as core::clone::Clone>::clone
; Function Attrs: uwtable
define void @"_ZN74_$LT$libc..unix..bsd..apple..sockaddr_dl$u20$as$u20$core..clone..Clone$GT$5clone17h227af63880ba3950E"(ptr sret(%"unix::bsd::apple::sockaddr_dl") align 2 %_0, ptr align 2 %self) unnamed_addr #0 !dbg !1603 {
start:
  %self.dbg.spill = alloca ptr, align 8
  store ptr %self, ptr %self.dbg.spill, align 8
  call void @llvm.dbg.declare(metadata ptr %self.dbg.spill, metadata !1622, metadata !DIExpression()), !dbg !1623
  call void @llvm.memcpy.p0.p0.i64(ptr align 2 %_0, ptr align 2 %self, i64 20, i1 false), !dbg !1624
  ret void, !dbg !1625
}

; <libc::unix::bsd::apple::sockaddr_inarp as core::clone::Clone>::clone
; Function Attrs: uwtable
define void @"_ZN77_$LT$libc..unix..bsd..apple..sockaddr_inarp$u20$as$u20$core..clone..Clone$GT$5clone17hc8c01215c0a8d077E"(ptr sret(%"unix::bsd::apple::sockaddr_inarp") align 4 %_0, ptr align 4 %self) unnamed_addr #0 !dbg !1626 {
start:
  %self.dbg.spill = alloca ptr, align 8
  store ptr %self, ptr %self.dbg.spill, align 8
  call void @llvm.dbg.declare(metadata ptr %self.dbg.spill, metadata !1641, metadata !DIExpression()), !dbg !1642
  call void @llvm.memcpy.p0.p0.i64(ptr align 4 %_0, ptr align 4 %self, i64 16, i1 false), !dbg !1643
  ret void, !dbg !1644
}

; <libc::unix::bsd::apple::sockaddr_ctl as core::clone::Clone>::clone
; Function Attrs: uwtable
define void @"_ZN75_$LT$libc..unix..bsd..apple..sockaddr_ctl$u20$as$u20$core..clone..Clone$GT$5clone17h3b4ee081af7796bfE"(ptr sret(%"unix::bsd::apple::sockaddr_ctl") align 4 %_0, ptr align 4 %self) unnamed_addr #0 !dbg !1645 {
start:
  %self.dbg.spill = alloca ptr, align 8
  store ptr %self, ptr %self.dbg.spill, align 8
  call void @llvm.dbg.declare(metadata ptr %self.dbg.spill, metadata !1662, metadata !DIExpression()), !dbg !1663
  call void @llvm.memcpy.p0.p0.i64(ptr align 4 %_0, ptr align 4 %self, i64 32, i1 false), !dbg !1664
  ret void, !dbg !1665
}

; <libc::unix::bsd::apple::in_pktinfo as core::clone::Clone>::clone
; Function Attrs: uwtable
define void @"_ZN73_$LT$libc..unix..bsd..apple..in_pktinfo$u20$as$u20$core..clone..Clone$GT$5clone17h41ad1f5286a97ca0E"(ptr sret(%"unix::bsd::apple::in_pktinfo") align 4 %_0, ptr align 4 %self) unnamed_addr #0 !dbg !1666 {
start:
  %self.dbg.spill = alloca ptr, align 8
  store ptr %self, ptr %self.dbg.spill, align 8
  call void @llvm.dbg.declare(metadata ptr %self.dbg.spill, metadata !1677, metadata !DIExpression()), !dbg !1678
  call void @llvm.memcpy.p0.p0.i64(ptr align 4 %_0, ptr align 4 %self, i64 12, i1 false), !dbg !1679
  ret void, !dbg !1680
}

; <libc::unix::bsd::apple::in6_pktinfo as core::clone::Clone>::clone
; Function Attrs: uwtable
define void @"_ZN74_$LT$libc..unix..bsd..apple..in6_pktinfo$u20$as$u20$core..clone..Clone$GT$5clone17h73ebc98230bf4d0aE"(ptr sret(%"unix::bsd::apple::in6_pktinfo") align 4 %_0, ptr align 4 %self) unnamed_addr #0 !dbg !1681 {
start:
  %self.dbg.spill = alloca ptr, align 8
  store ptr %self, ptr %self.dbg.spill, align 8
  call void @llvm.dbg.declare(metadata ptr %self.dbg.spill, metadata !1691, metadata !DIExpression()), !dbg !1692
  call void @llvm.memcpy.p0.p0.i64(ptr align 4 %_0, ptr align 4 %self, i64 20, i1 false), !dbg !1693
  ret void, !dbg !1694
}

; <libc::unix::bsd::apple::ipc_perm as core::clone::Clone>::clone
; Function Attrs: uwtable
define void @"_ZN71_$LT$libc..unix..bsd..apple..ipc_perm$u20$as$u20$core..clone..Clone$GT$5clone17hd2e6756fe0a7a829E"(ptr sret(%"unix::bsd::apple::ipc_perm") align 4 %_0, ptr align 4 %self) unnamed_addr #0 !dbg !1695 {
start:
  %self.dbg.spill = alloca ptr, align 8
  store ptr %self, ptr %self.dbg.spill, align 8
  call void @llvm.dbg.declare(metadata ptr %self.dbg.spill, metadata !1710, metadata !DIExpression()), !dbg !1711
  call void @llvm.memcpy.p0.p0.i64(ptr align 4 %_0, ptr align 4 %self, i64 24, i1 false), !dbg !1712
  ret void, !dbg !1713
}

; <libc::unix::bsd::apple::sembuf as core::clone::Clone>::clone
; Function Attrs: uwtable
define i48 @"_ZN69_$LT$libc..unix..bsd..apple..sembuf$u20$as$u20$core..clone..Clone$GT$5clone17hf446cba914393319E"(ptr align 2 %self) unnamed_addr #0 !dbg !1714 {
start:
  %self.dbg.spill = alloca ptr, align 8
  %_0 = alloca %"unix::bsd::apple::sembuf", align 2
  store ptr %self, ptr %self.dbg.spill, align 8
  call void @llvm.dbg.declare(metadata ptr %self.dbg.spill, metadata !1725, metadata !DIExpression()), !dbg !1726
  call void @llvm.memcpy.p0.p0.i64(ptr align 2 %_0, ptr align 2 %self, i64 6, i1 false), !dbg !1727
  %0 = load i48, ptr %_0, align 2, !dbg !1728
  ret i48 %0, !dbg !1728
}

; <libc::unix::bsd::apple::arphdr as core::clone::Clone>::clone
; Function Attrs: uwtable
define i64 @"_ZN69_$LT$libc..unix..bsd..apple..arphdr$u20$as$u20$core..clone..Clone$GT$5clone17hadf7d6bf4be7a836E"(ptr align 2 %self) unnamed_addr #0 !dbg !1729 {
start:
  %self.dbg.spill = alloca ptr, align 8
  %_0 = alloca %"unix::bsd::apple::arphdr", align 2
  store ptr %self, ptr %self.dbg.spill, align 8
  call void @llvm.dbg.declare(metadata ptr %self.dbg.spill, metadata !1742, metadata !DIExpression()), !dbg !1743
  call void @llvm.memcpy.p0.p0.i64(ptr align 2 %_0, ptr align 2 %self, i64 8, i1 false), !dbg !1744
  %0 = load i64, ptr %_0, align 2, !dbg !1745
  ret i64 %0, !dbg !1745
}

; <libc::unix::bsd::apple::in_addr as core::clone::Clone>::clone
; Function Attrs: uwtable
define i32 @"_ZN70_$LT$libc..unix..bsd..apple..in_addr$u20$as$u20$core..clone..Clone$GT$5clone17h31893afb8b154d23E"(ptr align 4 %self) unnamed_addr #0 !dbg !1746 {
start:
  %self.dbg.spill = alloca ptr, align 8
  %_0 = alloca %"unix::bsd::apple::in_addr", align 4
  store ptr %self, ptr %self.dbg.spill, align 8
  call void @llvm.dbg.declare(metadata ptr %self.dbg.spill, metadata !1752, metadata !DIExpression()), !dbg !1753
  call void @llvm.memcpy.p0.p0.i64(ptr align 4 %_0, ptr align 4 %self, i64 4, i1 false), !dbg !1754
  %0 = load i32, ptr %_0, align 4, !dbg !1755
  ret i32 %0, !dbg !1755
}

; <libc::unix::bsd::apple::sockaddr_ndrv as core::clone::Clone>::clone
; Function Attrs: uwtable
define void @"_ZN76_$LT$libc..unix..bsd..apple..sockaddr_ndrv$u20$as$u20$core..clone..Clone$GT$5clone17hb4a0ff999b6caa01E"(ptr sret(%"unix::bsd::apple::sockaddr_ndrv") align 1 %_0, ptr align 1 %self) unnamed_addr #0 !dbg !1756 {
start:
  %self.dbg.spill = alloca ptr, align 8
  store ptr %self, ptr %self.dbg.spill, align 8
  call void @llvm.dbg.declare(metadata ptr %self.dbg.spill, metadata !1767, metadata !DIExpression()), !dbg !1768
  call void @llvm.memcpy.p0.p0.i64(ptr align 1 %_0, ptr align 1 %self, i64 18, i1 false), !dbg !1769
  ret void, !dbg !1770
}

; <libc::unix::bsd::apple::sa_endpoints_t as core::clone::Clone>::clone
; Function Attrs: uwtable
define void @"_ZN77_$LT$libc..unix..bsd..apple..sa_endpoints_t$u20$as$u20$core..clone..Clone$GT$5clone17hae6a78ffa2435f9cE"(ptr sret(%"unix::bsd::apple::sa_endpoints_t") align 8 %_0, ptr align 8 %self) unnamed_addr #0 !dbg !1771 {
start:
  %self.dbg.spill = alloca ptr, align 8
  store ptr %self, ptr %self.dbg.spill, align 8
  call void @llvm.dbg.declare(metadata ptr %self.dbg.spill, metadata !1785, metadata !DIExpression()), !dbg !1786
  call void @llvm.memcpy.p0.p0.i64(ptr align 8 %_0, ptr align 8 %self, i64 40, i1 false), !dbg !1787
  ret void, !dbg !1788
}

; <libc::unix::bsd::apple::timex as core::clone::Clone>::clone
; Function Attrs: uwtable
define void @"_ZN68_$LT$libc..unix..bsd..apple..timex$u20$as$u20$core..clone..Clone$GT$5clone17hac8b1b8470d3d4a1E"(ptr sret(%"unix::bsd::apple::timex") align 8 %_0, ptr align 8 %self) unnamed_addr #0 !dbg !1789 {
start:
  %self.dbg.spill = alloca ptr, align 8
  store ptr %self, ptr %self.dbg.spill, align 8
  call void @llvm.dbg.declare(metadata ptr %self.dbg.spill, metadata !1814, metadata !DIExpression()), !dbg !1815
  call void @llvm.memcpy.p0.p0.i64(ptr align 8 %_0, ptr align 8 %self, i64 136, i1 false), !dbg !1816
  ret void, !dbg !1817
}

; <libc::unix::bsd::apple::ntptimeval as core::clone::Clone>::clone
; Function Attrs: uwtable
define void @"_ZN73_$LT$libc..unix..bsd..apple..ntptimeval$u20$as$u20$core..clone..Clone$GT$5clone17h60abeda8cb10e7b3E"(ptr sret(%"unix::bsd::apple::ntptimeval") align 8 %_0, ptr align 8 %self) unnamed_addr #0 !dbg !1818 {
start:
  %self.dbg.spill = alloca ptr, align 8
  store ptr %self, ptr %self.dbg.spill, align 8
  call void @llvm.dbg.declare(metadata ptr %self.dbg.spill, metadata !1831, metadata !DIExpression()), !dbg !1832
  call void @llvm.memcpy.p0.p0.i64(ptr align 8 %_0, ptr align 8 %self, i64 48, i1 false), !dbg !1833
  ret void, !dbg !1834
}

; <libc::unix::bsd::apple::thread_standard_policy as core::clone::Clone>::clone
; Function Attrs: uwtable
define i32 @"_ZN85_$LT$libc..unix..bsd..apple..thread_standard_policy$u20$as$u20$core..clone..Clone$GT$5clone17h43a10f950bf30887E"(ptr align 4 %self) unnamed_addr #0 !dbg !1835 {
start:
  %self.dbg.spill = alloca ptr, align 8
  %_0 = alloca %"unix::bsd::apple::thread_standard_policy", align 4
  store ptr %self, ptr %self.dbg.spill, align 8
  call void @llvm.dbg.declare(metadata ptr %self.dbg.spill, metadata !1844, metadata !DIExpression()), !dbg !1845
  call void @llvm.memcpy.p0.p0.i64(ptr align 4 %_0, ptr align 4 %self, i64 4, i1 false), !dbg !1846
  %0 = load i32, ptr %_0, align 4, !dbg !1847
  ret i32 %0, !dbg !1847
}

; <libc::unix::bsd::apple::thread_extended_policy as core::clone::Clone>::clone
; Function Attrs: uwtable
define i32 @"_ZN85_$LT$libc..unix..bsd..apple..thread_extended_policy$u20$as$u20$core..clone..Clone$GT$5clone17hac9a49acd553d318E"(ptr align 4 %self) unnamed_addr #0 !dbg !1848 {
start:
  %self.dbg.spill = alloca ptr, align 8
  %_0 = alloca %"unix::bsd::apple::thread_extended_policy", align 4
  store ptr %self, ptr %self.dbg.spill, align 8
  call void @llvm.dbg.declare(metadata ptr %self.dbg.spill, metadata !1857, metadata !DIExpression()), !dbg !1858
  call void @llvm.memcpy.p0.p0.i64(ptr align 4 %_0, ptr align 4 %self, i64 4, i1 false), !dbg !1859
  %0 = load i32, ptr %_0, align 4, !dbg !1860
  ret i32 %0, !dbg !1860
}

; <libc::unix::bsd::apple::thread_time_constraint_policy as core::clone::Clone>::clone
; Function Attrs: uwtable
define void @"_ZN92_$LT$libc..unix..bsd..apple..thread_time_constraint_policy$u20$as$u20$core..clone..Clone$GT$5clone17h03901afa62aa3c2cE"(ptr sret(%"unix::bsd::apple::thread_time_constraint_policy") align 4 %_0, ptr align 4 %self) unnamed_addr #0 !dbg !1861 {
start:
  %self.dbg.spill = alloca ptr, align 8
  store ptr %self, ptr %self.dbg.spill, align 8
  call void @llvm.dbg.declare(metadata ptr %self.dbg.spill, metadata !1873, metadata !DIExpression()), !dbg !1874
  call void @llvm.memcpy.p0.p0.i64(ptr align 4 %_0, ptr align 4 %self, i64 16, i1 false), !dbg !1875
  ret void, !dbg !1876
}

; <libc::unix::bsd::apple::thread_precedence_policy as core::clone::Clone>::clone
; Function Attrs: uwtable
define i32 @"_ZN87_$LT$libc..unix..bsd..apple..thread_precedence_policy$u20$as$u20$core..clone..Clone$GT$5clone17h92686be05b90ba8fE"(ptr align 4 %self) unnamed_addr #0 !dbg !1877 {
start:
  %self.dbg.spill = alloca ptr, align 8
  %_0 = alloca %"unix::bsd::apple::thread_precedence_policy", align 4
  store ptr %self, ptr %self.dbg.spill, align 8
  call void @llvm.dbg.declare(metadata ptr %self.dbg.spill, metadata !1886, metadata !DIExpression()), !dbg !1887
  call void @llvm.memcpy.p0.p0.i64(ptr align 4 %_0, ptr align 4 %self, i64 4, i1 false), !dbg !1888
  %0 = load i32, ptr %_0, align 4, !dbg !1889
  ret i32 %0, !dbg !1889
}

; <libc::unix::bsd::apple::thread_affinity_policy as core::clone::Clone>::clone
; Function Attrs: uwtable
define i32 @"_ZN85_$LT$libc..unix..bsd..apple..thread_affinity_policy$u20$as$u20$core..clone..Clone$GT$5clone17h9ea0810787d80ee7E"(ptr align 4 %self) unnamed_addr #0 !dbg !1890 {
start:
  %self.dbg.spill = alloca ptr, align 8
  %_0 = alloca %"unix::bsd::apple::thread_affinity_policy", align 4
  store ptr %self, ptr %self.dbg.spill, align 8
  call void @llvm.dbg.declare(metadata ptr %self.dbg.spill, metadata !1899, metadata !DIExpression()), !dbg !1900
  call void @llvm.memcpy.p0.p0.i64(ptr align 4 %_0, ptr align 4 %self, i64 4, i1 false), !dbg !1901
  %0 = load i32, ptr %_0, align 4, !dbg !1902
  ret i32 %0, !dbg !1902
}

; <libc::unix::bsd::apple::thread_background_policy as core::clone::Clone>::clone
; Function Attrs: uwtable
define i32 @"_ZN87_$LT$libc..unix..bsd..apple..thread_background_policy$u20$as$u20$core..clone..Clone$GT$5clone17hedc71d589e56379bE"(ptr align 4 %self) unnamed_addr #0 !dbg !1903 {
start:
  %self.dbg.spill = alloca ptr, align 8
  %_0 = alloca %"unix::bsd::apple::thread_background_policy", align 4
  store ptr %self, ptr %self.dbg.spill, align 8
  call void @llvm.dbg.declare(metadata ptr %self.dbg.spill, metadata !1912, metadata !DIExpression()), !dbg !1913
  call void @llvm.memcpy.p0.p0.i64(ptr align 4 %_0, ptr align 4 %self, i64 4, i1 false), !dbg !1914
  %0 = load i32, ptr %_0, align 4, !dbg !1915
  ret i32 %0, !dbg !1915
}

; <libc::unix::bsd::apple::thread_latency_qos_policy as core::clone::Clone>::clone
; Function Attrs: uwtable
define i32 @"_ZN88_$LT$libc..unix..bsd..apple..thread_latency_qos_policy$u20$as$u20$core..clone..Clone$GT$5clone17h9d7bc5598581cbb3E"(ptr align 4 %self) unnamed_addr #0 !dbg !1916 {
start:
  %self.dbg.spill = alloca ptr, align 8
  %_0 = alloca %"unix::bsd::apple::thread_latency_qos_policy", align 4
  store ptr %self, ptr %self.dbg.spill, align 8
  call void @llvm.dbg.declare(metadata ptr %self.dbg.spill, metadata !1925, metadata !DIExpression()), !dbg !1926
  call void @llvm.memcpy.p0.p0.i64(ptr align 4 %_0, ptr align 4 %self, i64 4, i1 false), !dbg !1927
  %0 = load i32, ptr %_0, align 4, !dbg !1928
  ret i32 %0, !dbg !1928
}

; <libc::unix::bsd::apple::thread_throughput_qos_policy as core::clone::Clone>::clone
; Function Attrs: uwtable
define i32 @"_ZN91_$LT$libc..unix..bsd..apple..thread_throughput_qos_policy$u20$as$u20$core..clone..Clone$GT$5clone17h5428a566dc9d23dfE"(ptr align 4 %self) unnamed_addr #0 !dbg !1929 {
start:
  %self.dbg.spill = alloca ptr, align 8
  %_0 = alloca %"unix::bsd::apple::thread_throughput_qos_policy", align 4
  store ptr %self, ptr %self.dbg.spill, align 8
  call void @llvm.dbg.declare(metadata ptr %self.dbg.spill, metadata !1938, metadata !DIExpression()), !dbg !1939
  call void @llvm.memcpy.p0.p0.i64(ptr align 4 %_0, ptr align 4 %self, i64 4, i1 false), !dbg !1940
  %0 = load i32, ptr %_0, align 4, !dbg !1941
  ret i32 %0, !dbg !1941
}

; <libc::unix::bsd::apple::malloc_statistics_t as core::clone::Clone>::clone
; Function Attrs: uwtable
define void @"_ZN82_$LT$libc..unix..bsd..apple..malloc_statistics_t$u20$as$u20$core..clone..Clone$GT$5clone17hb4dedbf35020bd37E"(ptr sret(%"unix::bsd::apple::malloc_statistics_t") align 8 %_0, ptr align 8 %self) unnamed_addr #0 !dbg !1942 {
start:
  %self.dbg.spill = alloca ptr, align 8
  store ptr %self, ptr %self.dbg.spill, align 8
  call void @llvm.dbg.declare(metadata ptr %self.dbg.spill, metadata !1954, metadata !DIExpression()), !dbg !1955
  call void @llvm.memcpy.p0.p0.i64(ptr align 8 %_0, ptr align 8 %self, i64 32, i1 false), !dbg !1956
  ret void, !dbg !1957
}

; <libc::unix::bsd::apple::mstats as core::clone::Clone>::clone
; Function Attrs: uwtable
define void @"_ZN69_$LT$libc..unix..bsd..apple..mstats$u20$as$u20$core..clone..Clone$GT$5clone17h47597df9be95375eE"(ptr sret(%"unix::bsd::apple::mstats") align 8 %_0, ptr align 8 %self) unnamed_addr #0 !dbg !1958 {
start:
  %self.dbg.spill = alloca ptr, align 8
  store ptr %self, ptr %self.dbg.spill, align 8
  call void @llvm.dbg.declare(metadata ptr %self.dbg.spill, metadata !1971, metadata !DIExpression()), !dbg !1972
  call void @llvm.memcpy.p0.p0.i64(ptr align 8 %_0, ptr align 8 %self, i64 40, i1 false), !dbg !1973
  ret void, !dbg !1974
}

; <libc::unix::bsd::apple::vm_range_t as core::clone::Clone>::clone
; Function Attrs: uwtable
define { i64, i64 } @"_ZN73_$LT$libc..unix..bsd..apple..vm_range_t$u20$as$u20$core..clone..Clone$GT$5clone17h0da16d40364bb292E"(ptr align 8 %self) unnamed_addr #0 !dbg !1975 {
start:
  %self.dbg.spill = alloca ptr, align 8
  store ptr %self, ptr %self.dbg.spill, align 8
  call void @llvm.dbg.declare(metadata ptr %self.dbg.spill, metadata !1985, metadata !DIExpression()), !dbg !1986
  %_0.0 = load i64, ptr %self, align 8, !dbg !1987, !noundef !75
  %0 = getelementptr inbounds i8, ptr %self, i64 8, !dbg !1987
  %_0.1 = load i64, ptr %0, align 8, !dbg !1987, !noundef !75
  %1 = insertvalue { i64, i64 } poison, i64 %_0.0, 0, !dbg !1988
  %2 = insertvalue { i64, i64 } %1, i64 %_0.1, 1, !dbg !1988
  ret { i64, i64 } %2, !dbg !1988
}

; <libc::unix::bsd::apple::sched_param as core::clone::Clone>::clone
; Function Attrs: uwtable
define i64 @"_ZN74_$LT$libc..unix..bsd..apple..sched_param$u20$as$u20$core..clone..Clone$GT$5clone17h7267cd74c9fafc19E"(ptr align 4 %self) unnamed_addr #0 !dbg !1989 {
start:
  %self.dbg.spill = alloca ptr, align 8
  %_0 = alloca %"unix::bsd::apple::sched_param", align 4
  store ptr %self, ptr %self.dbg.spill, align 8
  call void @llvm.dbg.declare(metadata ptr %self.dbg.spill, metadata !2000, metadata !DIExpression()), !dbg !2001
  call void @llvm.memcpy.p0.p0.i64(ptr align 4 %_0, ptr align 4 %self, i64 8, i1 false), !dbg !2002
  %0 = load i64, ptr %_0, align 4, !dbg !2003
  ret i64 %0, !dbg !2003
}

; <libc::unix::bsd::apple::vinfo_stat as core::clone::Clone>::clone
; Function Attrs: uwtable
define void @"_ZN73_$LT$libc..unix..bsd..apple..vinfo_stat$u20$as$u20$core..clone..Clone$GT$5clone17hfce0bdc8464e2ad7E"(ptr sret(%"unix::bsd::apple::vinfo_stat") align 8 %_0, ptr align 8 %self) unnamed_addr #0 !dbg !2004 {
start:
  %self.dbg.spill = alloca ptr, align 8
  store ptr %self, ptr %self.dbg.spill, align 8
  call void @llvm.dbg.declare(metadata ptr %self.dbg.spill, metadata !2033, metadata !DIExpression()), !dbg !2034
  call void @llvm.memcpy.p0.p0.i64(ptr align 8 %_0, ptr align 8 %self, i64 136, i1 false), !dbg !2035
  ret void, !dbg !2036
}

; <libc::unix::bsd::apple::vnode_info as core::clone::Clone>::clone
; Function Attrs: uwtable
define void @"_ZN73_$LT$libc..unix..bsd..apple..vnode_info$u20$as$u20$core..clone..Clone$GT$5clone17h92716a35fb79bde2E"(ptr sret(%"unix::bsd::apple::vnode_info") align 8 %_0, ptr align 8 %self) unnamed_addr #0 !dbg !2037 {
start:
  %self.dbg.spill = alloca ptr, align 8
  store ptr %self, ptr %self.dbg.spill, align 8
  call void @llvm.dbg.declare(metadata ptr %self.dbg.spill, metadata !2049, metadata !DIExpression()), !dbg !2050
  call void @llvm.memcpy.p0.p0.i64(ptr align 8 %_0, ptr align 8 %self, i64 152, i1 false), !dbg !2051
  ret void, !dbg !2052
}

; <libc::unix::bsd::apple::vnode_info_path as core::clone::Clone>::clone
; Function Attrs: uwtable
define void @"_ZN78_$LT$libc..unix..bsd..apple..vnode_info_path$u20$as$u20$core..clone..Clone$GT$5clone17hb411a6dca67189aeE"(ptr sret(%"unix::bsd::apple::vnode_info_path") align 8 %_0, ptr align 8 %self) unnamed_addr #0 !dbg !2053 {
start:
  %self.dbg.spill = alloca ptr, align 8
  store ptr %self, ptr %self.dbg.spill, align 8
  call void @llvm.dbg.declare(metadata ptr %self.dbg.spill, metadata !2064, metadata !DIExpression()), !dbg !2065
  call void @llvm.memcpy.p0.p0.i64(ptr align 8 %_0, ptr align 8 %self, i64 1176, i1 false), !dbg !2066
  ret void, !dbg !2067
}

; <libc::unix::bsd::apple::proc_vnodepathinfo as core::clone::Clone>::clone
; Function Attrs: uwtable
define void @"_ZN81_$LT$libc..unix..bsd..apple..proc_vnodepathinfo$u20$as$u20$core..clone..Clone$GT$5clone17h9733c044ce6cfa99E"(ptr sret(%"unix::bsd::apple::proc_vnodepathinfo") align 8 %_0, ptr align 8 %self) unnamed_addr #0 !dbg !2068 {
start:
  %self.dbg.spill = alloca ptr, align 8
  store ptr %self, ptr %self.dbg.spill, align 8
  call void @llvm.dbg.declare(metadata ptr %self.dbg.spill, metadata !2078, metadata !DIExpression()), !dbg !2079
  call void @llvm.memcpy.p0.p0.i64(ptr align 8 %_0, ptr align 8 %self, i64 2352, i1 false), !dbg !2080
  ret void, !dbg !2081
}

; <libc::unix::bsd::apple::vm_statistics as core::clone::Clone>::clone
; Function Attrs: uwtable
define void @"_ZN76_$LT$libc..unix..bsd..apple..vm_statistics$u20$as$u20$core..clone..Clone$GT$5clone17h1f79281a6500081eE"(ptr sret(%"unix::bsd::apple::vm_statistics") align 4 %_0, ptr align 4 %self) unnamed_addr #0 !dbg !2082 {
start:
  %self.dbg.spill = alloca ptr, align 8
  store ptr %self, ptr %self.dbg.spill, align 8
  call void @llvm.dbg.declare(metadata ptr %self.dbg.spill, metadata !2105, metadata !DIExpression()), !dbg !2106
  call void @llvm.memcpy.p0.p0.i64(ptr align 4 %_0, ptr align 4 %self, i64 60, i1 false), !dbg !2107
  ret void, !dbg !2108
}

; <libc::unix::bsd::apple::task_thread_times_info as core::clone::Clone>::clone
; Function Attrs: uwtable
define void @"_ZN85_$LT$libc..unix..bsd..apple..task_thread_times_info$u20$as$u20$core..clone..Clone$GT$5clone17h484b4cd448e1cfb4E"(ptr sret(%"unix::bsd::apple::task_thread_times_info") align 4 %_0, ptr align 4 %self) unnamed_addr #0 !dbg !2109 {
start:
  %self.dbg.spill = alloca ptr, align 8
  store ptr %self, ptr %self.dbg.spill, align 8
  call void @llvm.dbg.declare(metadata ptr %self.dbg.spill, metadata !2123, metadata !DIExpression()), !dbg !2124
  call void @llvm.memcpy.p0.p0.i64(ptr align 4 %_0, ptr align 4 %self, i64 16, i1 false), !dbg !2125
  ret void, !dbg !2126
}

; <libc::unix::bsd::apple::rusage_info_v0 as core::clone::Clone>::clone
; Function Attrs: uwtable
define void @"_ZN77_$LT$libc..unix..bsd..apple..rusage_info_v0$u20$as$u20$core..clone..Clone$GT$5clone17hca9d30182d2a26c1E"(ptr sret(%"unix::bsd::apple::rusage_info_v0") align 8 %_0, ptr align 8 %self) unnamed_addr #0 !dbg !2127 {
start:
  %self.dbg.spill = alloca ptr, align 8
  store ptr %self, ptr %self.dbg.spill, align 8
  call void @llvm.dbg.declare(metadata ptr %self.dbg.spill, metadata !2146, metadata !DIExpression()), !dbg !2147
  call void @llvm.memcpy.p0.p0.i64(ptr align 8 %_0, ptr align 8 %self, i64 96, i1 false), !dbg !2148
  ret void, !dbg !2149
}

; <libc::unix::bsd::apple::rusage_info_v1 as core::clone::Clone>::clone
; Function Attrs: uwtable
define void @"_ZN77_$LT$libc..unix..bsd..apple..rusage_info_v1$u20$as$u20$core..clone..Clone$GT$5clone17h3cf812eaff8fb82fE"(ptr sret(%"unix::bsd::apple::rusage_info_v1") align 8 %_0, ptr align 8 %self) unnamed_addr #0 !dbg !2150 {
start:
  %self.dbg.spill = alloca ptr, align 8
  store ptr %self, ptr %self.dbg.spill, align 8
  call void @llvm.dbg.declare(metadata ptr %self.dbg.spill, metadata !2175, metadata !DIExpression()), !dbg !2176
  call void @llvm.memcpy.p0.p0.i64(ptr align 8 %_0, ptr align 8 %self, i64 144, i1 false), !dbg !2177
  ret void, !dbg !2178
}

; <libc::unix::bsd::apple::rusage_info_v2 as core::clone::Clone>::clone
; Function Attrs: uwtable
define void @"_ZN77_$LT$libc..unix..bsd..apple..rusage_info_v2$u20$as$u20$core..clone..Clone$GT$5clone17hd79db5b8dfd23a27E"(ptr sret(%"unix::bsd::apple::rusage_info_v2") align 8 %_0, ptr align 8 %self) unnamed_addr #0 !dbg !2179 {
start:
  %self.dbg.spill = alloca ptr, align 8
  store ptr %self, ptr %self.dbg.spill, align 8
  call void @llvm.dbg.declare(metadata ptr %self.dbg.spill, metadata !2206, metadata !DIExpression()), !dbg !2207
  call void @llvm.memcpy.p0.p0.i64(ptr align 8 %_0, ptr align 8 %self, i64 160, i1 false), !dbg !2208
  ret void, !dbg !2209
}

; <libc::unix::bsd::apple::rusage_info_v3 as core::clone::Clone>::clone
; Function Attrs: uwtable
define void @"_ZN77_$LT$libc..unix..bsd..apple..rusage_info_v3$u20$as$u20$core..clone..Clone$GT$5clone17h3b4e078b35d13999E"(ptr sret(%"unix::bsd::apple::rusage_info_v3") align 8 %_0, ptr align 8 %self) unnamed_addr #0 !dbg !2210 {
start:
  %self.dbg.spill = alloca ptr, align 8
  store ptr %self, ptr %self.dbg.spill, align 8
  call void @llvm.dbg.declare(metadata ptr %self.dbg.spill, metadata !2246, metadata !DIExpression()), !dbg !2247
  call void @llvm.memcpy.p0.p0.i64(ptr align 8 %_0, ptr align 8 %self, i64 232, i1 false), !dbg !2248
  ret void, !dbg !2249
}

; <libc::unix::bsd::apple::rusage_info_v4 as core::clone::Clone>::clone
; Function Attrs: uwtable
define void @"_ZN77_$LT$libc..unix..bsd..apple..rusage_info_v4$u20$as$u20$core..clone..Clone$GT$5clone17hf93dab2cc276ddd9E"(ptr sret(%"unix::bsd::apple::rusage_info_v4") align 8 %_0, ptr align 8 %self) unnamed_addr #0 !dbg !2250 {
start:
  %self.dbg.spill = alloca ptr, align 8
  store ptr %self, ptr %self.dbg.spill, align 8
  call void @llvm.dbg.declare(metadata ptr %self.dbg.spill, metadata !2294, metadata !DIExpression()), !dbg !2295
  call void @llvm.memcpy.p0.p0.i64(ptr align 8 %_0, ptr align 8 %self, i64 296, i1 false), !dbg !2296
  ret void, !dbg !2297
}

; <libc::unix::bsd::apple::image_offset as core::clone::Clone>::clone
; Function Attrs: uwtable
define void @"_ZN75_$LT$libc..unix..bsd..apple..image_offset$u20$as$u20$core..clone..Clone$GT$5clone17h9893e51601a245ebE"(ptr sret(%"unix::bsd::apple::image_offset") align 4 %_0, ptr align 4 %self) unnamed_addr #0 !dbg !2298 {
start:
  %self.dbg.spill = alloca ptr, align 8
  store ptr %self, ptr %self.dbg.spill, align 8
  call void @llvm.dbg.declare(metadata ptr %self.dbg.spill, metadata !2308, metadata !DIExpression()), !dbg !2309
  call void @llvm.memcpy.p0.p0.i64(ptr align 4 %_0, ptr align 4 %self, i64 20, i1 false), !dbg !2310
  ret void, !dbg !2311
}

; <libc::unix::bsd::apple::attrlist as core::clone::Clone>::clone
; Function Attrs: uwtable
define void @"_ZN71_$LT$libc..unix..bsd..apple..attrlist$u20$as$u20$core..clone..Clone$GT$5clone17h70e629cab063b982E"(ptr sret(%"unix::bsd::apple::attrlist") align 4 %_0, ptr align 4 %self) unnamed_addr #0 !dbg !2312 {
start:
  %self.dbg.spill = alloca ptr, align 8
  store ptr %self, ptr %self.dbg.spill, align 8
  call void @llvm.dbg.declare(metadata ptr %self.dbg.spill, metadata !2327, metadata !DIExpression()), !dbg !2328
  call void @llvm.memcpy.p0.p0.i64(ptr align 4 %_0, ptr align 4 %self, i64 24, i1 false), !dbg !2329
  ret void, !dbg !2330
}

; <libc::unix::bsd::apple::attrreference_t as core::clone::Clone>::clone
; Function Attrs: uwtable
define { i32, i32 } @"_ZN78_$LT$libc..unix..bsd..apple..attrreference_t$u20$as$u20$core..clone..Clone$GT$5clone17h9480b7e7b48ecfbdE"(ptr align 4 %self) unnamed_addr #0 !dbg !2331 {
start:
  %self.dbg.spill = alloca ptr, align 8
  store ptr %self, ptr %self.dbg.spill, align 8
  call void @llvm.dbg.declare(metadata ptr %self.dbg.spill, metadata !2341, metadata !DIExpression()), !dbg !2342
  %_0.0 = load i32, ptr %self, align 4, !dbg !2343, !noundef !75
  %0 = getelementptr inbounds i8, ptr %self, i64 4, !dbg !2343
  %_0.1 = load i32, ptr %0, align 4, !dbg !2343, !noundef !75
  %1 = insertvalue { i32, i32 } poison, i32 %_0.0, 0, !dbg !2344
  %2 = insertvalue { i32, i32 } %1, i32 %_0.1, 1, !dbg !2344
  ret { i32, i32 } %2, !dbg !2344
}

; <libc::unix::bsd::apple::vol_capabilities_attr_t as core::clone::Clone>::clone
; Function Attrs: uwtable
define void @"_ZN86_$LT$libc..unix..bsd..apple..vol_capabilities_attr_t$u20$as$u20$core..clone..Clone$GT$5clone17h24761c04cffd4f8dE"(ptr sret(%"unix::bsd::apple::vol_capabilities_attr_t") align 4 %_0, ptr align 4 %self) unnamed_addr #0 !dbg !2345 {
start:
  %self.dbg.spill = alloca ptr, align 8
  store ptr %self, ptr %self.dbg.spill, align 8
  call void @llvm.dbg.declare(metadata ptr %self.dbg.spill, metadata !2355, metadata !DIExpression()), !dbg !2356
  call void @llvm.memcpy.p0.p0.i64(ptr align 4 %_0, ptr align 4 %self, i64 32, i1 false), !dbg !2357
  ret void, !dbg !2358
}

; <libc::unix::bsd::apple::attribute_set_t as core::clone::Clone>::clone
; Function Attrs: uwtable
define void @"_ZN78_$LT$libc..unix..bsd..apple..attribute_set_t$u20$as$u20$core..clone..Clone$GT$5clone17hf2e9efae8d3d030fE"(ptr sret(%"unix::bsd::apple::attribute_set_t") align 4 %_0, ptr align 4 %self) unnamed_addr #0 !dbg !2359 {
start:
  %self.dbg.spill = alloca ptr, align 8
  store ptr %self, ptr %self.dbg.spill, align 8
  call void @llvm.dbg.declare(metadata ptr %self.dbg.spill, metadata !2372, metadata !DIExpression()), !dbg !2373
  call void @llvm.memcpy.p0.p0.i64(ptr align 4 %_0, ptr align 4 %self, i64 20, i1 false), !dbg !2374
  ret void, !dbg !2375
}

; <libc::unix::bsd::apple::vol_attributes_attr_t as core::clone::Clone>::clone
; Function Attrs: uwtable
define void @"_ZN84_$LT$libc..unix..bsd..apple..vol_attributes_attr_t$u20$as$u20$core..clone..Clone$GT$5clone17hd09a1a99ea05363fE"(ptr sret(%"unix::bsd::apple::vol_attributes_attr_t") align 4 %_0, ptr align 4 %self) unnamed_addr #0 !dbg !2376 {
start:
  %self.dbg.spill = alloca ptr, align 8
  store ptr %self, ptr %self.dbg.spill, align 8
  call void @llvm.dbg.declare(metadata ptr %self.dbg.spill, metadata !2386, metadata !DIExpression()), !dbg !2387
  call void @llvm.memcpy.p0.p0.i64(ptr align 4 %_0, ptr align 4 %self, i64 40, i1 false), !dbg !2388
  ret void, !dbg !2389
}

; <libc::unix::bsd::apple::ifconf as core::clone::Clone>::clone
; Function Attrs: uwtable
define void @"_ZN69_$LT$libc..unix..bsd..apple..ifconf$u20$as$u20$core..clone..Clone$GT$5clone17h0a179b6dc3d2b33eE"(ptr sret(%"unix::bsd::apple::ifconf") align 4 %_0, ptr align 4 %self) unnamed_addr #0 !dbg !2390 {
start:
  %self.dbg.spill = alloca ptr, align 8
  store ptr %self, ptr %self.dbg.spill, align 8
  call void @llvm.dbg.declare(metadata ptr %self.dbg.spill, metadata !2441, metadata !DIExpression()), !dbg !2442
  call void @llvm.memcpy.p0.p0.i64(ptr align 4 %_0, ptr align 4 %self, i64 12, i1 false), !dbg !2443
  ret void, !dbg !2444
}

; <libc::unix::bsd::apple::tcp_connection_info as core::clone::Clone>::clone
; Function Attrs: uwtable
define void @"_ZN82_$LT$libc..unix..bsd..apple..tcp_connection_info$u20$as$u20$core..clone..Clone$GT$5clone17h93d0bc5cda1d26d8E"(ptr sret(%"unix::bsd::apple::tcp_connection_info") align 8 %_0, ptr align 8 %self) unnamed_addr #0 !dbg !2445 {
start:
  %self.dbg.spill = alloca ptr, align 8
  store ptr %self, ptr %self.dbg.spill, align 8
  call void @llvm.dbg.declare(metadata ptr %self.dbg.spill, metadata !2492, metadata !DIExpression()), !dbg !2493
  call void @llvm.memcpy.p0.p0.i64(ptr align 8 %_0, ptr align 8 %self, i64 176, i1 false), !dbg !2494
  ret void, !dbg !2495
}

; <libc::unix::bsd::apple::kevent as core::clone::Clone>::clone
; Function Attrs: uwtable
define void @"_ZN69_$LT$libc..unix..bsd..apple..kevent$u20$as$u20$core..clone..Clone$GT$5clone17hdc7ba8c2d3aeb9b9E"(ptr sret(%"unix::bsd::apple::kevent") align 4 %_0, ptr align 4 %self) unnamed_addr #0 !dbg !2496 {
start:
  %self.dbg.spill = alloca ptr, align 8
  store ptr %self, ptr %self.dbg.spill, align 8
  call void @llvm.dbg.declare(metadata ptr %self.dbg.spill, metadata !2511, metadata !DIExpression()), !dbg !2512
  call void @llvm.memcpy.p0.p0.i64(ptr align 4 %_0, ptr align 4 %self, i64 32, i1 false), !dbg !2513
  ret void, !dbg !2514
}

; <libc::unix::bsd::apple::semid_ds as core::clone::Clone>::clone
; Function Attrs: uwtable
define void @"_ZN71_$LT$libc..unix..bsd..apple..semid_ds$u20$as$u20$core..clone..Clone$GT$5clone17ha91ce54048b4d0efE"(ptr sret(%"unix::bsd::apple::semid_ds") align 4 %_0, ptr align 4 %self) unnamed_addr #0 !dbg !2515 {
start:
  %self.dbg.spill = alloca ptr, align 8
  store ptr %self, ptr %self.dbg.spill, align 8
  call void @llvm.dbg.declare(metadata ptr %self.dbg.spill, metadata !2532, metadata !DIExpression()), !dbg !2533
  call void @llvm.memcpy.p0.p0.i64(ptr align 4 %_0, ptr align 4 %self, i64 72, i1 false), !dbg !2534
  ret void, !dbg !2535
}

; <libc::unix::bsd::apple::shmid_ds as core::clone::Clone>::clone
; Function Attrs: uwtable
define void @"_ZN71_$LT$libc..unix..bsd..apple..shmid_ds$u20$as$u20$core..clone..Clone$GT$5clone17h4950a5e0e0a06dd6E"(ptr sret(%"unix::bsd::apple::shmid_ds") align 4 %_0, ptr align 4 %self) unnamed_addr #0 !dbg !2536 {
start:
  %self.dbg.spill = alloca ptr, align 8
  store ptr %self, ptr %self.dbg.spill, align 8
  call void @llvm.dbg.declare(metadata ptr %self.dbg.spill, metadata !2553, metadata !DIExpression()), !dbg !2554
  call void @llvm.memcpy.p0.p0.i64(ptr align 4 %_0, ptr align 4 %self, i64 76, i1 false), !dbg !2555
  ret void, !dbg !2556
}

; <libc::unix::bsd::apple::proc_threadinfo as core::clone::Clone>::clone
; Function Attrs: uwtable
define void @"_ZN78_$LT$libc..unix..bsd..apple..proc_threadinfo$u20$as$u20$core..clone..Clone$GT$5clone17h755b4aa017f5f66aE"(ptr sret(%"unix::bsd::apple::proc_threadinfo") align 8 %_0, ptr align 8 %self) unnamed_addr #0 !dbg !2557 {
start:
  %self.dbg.spill = alloca ptr, align 8
  store ptr %self, ptr %self.dbg.spill, align 8
  call void @llvm.dbg.declare(metadata ptr %self.dbg.spill, metadata !2579, metadata !DIExpression()), !dbg !2580
  call void @llvm.memcpy.p0.p0.i64(ptr align 8 %_0, ptr align 8 %self, i64 112, i1 false), !dbg !2581
  ret void, !dbg !2582
}

; <libc::unix::bsd::apple::statfs as core::clone::Clone>::clone
; Function Attrs: uwtable
define void @"_ZN69_$LT$libc..unix..bsd..apple..statfs$u20$as$u20$core..clone..Clone$GT$5clone17he835719928eba9c9E"(ptr sret(%"unix::bsd::apple::statfs") align 8 %_0, ptr align 8 %self) unnamed_addr #0 !dbg !2583 {
start:
  %self.dbg.spill = alloca ptr, align 8
  store ptr %self, ptr %self.dbg.spill, align 8
  call void @llvm.dbg.declare(metadata ptr %self.dbg.spill, metadata !2614, metadata !DIExpression()), !dbg !2615
  call void @llvm.memcpy.p0.p0.i64(ptr align 8 %_0, ptr align 8 %self, i64 2168, i1 false), !dbg !2616
  ret void, !dbg !2617
}

; <libc::unix::bsd::apple::dirent as core::clone::Clone>::clone
; Function Attrs: uwtable
define void @"_ZN69_$LT$libc..unix..bsd..apple..dirent$u20$as$u20$core..clone..Clone$GT$5clone17h1bfb29494002cd04E"(ptr sret(%"unix::bsd::apple::dirent") align 8 %_0, ptr align 8 %self) unnamed_addr #0 !dbg !2618 {
start:
  %self.dbg.spill = alloca ptr, align 8
  store ptr %self, ptr %self.dbg.spill, align 8
  call void @llvm.dbg.declare(metadata ptr %self.dbg.spill, metadata !2632, metadata !DIExpression()), !dbg !2633
  call void @llvm.memcpy.p0.p0.i64(ptr align 8 %_0, ptr align 8 %self, i64 1048, i1 false), !dbg !2634
  ret void, !dbg !2635
}

; <libc::unix::bsd::apple::pthread_rwlock_t as core::clone::Clone>::clone
; Function Attrs: uwtable
define void @"_ZN79_$LT$libc..unix..bsd..apple..pthread_rwlock_t$u20$as$u20$core..clone..Clone$GT$5clone17h787e0cd441b7ca65E"(ptr sret(%"unix::bsd::apple::pthread_rwlock_t") align 8 %_0, ptr align 8 %self) unnamed_addr #0 !dbg !2636 {
start:
  %self.dbg.spill = alloca ptr, align 8
  store ptr %self, ptr %self.dbg.spill, align 8
  call void @llvm.dbg.declare(metadata ptr %self.dbg.spill, metadata !2649, metadata !DIExpression()), !dbg !2650
  call void @llvm.memcpy.p0.p0.i64(ptr align 8 %_0, ptr align 8 %self, i64 200, i1 false), !dbg !2651
  ret void, !dbg !2652
}

; <libc::unix::bsd::apple::pthread_mutex_t as core::clone::Clone>::clone
; Function Attrs: uwtable
define void @"_ZN78_$LT$libc..unix..bsd..apple..pthread_mutex_t$u20$as$u20$core..clone..Clone$GT$5clone17h8e5e07b5d70ce7a1E"(ptr sret(%"unix::bsd::apple::pthread_mutex_t") align 8 %_0, ptr align 8 %self) unnamed_addr #0 !dbg !2653 {
start:
  %self.dbg.spill = alloca ptr, align 8
  store ptr %self, ptr %self.dbg.spill, align 8
  call void @llvm.dbg.declare(metadata ptr %self.dbg.spill, metadata !2664, metadata !DIExpression()), !dbg !2665
  call void @llvm.memcpy.p0.p0.i64(ptr align 8 %_0, ptr align 8 %self, i64 64, i1 false), !dbg !2666
  ret void, !dbg !2667
}

; <libc::unix::bsd::apple::pthread_cond_t as core::clone::Clone>::clone
; Function Attrs: uwtable
define void @"_ZN77_$LT$libc..unix..bsd..apple..pthread_cond_t$u20$as$u20$core..clone..Clone$GT$5clone17h78f80e68dc4cbc9bE"(ptr sret(%"unix::bsd::apple::pthread_cond_t") align 8 %_0, ptr align 8 %self) unnamed_addr #0 !dbg !2668 {
start:
  %self.dbg.spill = alloca ptr, align 8
  store ptr %self, ptr %self.dbg.spill, align 8
  call void @llvm.dbg.declare(metadata ptr %self.dbg.spill, metadata !2681, metadata !DIExpression()), !dbg !2682
  call void @llvm.memcpy.p0.p0.i64(ptr align 8 %_0, ptr align 8 %self, i64 48, i1 false), !dbg !2683
  ret void, !dbg !2684
}

; <libc::unix::bsd::apple::sockaddr_storage as core::clone::Clone>::clone
; Function Attrs: uwtable
define void @"_ZN79_$LT$libc..unix..bsd..apple..sockaddr_storage$u20$as$u20$core..clone..Clone$GT$5clone17he0c2dcd9b389563cE"(ptr sret(%"unix::bsd::apple::sockaddr_storage") align 8 %_0, ptr align 8 %self) unnamed_addr #0 !dbg !2685 {
start:
  %self.dbg.spill = alloca ptr, align 8
  store ptr %self, ptr %self.dbg.spill, align 8
  call void @llvm.dbg.declare(metadata ptr %self.dbg.spill, metadata !2704, metadata !DIExpression()), !dbg !2705
  call void @llvm.memcpy.p0.p0.i64(ptr align 8 %_0, ptr align 8 %self, i64 128, i1 false), !dbg !2706
  ret void, !dbg !2707
}

; <libc::unix::bsd::apple::utmpx as core::clone::Clone>::clone
; Function Attrs: uwtable
define void @"_ZN68_$LT$libc..unix..bsd..apple..utmpx$u20$as$u20$core..clone..Clone$GT$5clone17h515a8e74e595fa4bE"(ptr sret(%"unix::bsd::apple::utmpx") align 8 %_0, ptr align 8 %self) unnamed_addr #0 !dbg !2708 {
start:
  %self.dbg.spill = alloca ptr, align 8
  store ptr %self, ptr %self.dbg.spill, align 8
  call void @llvm.dbg.declare(metadata ptr %self.dbg.spill, metadata !2724, metadata !DIExpression()), !dbg !2725
  call void @llvm.memcpy.p0.p0.i64(ptr align 8 %_0, ptr align 8 %self, i64 640, i1 false), !dbg !2726
  ret void, !dbg !2727
}

; <libc::unix::bsd::apple::sigevent as core::clone::Clone>::clone
; Function Attrs: uwtable
define void @"_ZN71_$LT$libc..unix..bsd..apple..sigevent$u20$as$u20$core..clone..Clone$GT$5clone17h64463f7f7304bdd5E"(ptr sret(%"unix::bsd::apple::sigevent") align 8 %_0, ptr align 8 %self) unnamed_addr #0 !dbg !2728 {
start:
  %self.dbg.spill = alloca ptr, align 8
  store ptr %self, ptr %self.dbg.spill, align 8
  call void @llvm.dbg.declare(metadata ptr %self.dbg.spill, metadata !2734, metadata !DIExpression()), !dbg !2735
  call void @llvm.memcpy.p0.p0.i64(ptr align 8 %_0, ptr align 8 %self, i64 32, i1 false), !dbg !2736
  ret void, !dbg !2737
}

; <libc::unix::bsd::apple::processor_cpu_load_info as core::clone::Clone>::clone
; Function Attrs: uwtable
define void @"_ZN86_$LT$libc..unix..bsd..apple..processor_cpu_load_info$u20$as$u20$core..clone..Clone$GT$5clone17hde1e58665b080647E"(ptr sret(%"unix::bsd::apple::processor_cpu_load_info") align 4 %_0, ptr align 4 %self) unnamed_addr #0 !dbg !2738 {
start:
  %self.dbg.spill = alloca ptr, align 8
  store ptr %self, ptr %self.dbg.spill, align 8
  call void @llvm.dbg.declare(metadata ptr %self.dbg.spill, metadata !2747, metadata !DIExpression()), !dbg !2748
  call void @llvm.memcpy.p0.p0.i64(ptr align 4 %_0, ptr align 4 %self, i64 16, i1 false), !dbg !2749
  ret void, !dbg !2750
}

; <libc::unix::bsd::apple::processor_basic_info as core::clone::Clone>::clone
; Function Attrs: uwtable
define void @"_ZN83_$LT$libc..unix..bsd..apple..processor_basic_info$u20$as$u20$core..clone..Clone$GT$5clone17h1a65d135c4374a41E"(ptr sret(%"unix::bsd::apple::processor_basic_info") align 4 %_0, ptr align 4 %self) unnamed_addr #0 !dbg !2751 {
start:
  %self.dbg.spill = alloca ptr, align 8
  store ptr %self, ptr %self.dbg.spill, align 8
  call void @llvm.dbg.declare(metadata ptr %self.dbg.spill, metadata !2764, metadata !DIExpression()), !dbg !2765
  call void @llvm.memcpy.p0.p0.i64(ptr align 4 %_0, ptr align 4 %self, i64 20, i1 false), !dbg !2766
  ret void, !dbg !2767
}

; <libc::unix::bsd::apple::processor_set_basic_info as core::clone::Clone>::clone
; Function Attrs: uwtable
define { i32, i32 } @"_ZN87_$LT$libc..unix..bsd..apple..processor_set_basic_info$u20$as$u20$core..clone..Clone$GT$5clone17hac7858da6cf57621E"(ptr align 4 %self) unnamed_addr #0 !dbg !2768 {
start:
  %self.dbg.spill = alloca ptr, align 8
  store ptr %self, ptr %self.dbg.spill, align 8
  call void @llvm.dbg.declare(metadata ptr %self.dbg.spill, metadata !2778, metadata !DIExpression()), !dbg !2779
  %_0.0 = load i32, ptr %self, align 4, !dbg !2780, !noundef !75
  %0 = getelementptr inbounds i8, ptr %self, i64 4, !dbg !2780
  %_0.1 = load i32, ptr %0, align 4, !dbg !2780, !noundef !75
  %1 = insertvalue { i32, i32 } poison, i32 %_0.0, 0, !dbg !2781
  %2 = insertvalue { i32, i32 } %1, i32 %_0.1, 1, !dbg !2781
  ret { i32, i32 } %2, !dbg !2781
}

; <libc::unix::bsd::apple::processor_set_load_info as core::clone::Clone>::clone
; Function Attrs: uwtable
define void @"_ZN86_$LT$libc..unix..bsd..apple..processor_set_load_info$u20$as$u20$core..clone..Clone$GT$5clone17he9fa46c7755d0521E"(ptr sret(%"unix::bsd::apple::processor_set_load_info") align 4 %_0, ptr align 4 %self) unnamed_addr #0 !dbg !2782 {
start:
  %self.dbg.spill = alloca ptr, align 8
  store ptr %self, ptr %self.dbg.spill, align 8
  call void @llvm.dbg.declare(metadata ptr %self.dbg.spill, metadata !2794, metadata !DIExpression()), !dbg !2795
  call void @llvm.memcpy.p0.p0.i64(ptr align 4 %_0, ptr align 4 %self, i64 16, i1 false), !dbg !2796
  ret void, !dbg !2797
}

; <libc::unix::bsd::apple::time_value_t as core::clone::Clone>::clone
; Function Attrs: uwtable
define { i32, i32 } @"_ZN75_$LT$libc..unix..bsd..apple..time_value_t$u20$as$u20$core..clone..Clone$GT$5clone17hdb9a9b3feb11af0eE"(ptr align 4 %self) unnamed_addr #0 !dbg !2798 {
start:
  %self.dbg.spill = alloca ptr, align 8
  store ptr %self, ptr %self.dbg.spill, align 8
  call void @llvm.dbg.declare(metadata ptr %self.dbg.spill, metadata !2804, metadata !DIExpression()), !dbg !2805
  %_0.0 = load i32, ptr %self, align 4, !dbg !2806, !noundef !75
  %0 = getelementptr inbounds i8, ptr %self, i64 4, !dbg !2806
  %_0.1 = load i32, ptr %0, align 4, !dbg !2806, !noundef !75
  %1 = insertvalue { i32, i32 } poison, i32 %_0.0, 0, !dbg !2807
  %2 = insertvalue { i32, i32 } %1, i32 %_0.1, 1, !dbg !2807
  ret { i32, i32 } %2, !dbg !2807
}

; <libc::unix::bsd::apple::thread_basic_info as core::clone::Clone>::clone
; Function Attrs: uwtable
define void @"_ZN80_$LT$libc..unix..bsd..apple..thread_basic_info$u20$as$u20$core..clone..Clone$GT$5clone17he1108518dc7364f9E"(ptr sret(%"unix::bsd::apple::thread_basic_info") align 4 %_0, ptr align 4 %self) unnamed_addr #0 !dbg !2808 {
start:
  %self.dbg.spill = alloca ptr, align 8
  store ptr %self, ptr %self.dbg.spill, align 8
  call void @llvm.dbg.declare(metadata ptr %self.dbg.spill, metadata !2824, metadata !DIExpression()), !dbg !2825
  call void @llvm.memcpy.p0.p0.i64(ptr align 4 %_0, ptr align 4 %self, i64 40, i1 false), !dbg !2826
  ret void, !dbg !2827
}

; <libc::unix::bsd::apple::thread_identifier_info as core::clone::Clone>::clone
; Function Attrs: uwtable
define void @"_ZN85_$LT$libc..unix..bsd..apple..thread_identifier_info$u20$as$u20$core..clone..Clone$GT$5clone17h137f23dabec82f16E"(ptr sret(%"unix::bsd::apple::thread_identifier_info") align 8 %_0, ptr align 8 %self) unnamed_addr #0 !dbg !2828 {
start:
  %self.dbg.spill = alloca ptr, align 8
  store ptr %self, ptr %self.dbg.spill, align 8
  call void @llvm.dbg.declare(metadata ptr %self.dbg.spill, metadata !2839, metadata !DIExpression()), !dbg !2840
  call void @llvm.memcpy.p0.p0.i64(ptr align 8 %_0, ptr align 8 %self, i64 24, i1 false), !dbg !2841
  ret void, !dbg !2842
}

; <libc::unix::bsd::apple::thread_extended_info as core::clone::Clone>::clone
; Function Attrs: uwtable
define void @"_ZN83_$LT$libc..unix..bsd..apple..thread_extended_info$u20$as$u20$core..clone..Clone$GT$5clone17h65bc022bc572ca45E"(ptr sret(%"unix::bsd::apple::thread_extended_info") align 8 %_0, ptr align 8 %self) unnamed_addr #0 !dbg !2843 {
start:
  %self.dbg.spill = alloca ptr, align 8
  store ptr %self, ptr %self.dbg.spill, align 8
  call void @llvm.dbg.declare(metadata ptr %self.dbg.spill, metadata !2862, metadata !DIExpression()), !dbg !2863
  call void @llvm.memcpy.p0.p0.i64(ptr align 8 %_0, ptr align 8 %self, i64 112, i1 false), !dbg !2864
  ret void, !dbg !2865
}

; <libc::unix::bsd::apple::if_data64 as core::clone::Clone>::clone
; Function Attrs: uwtable
define void @"_ZN72_$LT$libc..unix..bsd..apple..if_data64$u20$as$u20$core..clone..Clone$GT$5clone17h262a8d04eb3e841bE"(ptr sret(%"unix::bsd::apple::if_data64") align 4 %_0, ptr align 4 %self) unnamed_addr #0 !dbg !2866 {
start:
  %self.dbg.spill = alloca ptr, align 8
  store ptr %self, ptr %self.dbg.spill, align 8
  call void @llvm.dbg.declare(metadata ptr %self.dbg.spill, metadata !2899, metadata !DIExpression()), !dbg !2900
  call void @llvm.memcpy.p0.p0.i64(ptr align 4 %_0, ptr align 4 %self, i64 128, i1 false), !dbg !2901
  ret void, !dbg !2902
}

; <libc::unix::bsd::apple::if_msghdr2 as core::clone::Clone>::clone
; Function Attrs: uwtable
define void @"_ZN73_$LT$libc..unix..bsd..apple..if_msghdr2$u20$as$u20$core..clone..Clone$GT$5clone17h9a13a3c298bfc93bE"(ptr sret(%"unix::bsd::apple::if_msghdr2") align 4 %_0, ptr align 4 %self) unnamed_addr #0 !dbg !2903 {
start:
  %self.dbg.spill = alloca ptr, align 8
  store ptr %self, ptr %self.dbg.spill, align 8
  call void @llvm.dbg.declare(metadata ptr %self.dbg.spill, metadata !2922, metadata !DIExpression()), !dbg !2923
  call void @llvm.memcpy.p0.p0.i64(ptr align 4 %_0, ptr align 4 %self, i64 160, i1 false), !dbg !2924
  ret void, !dbg !2925
}

; <libc::unix::bsd::apple::vm_statistics64 as core::clone::Clone>::clone
; Function Attrs: uwtable
define void @"_ZN78_$LT$libc..unix..bsd..apple..vm_statistics64$u20$as$u20$core..clone..Clone$GT$5clone17h3e9e73d0c0f340dcE"(ptr sret(%"unix::bsd::apple::vm_statistics64") align 8 %_0, ptr align 8 %self) unnamed_addr #0 !dbg !2926 {
start:
  %self.dbg.spill = alloca ptr, align 8
  store ptr %self, ptr %self.dbg.spill, align 8
  call void @llvm.dbg.declare(metadata ptr %self.dbg.spill, metadata !2958, metadata !DIExpression()), !dbg !2959
  call void @llvm.memcpy.p0.p0.i64(ptr align 8 %_0, ptr align 8 %self, i64 152, i1 false), !dbg !2960
  ret void, !dbg !2961
}

; <libc::unix::bsd::apple::mach_task_basic_info as core::clone::Clone>::clone
; Function Attrs: uwtable
define void @"_ZN83_$LT$libc..unix..bsd..apple..mach_task_basic_info$u20$as$u20$core..clone..Clone$GT$5clone17h3f0fb6856ff705abE"(ptr sret(%"unix::bsd::apple::mach_task_basic_info") align 4 %_0, ptr align 4 %self) unnamed_addr #0 !dbg !2962 {
start:
  %self.dbg.spill = alloca ptr, align 8
  store ptr %self, ptr %self.dbg.spill, align 8
  call void @llvm.dbg.declare(metadata ptr %self.dbg.spill, metadata !2977, metadata !DIExpression()), !dbg !2978
  call void @llvm.memcpy.p0.p0.i64(ptr align 4 %_0, ptr align 4 %self, i64 48, i1 false), !dbg !2979
  ret void, !dbg !2980
}

; <libc::unix::bsd::apple::log2phys as core::clone::Clone>::clone
; Function Attrs: uwtable
define void @"_ZN71_$LT$libc..unix..bsd..apple..log2phys$u20$as$u20$core..clone..Clone$GT$5clone17h6563f2a7d4b18440E"(ptr sret(%"unix::bsd::apple::log2phys") align 4 %_0, ptr align 4 %self) unnamed_addr #0 !dbg !2981 {
start:
  %self.dbg.spill = alloca ptr, align 8
  store ptr %self, ptr %self.dbg.spill, align 8
  call void @llvm.dbg.declare(metadata ptr %self.dbg.spill, metadata !2992, metadata !DIExpression()), !dbg !2993
  call void @llvm.memcpy.p0.p0.i64(ptr align 4 %_0, ptr align 4 %self, i64 20, i1 false), !dbg !2994
  ret void, !dbg !2995
}

; <libc::unix::bsd::apple::os_unfair_lock_s as core::clone::Clone>::clone
; Function Attrs: uwtable
define i32 @"_ZN79_$LT$libc..unix..bsd..apple..os_unfair_lock_s$u20$as$u20$core..clone..Clone$GT$5clone17hcc3343f13af46543E"(ptr align 4 %self) unnamed_addr #0 !dbg !2996 {
start:
  %self.dbg.spill = alloca ptr, align 8
  %_0 = alloca %"unix::bsd::apple::os_unfair_lock_s", align 4
  store ptr %self, ptr %self.dbg.spill, align 8
  call void @llvm.dbg.declare(metadata ptr %self.dbg.spill, metadata !3005, metadata !DIExpression()), !dbg !3006
  call void @llvm.memcpy.p0.p0.i64(ptr align 4 %_0, ptr align 4 %self, i64 4, i1 false), !dbg !3007
  %0 = load i32, ptr %_0, align 4, !dbg !3008
  ret i32 %0, !dbg !3008
}

; <libc::unix::bsd::apple::sockaddr_vm as core::clone::Clone>::clone
; Function Attrs: uwtable
define void @"_ZN74_$LT$libc..unix..bsd..apple..sockaddr_vm$u20$as$u20$core..clone..Clone$GT$5clone17h7f2bdfe03c6dd452E"(ptr sret(%"unix::bsd::apple::sockaddr_vm") align 1 %_0, ptr align 1 %self) unnamed_addr #0 !dbg !3009 {
start:
  %self.dbg.spill = alloca ptr, align 8
  store ptr %self, ptr %self.dbg.spill, align 8
  call void @llvm.dbg.declare(metadata ptr %self.dbg.spill, metadata !3022, metadata !DIExpression()), !dbg !3023
  call void @llvm.memcpy.p0.p0.i64(ptr align 1 %_0, ptr align 1 %self, i64 12, i1 false), !dbg !3024
  ret void, !dbg !3025
}

; <libc::unix::bsd::apple::ifdevmtu as core::clone::Clone>::clone
; Function Attrs: uwtable
define void @"_ZN71_$LT$libc..unix..bsd..apple..ifdevmtu$u20$as$u20$core..clone..Clone$GT$5clone17hb3bdfebb856ea11bE"(ptr sret(%"unix::bsd::apple::ifdevmtu") align 4 %_0, ptr align 4 %self) unnamed_addr #0 !dbg !3026 {
start:
  %self.dbg.spill = alloca ptr, align 8
  store ptr %self, ptr %self.dbg.spill, align 8
  call void @llvm.dbg.declare(metadata ptr %self.dbg.spill, metadata !3032, metadata !DIExpression()), !dbg !3033
  call void @llvm.memcpy.p0.p0.i64(ptr align 4 %_0, ptr align 4 %self, i64 12, i1 false), !dbg !3034
  ret void, !dbg !3035
}

; <libc::unix::bsd::apple::__c_anonymous_ifk_data as core::clone::Clone>::clone
; Function Attrs: uwtable
define i64 @"_ZN85_$LT$libc..unix..bsd..apple..__c_anonymous_ifk_data$u20$as$u20$core..clone..Clone$GT$5clone17hbc7d7db07ac5fe42E"(ptr align 8 %self) unnamed_addr #0 !dbg !3036 {
start:
  %self.dbg.spill = alloca ptr, align 8
  %_0 = alloca %"unix::bsd::apple::__c_anonymous_ifk_data", align 8
  store ptr %self, ptr %self.dbg.spill, align 8
  call void @llvm.dbg.declare(metadata ptr %self.dbg.spill, metadata !3042, metadata !DIExpression()), !dbg !3043
  call void @llvm.memcpy.p0.p0.i64(ptr align 8 %_0, ptr align 8 %self, i64 8, i1 false), !dbg !3044
  %0 = load i64, ptr %_0, align 8, !dbg !3045
  ret i64 %0, !dbg !3045
}

; <libc::unix::bsd::apple::ifkpi as core::clone::Clone>::clone
; Function Attrs: uwtable
define void @"_ZN68_$LT$libc..unix..bsd..apple..ifkpi$u20$as$u20$core..clone..Clone$GT$5clone17h56bb99005b164208E"(ptr sret(%"unix::bsd::apple::ifkpi") align 4 %_0, ptr align 4 %self) unnamed_addr #0 !dbg !3046 {
start:
  %self.dbg.spill = alloca ptr, align 8
  store ptr %self, ptr %self.dbg.spill, align 8
  call void @llvm.dbg.declare(metadata ptr %self.dbg.spill, metadata !3052, metadata !DIExpression()), !dbg !3053
  call void @llvm.memcpy.p0.p0.i64(ptr align 4 %_0, ptr align 4 %self, i64 16, i1 false), !dbg !3054
  ret void, !dbg !3055
}

; <libc::unix::bsd::apple::__c_anonymous_ifr_ifru as core::clone::Clone>::clone
; Function Attrs: uwtable
define void @"_ZN85_$LT$libc..unix..bsd..apple..__c_anonymous_ifr_ifru$u20$as$u20$core..clone..Clone$GT$5clone17h34698182d72d1666E"(ptr sret(%"unix::bsd::apple::__c_anonymous_ifr_ifru") align 8 %_0, ptr align 8 %self) unnamed_addr #0 !dbg !3056 {
start:
  %self.dbg.spill = alloca ptr, align 8
  store ptr %self, ptr %self.dbg.spill, align 8
  call void @llvm.dbg.declare(metadata ptr %self.dbg.spill, metadata !3062, metadata !DIExpression()), !dbg !3063
  call void @llvm.memcpy.p0.p0.i64(ptr align 8 %_0, ptr align 8 %self, i64 16, i1 false), !dbg !3064
  ret void, !dbg !3065
}

; <libc::unix::bsd::apple::ifreq as core::clone::Clone>::clone
; Function Attrs: uwtable
define void @"_ZN68_$LT$libc..unix..bsd..apple..ifreq$u20$as$u20$core..clone..Clone$GT$5clone17hce2ecfc8d1dd85e8E"(ptr sret(%"unix::bsd::apple::ifreq") align 8 %_0, ptr align 8 %self) unnamed_addr #0 !dbg !3066 {
start:
  %self.dbg.spill = alloca ptr, align 8
  store ptr %self, ptr %self.dbg.spill, align 8
  call void @llvm.dbg.declare(metadata ptr %self.dbg.spill, metadata !3072, metadata !DIExpression()), !dbg !3073
  call void @llvm.memcpy.p0.p0.i64(ptr align 8 %_0, ptr align 8 %self, i64 32, i1 false), !dbg !3074
  ret void, !dbg !3075
}

; <libc::unix::bsd::apple::__c_anonymous_ifc_ifcu as core::clone::Clone>::clone
; Function Attrs: uwtable
define i64 @"_ZN85_$LT$libc..unix..bsd..apple..__c_anonymous_ifc_ifcu$u20$as$u20$core..clone..Clone$GT$5clone17hfca391feb4868740E"(ptr align 8 %self) unnamed_addr #0 !dbg !3076 {
start:
  %self.dbg.spill = alloca ptr, align 8
  %_0 = alloca %"unix::bsd::apple::__c_anonymous_ifc_ifcu", align 8
  store ptr %self, ptr %self.dbg.spill, align 8
  call void @llvm.dbg.declare(metadata ptr %self.dbg.spill, metadata !3082, metadata !DIExpression()), !dbg !3083
  call void @llvm.memcpy.p0.p0.i64(ptr align 8 %_0, ptr align 8 %self, i64 8, i1 false), !dbg !3084
  %0 = load i64, ptr %_0, align 8, !dbg !3085
  ret i64 %0, !dbg !3085
}

; <libc::unix::bsd::apple::semun as core::clone::Clone>::clone
; Function Attrs: uwtable
define i64 @"_ZN68_$LT$libc..unix..bsd..apple..semun$u20$as$u20$core..clone..Clone$GT$5clone17h32cb0aa204d6daedE"(ptr align 8 %self) unnamed_addr #0 !dbg !3086 {
start:
  %self.dbg.spill = alloca ptr, align 8
  %_0 = alloca %"unix::bsd::apple::semun", align 8
  store ptr %self, ptr %self.dbg.spill, align 8
  call void @llvm.dbg.declare(metadata ptr %self.dbg.spill, metadata !3099, metadata !DIExpression()), !dbg !3100
  call void @llvm.memcpy.p0.p0.i64(ptr align 8 %_0, ptr align 8 %self, i64 8, i1 false), !dbg !3101
  %0 = load i64, ptr %_0, align 8, !dbg !3102
  ret i64 %0, !dbg !3102
}

; <libc::unix::bsd::apple::b64::timeval32 as core::clone::Clone>::clone
; Function Attrs: uwtable
define { i32, i32 } @"_ZN77_$LT$libc..unix..bsd..apple..b64..timeval32$u20$as$u20$core..clone..Clone$GT$5clone17h8cc1e704e2628084E"(ptr align 4 %self) unnamed_addr #0 !dbg !3103 {
start:
  %self.dbg.spill = alloca ptr, align 8
  store ptr %self, ptr %self.dbg.spill, align 8
  call void @llvm.dbg.declare(metadata ptr %self.dbg.spill, metadata !3109, metadata !DIExpression()), !dbg !3110
  %_0.0 = load i32, ptr %self, align 4, !dbg !3111, !noundef !75
  %0 = getelementptr inbounds i8, ptr %self, i64 4, !dbg !3111
  %_0.1 = load i32, ptr %0, align 4, !dbg !3111, !noundef !75
  %1 = insertvalue { i32, i32 } poison, i32 %_0.0, 0, !dbg !3112
  %2 = insertvalue { i32, i32 } %1, i32 %_0.1, 1, !dbg !3112
  ret { i32, i32 } %2, !dbg !3112
}

; <libc::unix::bsd::apple::b64::if_data as core::clone::Clone>::clone
; Function Attrs: uwtable
define void @"_ZN75_$LT$libc..unix..bsd..apple..b64..if_data$u20$as$u20$core..clone..Clone$GT$5clone17hed91941bbfd1f043E"(ptr sret(%"unix::bsd::apple::b64::if_data") align 4 %_0, ptr align 4 %self) unnamed_addr #0 !dbg !3113 {
start:
  %self.dbg.spill = alloca ptr, align 8
  store ptr %self, ptr %self.dbg.spill, align 8
  call void @llvm.dbg.declare(metadata ptr %self.dbg.spill, metadata !3119, metadata !DIExpression()), !dbg !3120
  call void @llvm.memcpy.p0.p0.i64(ptr align 4 %_0, ptr align 4 %self, i64 96, i1 false), !dbg !3121
  ret void, !dbg !3122
}

; <libc::unix::bsd::apple::b64::bpf_hdr as core::clone::Clone>::clone
; Function Attrs: uwtable
define void @"_ZN75_$LT$libc..unix..bsd..apple..b64..bpf_hdr$u20$as$u20$core..clone..Clone$GT$5clone17h300a745dc9c2276bE"(ptr sret(%"unix::bsd::apple::b64::bpf_hdr") align 4 %_0, ptr align 4 %self) unnamed_addr #0 !dbg !3123 {
start:
  %self.dbg.spill = alloca ptr, align 8
  store ptr %self, ptr %self.dbg.spill, align 8
  call void @llvm.dbg.declare(metadata ptr %self.dbg.spill, metadata !3135, metadata !DIExpression()), !dbg !3136
  call void @llvm.memcpy.p0.p0.i64(ptr align 4 %_0, ptr align 4 %self, i64 20, i1 false), !dbg !3137
  ret void, !dbg !3138
}

; <libc::unix::bsd::apple::b64::pthread_attr_t as core::clone::Clone>::clone
; Function Attrs: uwtable
define void @"_ZN82_$LT$libc..unix..bsd..apple..b64..pthread_attr_t$u20$as$u20$core..clone..Clone$GT$5clone17h90f018e76bf76645E"(ptr sret(%"unix::bsd::apple::b64::pthread_attr_t") align 8 %_0, ptr align 8 %self) unnamed_addr #0 !dbg !3139 {
start:
  %self.dbg.spill = alloca ptr, align 8
  store ptr %self, ptr %self.dbg.spill, align 8
  call void @llvm.dbg.declare(metadata ptr %self.dbg.spill, metadata !3145, metadata !DIExpression()), !dbg !3146
  call void @llvm.memcpy.p0.p0.i64(ptr align 8 %_0, ptr align 8 %self, i64 64, i1 false), !dbg !3147
  ret void, !dbg !3148
}

; <libc::unix::bsd::apple::b64::aarch64::malloc_zone_t as core::clone::Clone>::clone
; Function Attrs: uwtable
define void @"_ZN90_$LT$libc..unix..bsd..apple..b64..aarch64..malloc_zone_t$u20$as$u20$core..clone..Clone$GT$5clone17h508e8d5a5176c832E"(ptr sret(%"unix::bsd::apple::b64::aarch64::malloc_zone_t") align 8 %_0, ptr align 8 %self) unnamed_addr #0 !dbg !3149 {
start:
  %self.dbg.spill = alloca ptr, align 8
  store ptr %self, ptr %self.dbg.spill, align 8
  call void @llvm.dbg.declare(metadata ptr %self.dbg.spill, metadata !3162, metadata !DIExpression()), !dbg !3163
  call void @llvm.memcpy.p0.p0.i64(ptr align 8 %_0, ptr align 8 %self, i64 144, i1 false), !dbg !3164
  ret void, !dbg !3165
}

; <libc::unix::bsd::apple::b64::aarch64::align::max_align_t as core::clone::Clone>::clone
; Function Attrs: uwtable
define i64 @"_ZN95_$LT$libc..unix..bsd..apple..b64..aarch64..align..max_align_t$u20$as$u20$core..clone..Clone$GT$5clone17hdf1ea771d237c7a7E"(ptr align 8 %self) unnamed_addr #0 !dbg !3166 {
start:
  %self.dbg.spill = alloca ptr, align 8
  %_0 = alloca %"unix::bsd::apple::b64::aarch64::align::max_align_t", align 8
  store ptr %self, ptr %self.dbg.spill, align 8
  call void @llvm.dbg.declare(metadata ptr %self.dbg.spill, metadata !3177, metadata !DIExpression()), !dbg !3178
  call void @llvm.memcpy.p0.p0.i64(ptr align 8 %_0, ptr align 8 %self, i64 8, i1 false), !dbg !3179
  %0 = load i64, ptr %_0, align 8, !dbg !3180
  ret i64 %0, !dbg !3180
}

; <libc::unix::bsd::apple::b64::aarch64::align::ucontext_t as core::clone::Clone>::clone
; Function Attrs: uwtable
define void @"_ZN94_$LT$libc..unix..bsd..apple..b64..aarch64..align..ucontext_t$u20$as$u20$core..clone..Clone$GT$5clone17h2d340c697c73b94aE"(ptr sret(%"unix::bsd::apple::b64::aarch64::align::ucontext_t") align 8 %_0, ptr align 8 %self) unnamed_addr #0 !dbg !3181 {
start:
  %self.dbg.spill = alloca ptr, align 8
  store ptr %self, ptr %self.dbg.spill, align 8
  call void @llvm.dbg.declare(metadata ptr %self.dbg.spill, metadata !3226, metadata !DIExpression()), !dbg !3227
  call void @llvm.memcpy.p0.p0.i64(ptr align 8 %_0, ptr align 8 %self, i64 56, i1 false), !dbg !3228
  ret void, !dbg !3229
}

; <libc::unix::bsd::apple::b64::aarch64::align::__darwin_mcontext64 as core::clone::Clone>::clone
; Function Attrs: uwtable
define void @"_ZN103_$LT$libc..unix..bsd..apple..b64..aarch64..align..__darwin_mcontext64$u20$as$u20$core..clone..Clone$GT$5clone17hd05e096da978b933E"(ptr sret(%"unix::bsd::apple::b64::aarch64::align::__darwin_mcontext64") align 16 %_0, ptr align 16 %self) unnamed_addr #0 !dbg !3230 {
start:
  %self.dbg.spill = alloca ptr, align 8
  store ptr %self, ptr %self.dbg.spill, align 8
  call void @llvm.dbg.declare(metadata ptr %self.dbg.spill, metadata !3236, metadata !DIExpression()), !dbg !3237
  call void @llvm.memcpy.p0.p0.i64(ptr align 16 %_0, ptr align 16 %self, i64 816, i1 false), !dbg !3238
  ret void, !dbg !3239
}

; <libc::unix::bsd::apple::b64::aarch64::align::__darwin_arm_exception_state64 as core::clone::Clone>::clone
; Function Attrs: uwtable
define void @"_ZN114_$LT$libc..unix..bsd..apple..b64..aarch64..align..__darwin_arm_exception_state64$u20$as$u20$core..clone..Clone$GT$5clone17h75531274d48aa402E"(ptr sret(%"unix::bsd::apple::b64::aarch64::align::__darwin_arm_exception_state64") align 8 %_0, ptr align 8 %self) unnamed_addr #0 !dbg !3240 {
start:
  %self.dbg.spill = alloca ptr, align 8
  store ptr %self, ptr %self.dbg.spill, align 8
  call void @llvm.dbg.declare(metadata ptr %self.dbg.spill, metadata !3246, metadata !DIExpression()), !dbg !3247
  call void @llvm.memcpy.p0.p0.i64(ptr align 8 %_0, ptr align 8 %self, i64 16, i1 false), !dbg !3248
  ret void, !dbg !3249
}

; <libc::unix::bsd::apple::b64::aarch64::align::__darwin_arm_thread_state64 as core::clone::Clone>::clone
; Function Attrs: uwtable
define void @"_ZN111_$LT$libc..unix..bsd..apple..b64..aarch64..align..__darwin_arm_thread_state64$u20$as$u20$core..clone..Clone$GT$5clone17h0be3cd4a5c9ecaa9E"(ptr sret(%"unix::bsd::apple::b64::aarch64::align::__darwin_arm_thread_state64") align 8 %_0, ptr align 8 %self) unnamed_addr #0 !dbg !3250 {
start:
  %self.dbg.spill = alloca ptr, align 8
  store ptr %self, ptr %self.dbg.spill, align 8
  call void @llvm.dbg.declare(metadata ptr %self.dbg.spill, metadata !3256, metadata !DIExpression()), !dbg !3257
  call void @llvm.memcpy.p0.p0.i64(ptr align 8 %_0, ptr align 8 %self, i64 272, i1 false), !dbg !3258
  ret void, !dbg !3259
}

; <libc::unix::bsd::apple::b64::aarch64::align::__darwin_arm_neon_state64 as core::clone::Clone>::clone
; Function Attrs: uwtable
define void @"_ZN109_$LT$libc..unix..bsd..apple..b64..aarch64..align..__darwin_arm_neon_state64$u20$as$u20$core..clone..Clone$GT$5clone17h6ca5e0d2eb826937E"(ptr sret(%"unix::bsd::apple::b64::aarch64::align::__darwin_arm_neon_state64") align 16 %_0, ptr align 16 %self) unnamed_addr #0 !dbg !3260 {
start:
  %self.dbg.spill = alloca ptr, align 8
  store ptr %self, ptr %self.dbg.spill, align 8
  call void @llvm.dbg.declare(metadata ptr %self.dbg.spill, metadata !3266, metadata !DIExpression()), !dbg !3267
  call void @llvm.memcpy.p0.p0.i64(ptr align 16 %_0, ptr align 16 %self, i64 528, i1 false), !dbg !3268
  ret void, !dbg !3269
}

; <libc::unix::bsd::apple::long_array::ctl_info as core::clone::Clone>::clone
; Function Attrs: uwtable
define void @"_ZN83_$LT$libc..unix..bsd..apple..long_array..ctl_info$u20$as$u20$core..clone..Clone$GT$5clone17h9a7f437828e40ce1E"(ptr sret(%"unix::bsd::apple::long_array::ctl_info") align 4 %_0, ptr align 4 %self) unnamed_addr #0 !dbg !3270 {
start:
  %self.dbg.spill = alloca ptr, align 8
  store ptr %self, ptr %self.dbg.spill, align 8
  call void @llvm.dbg.declare(metadata ptr %self.dbg.spill, metadata !3284, metadata !DIExpression()), !dbg !3285
  call void @llvm.memcpy.p0.p0.i64(ptr align 4 %_0, ptr align 4 %self, i64 100, i1 false), !dbg !3286
  ret void, !dbg !3287
}

; <libc::unix::align::in6_addr as core::clone::Clone>::clone
; Function Attrs: uwtable
define void @"_ZN66_$LT$libc..unix..align..in6_addr$u20$as$u20$core..clone..Clone$GT$5clone17hf8d70b1bacc3c577E"(ptr sret(%"unix::align::in6_addr") align 4 %_0, ptr align 4 %self) unnamed_addr #0 !dbg !3288 {
start:
  %self.dbg.spill = alloca ptr, align 8
  store ptr %self, ptr %self.dbg.spill, align 8
  call void @llvm.dbg.declare(metadata ptr %self.dbg.spill, metadata !3294, metadata !DIExpression()), !dbg !3295
  call void @llvm.memcpy.p0.p0.i64(ptr align 4 %_0, ptr align 4 %self, i64 16, i1 false), !dbg !3296
  ret void, !dbg !3297
}

; Function Attrs: nocallback nofree nosync nounwind speculatable willreturn memory(none)
declare void @llvm.dbg.declare(metadata, metadata, metadata) #2

; Function Attrs: nocallback nofree nounwind willreturn memory(argmem: readwrite)
declare void @llvm.memcpy.p0.p0.i64(ptr noalias nocapture writeonly, ptr noalias nocapture readonly, i64, i1 immarg) #3

; Function Attrs: cold noreturn nounwind memory(inaccessiblemem: write)
declare void @llvm.trap() #4

; Function Attrs: nocallback nofree nosync nounwind speculatable willreturn memory(none)
declare { i64, i1 } @llvm.uadd.with.overflow.i64(i64, i64) #2

; Function Attrs: nocallback nofree nosync nounwind willreturn memory(none)
declare i1 @llvm.expect.i1(i1, i1) #5

; core::panicking::panic
; Function Attrs: cold noinline noreturn uwtable
declare void @_ZN4core9panicking5panic17h5884aad3a9044857E(ptr align 1, i64, ptr align 8) unnamed_addr #6

attributes #0 = { uwtable "frame-pointer"="non-leaf" "probe-stack"="inline-asm" "target-cpu"="apple-m1" }
attributes #1 = { noreturn uwtable "frame-pointer"="non-leaf" "probe-stack"="inline-asm" "target-cpu"="apple-m1" }
attributes #2 = { nocallback nofree nosync nounwind speculatable willreturn memory(none) }
attributes #3 = { nocallback nofree nounwind willreturn memory(argmem: readwrite) }
attributes #4 = { cold noreturn nounwind memory(inaccessiblemem: write) }
attributes #5 = { nocallback nofree nosync nounwind willreturn memory(none) }
attributes #6 = { cold noinline noreturn uwtable "frame-pointer"="non-leaf" "probe-stack"="inline-asm" "target-cpu"="apple-m1" }
attributes #7 = { noreturn }

!llvm.module.flags = !{!0, !1, !2}
!llvm.ident = !{!3}
!llvm.dbg.cu = !{!4}

!0 = !{i32 8, !"PIC Level", i32 2}
!1 = !{i32 2, !"Dwarf Version", i32 4}
!2 = !{i32 2, !"Debug Info Version", i32 3}
!3 = !{!"rustc version 1.78.0-nightly (46b180ec2 2024-03-08)"}
!4 = distinct !DICompileUnit(language: DW_LANG_Rust, file: !5, producer: "clang LLVM (rustc version 1.78.0-nightly (46b180ec2 2024-03-08))", isOptimized: false, runtimeVersion: 0, emissionKind: FullDebug, enums: !6, splitDebugInlining: false, nameTableKind: None)
!5 = !DIFile(filename: "src/lib.rs/@/3o01now2fbcu6ycw", directory: "/private/var/folders/m6/nyw0tbd5239gngtm06pzykr00000gn/T/.tmpPXbnuW/libc")
!6 = !{!7, !15, !28, !54}
!7 = !DICompositeType(tag: DW_TAG_enumeration_type, name: "c_void", scope: !9, file: !8, baseType: !11, size: 8, align: 8, flags: DIFlagEnumClass, elements: !12)
!8 = !DIFile(filename: "<unknown>", directory: "")
!9 = !DINamespace(name: "ffi", scope: !10)
!10 = !DINamespace(name: "core", scope: null)
!11 = !DIBasicType(name: "u8", size: 8, encoding: DW_ATE_unsigned)
!12 = !{!13, !14}
!13 = !DIEnumerator(name: "__variant1", value: 0, isUnsigned: true)
!14 = !DIEnumerator(name: "__variant2", value: 1, isUnsigned: true)
!15 = !DICompositeType(tag: DW_TAG_enumeration_type, name: "qos_class_t", scope: !16, file: !8, baseType: !20, size: 32, align: 32, flags: DIFlagEnumClass, elements: !21)
!16 = !DINamespace(name: "apple", scope: !17)
!17 = !DINamespace(name: "bsd", scope: !18)
!18 = !DINamespace(name: "unix", scope: !19)
!19 = !DINamespace(name: "libc", scope: null)
!20 = !DIBasicType(name: "u32", size: 32, encoding: DW_ATE_unsigned)
!21 = !{!22, !23, !24, !25, !26, !27}
!22 = !DIEnumerator(name: "QOS_CLASS_USER_INTERACTIVE", value: 33, isUnsigned: true)
!23 = !DIEnumerator(name: "QOS_CLASS_USER_INITIATED", value: 25, isUnsigned: true)
!24 = !DIEnumerator(name: "QOS_CLASS_DEFAULT", value: 21, isUnsigned: true)
!25 = !DIEnumerator(name: "QOS_CLASS_UTILITY", value: 17, isUnsigned: true)
!26 = !DIEnumerator(name: "QOS_CLASS_BACKGROUND", value: 9, isUnsigned: true)
!27 = !DIEnumerator(name: "QOS_CLASS_UNSPECIFIED", value: 0, isUnsigned: true)
!28 = !DICompositeType(tag: DW_TAG_enumeration_type, name: "sysdir_search_path_directory_t", scope: !16, file: !8, baseType: !20, size: 32, align: 32, flags: DIFlagEnumClass, elements: !29)
!29 = !{!30, !31, !32, !33, !34, !35, !36, !37, !38, !39, !40, !41, !42, !43, !44, !45, !46, !47, !48, !49, !50, !51, !52, !53}
!30 = !DIEnumerator(name: "SYSDIR_DIRECTORY_APPLICATION", value: 1, isUnsigned: true)
!31 = !DIEnumerator(name: "SYSDIR_DIRECTORY_DEMO_APPLICATION", value: 2, isUnsigned: true)
!32 = !DIEnumerator(name: "SYSDIR_DIRECTORY_DEVELOPER_APPLICATION", value: 3, isUnsigned: true)
!33 = !DIEnumerator(name: "SYSDIR_DIRECTORY_ADMIN_APPLICATION", value: 4, isUnsigned: true)
!34 = !DIEnumerator(name: "SYSDIR_DIRECTORY_LIBRARY", value: 5, isUnsigned: true)
!35 = !DIEnumerator(name: "SYSDIR_DIRECTORY_DEVELOPER", value: 6, isUnsigned: true)
!36 = !DIEnumerator(name: "SYSDIR_DIRECTORY_USER", value: 7, isUnsigned: true)
!37 = !DIEnumerator(name: "SYSDIR_DIRECTORY_DOCUMENTATION", value: 8, isUnsigned: true)
!38 = !DIEnumerator(name: "SYSDIR_DIRECTORY_DOCUMENT", value: 9, isUnsigned: true)
!39 = !DIEnumerator(name: "SYSDIR_DIRECTORY_CORESERVICE", value: 10, isUnsigned: true)
!40 = !DIEnumerator(name: "SYSDIR_DIRECTORY_AUTOSAVED_INFORMATION", value: 11, isUnsigned: true)
!41 = !DIEnumerator(name: "SYSDIR_DIRECTORY_DESKTOP", value: 12, isUnsigned: true)
!42 = !DIEnumerator(name: "SYSDIR_DIRECTORY_CACHES", value: 13, isUnsigned: true)
!43 = !DIEnumerator(name: "SYSDIR_DIRECTORY_APPLICATION_SUPPORT", value: 14, isUnsigned: true)
!44 = !DIEnumerator(name: "SYSDIR_DIRECTORY_DOWNLOADS", value: 15, isUnsigned: true)
!45 = !DIEnumerator(name: "SYSDIR_DIRECTORY_INPUT_METHODS", value: 16, isUnsigned: true)
!46 = !DIEnumerator(name: "SYSDIR_DIRECTORY_MOVIES", value: 17, isUnsigned: true)
!47 = !DIEnumerator(name: "SYSDIR_DIRECTORY_MUSIC", value: 18, isUnsigned: true)
!48 = !DIEnumerator(name: "SYSDIR_DIRECTORY_PICTURES", value: 19, isUnsigned: true)
!49 = !DIEnumerator(name: "SYSDIR_DIRECTORY_PRINTER_DESCRIPTION", value: 20, isUnsigned: true)
!50 = !DIEnumerator(name: "SYSDIR_DIRECTORY_SHARED_PUBLIC", value: 21, isUnsigned: true)
!51 = !DIEnumerator(name: "SYSDIR_DIRECTORY_PREFERENCE_PANES", value: 22, isUnsigned: true)
!52 = !DIEnumerator(name: "SYSDIR_DIRECTORY_ALL_APPLICATIONS", value: 100, isUnsigned: true)
!53 = !DIEnumerator(name: "SYSDIR_DIRECTORY_ALL_LIBRARIES", value: 101, isUnsigned: true)
!54 = !DICompositeType(tag: DW_TAG_enumeration_type, name: "sysdir_search_path_domain_mask_t", scope: !16, file: !8, baseType: !20, size: 32, align: 32, flags: DIFlagEnumClass, elements: !55)
!55 = !{!56, !57, !58, !59, !60}
!56 = !DIEnumerator(name: "SYSDIR_DOMAIN_MASK_USER", value: 1, isUnsigned: true)
!57 = !DIEnumerator(name: "SYSDIR_DOMAIN_MASK_LOCAL", value: 2, isUnsigned: true)
!58 = !DIEnumerator(name: "SYSDIR_DOMAIN_MASK_NETWORK", value: 4, isUnsigned: true)
!59 = !DIEnumerator(name: "SYSDIR_DOMAIN_MASK_SYSTEM", value: 8, isUnsigned: true)
!60 = !DIEnumerator(name: "SYSDIR_DOMAIN_MASK_ALL", value: 65535, isUnsigned: true)
!61 = distinct !DISubprogram(name: "clone", linkageName: "_ZN56_$LT$libc..unix..group$u20$as$u20$core..clone..Clone$GT$5clone17h563995e0cdcc0570E", scope: !63, file: !62, line: 83, type: !64, scopeLine: 83, flags: DIFlagPrototyped, spFlags: DISPFlagDefinition, unit: !4, templateParams: !75, retainedNodes: !77)
!62 = !DIFile(filename: "src/macros.rs", directory: "/private/var/folders/m6/nyw0tbd5239gngtm06pzykr00000gn/T/.tmpPXbnuW/libc", checksumkind: CSK_MD5, checksum: "bc1ba182f4f705e3391e34bb921b3b85")
!63 = !DINamespace(name: "{impl#1}", scope: !18)
!64 = !DISubroutineType(types: !65)
!65 = !{!66, !76}
!66 = !DICompositeType(tag: DW_TAG_structure_type, name: "group", scope: !18, file: !8, size: 256, align: 64, flags: DIFlagPublic, elements: !67, templateParams: !75, identifier: "f3edc5251af0c3fd15b30079c88e8e1f")
!67 = !{!68, !71, !72, !73}
!68 = !DIDerivedType(tag: DW_TAG_member, name: "gr_name", scope: !66, file: !8, baseType: !69, size: 64, align: 64, flags: DIFlagPublic)
!69 = !DIDerivedType(tag: DW_TAG_pointer_type, name: "*mut i8", baseType: !70, size: 64, align: 64, dwarfAddressSpace: 0)
!70 = !DIBasicType(name: "i8", size: 8, encoding: DW_ATE_signed)
!71 = !DIDerivedType(tag: DW_TAG_member, name: "gr_passwd", scope: !66, file: !8, baseType: !69, size: 64, align: 64, offset: 64, flags: DIFlagPublic)
!72 = !DIDerivedType(tag: DW_TAG_member, name: "gr_gid", scope: !66, file: !8, baseType: !20, size: 32, align: 32, offset: 128, flags: DIFlagPublic)
!73 = !DIDerivedType(tag: DW_TAG_member, name: "gr_mem", scope: !66, file: !8, baseType: !74, size: 64, align: 64, offset: 192, flags: DIFlagPublic)
!74 = !DIDerivedType(tag: DW_TAG_pointer_type, name: "*mut *mut i8", baseType: !69, size: 64, align: 64, dwarfAddressSpace: 0)
!75 = !{}
!76 = !DIDerivedType(tag: DW_TAG_pointer_type, name: "&libc::unix::group", baseType: !66, size: 64, align: 64, dwarfAddressSpace: 0)
!77 = !{!78}
!78 = !DILocalVariable(name: "self", arg: 1, scope: !61, file: !62, line: 83, type: !76)
!79 = !DILocation(line: 83, column: 22, scope: !61)
!80 = !DILocation(line: 83, column: 37, scope: !61)
!81 = !DILocation(line: 83, column: 44, scope: !61)
!82 = distinct !DISubprogram(name: "clone", linkageName: "_ZN58_$LT$libc..unix..utimbuf$u20$as$u20$core..clone..Clone$GT$5clone17h424c4c045d682301E", scope: !83, file: !62, line: 83, type: !84, scopeLine: 83, flags: DIFlagPrototyped, spFlags: DISPFlagDefinition, unit: !4, templateParams: !75, retainedNodes: !92)
!83 = !DINamespace(name: "{impl#3}", scope: !18)
!84 = !DISubroutineType(types: !85)
!85 = !{!86, !91}
!86 = !DICompositeType(tag: DW_TAG_structure_type, name: "utimbuf", scope: !18, file: !8, size: 128, align: 64, flags: DIFlagPublic, elements: !87, templateParams: !75, identifier: "1e489b94b078f06b4704d55e665623dc")
!87 = !{!88, !90}
!88 = !DIDerivedType(tag: DW_TAG_member, name: "actime", scope: !86, file: !8, baseType: !89, size: 64, align: 64, flags: DIFlagPublic)
!89 = !DIBasicType(name: "i64", size: 64, encoding: DW_ATE_signed)
!90 = !DIDerivedType(tag: DW_TAG_member, name: "modtime", scope: !86, file: !8, baseType: !89, size: 64, align: 64, offset: 64, flags: DIFlagPublic)
!91 = !DIDerivedType(tag: DW_TAG_pointer_type, name: "&libc::unix::utimbuf", baseType: !86, size: 64, align: 64, dwarfAddressSpace: 0)
!92 = !{!93}
!93 = !DILocalVariable(name: "self", arg: 1, scope: !82, file: !62, line: 83, type: !91)
!94 = !DILocation(line: 83, column: 22, scope: !82)
!95 = !DILocation(line: 83, column: 37, scope: !82)
!96 = !DILocation(line: 83, column: 44, scope: !82)
!97 = distinct !DISubprogram(name: "clone", linkageName: "_ZN58_$LT$libc..unix..timeval$u20$as$u20$core..clone..Clone$GT$5clone17hed3b0f095623fd46E", scope: !98, file: !62, line: 83, type: !99, scopeLine: 83, flags: DIFlagPrototyped, spFlags: DISPFlagDefinition, unit: !4, templateParams: !75, retainedNodes: !107)
!98 = !DINamespace(name: "{impl#5}", scope: !18)
!99 = !DISubroutineType(types: !100)
!100 = !{!101, !106}
!101 = !DICompositeType(tag: DW_TAG_structure_type, name: "timeval", scope: !18, file: !8, size: 128, align: 64, flags: DIFlagPublic, elements: !102, templateParams: !75, identifier: "3951e03ba1c6f43197f03aa9a600646f")
!102 = !{!103, !104}
!103 = !DIDerivedType(tag: DW_TAG_member, name: "tv_sec", scope: !101, file: !8, baseType: !89, size: 64, align: 64, flags: DIFlagPublic)
!104 = !DIDerivedType(tag: DW_TAG_member, name: "tv_usec", scope: !101, file: !8, baseType: !105, size: 32, align: 32, offset: 64, flags: DIFlagPublic)
!105 = !DIBasicType(name: "i32", size: 32, encoding: DW_ATE_signed)
!106 = !DIDerivedType(tag: DW_TAG_pointer_type, name: "&libc::unix::timeval", baseType: !101, size: 64, align: 64, dwarfAddressSpace: 0)
!107 = !{!108}
!108 = !DILocalVariable(name: "self", arg: 1, scope: !97, file: !62, line: 83, type: !106)
!109 = !DILocation(line: 83, column: 22, scope: !97)
!110 = !DILocation(line: 83, column: 37, scope: !97)
!111 = !DILocation(line: 83, column: 44, scope: !97)
!112 = distinct !DISubprogram(name: "clone", linkageName: "_ZN59_$LT$libc..unix..timespec$u20$as$u20$core..clone..Clone$GT$5clone17h4ccaa316fb219f4aE", scope: !113, file: !62, line: 83, type: !114, scopeLine: 83, flags: DIFlagPrototyped, spFlags: DISPFlagDefinition, unit: !4, templateParams: !75, retainedNodes: !121)
!113 = !DINamespace(name: "{impl#7}", scope: !18)
!114 = !DISubroutineType(types: !115)
!115 = !{!116, !120}
!116 = !DICompositeType(tag: DW_TAG_structure_type, name: "timespec", scope: !18, file: !8, size: 128, align: 64, flags: DIFlagPublic, elements: !117, templateParams: !75, identifier: "1cfbb9a9069ff19a8993b754b041a8")
!117 = !{!118, !119}
!118 = !DIDerivedType(tag: DW_TAG_member, name: "tv_sec", scope: !116, file: !8, baseType: !89, size: 64, align: 64, flags: DIFlagPublic)
!119 = !DIDerivedType(tag: DW_TAG_member, name: "tv_nsec", scope: !116, file: !8, baseType: !89, size: 64, align: 64, offset: 64, flags: DIFlagPublic)
!120 = !DIDerivedType(tag: DW_TAG_pointer_type, name: "&libc::unix::timespec", baseType: !116, size: 64, align: 64, dwarfAddressSpace: 0)
!121 = !{!122}
!122 = !DILocalVariable(name: "self", arg: 1, scope: !112, file: !62, line: 83, type: !120)
!123 = !DILocation(line: 83, column: 22, scope: !112)
!124 = !DILocation(line: 83, column: 37, scope: !112)
!125 = !DILocation(line: 83, column: 44, scope: !112)
!126 = distinct !DISubprogram(name: "clone", linkageName: "_ZN57_$LT$libc..unix..rlimit$u20$as$u20$core..clone..Clone$GT$5clone17h3cb49cb0708d47f9E", scope: !127, file: !62, line: 83, type: !128, scopeLine: 83, flags: DIFlagPrototyped, spFlags: DISPFlagDefinition, unit: !4, templateParams: !75, retainedNodes: !136)
!127 = !DINamespace(name: "{impl#9}", scope: !18)
!128 = !DISubroutineType(types: !129)
!129 = !{!130, !135}
!130 = !DICompositeType(tag: DW_TAG_structure_type, name: "rlimit", scope: !18, file: !8, size: 128, align: 64, flags: DIFlagPublic, elements: !131, templateParams: !75, identifier: "1c1ceea0ba7747c8a4aebfd12e707c32")
!131 = !{!132, !134}
!132 = !DIDerivedType(tag: DW_TAG_member, name: "rlim_cur", scope: !130, file: !8, baseType: !133, size: 64, align: 64, flags: DIFlagPublic)
!133 = !DIBasicType(name: "u64", size: 64, encoding: DW_ATE_unsigned)
!134 = !DIDerivedType(tag: DW_TAG_member, name: "rlim_max", scope: !130, file: !8, baseType: !133, size: 64, align: 64, offset: 64, flags: DIFlagPublic)
!135 = !DIDerivedType(tag: DW_TAG_pointer_type, name: "&libc::unix::rlimit", baseType: !130, size: 64, align: 64, dwarfAddressSpace: 0)
!136 = !{!137}
!137 = !DILocalVariable(name: "self", arg: 1, scope: !126, file: !62, line: 83, type: !135)
!138 = !DILocation(line: 83, column: 22, scope: !126)
!139 = !DILocation(line: 83, column: 37, scope: !126)
!140 = !DILocation(line: 83, column: 44, scope: !126)
!141 = distinct !DISubprogram(name: "clone", linkageName: "_ZN57_$LT$libc..unix..rusage$u20$as$u20$core..clone..Clone$GT$5clone17h4c7846c379e8acdbE", scope: !142, file: !62, line: 83, type: !143, scopeLine: 83, flags: DIFlagPrototyped, spFlags: DISPFlagDefinition, unit: !4, templateParams: !75, retainedNodes: !164)
!142 = !DINamespace(name: "{impl#11}", scope: !18)
!143 = !DISubroutineType(types: !144)
!144 = !{!145, !163}
!145 = !DICompositeType(tag: DW_TAG_structure_type, name: "rusage", scope: !18, file: !8, size: 1152, align: 64, flags: DIFlagPublic, elements: !146, templateParams: !75, identifier: "4337b298336a738db8a20fe23ce11eb")
!146 = !{!147, !148, !149, !150, !151, !152, !153, !154, !155, !156, !157, !158, !159, !160, !161, !162}
!147 = !DIDerivedType(tag: DW_TAG_member, name: "ru_utime", scope: !145, file: !8, baseType: !101, size: 128, align: 64, flags: DIFlagPublic)
!148 = !DIDerivedType(tag: DW_TAG_member, name: "ru_stime", scope: !145, file: !8, baseType: !101, size: 128, align: 64, offset: 128, flags: DIFlagPublic)
!149 = !DIDerivedType(tag: DW_TAG_member, name: "ru_maxrss", scope: !145, file: !8, baseType: !89, size: 64, align: 64, offset: 256, flags: DIFlagPublic)
!150 = !DIDerivedType(tag: DW_TAG_member, name: "ru_ixrss", scope: !145, file: !8, baseType: !89, size: 64, align: 64, offset: 320, flags: DIFlagPublic)
!151 = !DIDerivedType(tag: DW_TAG_member, name: "ru_idrss", scope: !145, file: !8, baseType: !89, size: 64, align: 64, offset: 384, flags: DIFlagPublic)
!152 = !DIDerivedType(tag: DW_TAG_member, name: "ru_isrss", scope: !145, file: !8, baseType: !89, size: 64, align: 64, offset: 448, flags: DIFlagPublic)
!153 = !DIDerivedType(tag: DW_TAG_member, name: "ru_minflt", scope: !145, file: !8, baseType: !89, size: 64, align: 64, offset: 512, flags: DIFlagPublic)
!154 = !DIDerivedType(tag: DW_TAG_member, name: "ru_majflt", scope: !145, file: !8, baseType: !89, size: 64, align: 64, offset: 576, flags: DIFlagPublic)
!155 = !DIDerivedType(tag: DW_TAG_member, name: "ru_nswap", scope: !145, file: !8, baseType: !89, size: 64, align: 64, offset: 640, flags: DIFlagPublic)
!156 = !DIDerivedType(tag: DW_TAG_member, name: "ru_inblock", scope: !145, file: !8, baseType: !89, size: 64, align: 64, offset: 704, flags: DIFlagPublic)
!157 = !DIDerivedType(tag: DW_TAG_member, name: "ru_oublock", scope: !145, file: !8, baseType: !89, size: 64, align: 64, offset: 768, flags: DIFlagPublic)
!158 = !DIDerivedType(tag: DW_TAG_member, name: "ru_msgsnd", scope: !145, file: !8, baseType: !89, size: 64, align: 64, offset: 832, flags: DIFlagPublic)
!159 = !DIDerivedType(tag: DW_TAG_member, name: "ru_msgrcv", scope: !145, file: !8, baseType: !89, size: 64, align: 64, offset: 896, flags: DIFlagPublic)
!160 = !DIDerivedType(tag: DW_TAG_member, name: "ru_nsignals", scope: !145, file: !8, baseType: !89, size: 64, align: 64, offset: 960, flags: DIFlagPublic)
!161 = !DIDerivedType(tag: DW_TAG_member, name: "ru_nvcsw", scope: !145, file: !8, baseType: !89, size: 64, align: 64, offset: 1024, flags: DIFlagPublic)
!162 = !DIDerivedType(tag: DW_TAG_member, name: "ru_nivcsw", scope: !145, file: !8, baseType: !89, size: 64, align: 64, offset: 1088, flags: DIFlagPublic)
!163 = !DIDerivedType(tag: DW_TAG_pointer_type, name: "&libc::unix::rusage", baseType: !145, size: 64, align: 64, dwarfAddressSpace: 0)
!164 = !{!165}
!165 = !DILocalVariable(name: "self", arg: 1, scope: !141, file: !62, line: 83, type: !163)
!166 = !DILocation(line: 83, column: 22, scope: !141)
!167 = !DILocation(line: 83, column: 37, scope: !141)
!168 = !DILocation(line: 83, column: 44, scope: !141)
!169 = distinct !DISubprogram(name: "clone", linkageName: "_ZN60_$LT$libc..unix..ipv6_mreq$u20$as$u20$core..clone..Clone$GT$5clone17h28f112f5323dfee2E", scope: !170, file: !62, line: 83, type: !171, scopeLine: 83, flags: DIFlagPrototyped, spFlags: DISPFlagDefinition, unit: !4, templateParams: !75, retainedNodes: !185)
!170 = !DINamespace(name: "{impl#13}", scope: !18)
!171 = !DISubroutineType(types: !172)
!172 = !{!173, !184}
!173 = !DICompositeType(tag: DW_TAG_structure_type, name: "ipv6_mreq", scope: !18, file: !8, size: 160, align: 32, flags: DIFlagPublic, elements: !174, templateParams: !75, identifier: "711470e04b772d08470f2098fe67dcd3")
!174 = !{!175, !183}
!175 = !DIDerivedType(tag: DW_TAG_member, name: "ipv6mr_multiaddr", scope: !173, file: !8, baseType: !176, size: 128, align: 32, flags: DIFlagPublic)
!176 = !DICompositeType(tag: DW_TAG_structure_type, name: "in6_addr", scope: !177, file: !8, size: 128, align: 32, flags: DIFlagPublic, elements: !178, templateParams: !75, identifier: "53ecfc500672088fba603a5415d0a659")
!177 = !DINamespace(name: "align", scope: !18)
!178 = !{!179}
!179 = !DIDerivedType(tag: DW_TAG_member, name: "s6_addr", scope: !176, file: !8, baseType: !180, size: 128, align: 8, flags: DIFlagPublic)
!180 = !DICompositeType(tag: DW_TAG_array_type, baseType: !11, size: 128, align: 8, elements: !181)
!181 = !{!182}
!182 = !DISubrange(count: 16, lowerBound: 0)
!183 = !DIDerivedType(tag: DW_TAG_member, name: "ipv6mr_interface", scope: !173, file: !8, baseType: !20, size: 32, align: 32, offset: 128, flags: DIFlagPublic)
!184 = !DIDerivedType(tag: DW_TAG_pointer_type, name: "&libc::unix::ipv6_mreq", baseType: !173, size: 64, align: 64, dwarfAddressSpace: 0)
!185 = !{!186}
!186 = !DILocalVariable(name: "self", arg: 1, scope: !169, file: !62, line: 83, type: !184)
!187 = !DILocation(line: 83, column: 22, scope: !169)
!188 = !DILocation(line: 83, column: 37, scope: !169)
!189 = !DILocation(line: 83, column: 44, scope: !169)
!190 = distinct !DISubprogram(name: "clone", linkageName: "_ZN58_$LT$libc..unix..hostent$u20$as$u20$core..clone..Clone$GT$5clone17h89b254619c21aa8eE", scope: !191, file: !62, line: 83, type: !192, scopeLine: 83, flags: DIFlagPrototyped, spFlags: DISPFlagDefinition, unit: !4, templateParams: !75, retainedNodes: !202)
!191 = !DINamespace(name: "{impl#15}", scope: !18)
!192 = !DISubroutineType(types: !193)
!193 = !{!194, !201}
!194 = !DICompositeType(tag: DW_TAG_structure_type, name: "hostent", scope: !18, file: !8, size: 256, align: 64, flags: DIFlagPublic, elements: !195, templateParams: !75, identifier: "ead06ca8dca86841d83000839d2b2c11")
!195 = !{!196, !197, !198, !199, !200}
!196 = !DIDerivedType(tag: DW_TAG_member, name: "h_name", scope: !194, file: !8, baseType: !69, size: 64, align: 64, flags: DIFlagPublic)
!197 = !DIDerivedType(tag: DW_TAG_member, name: "h_aliases", scope: !194, file: !8, baseType: !74, size: 64, align: 64, offset: 64, flags: DIFlagPublic)
!198 = !DIDerivedType(tag: DW_TAG_member, name: "h_addrtype", scope: !194, file: !8, baseType: !105, size: 32, align: 32, offset: 128, flags: DIFlagPublic)
!199 = !DIDerivedType(tag: DW_TAG_member, name: "h_length", scope: !194, file: !8, baseType: !105, size: 32, align: 32, offset: 160, flags: DIFlagPublic)
!200 = !DIDerivedType(tag: DW_TAG_member, name: "h_addr_list", scope: !194, file: !8, baseType: !74, size: 64, align: 64, offset: 192, flags: DIFlagPublic)
!201 = !DIDerivedType(tag: DW_TAG_pointer_type, name: "&libc::unix::hostent", baseType: !194, size: 64, align: 64, dwarfAddressSpace: 0)
!202 = !{!203}
!203 = !DILocalVariable(name: "self", arg: 1, scope: !190, file: !62, line: 83, type: !201)
!204 = !DILocation(line: 83, column: 22, scope: !190)
!205 = !DILocation(line: 83, column: 37, scope: !190)
!206 = !DILocation(line: 83, column: 44, scope: !190)
!207 = distinct !DISubprogram(name: "clone", linkageName: "_ZN56_$LT$libc..unix..iovec$u20$as$u20$core..clone..Clone$GT$5clone17ha7226ff67a805b19E", scope: !208, file: !62, line: 83, type: !209, scopeLine: 83, flags: DIFlagPrototyped, spFlags: DISPFlagDefinition, unit: !4, templateParams: !75, retainedNodes: !218)
!208 = !DINamespace(name: "{impl#17}", scope: !18)
!209 = !DISubroutineType(types: !210)
!210 = !{!211, !217}
!211 = !DICompositeType(tag: DW_TAG_structure_type, name: "iovec", scope: !18, file: !8, size: 128, align: 64, flags: DIFlagPublic, elements: !212, templateParams: !75, identifier: "14f02c70e319865620d0c2026c50f357")
!212 = !{!213, !215}
!213 = !DIDerivedType(tag: DW_TAG_member, name: "iov_base", scope: !211, file: !8, baseType: !214, size: 64, align: 64, flags: DIFlagPublic)
!214 = !DIDerivedType(tag: DW_TAG_pointer_type, name: "*mut core::ffi::c_void", baseType: !7, size: 64, align: 64, dwarfAddressSpace: 0)
!215 = !DIDerivedType(tag: DW_TAG_member, name: "iov_len", scope: !211, file: !8, baseType: !216, size: 64, align: 64, offset: 64, flags: DIFlagPublic)
!216 = !DIBasicType(name: "usize", size: 64, encoding: DW_ATE_unsigned)
!217 = !DIDerivedType(tag: DW_TAG_pointer_type, name: "&libc::unix::iovec", baseType: !211, size: 64, align: 64, dwarfAddressSpace: 0)
!218 = !{!219}
!219 = !DILocalVariable(name: "self", arg: 1, scope: !207, file: !62, line: 83, type: !217)
!220 = !DILocation(line: 83, column: 22, scope: !207)
!221 = !DILocation(line: 83, column: 37, scope: !207)
!222 = !DILocation(line: 83, column: 44, scope: !207)
!223 = distinct !DISubprogram(name: "clone", linkageName: "_ZN57_$LT$libc..unix..pollfd$u20$as$u20$core..clone..Clone$GT$5clone17hd1c9e2a2bbe8f162E", scope: !224, file: !62, line: 83, type: !225, scopeLine: 83, flags: DIFlagPrototyped, spFlags: DISPFlagDefinition, unit: !4, templateParams: !75, retainedNodes: !234)
!224 = !DINamespace(name: "{impl#19}", scope: !18)
!225 = !DISubroutineType(types: !226)
!226 = !{!227, !233}
!227 = !DICompositeType(tag: DW_TAG_structure_type, name: "pollfd", scope: !18, file: !8, size: 64, align: 32, flags: DIFlagPublic, elements: !228, templateParams: !75, identifier: "c6b0bb0a5de227ab311aa34f6c88cffb")
!228 = !{!229, !230, !232}
!229 = !DIDerivedType(tag: DW_TAG_member, name: "fd", scope: !227, file: !8, baseType: !105, size: 32, align: 32, flags: DIFlagPublic)
!230 = !DIDerivedType(tag: DW_TAG_member, name: "events", scope: !227, file: !8, baseType: !231, size: 16, align: 16, offset: 32, flags: DIFlagPublic)
!231 = !DIBasicType(name: "i16", size: 16, encoding: DW_ATE_signed)
!232 = !DIDerivedType(tag: DW_TAG_member, name: "revents", scope: !227, file: !8, baseType: !231, size: 16, align: 16, offset: 48, flags: DIFlagPublic)
!233 = !DIDerivedType(tag: DW_TAG_pointer_type, name: "&libc::unix::pollfd", baseType: !227, size: 64, align: 64, dwarfAddressSpace: 0)
!234 = !{!235}
!235 = !DILocalVariable(name: "self", arg: 1, scope: !223, file: !62, line: 83, type: !233)
!236 = !DILocation(line: 83, column: 22, scope: !223)
!237 = !DILocation(line: 83, column: 37, scope: !223)
!238 = !DILocation(line: 83, column: 44, scope: !223)
!239 = distinct !DISubprogram(name: "clone", linkageName: "_ZN58_$LT$libc..unix..winsize$u20$as$u20$core..clone..Clone$GT$5clone17h8accf3674e49358dE", scope: !240, file: !62, line: 83, type: !241, scopeLine: 83, flags: DIFlagPrototyped, spFlags: DISPFlagDefinition, unit: !4, templateParams: !75, retainedNodes: !251)
!240 = !DINamespace(name: "{impl#21}", scope: !18)
!241 = !DISubroutineType(types: !242)
!242 = !{!243, !250}
!243 = !DICompositeType(tag: DW_TAG_structure_type, name: "winsize", scope: !18, file: !8, size: 64, align: 16, flags: DIFlagPublic, elements: !244, templateParams: !75, identifier: "bb536796fbbd78e68deb47231113079c")
!244 = !{!245, !247, !248, !249}
!245 = !DIDerivedType(tag: DW_TAG_member, name: "ws_row", scope: !243, file: !8, baseType: !246, size: 16, align: 16, flags: DIFlagPublic)
!246 = !DIBasicType(name: "u16", size: 16, encoding: DW_ATE_unsigned)
!247 = !DIDerivedType(tag: DW_TAG_member, name: "ws_col", scope: !243, file: !8, baseType: !246, size: 16, align: 16, offset: 16, flags: DIFlagPublic)
!248 = !DIDerivedType(tag: DW_TAG_member, name: "ws_xpixel", scope: !243, file: !8, baseType: !246, size: 16, align: 16, offset: 32, flags: DIFlagPublic)
!249 = !DIDerivedType(tag: DW_TAG_member, name: "ws_ypixel", scope: !243, file: !8, baseType: !246, size: 16, align: 16, offset: 48, flags: DIFlagPublic)
!250 = !DIDerivedType(tag: DW_TAG_pointer_type, name: "&libc::unix::winsize", baseType: !243, size: 64, align: 64, dwarfAddressSpace: 0)
!251 = !{!252}
!252 = !DILocalVariable(name: "self", arg: 1, scope: !239, file: !62, line: 83, type: !250)
!253 = !DILocation(line: 83, column: 22, scope: !239)
!254 = !DILocation(line: 83, column: 37, scope: !239)
!255 = !DILocation(line: 83, column: 44, scope: !239)
!256 = distinct !DISubprogram(name: "clone", linkageName: "_ZN57_$LT$libc..unix..linger$u20$as$u20$core..clone..Clone$GT$5clone17h7052f5fab7fe1753E", scope: !257, file: !62, line: 83, type: !258, scopeLine: 83, flags: DIFlagPrototyped, spFlags: DISPFlagDefinition, unit: !4, templateParams: !75, retainedNodes: !265)
!257 = !DINamespace(name: "{impl#23}", scope: !18)
!258 = !DISubroutineType(types: !259)
!259 = !{!260, !264}
!260 = !DICompositeType(tag: DW_TAG_structure_type, name: "linger", scope: !18, file: !8, size: 64, align: 32, flags: DIFlagPublic, elements: !261, templateParams: !75, identifier: "12406b8390c1c92afe5aa81ac961f829")
!261 = !{!262, !263}
!262 = !DIDerivedType(tag: DW_TAG_member, name: "l_onoff", scope: !260, file: !8, baseType: !105, size: 32, align: 32, flags: DIFlagPublic)
!263 = !DIDerivedType(tag: DW_TAG_member, name: "l_linger", scope: !260, file: !8, baseType: !105, size: 32, align: 32, offset: 32, flags: DIFlagPublic)
!264 = !DIDerivedType(tag: DW_TAG_pointer_type, name: "&libc::unix::linger", baseType: !260, size: 64, align: 64, dwarfAddressSpace: 0)
!265 = !{!266}
!266 = !DILocalVariable(name: "self", arg: 1, scope: !256, file: !62, line: 83, type: !264)
!267 = !DILocation(line: 83, column: 22, scope: !256)
!268 = !DILocation(line: 83, column: 37, scope: !256)
!269 = !DILocation(line: 83, column: 44, scope: !256)
!270 = distinct !DISubprogram(name: "clone", linkageName: "_ZN57_$LT$libc..unix..sigval$u20$as$u20$core..clone..Clone$GT$5clone17he16218bf8a6f9c11E", scope: !271, file: !62, line: 83, type: !272, scopeLine: 83, flags: DIFlagPrototyped, spFlags: DISPFlagDefinition, unit: !4, templateParams: !75, retainedNodes: !278)
!271 = !DINamespace(name: "{impl#25}", scope: !18)
!272 = !DISubroutineType(types: !273)
!273 = !{!274, !277}
!274 = !DICompositeType(tag: DW_TAG_structure_type, name: "sigval", scope: !18, file: !8, size: 64, align: 64, flags: DIFlagPublic, elements: !275, templateParams: !75, identifier: "260cd143ebb8c63b9f0ebebb97a493fd")
!275 = !{!276}
!276 = !DIDerivedType(tag: DW_TAG_member, name: "sival_ptr", scope: !274, file: !8, baseType: !214, size: 64, align: 64, flags: DIFlagPublic)
!277 = !DIDerivedType(tag: DW_TAG_pointer_type, name: "&libc::unix::sigval", baseType: !274, size: 64, align: 64, dwarfAddressSpace: 0)
!278 = !{!279}
!279 = !DILocalVariable(name: "self", arg: 1, scope: !270, file: !62, line: 83, type: !277)
!280 = !DILocation(line: 83, column: 22, scope: !270)
!281 = !DILocation(line: 83, column: 37, scope: !270)
!282 = !DILocation(line: 83, column: 44, scope: !270)
!283 = distinct !DISubprogram(name: "clone", linkageName: "_ZN60_$LT$libc..unix..itimerval$u20$as$u20$core..clone..Clone$GT$5clone17h02f4ef625299b605E", scope: !284, file: !62, line: 83, type: !285, scopeLine: 83, flags: DIFlagPrototyped, spFlags: DISPFlagDefinition, unit: !4, templateParams: !75, retainedNodes: !292)
!284 = !DINamespace(name: "{impl#27}", scope: !18)
!285 = !DISubroutineType(types: !286)
!286 = !{!287, !291}
!287 = !DICompositeType(tag: DW_TAG_structure_type, name: "itimerval", scope: !18, file: !8, size: 256, align: 64, flags: DIFlagPublic, elements: !288, templateParams: !75, identifier: "6967780f1daa3bad54e53480b5ff8b99")
!288 = !{!289, !290}
!289 = !DIDerivedType(tag: DW_TAG_member, name: "it_interval", scope: !287, file: !8, baseType: !101, size: 128, align: 64, flags: DIFlagPublic)
!290 = !DIDerivedType(tag: DW_TAG_member, name: "it_value", scope: !287, file: !8, baseType: !101, size: 128, align: 64, offset: 128, flags: DIFlagPublic)
!291 = !DIDerivedType(tag: DW_TAG_pointer_type, name: "&libc::unix::itimerval", baseType: !287, size: 64, align: 64, dwarfAddressSpace: 0)
!292 = !{!293}
!293 = !DILocalVariable(name: "self", arg: 1, scope: !283, file: !62, line: 83, type: !291)
!294 = !DILocation(line: 83, column: 22, scope: !283)
!295 = !DILocation(line: 83, column: 37, scope: !283)
!296 = !DILocation(line: 83, column: 44, scope: !283)
!297 = distinct !DISubprogram(name: "clone", linkageName: "_ZN54_$LT$libc..unix..tms$u20$as$u20$core..clone..Clone$GT$5clone17hcea2d6b6535b63b3E", scope: !298, file: !62, line: 83, type: !299, scopeLine: 83, flags: DIFlagPrototyped, spFlags: DISPFlagDefinition, unit: !4, templateParams: !75, retainedNodes: !308)
!298 = !DINamespace(name: "{impl#29}", scope: !18)
!299 = !DISubroutineType(types: !300)
!300 = !{!301, !307}
!301 = !DICompositeType(tag: DW_TAG_structure_type, name: "tms", scope: !18, file: !8, size: 256, align: 64, flags: DIFlagPublic, elements: !302, templateParams: !75, identifier: "cddf4eb9afcaed743d84b5ac3c7f96a3")
!302 = !{!303, !304, !305, !306}
!303 = !DIDerivedType(tag: DW_TAG_member, name: "tms_utime", scope: !301, file: !8, baseType: !133, size: 64, align: 64, flags: DIFlagPublic)
!304 = !DIDerivedType(tag: DW_TAG_member, name: "tms_stime", scope: !301, file: !8, baseType: !133, size: 64, align: 64, offset: 64, flags: DIFlagPublic)
!305 = !DIDerivedType(tag: DW_TAG_member, name: "tms_cutime", scope: !301, file: !8, baseType: !133, size: 64, align: 64, offset: 128, flags: DIFlagPublic)
!306 = !DIDerivedType(tag: DW_TAG_member, name: "tms_cstime", scope: !301, file: !8, baseType: !133, size: 64, align: 64, offset: 192, flags: DIFlagPublic)
!307 = !DIDerivedType(tag: DW_TAG_pointer_type, name: "&libc::unix::tms", baseType: !301, size: 64, align: 64, dwarfAddressSpace: 0)
!308 = !{!309}
!309 = !DILocalVariable(name: "self", arg: 1, scope: !297, file: !62, line: 83, type: !307)
!310 = !DILocation(line: 83, column: 22, scope: !297)
!311 = !DILocation(line: 83, column: 37, scope: !297)
!312 = !DILocation(line: 83, column: 44, scope: !297)
!313 = distinct !DISubprogram(name: "clone", linkageName: "_ZN58_$LT$libc..unix..servent$u20$as$u20$core..clone..Clone$GT$5clone17h95544c7665c704b3E", scope: !314, file: !62, line: 83, type: !315, scopeLine: 83, flags: DIFlagPrototyped, spFlags: DISPFlagDefinition, unit: !4, templateParams: !75, retainedNodes: !324)
!314 = !DINamespace(name: "{impl#31}", scope: !18)
!315 = !DISubroutineType(types: !316)
!316 = !{!317, !323}
!317 = !DICompositeType(tag: DW_TAG_structure_type, name: "servent", scope: !18, file: !8, size: 256, align: 64, flags: DIFlagPublic, elements: !318, templateParams: !75, identifier: "fe592ef70a538e8eed68043c35858f13")
!318 = !{!319, !320, !321, !322}
!319 = !DIDerivedType(tag: DW_TAG_member, name: "s_name", scope: !317, file: !8, baseType: !69, size: 64, align: 64, flags: DIFlagPublic)
!320 = !DIDerivedType(tag: DW_TAG_member, name: "s_aliases", scope: !317, file: !8, baseType: !74, size: 64, align: 64, offset: 64, flags: DIFlagPublic)
!321 = !DIDerivedType(tag: DW_TAG_member, name: "s_port", scope: !317, file: !8, baseType: !105, size: 32, align: 32, offset: 128, flags: DIFlagPublic)
!322 = !DIDerivedType(tag: DW_TAG_member, name: "s_proto", scope: !317, file: !8, baseType: !69, size: 64, align: 64, offset: 192, flags: DIFlagPublic)
!323 = !DIDerivedType(tag: DW_TAG_pointer_type, name: "&libc::unix::servent", baseType: !317, size: 64, align: 64, dwarfAddressSpace: 0)
!324 = !{!325}
!325 = !DILocalVariable(name: "self", arg: 1, scope: !313, file: !62, line: 83, type: !323)
!326 = !DILocation(line: 83, column: 22, scope: !313)
!327 = !DILocation(line: 83, column: 37, scope: !313)
!328 = !DILocation(line: 83, column: 44, scope: !313)
!329 = distinct !DISubprogram(name: "clone", linkageName: "_ZN59_$LT$libc..unix..protoent$u20$as$u20$core..clone..Clone$GT$5clone17hacf6290c1afa4715E", scope: !330, file: !62, line: 83, type: !331, scopeLine: 83, flags: DIFlagPrototyped, spFlags: DISPFlagDefinition, unit: !4, templateParams: !75, retainedNodes: !339)
!330 = !DINamespace(name: "{impl#33}", scope: !18)
!331 = !DISubroutineType(types: !332)
!332 = !{!333, !338}
!333 = !DICompositeType(tag: DW_TAG_structure_type, name: "protoent", scope: !18, file: !8, size: 192, align: 64, flags: DIFlagPublic, elements: !334, templateParams: !75, identifier: "8d34d6176404fbdd373f634a3106f527")
!334 = !{!335, !336, !337}
!335 = !DIDerivedType(tag: DW_TAG_member, name: "p_name", scope: !333, file: !8, baseType: !69, size: 64, align: 64, flags: DIFlagPublic)
!336 = !DIDerivedType(tag: DW_TAG_member, name: "p_aliases", scope: !333, file: !8, baseType: !74, size: 64, align: 64, offset: 64, flags: DIFlagPublic)
!337 = !DIDerivedType(tag: DW_TAG_member, name: "p_proto", scope: !333, file: !8, baseType: !105, size: 32, align: 32, offset: 128, flags: DIFlagPublic)
!338 = !DIDerivedType(tag: DW_TAG_pointer_type, name: "&libc::unix::protoent", baseType: !333, size: 64, align: 64, dwarfAddressSpace: 0)
!339 = !{!340}
!340 = !DILocalVariable(name: "self", arg: 1, scope: !329, file: !62, line: 83, type: !338)
!341 = !DILocation(line: 83, column: 22, scope: !329)
!342 = !DILocation(line: 83, column: 37, scope: !329)
!343 = !DILocation(line: 83, column: 44, scope: !329)
!344 = distinct !DISubprogram(name: "clone", linkageName: "_ZN64_$LT$libc..unix..bsd..sockaddr$u20$as$u20$core..clone..Clone$GT$5clone17h367c18b0a153483aE", scope: !345, file: !62, line: 83, type: !346, scopeLine: 83, flags: DIFlagPrototyped, spFlags: DISPFlagDefinition, unit: !4, templateParams: !75, retainedNodes: !357)
!345 = !DINamespace(name: "{impl#1}", scope: !17)
!346 = !DISubroutineType(types: !347)
!347 = !{!348, !356}
!348 = !DICompositeType(tag: DW_TAG_structure_type, name: "sockaddr", scope: !17, file: !8, size: 128, align: 8, flags: DIFlagPublic, elements: !349, templateParams: !75, identifier: "e8a5a86032565384c678d1c4289ef6d9")
!349 = !{!350, !351, !352}
!350 = !DIDerivedType(tag: DW_TAG_member, name: "sa_len", scope: !348, file: !8, baseType: !11, size: 8, align: 8, flags: DIFlagPublic)
!351 = !DIDerivedType(tag: DW_TAG_member, name: "sa_family", scope: !348, file: !8, baseType: !11, size: 8, align: 8, offset: 8, flags: DIFlagPublic)
!352 = !DIDerivedType(tag: DW_TAG_member, name: "sa_data", scope: !348, file: !8, baseType: !353, size: 112, align: 8, offset: 16, flags: DIFlagPublic)
!353 = !DICompositeType(tag: DW_TAG_array_type, baseType: !70, size: 112, align: 8, elements: !354)
!354 = !{!355}
!355 = !DISubrange(count: 14, lowerBound: 0)
!356 = !DIDerivedType(tag: DW_TAG_pointer_type, name: "&libc::unix::bsd::sockaddr", baseType: !348, size: 64, align: 64, dwarfAddressSpace: 0)
!357 = !{!358}
!358 = !DILocalVariable(name: "self", arg: 1, scope: !344, file: !62, line: 83, type: !356)
!359 = !DILocation(line: 83, column: 22, scope: !344)
!360 = !DILocation(line: 83, column: 37, scope: !344)
!361 = !DILocation(line: 83, column: 44, scope: !344)
!362 = distinct !DISubprogram(name: "clone", linkageName: "_ZN68_$LT$libc..unix..bsd..sockaddr_in6$u20$as$u20$core..clone..Clone$GT$5clone17hc44c282451929a2fE", scope: !363, file: !62, line: 83, type: !364, scopeLine: 83, flags: DIFlagPrototyped, spFlags: DISPFlagDefinition, unit: !4, templateParams: !75, retainedNodes: !375)
!363 = !DINamespace(name: "{impl#3}", scope: !17)
!364 = !DISubroutineType(types: !365)
!365 = !{!366, !374}
!366 = !DICompositeType(tag: DW_TAG_structure_type, name: "sockaddr_in6", scope: !17, file: !8, size: 224, align: 32, flags: DIFlagPublic, elements: !367, templateParams: !75, identifier: "d21edc9119fce1eb44dbe045087848c1")
!367 = !{!368, !369, !370, !371, !372, !373}
!368 = !DIDerivedType(tag: DW_TAG_member, name: "sin6_len", scope: !366, file: !8, baseType: !11, size: 8, align: 8, flags: DIFlagPublic)
!369 = !DIDerivedType(tag: DW_TAG_member, name: "sin6_family", scope: !366, file: !8, baseType: !11, size: 8, align: 8, offset: 8, flags: DIFlagPublic)
!370 = !DIDerivedType(tag: DW_TAG_member, name: "sin6_port", scope: !366, file: !8, baseType: !246, size: 16, align: 16, offset: 16, flags: DIFlagPublic)
!371 = !DIDerivedType(tag: DW_TAG_member, name: "sin6_flowinfo", scope: !366, file: !8, baseType: !20, size: 32, align: 32, offset: 32, flags: DIFlagPublic)
!372 = !DIDerivedType(tag: DW_TAG_member, name: "sin6_addr", scope: !366, file: !8, baseType: !176, size: 128, align: 32, offset: 64, flags: DIFlagPublic)
!373 = !DIDerivedType(tag: DW_TAG_member, name: "sin6_scope_id", scope: !366, file: !8, baseType: !20, size: 32, align: 32, offset: 192, flags: DIFlagPublic)
!374 = !DIDerivedType(tag: DW_TAG_pointer_type, name: "&libc::unix::bsd::sockaddr_in6", baseType: !366, size: 64, align: 64, dwarfAddressSpace: 0)
!375 = !{!376}
!376 = !DILocalVariable(name: "self", arg: 1, scope: !362, file: !62, line: 83, type: !374)
!377 = !DILocation(line: 83, column: 22, scope: !362)
!378 = !DILocation(line: 83, column: 37, scope: !362)
!379 = !DILocation(line: 83, column: 44, scope: !362)
!380 = distinct !DISubprogram(name: "clone", linkageName: "_ZN62_$LT$libc..unix..bsd..passwd$u20$as$u20$core..clone..Clone$GT$5clone17hc57e65c36acb5809E", scope: !381, file: !62, line: 83, type: !382, scopeLine: 83, flags: DIFlagPrototyped, spFlags: DISPFlagDefinition, unit: !4, templateParams: !75, retainedNodes: !397)
!381 = !DINamespace(name: "{impl#5}", scope: !17)
!382 = !DISubroutineType(types: !383)
!383 = !{!384, !396}
!384 = !DICompositeType(tag: DW_TAG_structure_type, name: "passwd", scope: !17, file: !8, size: 576, align: 64, flags: DIFlagPublic, elements: !385, templateParams: !75, identifier: "edb44651656fe11fa185ee5d196f2864")
!385 = !{!386, !387, !388, !389, !390, !391, !392, !393, !394, !395}
!386 = !DIDerivedType(tag: DW_TAG_member, name: "pw_name", scope: !384, file: !8, baseType: !69, size: 64, align: 64, flags: DIFlagPublic)
!387 = !DIDerivedType(tag: DW_TAG_member, name: "pw_passwd", scope: !384, file: !8, baseType: !69, size: 64, align: 64, offset: 64, flags: DIFlagPublic)
!388 = !DIDerivedType(tag: DW_TAG_member, name: "pw_uid", scope: !384, file: !8, baseType: !20, size: 32, align: 32, offset: 128, flags: DIFlagPublic)
!389 = !DIDerivedType(tag: DW_TAG_member, name: "pw_gid", scope: !384, file: !8, baseType: !20, size: 32, align: 32, offset: 160, flags: DIFlagPublic)
!390 = !DIDerivedType(tag: DW_TAG_member, name: "pw_change", scope: !384, file: !8, baseType: !89, size: 64, align: 64, offset: 192, flags: DIFlagPublic)
!391 = !DIDerivedType(tag: DW_TAG_member, name: "pw_class", scope: !384, file: !8, baseType: !69, size: 64, align: 64, offset: 256, flags: DIFlagPublic)
!392 = !DIDerivedType(tag: DW_TAG_member, name: "pw_gecos", scope: !384, file: !8, baseType: !69, size: 64, align: 64, offset: 320, flags: DIFlagPublic)
!393 = !DIDerivedType(tag: DW_TAG_member, name: "pw_dir", scope: !384, file: !8, baseType: !69, size: 64, align: 64, offset: 384, flags: DIFlagPublic)
!394 = !DIDerivedType(tag: DW_TAG_member, name: "pw_shell", scope: !384, file: !8, baseType: !69, size: 64, align: 64, offset: 448, flags: DIFlagPublic)
!395 = !DIDerivedType(tag: DW_TAG_member, name: "pw_expire", scope: !384, file: !8, baseType: !89, size: 64, align: 64, offset: 512, flags: DIFlagPublic)
!396 = !DIDerivedType(tag: DW_TAG_pointer_type, name: "&libc::unix::bsd::passwd", baseType: !384, size: 64, align: 64, dwarfAddressSpace: 0)
!397 = !{!398}
!398 = !DILocalVariable(name: "self", arg: 1, scope: !380, file: !62, line: 83, type: !396)
!399 = !DILocation(line: 83, column: 22, scope: !380)
!400 = !DILocation(line: 83, column: 37, scope: !380)
!401 = !DILocation(line: 83, column: 44, scope: !380)
!402 = distinct !DISubprogram(name: "clone", linkageName: "_ZN63_$LT$libc..unix..bsd..ifaddrs$u20$as$u20$core..clone..Clone$GT$5clone17hfcf8c03bafdf438bE", scope: !403, file: !62, line: 83, type: !404, scopeLine: 83, flags: DIFlagPrototyped, spFlags: DISPFlagDefinition, unit: !4, templateParams: !75, retainedNodes: !418)
!403 = !DINamespace(name: "{impl#7}", scope: !17)
!404 = !DISubroutineType(types: !405)
!405 = !{!406, !417}
!406 = !DICompositeType(tag: DW_TAG_structure_type, name: "ifaddrs", scope: !17, file: !8, size: 448, align: 64, flags: DIFlagPublic, elements: !407, templateParams: !75, identifier: "2d83d5df39d751953974e6e2da269e8")
!407 = !{!408, !410, !411, !412, !414, !415, !416}
!408 = !DIDerivedType(tag: DW_TAG_member, name: "ifa_next", scope: !406, file: !8, baseType: !409, size: 64, align: 64, flags: DIFlagPublic)
!409 = !DIDerivedType(tag: DW_TAG_pointer_type, name: "*mut libc::unix::bsd::ifaddrs", baseType: !406, size: 64, align: 64, dwarfAddressSpace: 0)
!410 = !DIDerivedType(tag: DW_TAG_member, name: "ifa_name", scope: !406, file: !8, baseType: !69, size: 64, align: 64, offset: 64, flags: DIFlagPublic)
!411 = !DIDerivedType(tag: DW_TAG_member, name: "ifa_flags", scope: !406, file: !8, baseType: !20, size: 32, align: 32, offset: 128, flags: DIFlagPublic)
!412 = !DIDerivedType(tag: DW_TAG_member, name: "ifa_addr", scope: !406, file: !8, baseType: !413, size: 64, align: 64, offset: 192, flags: DIFlagPublic)
!413 = !DIDerivedType(tag: DW_TAG_pointer_type, name: "*mut libc::unix::bsd::sockaddr", baseType: !348, size: 64, align: 64, dwarfAddressSpace: 0)
!414 = !DIDerivedType(tag: DW_TAG_member, name: "ifa_netmask", scope: !406, file: !8, baseType: !413, size: 64, align: 64, offset: 256, flags: DIFlagPublic)
!415 = !DIDerivedType(tag: DW_TAG_member, name: "ifa_dstaddr", scope: !406, file: !8, baseType: !413, size: 64, align: 64, offset: 320, flags: DIFlagPublic)
!416 = !DIDerivedType(tag: DW_TAG_member, name: "ifa_data", scope: !406, file: !8, baseType: !214, size: 64, align: 64, offset: 384, flags: DIFlagPublic)
!417 = !DIDerivedType(tag: DW_TAG_pointer_type, name: "&libc::unix::bsd::ifaddrs", baseType: !406, size: 64, align: 64, dwarfAddressSpace: 0)
!418 = !{!419}
!419 = !DILocalVariable(name: "self", arg: 1, scope: !402, file: !62, line: 83, type: !417)
!420 = !DILocation(line: 83, column: 22, scope: !402)
!421 = !DILocation(line: 83, column: 37, scope: !402)
!422 = !DILocation(line: 83, column: 44, scope: !402)
!423 = distinct !DISubprogram(name: "clone", linkageName: "_ZN62_$LT$libc..unix..bsd..fd_set$u20$as$u20$core..clone..Clone$GT$5clone17h3e1a266e79bc768aE", scope: !424, file: !62, line: 83, type: !425, scopeLine: 83, flags: DIFlagPrototyped, spFlags: DISPFlagDefinition, unit: !4, templateParams: !75, retainedNodes: !434)
!424 = !DINamespace(name: "{impl#9}", scope: !17)
!425 = !DISubroutineType(types: !426)
!426 = !{!427, !433}
!427 = !DICompositeType(tag: DW_TAG_structure_type, name: "fd_set", scope: !17, file: !8, size: 1024, align: 32, flags: DIFlagPublic, elements: !428, templateParams: !75, identifier: "1315b3de593c1641c891f1eb5664f973")
!428 = !{!429}
!429 = !DIDerivedType(tag: DW_TAG_member, name: "fds_bits", scope: !427, file: !8, baseType: !430, size: 1024, align: 32, flags: DIFlagPrivate)
!430 = !DICompositeType(tag: DW_TAG_array_type, baseType: !105, size: 1024, align: 32, elements: !431)
!431 = !{!432}
!432 = !DISubrange(count: 32, lowerBound: 0)
!433 = !DIDerivedType(tag: DW_TAG_pointer_type, name: "&libc::unix::bsd::fd_set", baseType: !427, size: 64, align: 64, dwarfAddressSpace: 0)
!434 = !{!435}
!435 = !DILocalVariable(name: "self", arg: 1, scope: !423, file: !62, line: 83, type: !433)
!436 = !DILocation(line: 83, column: 22, scope: !423)
!437 = !DILocation(line: 83, column: 37, scope: !423)
!438 = !DILocation(line: 83, column: 44, scope: !423)
!439 = distinct !DISubprogram(name: "clone", linkageName: "_ZN58_$LT$libc..unix..bsd..tm$u20$as$u20$core..clone..Clone$GT$5clone17h3a6f83dbe004cdbdE", scope: !440, file: !62, line: 83, type: !441, scopeLine: 83, flags: DIFlagPrototyped, spFlags: DISPFlagDefinition, unit: !4, templateParams: !75, retainedNodes: !457)
!440 = !DINamespace(name: "{impl#11}", scope: !17)
!441 = !DISubroutineType(types: !442)
!442 = !{!443, !456}
!443 = !DICompositeType(tag: DW_TAG_structure_type, name: "tm", scope: !17, file: !8, size: 448, align: 64, flags: DIFlagPublic, elements: !444, templateParams: !75, identifier: "f4109e7dcaf0600ea334527465a3aefa")
!444 = !{!445, !446, !447, !448, !449, !450, !451, !452, !453, !454, !455}
!445 = !DIDerivedType(tag: DW_TAG_member, name: "tm_sec", scope: !443, file: !8, baseType: !105, size: 32, align: 32, flags: DIFlagPublic)
!446 = !DIDerivedType(tag: DW_TAG_member, name: "tm_min", scope: !443, file: !8, baseType: !105, size: 32, align: 32, offset: 32, flags: DIFlagPublic)
!447 = !DIDerivedType(tag: DW_TAG_member, name: "tm_hour", scope: !443, file: !8, baseType: !105, size: 32, align: 32, offset: 64, flags: DIFlagPublic)
!448 = !DIDerivedType(tag: DW_TAG_member, name: "tm_mday", scope: !443, file: !8, baseType: !105, size: 32, align: 32, offset: 96, flags: DIFlagPublic)
!449 = !DIDerivedType(tag: DW_TAG_member, name: "tm_mon", scope: !443, file: !8, baseType: !105, size: 32, align: 32, offset: 128, flags: DIFlagPublic)
!450 = !DIDerivedType(tag: DW_TAG_member, name: "tm_year", scope: !443, file: !8, baseType: !105, size: 32, align: 32, offset: 160, flags: DIFlagPublic)
!451 = !DIDerivedType(tag: DW_TAG_member, name: "tm_wday", scope: !443, file: !8, baseType: !105, size: 32, align: 32, offset: 192, flags: DIFlagPublic)
!452 = !DIDerivedType(tag: DW_TAG_member, name: "tm_yday", scope: !443, file: !8, baseType: !105, size: 32, align: 32, offset: 224, flags: DIFlagPublic)
!453 = !DIDerivedType(tag: DW_TAG_member, name: "tm_isdst", scope: !443, file: !8, baseType: !105, size: 32, align: 32, offset: 256, flags: DIFlagPublic)
!454 = !DIDerivedType(tag: DW_TAG_member, name: "tm_gmtoff", scope: !443, file: !8, baseType: !89, size: 64, align: 64, offset: 320, flags: DIFlagPublic)
!455 = !DIDerivedType(tag: DW_TAG_member, name: "tm_zone", scope: !443, file: !8, baseType: !69, size: 64, align: 64, offset: 384, flags: DIFlagPublic)
!456 = !DIDerivedType(tag: DW_TAG_pointer_type, name: "&libc::unix::bsd::tm", baseType: !443, size: 64, align: 64, dwarfAddressSpace: 0)
!457 = !{!458}
!458 = !DILocalVariable(name: "self", arg: 1, scope: !439, file: !62, line: 83, type: !456)
!459 = !DILocation(line: 83, column: 22, scope: !439)
!460 = !DILocation(line: 83, column: 37, scope: !439)
!461 = !DILocation(line: 83, column: 44, scope: !439)
!462 = distinct !DISubprogram(name: "clone", linkageName: "_ZN62_$LT$libc..unix..bsd..msghdr$u20$as$u20$core..clone..Clone$GT$5clone17h447103519ae64567E", scope: !463, file: !62, line: 83, type: !464, scopeLine: 83, flags: DIFlagPrototyped, spFlags: DISPFlagDefinition, unit: !4, templateParams: !75, retainedNodes: !477)
!463 = !DINamespace(name: "{impl#13}", scope: !17)
!464 = !DISubroutineType(types: !465)
!465 = !{!466, !476}
!466 = !DICompositeType(tag: DW_TAG_structure_type, name: "msghdr", scope: !17, file: !8, size: 384, align: 64, flags: DIFlagPublic, elements: !467, templateParams: !75, identifier: "dbc2aa6089ef096df3c84f75c53d3268")
!467 = !{!468, !469, !470, !472, !473, !474, !475}
!468 = !DIDerivedType(tag: DW_TAG_member, name: "msg_name", scope: !466, file: !8, baseType: !214, size: 64, align: 64, flags: DIFlagPublic)
!469 = !DIDerivedType(tag: DW_TAG_member, name: "msg_namelen", scope: !466, file: !8, baseType: !20, size: 32, align: 32, offset: 64, flags: DIFlagPublic)
!470 = !DIDerivedType(tag: DW_TAG_member, name: "msg_iov", scope: !466, file: !8, baseType: !471, size: 64, align: 64, offset: 128, flags: DIFlagPublic)
!471 = !DIDerivedType(tag: DW_TAG_pointer_type, name: "*mut libc::unix::iovec", baseType: !211, size: 64, align: 64, dwarfAddressSpace: 0)
!472 = !DIDerivedType(tag: DW_TAG_member, name: "msg_iovlen", scope: !466, file: !8, baseType: !105, size: 32, align: 32, offset: 192, flags: DIFlagPublic)
!473 = !DIDerivedType(tag: DW_TAG_member, name: "msg_control", scope: !466, file: !8, baseType: !214, size: 64, align: 64, offset: 256, flags: DIFlagPublic)
!474 = !DIDerivedType(tag: DW_TAG_member, name: "msg_controllen", scope: !466, file: !8, baseType: !20, size: 32, align: 32, offset: 320, flags: DIFlagPublic)
!475 = !DIDerivedType(tag: DW_TAG_member, name: "msg_flags", scope: !466, file: !8, baseType: !105, size: 32, align: 32, offset: 352, flags: DIFlagPublic)
!476 = !DIDerivedType(tag: DW_TAG_pointer_type, name: "&libc::unix::bsd::msghdr", baseType: !466, size: 64, align: 64, dwarfAddressSpace: 0)
!477 = !{!478}
!478 = !DILocalVariable(name: "self", arg: 1, scope: !462, file: !62, line: 83, type: !476)
!479 = !DILocation(line: 83, column: 22, scope: !462)
!480 = !DILocation(line: 83, column: 37, scope: !462)
!481 = !DILocation(line: 83, column: 44, scope: !462)
!482 = distinct !DISubprogram(name: "clone", linkageName: "_ZN63_$LT$libc..unix..bsd..cmsghdr$u20$as$u20$core..clone..Clone$GT$5clone17hcd6fdfb33e77744aE", scope: !483, file: !62, line: 83, type: !484, scopeLine: 83, flags: DIFlagPrototyped, spFlags: DISPFlagDefinition, unit: !4, templateParams: !75, retainedNodes: !492)
!483 = !DINamespace(name: "{impl#15}", scope: !17)
!484 = !DISubroutineType(types: !485)
!485 = !{!486, !491}
!486 = !DICompositeType(tag: DW_TAG_structure_type, name: "cmsghdr", scope: !17, file: !8, size: 96, align: 32, flags: DIFlagPublic, elements: !487, templateParams: !75, identifier: "722b08708f86ebd862a07ba2dbc038f1")
!487 = !{!488, !489, !490}
!488 = !DIDerivedType(tag: DW_TAG_member, name: "cmsg_len", scope: !486, file: !8, baseType: !20, size: 32, align: 32, flags: DIFlagPublic)
!489 = !DIDerivedType(tag: DW_TAG_member, name: "cmsg_level", scope: !486, file: !8, baseType: !105, size: 32, align: 32, offset: 32, flags: DIFlagPublic)
!490 = !DIDerivedType(tag: DW_TAG_member, name: "cmsg_type", scope: !486, file: !8, baseType: !105, size: 32, align: 32, offset: 64, flags: DIFlagPublic)
!491 = !DIDerivedType(tag: DW_TAG_pointer_type, name: "&libc::unix::bsd::cmsghdr", baseType: !486, size: 64, align: 64, dwarfAddressSpace: 0)
!492 = !{!493}
!493 = !DILocalVariable(name: "self", arg: 1, scope: !482, file: !62, line: 83, type: !491)
!494 = !DILocation(line: 83, column: 22, scope: !482)
!495 = !DILocation(line: 83, column: 37, scope: !482)
!496 = !DILocation(line: 83, column: 44, scope: !482)
!497 = distinct !DISubprogram(name: "clone", linkageName: "_ZN62_$LT$libc..unix..bsd..fsid_t$u20$as$u20$core..clone..Clone$GT$5clone17h70b4afe3b0ff01dbE", scope: !498, file: !62, line: 83, type: !499, scopeLine: 83, flags: DIFlagPrototyped, spFlags: DISPFlagDefinition, unit: !4, templateParams: !75, retainedNodes: !508)
!498 = !DINamespace(name: "{impl#17}", scope: !17)
!499 = !DISubroutineType(types: !500)
!500 = !{!501, !507}
!501 = !DICompositeType(tag: DW_TAG_structure_type, name: "fsid_t", scope: !17, file: !8, size: 64, align: 32, flags: DIFlagPublic, elements: !502, templateParams: !75, identifier: "c42c01e0c16484c342fb5672d8e0f752")
!502 = !{!503}
!503 = !DIDerivedType(tag: DW_TAG_member, name: "__fsid_val", scope: !501, file: !8, baseType: !504, size: 64, align: 32, flags: DIFlagPrivate)
!504 = !DICompositeType(tag: DW_TAG_array_type, baseType: !105, size: 64, align: 32, elements: !505)
!505 = !{!506}
!506 = !DISubrange(count: 2, lowerBound: 0)
!507 = !DIDerivedType(tag: DW_TAG_pointer_type, name: "&libc::unix::bsd::fsid_t", baseType: !501, size: 64, align: 64, dwarfAddressSpace: 0)
!508 = !{!509}
!509 = !DILocalVariable(name: "self", arg: 1, scope: !497, file: !62, line: 83, type: !507)
!510 = !DILocation(line: 83, column: 22, scope: !497)
!511 = !DILocation(line: 83, column: 37, scope: !497)
!512 = !DILocation(line: 83, column: 44, scope: !497)
!513 = distinct !DISubprogram(name: "clone", linkageName: "_ZN68_$LT$libc..unix..bsd..if_nameindex$u20$as$u20$core..clone..Clone$GT$5clone17hbf2bdc51869d57b5E", scope: !514, file: !62, line: 83, type: !515, scopeLine: 83, flags: DIFlagPrototyped, spFlags: DISPFlagDefinition, unit: !4, templateParams: !75, retainedNodes: !522)
!514 = !DINamespace(name: "{impl#19}", scope: !17)
!515 = !DISubroutineType(types: !516)
!516 = !{!517, !521}
!517 = !DICompositeType(tag: DW_TAG_structure_type, name: "if_nameindex", scope: !17, file: !8, size: 128, align: 64, flags: DIFlagPublic, elements: !518, templateParams: !75, identifier: "5dd5cc7b5818f353f141454db2e80eb1")
!518 = !{!519, !520}
!519 = !DIDerivedType(tag: DW_TAG_member, name: "if_index", scope: !517, file: !8, baseType: !20, size: 32, align: 32, flags: DIFlagPublic)
!520 = !DIDerivedType(tag: DW_TAG_member, name: "if_name", scope: !517, file: !8, baseType: !69, size: 64, align: 64, offset: 64, flags: DIFlagPublic)
!521 = !DIDerivedType(tag: DW_TAG_pointer_type, name: "&libc::unix::bsd::if_nameindex", baseType: !517, size: 64, align: 64, dwarfAddressSpace: 0)
!522 = !{!523}
!523 = !DILocalVariable(name: "self", arg: 1, scope: !513, file: !62, line: 83, type: !521)
!524 = !DILocation(line: 83, column: 22, scope: !513)
!525 = !DILocation(line: 83, column: 37, scope: !513)
!526 = !DILocation(line: 83, column: 44, scope: !513)
!527 = distinct !DISubprogram(name: "clone", linkageName: "_ZN63_$LT$libc..unix..bsd..regex_t$u20$as$u20$core..clone..Clone$GT$5clone17hfd208eac67afdff6E", scope: !528, file: !62, line: 83, type: !529, scopeLine: 83, flags: DIFlagPrototyped, spFlags: DISPFlagDefinition, unit: !4, templateParams: !75, retainedNodes: !539)
!528 = !DINamespace(name: "{impl#21}", scope: !17)
!529 = !DISubroutineType(types: !530)
!530 = !{!531, !538}
!531 = !DICompositeType(tag: DW_TAG_structure_type, name: "regex_t", scope: !17, file: !8, size: 256, align: 64, flags: DIFlagPublic, elements: !532, templateParams: !75, identifier: "60efad59b1ff8c85e7ca483c98f99bc8")
!532 = !{!533, !534, !535, !537}
!533 = !DIDerivedType(tag: DW_TAG_member, name: "__re_magic", scope: !531, file: !8, baseType: !105, size: 32, align: 32, flags: DIFlagPrivate)
!534 = !DIDerivedType(tag: DW_TAG_member, name: "__re_nsub", scope: !531, file: !8, baseType: !216, size: 64, align: 64, offset: 64, flags: DIFlagPrivate)
!535 = !DIDerivedType(tag: DW_TAG_member, name: "__re_endp", scope: !531, file: !8, baseType: !536, size: 64, align: 64, offset: 128, flags: DIFlagPrivate)
!536 = !DIDerivedType(tag: DW_TAG_pointer_type, name: "*const i8", baseType: !70, size: 64, align: 64, dwarfAddressSpace: 0)
!537 = !DIDerivedType(tag: DW_TAG_member, name: "__re_g", scope: !531, file: !8, baseType: !214, size: 64, align: 64, offset: 192, flags: DIFlagPrivate)
!538 = !DIDerivedType(tag: DW_TAG_pointer_type, name: "&libc::unix::bsd::regex_t", baseType: !531, size: 64, align: 64, dwarfAddressSpace: 0)
!539 = !{!540}
!540 = !DILocalVariable(name: "self", arg: 1, scope: !527, file: !62, line: 83, type: !538)
!541 = !DILocation(line: 83, column: 22, scope: !527)
!542 = !DILocation(line: 83, column: 37, scope: !527)
!543 = !DILocation(line: 83, column: 44, scope: !527)
!544 = distinct !DISubprogram(name: "clone", linkageName: "_ZN66_$LT$libc..unix..bsd..regmatch_t$u20$as$u20$core..clone..Clone$GT$5clone17hc2d05ef2cd82f4adE", scope: !545, file: !62, line: 83, type: !546, scopeLine: 83, flags: DIFlagPrototyped, spFlags: DISPFlagDefinition, unit: !4, templateParams: !75, retainedNodes: !553)
!545 = !DINamespace(name: "{impl#23}", scope: !17)
!546 = !DISubroutineType(types: !547)
!547 = !{!548, !552}
!548 = !DICompositeType(tag: DW_TAG_structure_type, name: "regmatch_t", scope: !17, file: !8, size: 128, align: 64, flags: DIFlagPublic, elements: !549, templateParams: !75, identifier: "b2a157eaac09961b8b5d3f6c7009620d")
!549 = !{!550, !551}
!550 = !DIDerivedType(tag: DW_TAG_member, name: "rm_so", scope: !548, file: !8, baseType: !89, size: 64, align: 64, flags: DIFlagPublic)
!551 = !DIDerivedType(tag: DW_TAG_member, name: "rm_eo", scope: !548, file: !8, baseType: !89, size: 64, align: 64, offset: 64, flags: DIFlagPublic)
!552 = !DIDerivedType(tag: DW_TAG_pointer_type, name: "&libc::unix::bsd::regmatch_t", baseType: !548, size: 64, align: 64, dwarfAddressSpace: 0)
!553 = !{!554}
!554 = !DILocalVariable(name: "self", arg: 1, scope: !544, file: !62, line: 83, type: !552)
!555 = !DILocation(line: 83, column: 22, scope: !544)
!556 = !DILocation(line: 83, column: 37, scope: !544)
!557 = !DILocation(line: 83, column: 44, scope: !544)
!558 = distinct !DISubprogram(name: "clone", linkageName: "_ZN62_$LT$libc..unix..bsd..option$u20$as$u20$core..clone..Clone$GT$5clone17h2e979e5664476cb1E", scope: !559, file: !62, line: 83, type: !560, scopeLine: 83, flags: DIFlagPrototyped, spFlags: DISPFlagDefinition, unit: !4, templateParams: !75, retainedNodes: !570)
!559 = !DINamespace(name: "{impl#25}", scope: !17)
!560 = !DISubroutineType(types: !561)
!561 = !{!562, !569}
!562 = !DICompositeType(tag: DW_TAG_structure_type, name: "option", scope: !17, file: !8, size: 256, align: 64, flags: DIFlagPublic, elements: !563, templateParams: !75, identifier: "1877967a7e144208d6332804c6fbcebf")
!563 = !{!564, !565, !566, !568}
!564 = !DIDerivedType(tag: DW_TAG_member, name: "name", scope: !562, file: !8, baseType: !536, size: 64, align: 64, flags: DIFlagPublic)
!565 = !DIDerivedType(tag: DW_TAG_member, name: "has_arg", scope: !562, file: !8, baseType: !105, size: 32, align: 32, offset: 64, flags: DIFlagPublic)
!566 = !DIDerivedType(tag: DW_TAG_member, name: "flag", scope: !562, file: !8, baseType: !567, size: 64, align: 64, offset: 128, flags: DIFlagPublic)
!567 = !DIDerivedType(tag: DW_TAG_pointer_type, name: "*mut i32", baseType: !105, size: 64, align: 64, dwarfAddressSpace: 0)
!568 = !DIDerivedType(tag: DW_TAG_member, name: "val", scope: !562, file: !8, baseType: !105, size: 32, align: 32, offset: 192, flags: DIFlagPublic)
!569 = !DIDerivedType(tag: DW_TAG_pointer_type, name: "&libc::unix::bsd::option", baseType: !562, size: 64, align: 64, dwarfAddressSpace: 0)
!570 = !{!571}
!571 = !DILocalVariable(name: "self", arg: 1, scope: !558, file: !62, line: 83, type: !569)
!572 = !DILocation(line: 83, column: 22, scope: !558)
!573 = !DILocation(line: 83, column: 37, scope: !558)
!574 = !DILocation(line: 83, column: 44, scope: !558)
!575 = distinct !DISubprogram(name: "clone", linkageName: "_ZN67_$LT$libc..unix..bsd..sockaddr_un$u20$as$u20$core..clone..Clone$GT$5clone17h829c993aa8280979E", scope: !576, file: !62, line: 114, type: !577, scopeLine: 114, flags: DIFlagPrototyped, spFlags: DISPFlagDefinition, unit: !4, templateParams: !75, retainedNodes: !588)
!576 = !DINamespace(name: "{impl#27}", scope: !17)
!577 = !DISubroutineType(types: !578)
!578 = !{!579, !587}
!579 = !DICompositeType(tag: DW_TAG_structure_type, name: "sockaddr_un", scope: !17, file: !8, size: 848, align: 8, flags: DIFlagPublic, elements: !580, templateParams: !75, identifier: "a14479458e5ef83bbd79054016251312")
!580 = !{!581, !582, !583}
!581 = !DIDerivedType(tag: DW_TAG_member, name: "sun_len", scope: !579, file: !8, baseType: !11, size: 8, align: 8, flags: DIFlagPublic)
!582 = !DIDerivedType(tag: DW_TAG_member, name: "sun_family", scope: !579, file: !8, baseType: !11, size: 8, align: 8, offset: 8, flags: DIFlagPublic)
!583 = !DIDerivedType(tag: DW_TAG_member, name: "sun_path", scope: !579, file: !8, baseType: !584, size: 832, align: 8, offset: 16, flags: DIFlagPublic)
!584 = !DICompositeType(tag: DW_TAG_array_type, baseType: !70, size: 832, align: 8, elements: !585)
!585 = !{!586}
!586 = !DISubrange(count: 104, lowerBound: 0)
!587 = !DIDerivedType(tag: DW_TAG_pointer_type, name: "&libc::unix::bsd::sockaddr_un", baseType: !579, size: 64, align: 64, dwarfAddressSpace: 0)
!588 = !{!589}
!589 = !DILocalVariable(name: "self", arg: 1, scope: !575, file: !62, line: 114, type: !587)
!590 = !DILocation(line: 114, column: 22, scope: !575)
!591 = !DILocation(line: 114, column: 37, scope: !575)
!592 = !DILocation(line: 114, column: 44, scope: !575)
!593 = distinct !DISubprogram(name: "clone", linkageName: "_ZN63_$LT$libc..unix..bsd..utsname$u20$as$u20$core..clone..Clone$GT$5clone17h0495069a35119046E", scope: !594, file: !62, line: 114, type: !595, scopeLine: 114, flags: DIFlagPrototyped, spFlags: DISPFlagDefinition, unit: !4, templateParams: !75, retainedNodes: !608)
!594 = !DINamespace(name: "{impl#29}", scope: !17)
!595 = !DISubroutineType(types: !596)
!596 = !{!597, !607}
!597 = !DICompositeType(tag: DW_TAG_structure_type, name: "utsname", scope: !17, file: !8, size: 10240, align: 8, flags: DIFlagPublic, elements: !598, templateParams: !75, identifier: "2ba1c1c81ebb403b85fb1a5680ab0f35")
!598 = !{!599, !603, !604, !605, !606}
!599 = !DIDerivedType(tag: DW_TAG_member, name: "sysname", scope: !597, file: !8, baseType: !600, size: 2048, align: 8, flags: DIFlagPublic)
!600 = !DICompositeType(tag: DW_TAG_array_type, baseType: !70, size: 2048, align: 8, elements: !601)
!601 = !{!602}
!602 = !DISubrange(count: 256, lowerBound: 0)
!603 = !DIDerivedType(tag: DW_TAG_member, name: "nodename", scope: !597, file: !8, baseType: !600, size: 2048, align: 8, offset: 2048, flags: DIFlagPublic)
!604 = !DIDerivedType(tag: DW_TAG_member, name: "release", scope: !597, file: !8, baseType: !600, size: 2048, align: 8, offset: 4096, flags: DIFlagPublic)
!605 = !DIDerivedType(tag: DW_TAG_member, name: "version", scope: !597, file: !8, baseType: !600, size: 2048, align: 8, offset: 6144, flags: DIFlagPublic)
!606 = !DIDerivedType(tag: DW_TAG_member, name: "machine", scope: !597, file: !8, baseType: !600, size: 2048, align: 8, offset: 8192, flags: DIFlagPublic)
!607 = !DIDerivedType(tag: DW_TAG_pointer_type, name: "&libc::unix::bsd::utsname", baseType: !597, size: 64, align: 64, dwarfAddressSpace: 0)
!608 = !{!609}
!609 = !DILocalVariable(name: "self", arg: 1, scope: !593, file: !62, line: 114, type: !607)
!610 = !DILocation(line: 114, column: 22, scope: !593)
!611 = !DILocation(line: 114, column: 37, scope: !593)
!612 = !DILocation(line: 114, column: 44, scope: !593)
!613 = distinct !DISubprogram(name: "clone", linkageName: "_ZN71_$LT$libc..unix..bsd..apple..timezone$u20$as$u20$core..clone..Clone$GT$5clone17h1daf7524a4785607E", scope: !615, file: !614, line: 166, type: !616, scopeLine: 166, flags: DIFlagPrototyped | DIFlagNoReturn, spFlags: DISPFlagDefinition, unit: !4, templateParams: !75, retainedNodes: !622)
!614 = !DIFile(filename: "src/unix/bsd/apple/mod.rs", directory: "/private/var/folders/m6/nyw0tbd5239gngtm06pzykr00000gn/T/.tmpPXbnuW/libc", checksumkind: CSK_MD5, checksum: "e8e532b42774bf364300fe5421dce507")
!615 = !DINamespace(name: "{impl#1}", scope: !16)
!616 = !DISubroutineType(types: !617)
!617 = !{null, !618}
!618 = !DIDerivedType(tag: DW_TAG_pointer_type, name: "&libc::unix::bsd::apple::timezone", baseType: !619, size: 64, align: 64, dwarfAddressSpace: 0)
!619 = !DICompositeType(tag: DW_TAG_structure_type, name: "timezone", scope: !16, file: !8, align: 8, flags: DIFlagPublic, elements: !620, templateParams: !75, identifier: "fab91f4b819c43bddfef63b4a1f3d521")
!620 = !{!621}
!621 = !DICompositeType(tag: DW_TAG_variant_part, scope: !619, file: !8, align: 8, elements: !75, identifier: "5fdd8d4bd484b87022ceb295d8f3fde")
!622 = !{!623}
!623 = !DILocalVariable(name: "self", arg: 1, scope: !613, file: !614, line: 166, type: !618)
!624 = !DILocation(line: 166, column: 14, scope: !613)
!625 = !DILocation(line: 168, column: 6, scope: !613)
!626 = distinct !DISubprogram(name: "clone", linkageName: "_ZN74_$LT$libc..unix..bsd..apple..qos_class_t$u20$as$u20$core..clone..Clone$GT$5clone17h088a74227783fea5E", scope: !627, file: !614, line: 183, type: !628, scopeLine: 183, flags: DIFlagPrototyped, spFlags: DISPFlagDefinition, unit: !4, templateParams: !75, retainedNodes: !631)
!627 = !DINamespace(name: "{impl#3}", scope: !16)
!628 = !DISubroutineType(types: !629)
!629 = !{!15, !630}
!630 = !DIDerivedType(tag: DW_TAG_pointer_type, name: "&libc::unix::bsd::apple::qos_class_t", baseType: !15, size: 64, align: 64, dwarfAddressSpace: 0)
!631 = !{!632}
!632 = !DILocalVariable(name: "self", arg: 1, scope: !626, file: !614, line: 183, type: !630)
!633 = !DILocation(line: 183, column: 14, scope: !626)
!634 = !DILocation(line: 184, column: 9, scope: !626)
!635 = !{i32 0, i32 34}
!636 = !DILocation(line: 185, column: 6, scope: !626)
!637 = distinct !DISubprogram(name: "clone", linkageName: "_ZN93_$LT$libc..unix..bsd..apple..sysdir_search_path_directory_t$u20$as$u20$core..clone..Clone$GT$5clone17h733c0c7578983355E", scope: !638, file: !614, line: 218, type: !639, scopeLine: 218, flags: DIFlagPrototyped, spFlags: DISPFlagDefinition, unit: !4, templateParams: !75, retainedNodes: !642)
!638 = !DINamespace(name: "{impl#5}", scope: !16)
!639 = !DISubroutineType(types: !640)
!640 = !{!28, !641}
!641 = !DIDerivedType(tag: DW_TAG_pointer_type, name: "&libc::unix::bsd::apple::sysdir_search_path_directory_t", baseType: !28, size: 64, align: 64, dwarfAddressSpace: 0)
!642 = !{!643}
!643 = !DILocalVariable(name: "self", arg: 1, scope: !637, file: !614, line: 218, type: !641)
!644 = !DILocation(line: 218, column: 14, scope: !637)
!645 = !DILocation(line: 219, column: 9, scope: !637)
!646 = !{i32 1, i32 102}
!647 = !DILocation(line: 220, column: 6, scope: !637)
!648 = distinct !DISubprogram(name: "clone", linkageName: "_ZN95_$LT$libc..unix..bsd..apple..sysdir_search_path_domain_mask_t$u20$as$u20$core..clone..Clone$GT$5clone17he3c3ed1b0f795973E", scope: !649, file: !614, line: 234, type: !650, scopeLine: 234, flags: DIFlagPrototyped, spFlags: DISPFlagDefinition, unit: !4, templateParams: !75, retainedNodes: !653)
!649 = !DINamespace(name: "{impl#7}", scope: !16)
!650 = !DISubroutineType(types: !651)
!651 = !{!54, !652}
!652 = !DIDerivedType(tag: DW_TAG_pointer_type, name: "&libc::unix::bsd::apple::sysdir_search_path_domain_mask_t", baseType: !54, size: 64, align: 64, dwarfAddressSpace: 0)
!653 = !{!654}
!654 = !DILocalVariable(name: "self", arg: 1, scope: !648, file: !614, line: 234, type: !652)
!655 = !DILocation(line: 234, column: 14, scope: !648)
!656 = !DILocation(line: 235, column: 9, scope: !648)
!657 = !{i32 1, i32 65536}
!658 = !DILocation(line: 236, column: 6, scope: !648)
!659 = distinct !DISubprogram(name: "si_addr", linkageName: "_ZN4libc4unix3bsd5apple9siginfo_t7si_addr17h131c8d49d9234bacE", scope: !660, file: !614, line: 1479, type: !673, scopeLine: 1479, flags: DIFlagPrototyped, spFlags: DISPFlagDefinition, unit: !4, templateParams: !75, declaration: !676, retainedNodes: !677)
!660 = !DICompositeType(tag: DW_TAG_structure_type, name: "siginfo_t", scope: !16, file: !8, size: 832, align: 64, flags: DIFlagPublic, elements: !661, templateParams: !75, identifier: "db1be8ada02565a390fa0c7feb1bc3a0")
!661 = !{!662, !663, !664, !665, !666, !667, !668, !669}
!662 = !DIDerivedType(tag: DW_TAG_member, name: "si_signo", scope: !660, file: !8, baseType: !105, size: 32, align: 32, flags: DIFlagPublic)
!663 = !DIDerivedType(tag: DW_TAG_member, name: "si_errno", scope: !660, file: !8, baseType: !105, size: 32, align: 32, offset: 32, flags: DIFlagPublic)
!664 = !DIDerivedType(tag: DW_TAG_member, name: "si_code", scope: !660, file: !8, baseType: !105, size: 32, align: 32, offset: 64, flags: DIFlagPublic)
!665 = !DIDerivedType(tag: DW_TAG_member, name: "si_pid", scope: !660, file: !8, baseType: !105, size: 32, align: 32, offset: 96, flags: DIFlagPublic)
!666 = !DIDerivedType(tag: DW_TAG_member, name: "si_uid", scope: !660, file: !8, baseType: !20, size: 32, align: 32, offset: 128, flags: DIFlagPublic)
!667 = !DIDerivedType(tag: DW_TAG_member, name: "si_status", scope: !660, file: !8, baseType: !105, size: 32, align: 32, offset: 160, flags: DIFlagPublic)
!668 = !DIDerivedType(tag: DW_TAG_member, name: "si_addr", scope: !660, file: !8, baseType: !214, size: 64, align: 64, offset: 192, flags: DIFlagPublic)
!669 = !DIDerivedType(tag: DW_TAG_member, name: "_pad", scope: !660, file: !8, baseType: !670, size: 576, align: 64, offset: 256, flags: DIFlagPrivate)
!670 = !DICompositeType(tag: DW_TAG_array_type, baseType: !216, size: 576, align: 64, elements: !671)
!671 = !{!672}
!672 = !DISubrange(count: 9, lowerBound: 0)
!673 = !DISubroutineType(types: !674)
!674 = !{!214, !675}
!675 = !DIDerivedType(tag: DW_TAG_pointer_type, name: "&libc::unix::bsd::apple::siginfo_t", baseType: !660, size: 64, align: 64, dwarfAddressSpace: 0)
!676 = !DISubprogram(name: "si_addr", linkageName: "_ZN4libc4unix3bsd5apple9siginfo_t7si_addr17h131c8d49d9234bacE", scope: !660, file: !614, line: 1479, type: !673, scopeLine: 1479, flags: DIFlagPrototyped, spFlags: 0, templateParams: !75)
!677 = !{!678}
!678 = !DILocalVariable(name: "self", arg: 1, scope: !659, file: !614, line: 1479, type: !675)
!679 = !DILocation(line: 1479, column: 27, scope: !659)
!680 = !DILocation(line: 1480, column: 9, scope: !659)
!681 = !DILocation(line: 1481, column: 6, scope: !659)
!682 = distinct !DISubprogram(name: "si_value", linkageName: "_ZN4libc4unix3bsd5apple9siginfo_t8si_value17hf52b940d1c4c2282E", scope: !660, file: !614, line: 1483, type: !683, scopeLine: 1483, flags: DIFlagPrototyped, spFlags: DISPFlagDefinition, unit: !4, templateParams: !75, declaration: !685, retainedNodes: !686)
!683 = !DISubroutineType(types: !684)
!684 = !{!274, !675}
!685 = !DISubprogram(name: "si_value", linkageName: "_ZN4libc4unix3bsd5apple9siginfo_t8si_value17hf52b940d1c4c2282E", scope: !660, file: !614, line: 1483, type: !683, scopeLine: 1483, flags: DIFlagPrototyped, spFlags: 0, templateParams: !75)
!686 = !{!687}
!687 = !DILocalVariable(name: "self", arg: 1, scope: !682, file: !614, line: 1483, type: !675)
!688 = !DILocation(line: 1483, column: 28, scope: !682)
!689 = !DILocation(line: 1496, column: 9, scope: !682)
!690 = !DILocation(line: 1497, column: 6, scope: !682)
!691 = distinct !DISubprogram(name: "si_pid", linkageName: "_ZN4libc4unix3bsd5apple9siginfo_t6si_pid17hbc72082daf84ddbcE", scope: !660, file: !614, line: 1499, type: !692, scopeLine: 1499, flags: DIFlagPrototyped, spFlags: DISPFlagDefinition, unit: !4, templateParams: !75, declaration: !694, retainedNodes: !695)
!692 = !DISubroutineType(types: !693)
!693 = !{!105, !675}
!694 = !DISubprogram(name: "si_pid", linkageName: "_ZN4libc4unix3bsd5apple9siginfo_t6si_pid17hbc72082daf84ddbcE", scope: !660, file: !614, line: 1499, type: !692, scopeLine: 1499, flags: DIFlagPrototyped, spFlags: 0, templateParams: !75)
!695 = !{!696}
!696 = !DILocalVariable(name: "self", arg: 1, scope: !691, file: !614, line: 1499, type: !675)
!697 = !DILocation(line: 1499, column: 26, scope: !691)
!698 = !DILocation(line: 1500, column: 9, scope: !691)
!699 = !DILocation(line: 1501, column: 6, scope: !691)
!700 = distinct !DISubprogram(name: "si_uid", linkageName: "_ZN4libc4unix3bsd5apple9siginfo_t6si_uid17h6951bf7ecdedec57E", scope: !660, file: !614, line: 1503, type: !701, scopeLine: 1503, flags: DIFlagPrototyped, spFlags: DISPFlagDefinition, unit: !4, templateParams: !75, declaration: !703, retainedNodes: !704)
!701 = !DISubroutineType(types: !702)
!702 = !{!20, !675}
!703 = !DISubprogram(name: "si_uid", linkageName: "_ZN4libc4unix3bsd5apple9siginfo_t6si_uid17h6951bf7ecdedec57E", scope: !660, file: !614, line: 1503, type: !701, scopeLine: 1503, flags: DIFlagPrototyped, spFlags: 0, templateParams: !75)
!704 = !{!705}
!705 = !DILocalVariable(name: "self", arg: 1, scope: !700, file: !614, line: 1503, type: !675)
!706 = !DILocation(line: 1503, column: 26, scope: !700)
!707 = !DILocation(line: 1504, column: 9, scope: !700)
!708 = !DILocation(line: 1505, column: 6, scope: !700)
!709 = distinct !DISubprogram(name: "si_status", linkageName: "_ZN4libc4unix3bsd5apple9siginfo_t9si_status17h60c2c135ff58d895E", scope: !660, file: !614, line: 1507, type: !692, scopeLine: 1507, flags: DIFlagPrototyped, spFlags: DISPFlagDefinition, unit: !4, templateParams: !75, declaration: !710, retainedNodes: !711)
!710 = !DISubprogram(name: "si_status", linkageName: "_ZN4libc4unix3bsd5apple9siginfo_t9si_status17h60c2c135ff58d895E", scope: !660, file: !614, line: 1507, type: !692, scopeLine: 1507, flags: DIFlagPrototyped, spFlags: 0, templateParams: !75)
!711 = !{!712}
!712 = !DILocalVariable(name: "self", arg: 1, scope: !709, file: !614, line: 1507, type: !675)
!713 = !DILocation(line: 1507, column: 29, scope: !709)
!714 = !DILocation(line: 1508, column: 9, scope: !709)
!715 = !DILocation(line: 1509, column: 6, scope: !709)
!716 = distinct !DISubprogram(name: "__DARWIN_ALIGN32", linkageName: "_ZN4libc4unix3bsd5apple16__DARWIN_ALIGN3217ha2a8433e1ff6a578E", scope: !16, file: !614, line: 5274, type: !717, scopeLine: 5274, flags: DIFlagPrototyped, spFlags: DISPFlagDefinition, unit: !4, templateParams: !75, retainedNodes: !719)
!717 = !DISubroutineType(types: !718)
!718 = !{!216, !216}
!719 = !{!720}
!720 = !DILocalVariable(name: "p", arg: 1, scope: !716, file: !614, line: 5274, type: !216)
!721 = !DILocation(line: 5274, column: 27, scope: !716)
!722 = !DILocation(line: 5276, column: 5, scope: !716)
!723 = !DILocation(line: 5277, column: 2, scope: !716)
!724 = distinct !DISubprogram(name: "mach_task_self", linkageName: "_ZN4libc4unix3bsd5apple14mach_task_self17hb4a9a779c6570d6dE", scope: !16, file: !614, line: 6233, type: !725, scopeLine: 6233, flags: DIFlagPrototyped, spFlags: DISPFlagDefinition, unit: !4, templateParams: !75)
!725 = !DISubroutineType(types: !726)
!726 = !{!20}
!727 = !DILocation(line: 6234, column: 5, scope: !724)
!728 = !DILocation(line: 6235, column: 2, scope: !724)
!729 = distinct !DISubprogram(name: "clone", linkageName: "_ZN70_$LT$libc..unix..bsd..apple..ip_mreq$u20$as$u20$core..clone..Clone$GT$5clone17h74c1ab7085494a91E", scope: !730, file: !62, line: 83, type: !731, scopeLine: 83, flags: DIFlagPrototyped, spFlags: DISPFlagDefinition, unit: !4, templateParams: !75, retainedNodes: !741)
!730 = !DINamespace(name: "{impl#10}", scope: !16)
!731 = !DISubroutineType(types: !732)
!732 = !{!733, !740}
!733 = !DICompositeType(tag: DW_TAG_structure_type, name: "ip_mreq", scope: !16, file: !8, size: 64, align: 32, flags: DIFlagPublic, elements: !734, templateParams: !75, identifier: "f6bd04d40f2a9799c9e2fe8893b71d14")
!734 = !{!735, !739}
!735 = !DIDerivedType(tag: DW_TAG_member, name: "imr_multiaddr", scope: !733, file: !8, baseType: !736, size: 32, align: 32, flags: DIFlagPublic)
!736 = !DICompositeType(tag: DW_TAG_structure_type, name: "in_addr", scope: !16, file: !8, size: 32, align: 32, flags: DIFlagPublic, elements: !737, templateParams: !75, identifier: "585d3a6db792c0686903044b054f1791")
!737 = !{!738}
!738 = !DIDerivedType(tag: DW_TAG_member, name: "s_addr", scope: !736, file: !8, baseType: !20, size: 32, align: 32, flags: DIFlagPublic)
!739 = !DIDerivedType(tag: DW_TAG_member, name: "imr_interface", scope: !733, file: !8, baseType: !736, size: 32, align: 32, offset: 32, flags: DIFlagPublic)
!740 = !DIDerivedType(tag: DW_TAG_pointer_type, name: "&libc::unix::bsd::apple::ip_mreq", baseType: !733, size: 64, align: 64, dwarfAddressSpace: 0)
!741 = !{!742}
!742 = !DILocalVariable(name: "self", arg: 1, scope: !729, file: !62, line: 83, type: !740)
!743 = !DILocation(line: 83, column: 22, scope: !729)
!744 = !DILocation(line: 83, column: 37, scope: !729)
!745 = !DILocation(line: 83, column: 44, scope: !729)
!746 = distinct !DISubprogram(name: "clone", linkageName: "_ZN71_$LT$libc..unix..bsd..apple..ip_mreqn$u20$as$u20$core..clone..Clone$GT$5clone17h0eeb7eb52e6f462bE", scope: !747, file: !62, line: 83, type: !748, scopeLine: 83, flags: DIFlagPrototyped, spFlags: DISPFlagDefinition, unit: !4, templateParams: !75, retainedNodes: !756)
!747 = !DINamespace(name: "{impl#12}", scope: !16)
!748 = !DISubroutineType(types: !749)
!749 = !{!750, !755}
!750 = !DICompositeType(tag: DW_TAG_structure_type, name: "ip_mreqn", scope: !16, file: !8, size: 96, align: 32, flags: DIFlagPublic, elements: !751, templateParams: !75, identifier: "6ac4e0eb2eadc562a999c3b655a2557a")
!751 = !{!752, !753, !754}
!752 = !DIDerivedType(tag: DW_TAG_member, name: "imr_multiaddr", scope: !750, file: !8, baseType: !736, size: 32, align: 32, flags: DIFlagPublic)
!753 = !DIDerivedType(tag: DW_TAG_member, name: "imr_address", scope: !750, file: !8, baseType: !736, size: 32, align: 32, offset: 32, flags: DIFlagPublic)
!754 = !DIDerivedType(tag: DW_TAG_member, name: "imr_ifindex", scope: !750, file: !8, baseType: !105, size: 32, align: 32, offset: 64, flags: DIFlagPublic)
!755 = !DIDerivedType(tag: DW_TAG_pointer_type, name: "&libc::unix::bsd::apple::ip_mreqn", baseType: !750, size: 64, align: 64, dwarfAddressSpace: 0)
!756 = !{!757}
!757 = !DILocalVariable(name: "self", arg: 1, scope: !746, file: !62, line: 83, type: !755)
!758 = !DILocation(line: 83, column: 22, scope: !746)
!759 = !DILocation(line: 83, column: 37, scope: !746)
!760 = !DILocation(line: 83, column: 44, scope: !746)
!761 = distinct !DISubprogram(name: "clone", linkageName: "_ZN77_$LT$libc..unix..bsd..apple..ip_mreq_source$u20$as$u20$core..clone..Clone$GT$5clone17hb4bd54698e6f027eE", scope: !762, file: !62, line: 83, type: !763, scopeLine: 83, flags: DIFlagPrototyped, spFlags: DISPFlagDefinition, unit: !4, templateParams: !75, retainedNodes: !771)
!762 = !DINamespace(name: "{impl#14}", scope: !16)
!763 = !DISubroutineType(types: !764)
!764 = !{!765, !770}
!765 = !DICompositeType(tag: DW_TAG_structure_type, name: "ip_mreq_source", scope: !16, file: !8, size: 96, align: 32, flags: DIFlagPublic, elements: !766, templateParams: !75, identifier: "1751eaa7b797cb38ceca695c7ec93d1d")
!766 = !{!767, !768, !769}
!767 = !DIDerivedType(tag: DW_TAG_member, name: "imr_multiaddr", scope: !765, file: !8, baseType: !736, size: 32, align: 32, flags: DIFlagPublic)
!768 = !DIDerivedType(tag: DW_TAG_member, name: "imr_sourceaddr", scope: !765, file: !8, baseType: !736, size: 32, align: 32, offset: 32, flags: DIFlagPublic)
!769 = !DIDerivedType(tag: DW_TAG_member, name: "imr_interface", scope: !765, file: !8, baseType: !736, size: 32, align: 32, offset: 64, flags: DIFlagPublic)
!770 = !DIDerivedType(tag: DW_TAG_pointer_type, name: "&libc::unix::bsd::apple::ip_mreq_source", baseType: !765, size: 64, align: 64, dwarfAddressSpace: 0)
!771 = !{!772}
!772 = !DILocalVariable(name: "self", arg: 1, scope: !761, file: !62, line: 83, type: !770)
!773 = !DILocation(line: 83, column: 22, scope: !761)
!774 = !DILocation(line: 83, column: 37, scope: !761)
!775 = !DILocation(line: 83, column: 44, scope: !761)
!776 = distinct !DISubprogram(name: "clone", linkageName: "_ZN68_$LT$libc..unix..bsd..apple..aiocb$u20$as$u20$core..clone..Clone$GT$5clone17h0e7cdfa6334111b7E", scope: !777, file: !62, line: 83, type: !778, scopeLine: 83, flags: DIFlagPrototyped, spFlags: DISPFlagDefinition, unit: !4, templateParams: !75, retainedNodes: !806)
!777 = !DINamespace(name: "{impl#16}", scope: !16)
!778 = !DISubroutineType(types: !779)
!779 = !{!780, !805}
!780 = !DICompositeType(tag: DW_TAG_structure_type, name: "aiocb", scope: !16, file: !8, size: 640, align: 64, flags: DIFlagPublic, elements: !781, templateParams: !75, identifier: "538ab0129387cd95c6eb878187b4d7c1")
!781 = !{!782, !783, !784, !785, !786, !787, !804}
!782 = !DIDerivedType(tag: DW_TAG_member, name: "aio_fildes", scope: !780, file: !8, baseType: !105, size: 32, align: 32, flags: DIFlagPublic)
!783 = !DIDerivedType(tag: DW_TAG_member, name: "aio_offset", scope: !780, file: !8, baseType: !89, size: 64, align: 64, offset: 64, flags: DIFlagPublic)
!784 = !DIDerivedType(tag: DW_TAG_member, name: "aio_buf", scope: !780, file: !8, baseType: !214, size: 64, align: 64, offset: 128, flags: DIFlagPublic)
!785 = !DIDerivedType(tag: DW_TAG_member, name: "aio_nbytes", scope: !780, file: !8, baseType: !216, size: 64, align: 64, offset: 192, flags: DIFlagPublic)
!786 = !DIDerivedType(tag: DW_TAG_member, name: "aio_reqprio", scope: !780, file: !8, baseType: !105, size: 32, align: 32, offset: 256, flags: DIFlagPublic)
!787 = !DIDerivedType(tag: DW_TAG_member, name: "aio_sigevent", scope: !780, file: !8, baseType: !788, size: 256, align: 64, offset: 320, flags: DIFlagPublic)
!788 = !DICompositeType(tag: DW_TAG_structure_type, name: "sigevent", scope: !16, file: !8, size: 256, align: 64, flags: DIFlagPublic, elements: !789, templateParams: !75, identifier: "30e1f3055155aa6d30052818c6ddf23c")
!789 = !{!790, !791, !792, !793, !794}
!790 = !DIDerivedType(tag: DW_TAG_member, name: "sigev_notify", scope: !788, file: !8, baseType: !105, size: 32, align: 32, flags: DIFlagPublic)
!791 = !DIDerivedType(tag: DW_TAG_member, name: "sigev_signo", scope: !788, file: !8, baseType: !105, size: 32, align: 32, offset: 32, flags: DIFlagPublic)
!792 = !DIDerivedType(tag: DW_TAG_member, name: "sigev_value", scope: !788, file: !8, baseType: !274, size: 64, align: 64, offset: 64, flags: DIFlagPublic)
!793 = !DIDerivedType(tag: DW_TAG_member, name: "__unused1", scope: !788, file: !8, baseType: !214, size: 64, align: 64, offset: 128, flags: DIFlagPrivate)
!794 = !DIDerivedType(tag: DW_TAG_member, name: "sigev_notify_attributes", scope: !788, file: !8, baseType: !795, size: 64, align: 64, offset: 192, flags: DIFlagPublic)
!795 = !DIDerivedType(tag: DW_TAG_pointer_type, name: "*mut libc::unix::bsd::apple::b64::pthread_attr_t", baseType: !796, size: 64, align: 64, dwarfAddressSpace: 0)
!796 = !DICompositeType(tag: DW_TAG_structure_type, name: "pthread_attr_t", scope: !797, file: !8, size: 512, align: 64, flags: DIFlagPublic, elements: !798, templateParams: !75, identifier: "44daec28b61a58ed7f1f03de4fff3476")
!797 = !DINamespace(name: "b64", scope: !16)
!798 = !{!799, !800}
!799 = !DIDerivedType(tag: DW_TAG_member, name: "__sig", scope: !796, file: !8, baseType: !89, size: 64, align: 64, flags: DIFlagPrivate)
!800 = !DIDerivedType(tag: DW_TAG_member, name: "__opaque", scope: !796, file: !8, baseType: !801, size: 448, align: 8, offset: 64, flags: DIFlagPrivate)
!801 = !DICompositeType(tag: DW_TAG_array_type, baseType: !70, size: 448, align: 8, elements: !802)
!802 = !{!803}
!803 = !DISubrange(count: 56, lowerBound: 0)
!804 = !DIDerivedType(tag: DW_TAG_member, name: "aio_lio_opcode", scope: !780, file: !8, baseType: !105, size: 32, align: 32, offset: 576, flags: DIFlagPublic)
!805 = !DIDerivedType(tag: DW_TAG_pointer_type, name: "&libc::unix::bsd::apple::aiocb", baseType: !780, size: 64, align: 64, dwarfAddressSpace: 0)
!806 = !{!807}
!807 = !DILocalVariable(name: "self", arg: 1, scope: !776, file: !62, line: 83, type: !805)
!808 = !DILocation(line: 83, column: 22, scope: !776)
!809 = !DILocation(line: 83, column: 37, scope: !776)
!810 = !DILocation(line: 83, column: 44, scope: !776)
!811 = distinct !DISubprogram(name: "clone", linkageName: "_ZN69_$LT$libc..unix..bsd..apple..glob_t$u20$as$u20$core..clone..Clone$GT$5clone17he37d1f2473a060fcE", scope: !812, file: !62, line: 83, type: !813, scopeLine: 83, flags: DIFlagPrototyped, spFlags: DISPFlagDefinition, unit: !4, templateParams: !75, retainedNodes: !829)
!812 = !DINamespace(name: "{impl#18}", scope: !16)
!813 = !DISubroutineType(types: !814)
!814 = !{!815, !828}
!815 = !DICompositeType(tag: DW_TAG_structure_type, name: "glob_t", scope: !16, file: !8, size: 704, align: 64, flags: DIFlagPublic, elements: !816, templateParams: !75, identifier: "3bae55a9e0e2f74141e4bdb9187d4942")
!816 = !{!817, !818, !819, !820, !821, !822, !823, !824, !825, !826, !827}
!817 = !DIDerivedType(tag: DW_TAG_member, name: "gl_pathc", scope: !815, file: !8, baseType: !216, size: 64, align: 64, flags: DIFlagPublic)
!818 = !DIDerivedType(tag: DW_TAG_member, name: "__unused1", scope: !815, file: !8, baseType: !105, size: 32, align: 32, offset: 64, flags: DIFlagPrivate)
!819 = !DIDerivedType(tag: DW_TAG_member, name: "gl_offs", scope: !815, file: !8, baseType: !216, size: 64, align: 64, offset: 128, flags: DIFlagPublic)
!820 = !DIDerivedType(tag: DW_TAG_member, name: "__unused2", scope: !815, file: !8, baseType: !105, size: 32, align: 32, offset: 192, flags: DIFlagPrivate)
!821 = !DIDerivedType(tag: DW_TAG_member, name: "gl_pathv", scope: !815, file: !8, baseType: !74, size: 64, align: 64, offset: 256, flags: DIFlagPublic)
!822 = !DIDerivedType(tag: DW_TAG_member, name: "__unused3", scope: !815, file: !8, baseType: !214, size: 64, align: 64, offset: 320, flags: DIFlagPrivate)
!823 = !DIDerivedType(tag: DW_TAG_member, name: "__unused4", scope: !815, file: !8, baseType: !214, size: 64, align: 64, offset: 384, flags: DIFlagPrivate)
!824 = !DIDerivedType(tag: DW_TAG_member, name: "__unused5", scope: !815, file: !8, baseType: !214, size: 64, align: 64, offset: 448, flags: DIFlagPrivate)
!825 = !DIDerivedType(tag: DW_TAG_member, name: "__unused6", scope: !815, file: !8, baseType: !214, size: 64, align: 64, offset: 512, flags: DIFlagPrivate)
!826 = !DIDerivedType(tag: DW_TAG_member, name: "__unused7", scope: !815, file: !8, baseType: !214, size: 64, align: 64, offset: 576, flags: DIFlagPrivate)
!827 = !DIDerivedType(tag: DW_TAG_member, name: "__unused8", scope: !815, file: !8, baseType: !214, size: 64, align: 64, offset: 640, flags: DIFlagPrivate)
!828 = !DIDerivedType(tag: DW_TAG_pointer_type, name: "&libc::unix::bsd::apple::glob_t", baseType: !815, size: 64, align: 64, dwarfAddressSpace: 0)
!829 = !{!830}
!830 = !DILocalVariable(name: "self", arg: 1, scope: !811, file: !62, line: 83, type: !828)
!831 = !DILocation(line: 83, column: 22, scope: !811)
!832 = !DILocation(line: 83, column: 37, scope: !811)
!833 = !DILocation(line: 83, column: 44, scope: !811)
!834 = distinct !DISubprogram(name: "clone", linkageName: "_ZN71_$LT$libc..unix..bsd..apple..addrinfo$u20$as$u20$core..clone..Clone$GT$5clone17h4b707a061fad9901E", scope: !835, file: !62, line: 83, type: !836, scopeLine: 83, flags: DIFlagPrototyped, spFlags: DISPFlagDefinition, unit: !4, templateParams: !75, retainedNodes: !850)
!835 = !DINamespace(name: "{impl#20}", scope: !16)
!836 = !DISubroutineType(types: !837)
!837 = !{!838, !849}
!838 = !DICompositeType(tag: DW_TAG_structure_type, name: "addrinfo", scope: !16, file: !8, size: 384, align: 64, flags: DIFlagPublic, elements: !839, templateParams: !75, identifier: "5367ff369b6e015a42c079ed15f9ba32")
!839 = !{!840, !841, !842, !843, !844, !845, !846, !847}
!840 = !DIDerivedType(tag: DW_TAG_member, name: "ai_flags", scope: !838, file: !8, baseType: !105, size: 32, align: 32, flags: DIFlagPublic)
!841 = !DIDerivedType(tag: DW_TAG_member, name: "ai_family", scope: !838, file: !8, baseType: !105, size: 32, align: 32, offset: 32, flags: DIFlagPublic)
!842 = !DIDerivedType(tag: DW_TAG_member, name: "ai_socktype", scope: !838, file: !8, baseType: !105, size: 32, align: 32, offset: 64, flags: DIFlagPublic)
!843 = !DIDerivedType(tag: DW_TAG_member, name: "ai_protocol", scope: !838, file: !8, baseType: !105, size: 32, align: 32, offset: 96, flags: DIFlagPublic)
!844 = !DIDerivedType(tag: DW_TAG_member, name: "ai_addrlen", scope: !838, file: !8, baseType: !20, size: 32, align: 32, offset: 128, flags: DIFlagPublic)
!845 = !DIDerivedType(tag: DW_TAG_member, name: "ai_canonname", scope: !838, file: !8, baseType: !69, size: 64, align: 64, offset: 192, flags: DIFlagPublic)
!846 = !DIDerivedType(tag: DW_TAG_member, name: "ai_addr", scope: !838, file: !8, baseType: !413, size: 64, align: 64, offset: 256, flags: DIFlagPublic)
!847 = !DIDerivedType(tag: DW_TAG_member, name: "ai_next", scope: !838, file: !8, baseType: !848, size: 64, align: 64, offset: 320, flags: DIFlagPublic)
!848 = !DIDerivedType(tag: DW_TAG_pointer_type, name: "*mut libc::unix::bsd::apple::addrinfo", baseType: !838, size: 64, align: 64, dwarfAddressSpace: 0)
!849 = !DIDerivedType(tag: DW_TAG_pointer_type, name: "&libc::unix::bsd::apple::addrinfo", baseType: !838, size: 64, align: 64, dwarfAddressSpace: 0)
!850 = !{!851}
!851 = !DILocalVariable(name: "self", arg: 1, scope: !834, file: !62, line: 83, type: !849)
!852 = !DILocation(line: 83, column: 22, scope: !834)
!853 = !DILocation(line: 83, column: 37, scope: !834)
!854 = !DILocation(line: 83, column: 44, scope: !834)
!855 = distinct !DISubprogram(name: "clone", linkageName: "_ZN67_$LT$libc..unix..bsd..apple..stat$u20$as$u20$core..clone..Clone$GT$5clone17h7c5a01c4e97339e1E", scope: !856, file: !62, line: 83, type: !857, scopeLine: 83, flags: DIFlagPrototyped, spFlags: DISPFlagDefinition, unit: !4, templateParams: !75, retainedNodes: !885)
!856 = !DINamespace(name: "{impl#22}", scope: !16)
!857 = !DISubroutineType(types: !858)
!858 = !{!859, !884}
!859 = !DICompositeType(tag: DW_TAG_structure_type, name: "stat", scope: !16, file: !8, size: 1152, align: 64, flags: DIFlagPublic, elements: !860, templateParams: !75, identifier: "921441eb3d690e8948579eccf588c9da")
!860 = !{!861, !862, !863, !864, !865, !866, !867, !868, !869, !870, !871, !872, !873, !874, !875, !876, !877, !878, !879, !880, !881, !882}
!861 = !DIDerivedType(tag: DW_TAG_member, name: "st_dev", scope: !859, file: !8, baseType: !105, size: 32, align: 32, flags: DIFlagPublic)
!862 = !DIDerivedType(tag: DW_TAG_member, name: "st_mode", scope: !859, file: !8, baseType: !246, size: 16, align: 16, offset: 32, flags: DIFlagPublic)
!863 = !DIDerivedType(tag: DW_TAG_member, name: "st_nlink", scope: !859, file: !8, baseType: !246, size: 16, align: 16, offset: 48, flags: DIFlagPublic)
!864 = !DIDerivedType(tag: DW_TAG_member, name: "st_ino", scope: !859, file: !8, baseType: !133, size: 64, align: 64, offset: 64, flags: DIFlagPublic)
!865 = !DIDerivedType(tag: DW_TAG_member, name: "st_uid", scope: !859, file: !8, baseType: !20, size: 32, align: 32, offset: 128, flags: DIFlagPublic)
!866 = !DIDerivedType(tag: DW_TAG_member, name: "st_gid", scope: !859, file: !8, baseType: !20, size: 32, align: 32, offset: 160, flags: DIFlagPublic)
!867 = !DIDerivedType(tag: DW_TAG_member, name: "st_rdev", scope: !859, file: !8, baseType: !105, size: 32, align: 32, offset: 192, flags: DIFlagPublic)
!868 = !DIDerivedType(tag: DW_TAG_member, name: "st_atime", scope: !859, file: !8, baseType: !89, size: 64, align: 64, offset: 256, flags: DIFlagPublic)
!869 = !DIDerivedType(tag: DW_TAG_member, name: "st_atime_nsec", scope: !859, file: !8, baseType: !89, size: 64, align: 64, offset: 320, flags: DIFlagPublic)
!870 = !DIDerivedType(tag: DW_TAG_member, name: "st_mtime", scope: !859, file: !8, baseType: !89, size: 64, align: 64, offset: 384, flags: DIFlagPublic)
!871 = !DIDerivedType(tag: DW_TAG_member, name: "st_mtime_nsec", scope: !859, file: !8, baseType: !89, size: 64, align: 64, offset: 448, flags: DIFlagPublic)
!872 = !DIDerivedType(tag: DW_TAG_member, name: "st_ctime", scope: !859, file: !8, baseType: !89, size: 64, align: 64, offset: 512, flags: DIFlagPublic)
!873 = !DIDerivedType(tag: DW_TAG_member, name: "st_ctime_nsec", scope: !859, file: !8, baseType: !89, size: 64, align: 64, offset: 576, flags: DIFlagPublic)
!874 = !DIDerivedType(tag: DW_TAG_member, name: "st_birthtime", scope: !859, file: !8, baseType: !89, size: 64, align: 64, offset: 640, flags: DIFlagPublic)
!875 = !DIDerivedType(tag: DW_TAG_member, name: "st_birthtime_nsec", scope: !859, file: !8, baseType: !89, size: 64, align: 64, offset: 704, flags: DIFlagPublic)
!876 = !DIDerivedType(tag: DW_TAG_member, name: "st_size", scope: !859, file: !8, baseType: !89, size: 64, align: 64, offset: 768, flags: DIFlagPublic)
!877 = !DIDerivedType(tag: DW_TAG_member, name: "st_blocks", scope: !859, file: !8, baseType: !89, size: 64, align: 64, offset: 832, flags: DIFlagPublic)
!878 = !DIDerivedType(tag: DW_TAG_member, name: "st_blksize", scope: !859, file: !8, baseType: !105, size: 32, align: 32, offset: 896, flags: DIFlagPublic)
!879 = !DIDerivedType(tag: DW_TAG_member, name: "st_flags", scope: !859, file: !8, baseType: !20, size: 32, align: 32, offset: 928, flags: DIFlagPublic)
!880 = !DIDerivedType(tag: DW_TAG_member, name: "st_gen", scope: !859, file: !8, baseType: !20, size: 32, align: 32, offset: 960, flags: DIFlagPublic)
!881 = !DIDerivedType(tag: DW_TAG_member, name: "st_lspare", scope: !859, file: !8, baseType: !105, size: 32, align: 32, offset: 992, flags: DIFlagPublic)
!882 = !DIDerivedType(tag: DW_TAG_member, name: "st_qspare", scope: !859, file: !8, baseType: !883, size: 128, align: 64, offset: 1024, flags: DIFlagPublic)
!883 = !DICompositeType(tag: DW_TAG_array_type, baseType: !89, size: 128, align: 64, elements: !505)
!884 = !DIDerivedType(tag: DW_TAG_pointer_type, name: "&libc::unix::bsd::apple::stat", baseType: !859, size: 64, align: 64, dwarfAddressSpace: 0)
!885 = !{!886}
!886 = !DILocalVariable(name: "self", arg: 1, scope: !855, file: !62, line: 83, type: !884)
!887 = !DILocation(line: 83, column: 22, scope: !855)
!888 = !DILocation(line: 83, column: 37, scope: !855)
!889 = !DILocation(line: 83, column: 44, scope: !855)
!890 = distinct !DISubprogram(name: "clone", linkageName: "_ZN82_$LT$libc..unix..bsd..apple..pthread_mutexattr_t$u20$as$u20$core..clone..Clone$GT$5clone17h48cc287657fbdde4E", scope: !891, file: !62, line: 83, type: !892, scopeLine: 83, flags: DIFlagPrototyped, spFlags: DISPFlagDefinition, unit: !4, templateParams: !75, retainedNodes: !902)
!891 = !DINamespace(name: "{impl#24}", scope: !16)
!892 = !DISubroutineType(types: !893)
!893 = !{!894, !901}
!894 = !DICompositeType(tag: DW_TAG_structure_type, name: "pthread_mutexattr_t", scope: !16, file: !8, size: 128, align: 64, flags: DIFlagPublic, elements: !895, templateParams: !75, identifier: "89dd09286a80759fc5d160dc64ac365b")
!895 = !{!896, !897}
!896 = !DIDerivedType(tag: DW_TAG_member, name: "__sig", scope: !894, file: !8, baseType: !89, size: 64, align: 64, flags: DIFlagPrivate)
!897 = !DIDerivedType(tag: DW_TAG_member, name: "__opaque", scope: !894, file: !8, baseType: !898, size: 64, align: 8, offset: 64, flags: DIFlagPrivate)
!898 = !DICompositeType(tag: DW_TAG_array_type, baseType: !11, size: 64, align: 8, elements: !899)
!899 = !{!900}
!900 = !DISubrange(count: 8, lowerBound: 0)
!901 = !DIDerivedType(tag: DW_TAG_pointer_type, name: "&libc::unix::bsd::apple::pthread_mutexattr_t", baseType: !894, size: 64, align: 64, dwarfAddressSpace: 0)
!902 = !{!903}
!903 = !DILocalVariable(name: "self", arg: 1, scope: !890, file: !62, line: 83, type: !901)
!904 = !DILocation(line: 83, column: 22, scope: !890)
!905 = !DILocation(line: 83, column: 37, scope: !890)
!906 = !DILocation(line: 83, column: 44, scope: !890)
!907 = distinct !DISubprogram(name: "clone", linkageName: "_ZN81_$LT$libc..unix..bsd..apple..pthread_condattr_t$u20$as$u20$core..clone..Clone$GT$5clone17hdb68379625191378E", scope: !908, file: !62, line: 83, type: !909, scopeLine: 83, flags: DIFlagPrototyped, spFlags: DISPFlagDefinition, unit: !4, templateParams: !75, retainedNodes: !916)
!908 = !DINamespace(name: "{impl#26}", scope: !16)
!909 = !DISubroutineType(types: !910)
!910 = !{!911, !915}
!911 = !DICompositeType(tag: DW_TAG_structure_type, name: "pthread_condattr_t", scope: !16, file: !8, size: 128, align: 64, flags: DIFlagPublic, elements: !912, templateParams: !75, identifier: "351976ee6c316bb31c086cc51ed54abe")
!912 = !{!913, !914}
!913 = !DIDerivedType(tag: DW_TAG_member, name: "__sig", scope: !911, file: !8, baseType: !89, size: 64, align: 64, flags: DIFlagPrivate)
!914 = !DIDerivedType(tag: DW_TAG_member, name: "__opaque", scope: !911, file: !8, baseType: !898, size: 64, align: 8, offset: 64, flags: DIFlagPrivate)
!915 = !DIDerivedType(tag: DW_TAG_pointer_type, name: "&libc::unix::bsd::apple::pthread_condattr_t", baseType: !911, size: 64, align: 64, dwarfAddressSpace: 0)
!916 = !{!917}
!917 = !DILocalVariable(name: "self", arg: 1, scope: !907, file: !62, line: 83, type: !915)
!918 = !DILocation(line: 83, column: 22, scope: !907)
!919 = !DILocation(line: 83, column: 37, scope: !907)
!920 = !DILocation(line: 83, column: 44, scope: !907)
!921 = distinct !DISubprogram(name: "clone", linkageName: "_ZN83_$LT$libc..unix..bsd..apple..pthread_rwlockattr_t$u20$as$u20$core..clone..Clone$GT$5clone17h3d49b1ec8d1d332fE", scope: !922, file: !62, line: 83, type: !923, scopeLine: 83, flags: DIFlagPrototyped, spFlags: DISPFlagDefinition, unit: !4, templateParams: !75, retainedNodes: !930)
!922 = !DINamespace(name: "{impl#28}", scope: !16)
!923 = !DISubroutineType(types: !924)
!924 = !{!925, !929}
!925 = !DICompositeType(tag: DW_TAG_structure_type, name: "pthread_rwlockattr_t", scope: !16, file: !8, size: 192, align: 64, flags: DIFlagPublic, elements: !926, templateParams: !75, identifier: "9846dfebe905ca1660a059394385c72b")
!926 = !{!927, !928}
!927 = !DIDerivedType(tag: DW_TAG_member, name: "__sig", scope: !925, file: !8, baseType: !89, size: 64, align: 64, flags: DIFlagPrivate)
!928 = !DIDerivedType(tag: DW_TAG_member, name: "__opaque", scope: !925, file: !8, baseType: !180, size: 128, align: 8, offset: 64, flags: DIFlagPrivate)
!929 = !DIDerivedType(tag: DW_TAG_pointer_type, name: "&libc::unix::bsd::apple::pthread_rwlockattr_t", baseType: !925, size: 64, align: 64, dwarfAddressSpace: 0)
!930 = !{!931}
!931 = !DILocalVariable(name: "self", arg: 1, scope: !921, file: !62, line: 83, type: !929)
!932 = !DILocation(line: 83, column: 22, scope: !921)
!933 = !DILocation(line: 83, column: 37, scope: !921)
!934 = !DILocation(line: 83, column: 44, scope: !921)
!935 = distinct !DISubprogram(name: "clone", linkageName: "_ZN72_$LT$libc..unix..bsd..apple..siginfo_t$u20$as$u20$core..clone..Clone$GT$5clone17h81f87d06aacae25eE", scope: !936, file: !62, line: 83, type: !937, scopeLine: 83, flags: DIFlagPrototyped, spFlags: DISPFlagDefinition, unit: !4, templateParams: !75, retainedNodes: !939)
!936 = !DINamespace(name: "{impl#30}", scope: !16)
!937 = !DISubroutineType(types: !938)
!938 = !{!660, !675}
!939 = !{!940}
!940 = !DILocalVariable(name: "self", arg: 1, scope: !935, file: !62, line: 83, type: !675)
!941 = !DILocation(line: 83, column: 22, scope: !935)
!942 = !DILocation(line: 83, column: 37, scope: !935)
!943 = !DILocation(line: 83, column: 44, scope: !935)
!944 = distinct !DISubprogram(name: "clone", linkageName: "_ZN72_$LT$libc..unix..bsd..apple..sigaction$u20$as$u20$core..clone..Clone$GT$5clone17h6fecaca6f8e3e7faE", scope: !945, file: !62, line: 83, type: !946, scopeLine: 83, flags: DIFlagPrototyped, spFlags: DISPFlagDefinition, unit: !4, templateParams: !75, retainedNodes: !954)
!945 = !DINamespace(name: "{impl#32}", scope: !16)
!946 = !DISubroutineType(types: !947)
!947 = !{!948, !953}
!948 = !DICompositeType(tag: DW_TAG_structure_type, name: "sigaction", scope: !16, file: !8, size: 128, align: 64, flags: DIFlagPublic, elements: !949, templateParams: !75, identifier: "f81ec47894a7b84eb7a0e844c0401bec")
!949 = !{!950, !951, !952}
!950 = !DIDerivedType(tag: DW_TAG_member, name: "sa_sigaction", scope: !948, file: !8, baseType: !216, size: 64, align: 64, flags: DIFlagPublic)
!951 = !DIDerivedType(tag: DW_TAG_member, name: "sa_mask", scope: !948, file: !8, baseType: !20, size: 32, align: 32, offset: 64, flags: DIFlagPublic)
!952 = !DIDerivedType(tag: DW_TAG_member, name: "sa_flags", scope: !948, file: !8, baseType: !105, size: 32, align: 32, offset: 96, flags: DIFlagPublic)
!953 = !DIDerivedType(tag: DW_TAG_pointer_type, name: "&libc::unix::bsd::apple::sigaction", baseType: !948, size: 64, align: 64, dwarfAddressSpace: 0)
!954 = !{!955}
!955 = !DILocalVariable(name: "self", arg: 1, scope: !944, file: !62, line: 83, type: !953)
!956 = !DILocation(line: 83, column: 22, scope: !944)
!957 = !DILocation(line: 83, column: 37, scope: !944)
!958 = !DILocation(line: 83, column: 44, scope: !944)
!959 = distinct !DISubprogram(name: "clone", linkageName: "_ZN70_$LT$libc..unix..bsd..apple..stack_t$u20$as$u20$core..clone..Clone$GT$5clone17h7c4f0924645f3bdfE", scope: !960, file: !62, line: 83, type: !961, scopeLine: 83, flags: DIFlagPrototyped, spFlags: DISPFlagDefinition, unit: !4, templateParams: !75, retainedNodes: !969)
!960 = !DINamespace(name: "{impl#34}", scope: !16)
!961 = !DISubroutineType(types: !962)
!962 = !{!963, !968}
!963 = !DICompositeType(tag: DW_TAG_structure_type, name: "stack_t", scope: !16, file: !8, size: 192, align: 64, flags: DIFlagPublic, elements: !964, templateParams: !75, identifier: "3df2f5bdb3a9784849ac5b08652c9b34")
!964 = !{!965, !966, !967}
!965 = !DIDerivedType(tag: DW_TAG_member, name: "ss_sp", scope: !963, file: !8, baseType: !214, size: 64, align: 64, flags: DIFlagPublic)
!966 = !DIDerivedType(tag: DW_TAG_member, name: "ss_size", scope: !963, file: !8, baseType: !216, size: 64, align: 64, offset: 64, flags: DIFlagPublic)
!967 = !DIDerivedType(tag: DW_TAG_member, name: "ss_flags", scope: !963, file: !8, baseType: !105, size: 32, align: 32, offset: 128, flags: DIFlagPublic)
!968 = !DIDerivedType(tag: DW_TAG_pointer_type, name: "&libc::unix::bsd::apple::stack_t", baseType: !963, size: 64, align: 64, dwarfAddressSpace: 0)
!969 = !{!970}
!970 = !DILocalVariable(name: "self", arg: 1, scope: !959, file: !62, line: 83, type: !968)
!971 = !DILocation(line: 83, column: 22, scope: !959)
!972 = !DILocation(line: 83, column: 37, scope: !959)
!973 = !DILocation(line: 83, column: 44, scope: !959)
!974 = distinct !DISubprogram(name: "clone", linkageName: "_ZN71_$LT$libc..unix..bsd..apple..fstore_t$u20$as$u20$core..clone..Clone$GT$5clone17hfc955a8e915cda6aE", scope: !975, file: !62, line: 83, type: !976, scopeLine: 83, flags: DIFlagPrototyped, spFlags: DISPFlagDefinition, unit: !4, templateParams: !75, retainedNodes: !986)
!975 = !DINamespace(name: "{impl#36}", scope: !16)
!976 = !DISubroutineType(types: !977)
!977 = !{!978, !985}
!978 = !DICompositeType(tag: DW_TAG_structure_type, name: "fstore_t", scope: !16, file: !8, size: 256, align: 64, flags: DIFlagPublic, elements: !979, templateParams: !75, identifier: "3b30ea15c7e60253b2fdc6245bf147e5")
!979 = !{!980, !981, !982, !983, !984}
!980 = !DIDerivedType(tag: DW_TAG_member, name: "fst_flags", scope: !978, file: !8, baseType: !20, size: 32, align: 32, flags: DIFlagPublic)
!981 = !DIDerivedType(tag: DW_TAG_member, name: "fst_posmode", scope: !978, file: !8, baseType: !105, size: 32, align: 32, offset: 32, flags: DIFlagPublic)
!982 = !DIDerivedType(tag: DW_TAG_member, name: "fst_offset", scope: !978, file: !8, baseType: !89, size: 64, align: 64, offset: 64, flags: DIFlagPublic)
!983 = !DIDerivedType(tag: DW_TAG_member, name: "fst_length", scope: !978, file: !8, baseType: !89, size: 64, align: 64, offset: 128, flags: DIFlagPublic)
!984 = !DIDerivedType(tag: DW_TAG_member, name: "fst_bytesalloc", scope: !978, file: !8, baseType: !89, size: 64, align: 64, offset: 192, flags: DIFlagPublic)
!985 = !DIDerivedType(tag: DW_TAG_pointer_type, name: "&libc::unix::bsd::apple::fstore_t", baseType: !978, size: 64, align: 64, dwarfAddressSpace: 0)
!986 = !{!987}
!987 = !DILocalVariable(name: "self", arg: 1, scope: !974, file: !62, line: 83, type: !985)
!988 = !DILocation(line: 83, column: 22, scope: !974)
!989 = !DILocation(line: 83, column: 37, scope: !974)
!990 = !DILocation(line: 83, column: 44, scope: !974)
!991 = distinct !DISubprogram(name: "clone", linkageName: "_ZN75_$LT$libc..unix..bsd..apple..fpunchhole_t$u20$as$u20$core..clone..Clone$GT$5clone17h2875c66a7b55f873E", scope: !992, file: !62, line: 83, type: !993, scopeLine: 83, flags: DIFlagPrototyped, spFlags: DISPFlagDefinition, unit: !4, templateParams: !75, retainedNodes: !1002)
!992 = !DINamespace(name: "{impl#38}", scope: !16)
!993 = !DISubroutineType(types: !994)
!994 = !{!995, !1001}
!995 = !DICompositeType(tag: DW_TAG_structure_type, name: "fpunchhole_t", scope: !16, file: !8, size: 192, align: 64, flags: DIFlagPublic, elements: !996, templateParams: !75, identifier: "8e7acce89c3c99894ff5a6bbf1276d5f")
!996 = !{!997, !998, !999, !1000}
!997 = !DIDerivedType(tag: DW_TAG_member, name: "fp_flags", scope: !995, file: !8, baseType: !20, size: 32, align: 32, flags: DIFlagPublic)
!998 = !DIDerivedType(tag: DW_TAG_member, name: "reserved", scope: !995, file: !8, baseType: !20, size: 32, align: 32, offset: 32, flags: DIFlagPublic)
!999 = !DIDerivedType(tag: DW_TAG_member, name: "fp_offset", scope: !995, file: !8, baseType: !89, size: 64, align: 64, offset: 64, flags: DIFlagPublic)
!1000 = !DIDerivedType(tag: DW_TAG_member, name: "fp_length", scope: !995, file: !8, baseType: !89, size: 64, align: 64, offset: 128, flags: DIFlagPublic)
!1001 = !DIDerivedType(tag: DW_TAG_pointer_type, name: "&libc::unix::bsd::apple::fpunchhole_t", baseType: !995, size: 64, align: 64, dwarfAddressSpace: 0)
!1002 = !{!1003}
!1003 = !DILocalVariable(name: "self", arg: 1, scope: !991, file: !62, line: 83, type: !1001)
!1004 = !DILocation(line: 83, column: 22, scope: !991)
!1005 = !DILocation(line: 83, column: 37, scope: !991)
!1006 = !DILocation(line: 83, column: 44, scope: !991)
!1007 = distinct !DISubprogram(name: "clone", linkageName: "_ZN80_$LT$libc..unix..bsd..apple..ftrimactivefile_t$u20$as$u20$core..clone..Clone$GT$5clone17ha1e3982b37c7cdacE", scope: !1008, file: !62, line: 83, type: !1009, scopeLine: 83, flags: DIFlagPrototyped, spFlags: DISPFlagDefinition, unit: !4, templateParams: !75, retainedNodes: !1016)
!1008 = !DINamespace(name: "{impl#40}", scope: !16)
!1009 = !DISubroutineType(types: !1010)
!1010 = !{!1011, !1015}
!1011 = !DICompositeType(tag: DW_TAG_structure_type, name: "ftrimactivefile_t", scope: !16, file: !8, size: 128, align: 64, flags: DIFlagPublic, elements: !1012, templateParams: !75, identifier: "6c8ccade4ad7d43de1d3cf229c2b56a9")
!1012 = !{!1013, !1014}
!1013 = !DIDerivedType(tag: DW_TAG_member, name: "fta_offset", scope: !1011, file: !8, baseType: !89, size: 64, align: 64, flags: DIFlagPublic)
!1014 = !DIDerivedType(tag: DW_TAG_member, name: "fta_length", scope: !1011, file: !8, baseType: !89, size: 64, align: 64, offset: 64, flags: DIFlagPublic)
!1015 = !DIDerivedType(tag: DW_TAG_pointer_type, name: "&libc::unix::bsd::apple::ftrimactivefile_t", baseType: !1011, size: 64, align: 64, dwarfAddressSpace: 0)
!1016 = !{!1017}
!1017 = !DILocalVariable(name: "self", arg: 1, scope: !1007, file: !62, line: 83, type: !1015)
!1018 = !DILocation(line: 83, column: 22, scope: !1007)
!1019 = !DILocation(line: 83, column: 37, scope: !1007)
!1020 = !DILocation(line: 83, column: 44, scope: !1007)
!1021 = distinct !DISubprogram(name: "clone", linkageName: "_ZN74_$LT$libc..unix..bsd..apple..fspecread_t$u20$as$u20$core..clone..Clone$GT$5clone17h9736875444875af5E", scope: !1022, file: !62, line: 83, type: !1023, scopeLine: 83, flags: DIFlagPrototyped, spFlags: DISPFlagDefinition, unit: !4, templateParams: !75, retainedNodes: !1032)
!1022 = !DINamespace(name: "{impl#42}", scope: !16)
!1023 = !DISubroutineType(types: !1024)
!1024 = !{!1025, !1031}
!1025 = !DICompositeType(tag: DW_TAG_structure_type, name: "fspecread_t", scope: !16, file: !8, size: 192, align: 64, flags: DIFlagPublic, elements: !1026, templateParams: !75, identifier: "f2898ec7e0256ba5514cc276a820a5d5")
!1026 = !{!1027, !1028, !1029, !1030}
!1027 = !DIDerivedType(tag: DW_TAG_member, name: "fsr_flags", scope: !1025, file: !8, baseType: !20, size: 32, align: 32, flags: DIFlagPublic)
!1028 = !DIDerivedType(tag: DW_TAG_member, name: "reserved", scope: !1025, file: !8, baseType: !20, size: 32, align: 32, offset: 32, flags: DIFlagPublic)
!1029 = !DIDerivedType(tag: DW_TAG_member, name: "fsr_offset", scope: !1025, file: !8, baseType: !89, size: 64, align: 64, offset: 64, flags: DIFlagPublic)
!1030 = !DIDerivedType(tag: DW_TAG_member, name: "fsr_length", scope: !1025, file: !8, baseType: !89, size: 64, align: 64, offset: 128, flags: DIFlagPublic)
!1031 = !DIDerivedType(tag: DW_TAG_pointer_type, name: "&libc::unix::bsd::apple::fspecread_t", baseType: !1025, size: 64, align: 64, dwarfAddressSpace: 0)
!1032 = !{!1033}
!1033 = !DILocalVariable(name: "self", arg: 1, scope: !1021, file: !62, line: 83, type: !1031)
!1034 = !DILocation(line: 83, column: 22, scope: !1021)
!1035 = !DILocation(line: 83, column: 37, scope: !1021)
!1036 = !DILocation(line: 83, column: 44, scope: !1021)
!1037 = distinct !DISubprogram(name: "clone", linkageName: "_ZN72_$LT$libc..unix..bsd..apple..radvisory$u20$as$u20$core..clone..Clone$GT$5clone17h51f36c4a2f6ab4a9E", scope: !1038, file: !62, line: 83, type: !1039, scopeLine: 83, flags: DIFlagPrototyped, spFlags: DISPFlagDefinition, unit: !4, templateParams: !75, retainedNodes: !1046)
!1038 = !DINamespace(name: "{impl#44}", scope: !16)
!1039 = !DISubroutineType(types: !1040)
!1040 = !{!1041, !1045}
!1041 = !DICompositeType(tag: DW_TAG_structure_type, name: "radvisory", scope: !16, file: !8, size: 128, align: 64, flags: DIFlagPublic, elements: !1042, templateParams: !75, identifier: "4a90f81f42fe7118c3b9c3e23a48a746")
!1042 = !{!1043, !1044}
!1043 = !DIDerivedType(tag: DW_TAG_member, name: "ra_offset", scope: !1041, file: !8, baseType: !89, size: 64, align: 64, flags: DIFlagPublic)
!1044 = !DIDerivedType(tag: DW_TAG_member, name: "ra_count", scope: !1041, file: !8, baseType: !105, size: 32, align: 32, offset: 64, flags: DIFlagPublic)
!1045 = !DIDerivedType(tag: DW_TAG_pointer_type, name: "&libc::unix::bsd::apple::radvisory", baseType: !1041, size: 64, align: 64, dwarfAddressSpace: 0)
!1046 = !{!1047}
!1047 = !DILocalVariable(name: "self", arg: 1, scope: !1037, file: !62, line: 83, type: !1045)
!1048 = !DILocation(line: 83, column: 22, scope: !1037)
!1049 = !DILocation(line: 83, column: 37, scope: !1037)
!1050 = !DILocation(line: 83, column: 44, scope: !1037)
!1051 = distinct !DISubprogram(name: "clone", linkageName: "_ZN70_$LT$libc..unix..bsd..apple..statvfs$u20$as$u20$core..clone..Clone$GT$5clone17hb03177ac82507d2aE", scope: !1052, file: !62, line: 83, type: !1053, scopeLine: 83, flags: DIFlagPrototyped, spFlags: DISPFlagDefinition, unit: !4, templateParams: !75, retainedNodes: !1069)
!1052 = !DINamespace(name: "{impl#46}", scope: !16)
!1053 = !DISubroutineType(types: !1054)
!1054 = !{!1055, !1068}
!1055 = !DICompositeType(tag: DW_TAG_structure_type, name: "statvfs", scope: !16, file: !8, size: 512, align: 64, flags: DIFlagPublic, elements: !1056, templateParams: !75, identifier: "1dad855f775a8da0456667ff1a72b5ca")
!1056 = !{!1057, !1058, !1059, !1060, !1061, !1062, !1063, !1064, !1065, !1066, !1067}
!1057 = !DIDerivedType(tag: DW_TAG_member, name: "f_bsize", scope: !1055, file: !8, baseType: !133, size: 64, align: 64, flags: DIFlagPublic)
!1058 = !DIDerivedType(tag: DW_TAG_member, name: "f_frsize", scope: !1055, file: !8, baseType: !133, size: 64, align: 64, offset: 64, flags: DIFlagPublic)
!1059 = !DIDerivedType(tag: DW_TAG_member, name: "f_blocks", scope: !1055, file: !8, baseType: !20, size: 32, align: 32, offset: 128, flags: DIFlagPublic)
!1060 = !DIDerivedType(tag: DW_TAG_member, name: "f_bfree", scope: !1055, file: !8, baseType: !20, size: 32, align: 32, offset: 160, flags: DIFlagPublic)
!1061 = !DIDerivedType(tag: DW_TAG_member, name: "f_bavail", scope: !1055, file: !8, baseType: !20, size: 32, align: 32, offset: 192, flags: DIFlagPublic)
!1062 = !DIDerivedType(tag: DW_TAG_member, name: "f_files", scope: !1055, file: !8, baseType: !20, size: 32, align: 32, offset: 224, flags: DIFlagPublic)
!1063 = !DIDerivedType(tag: DW_TAG_member, name: "f_ffree", scope: !1055, file: !8, baseType: !20, size: 32, align: 32, offset: 256, flags: DIFlagPublic)
!1064 = !DIDerivedType(tag: DW_TAG_member, name: "f_favail", scope: !1055, file: !8, baseType: !20, size: 32, align: 32, offset: 288, flags: DIFlagPublic)
!1065 = !DIDerivedType(tag: DW_TAG_member, name: "f_fsid", scope: !1055, file: !8, baseType: !133, size: 64, align: 64, offset: 320, flags: DIFlagPublic)
!1066 = !DIDerivedType(tag: DW_TAG_member, name: "f_flag", scope: !1055, file: !8, baseType: !133, size: 64, align: 64, offset: 384, flags: DIFlagPublic)
!1067 = !DIDerivedType(tag: DW_TAG_member, name: "f_namemax", scope: !1055, file: !8, baseType: !133, size: 64, align: 64, offset: 448, flags: DIFlagPublic)
!1068 = !DIDerivedType(tag: DW_TAG_pointer_type, name: "&libc::unix::bsd::apple::statvfs", baseType: !1055, size: 64, align: 64, dwarfAddressSpace: 0)
!1069 = !{!1070}
!1070 = !DILocalVariable(name: "self", arg: 1, scope: !1051, file: !62, line: 83, type: !1068)
!1071 = !DILocation(line: 83, column: 22, scope: !1051)
!1072 = !DILocation(line: 83, column: 37, scope: !1051)
!1073 = !DILocation(line: 83, column: 44, scope: !1051)
!1074 = distinct !DISubprogram(name: "clone", linkageName: "_ZN70_$LT$libc..unix..bsd..apple..Dl_info$u20$as$u20$core..clone..Clone$GT$5clone17hffa150e4e4cb599cE", scope: !1075, file: !62, line: 83, type: !1076, scopeLine: 83, flags: DIFlagPrototyped, spFlags: DISPFlagDefinition, unit: !4, templateParams: !75, retainedNodes: !1085)
!1075 = !DINamespace(name: "{impl#48}", scope: !16)
!1076 = !DISubroutineType(types: !1077)
!1077 = !{!1078, !1084}
!1078 = !DICompositeType(tag: DW_TAG_structure_type, name: "Dl_info", scope: !16, file: !8, size: 256, align: 64, flags: DIFlagPublic, elements: !1079, templateParams: !75, identifier: "71507d644149f0e6736e9a7b7346b690")
!1079 = !{!1080, !1081, !1082, !1083}
!1080 = !DIDerivedType(tag: DW_TAG_member, name: "dli_fname", scope: !1078, file: !8, baseType: !536, size: 64, align: 64, flags: DIFlagPublic)
!1081 = !DIDerivedType(tag: DW_TAG_member, name: "dli_fbase", scope: !1078, file: !8, baseType: !214, size: 64, align: 64, offset: 64, flags: DIFlagPublic)
!1082 = !DIDerivedType(tag: DW_TAG_member, name: "dli_sname", scope: !1078, file: !8, baseType: !536, size: 64, align: 64, offset: 128, flags: DIFlagPublic)
!1083 = !DIDerivedType(tag: DW_TAG_member, name: "dli_saddr", scope: !1078, file: !8, baseType: !214, size: 64, align: 64, offset: 192, flags: DIFlagPublic)
!1084 = !DIDerivedType(tag: DW_TAG_pointer_type, name: "&libc::unix::bsd::apple::Dl_info", baseType: !1078, size: 64, align: 64, dwarfAddressSpace: 0)
!1085 = !{!1086}
!1086 = !DILocalVariable(name: "self", arg: 1, scope: !1074, file: !62, line: 83, type: !1084)
!1087 = !DILocation(line: 83, column: 22, scope: !1074)
!1088 = !DILocation(line: 83, column: 37, scope: !1074)
!1089 = !DILocation(line: 83, column: 44, scope: !1074)
!1090 = distinct !DISubprogram(name: "clone", linkageName: "_ZN74_$LT$libc..unix..bsd..apple..sockaddr_in$u20$as$u20$core..clone..Clone$GT$5clone17hcc4c2ec8bb404d4bE", scope: !1091, file: !62, line: 83, type: !1092, scopeLine: 83, flags: DIFlagPrototyped, spFlags: DISPFlagDefinition, unit: !4, templateParams: !75, retainedNodes: !1103)
!1091 = !DINamespace(name: "{impl#50}", scope: !16)
!1092 = !DISubroutineType(types: !1093)
!1093 = !{!1094, !1102}
!1094 = !DICompositeType(tag: DW_TAG_structure_type, name: "sockaddr_in", scope: !16, file: !8, size: 128, align: 32, flags: DIFlagPublic, elements: !1095, templateParams: !75, identifier: "9ce6a7f31379977b382631a86ebfc6e1")
!1095 = !{!1096, !1097, !1098, !1099, !1100}
!1096 = !DIDerivedType(tag: DW_TAG_member, name: "sin_len", scope: !1094, file: !8, baseType: !11, size: 8, align: 8, flags: DIFlagPublic)
