; ModuleID = '3mkn1nzp3en9yd31'
source_filename = "3mkn1nzp3en9yd31"
target datalayout = "e-m:o-i64:64-i128:128-n32:64-S128"
target triple = "arm64-apple-macosx11.0.0"

%"core::option::Option<usize>" = type { i64, [1 x i64] }
%"core::ops::control_flow::ControlFlow<usize>" = type { i64, [1 x i64] }
%"core::ops::control_flow::ControlFlow<(), core::convert::Infallible>::Break" = type { {} }
%"core::iter::adapters::zip::Zip<core::slice::iter::Iter<'_, u8>, core::slice::iter::Iter<'_, u8>>" = type { %"core::slice::iter::Iter<'_, u8>", %"core::slice::iter::Iter<'_, u8>", i64, i64, i64 }
%"core::slice::iter::Iter<'_, u8>" = type { ptr, ptr, %"core::marker::PhantomData<&u8>" }
%"core::marker::PhantomData<&u8>" = type {}
%"core::option::Option<(&u8, &u8)>" = type { ptr, [1 x i64] }
%"core::fmt::Arguments<'_>" = type { { ptr, i64 }, { ptr, i64 }, %"core::option::Option<&[core::fmt::rt::Placeholder]>" }
%"core::option::Option<&[core::fmt::rt::Placeholder]>" = type { ptr, [1 x i64] }
%"MaybeStaticStr<'_>" = type { i64, [2 x i64] }
%"{closure@src/lib.rs:654:20: 654:23}" = type {}
%"core::ops::range::Range<usize>" = type { i64, i64 }
%"core::iter::adapters::map::Map<core::ops::range::Range<usize>, {closure@src/lib.rs:654:20: 654:23}>" = type { %"core::ops::range::Range<usize>", %"{closure@src/lib.rs:654:20: 654:23}" }
%"{closure@src/lib.rs:545:20: 545:23}" = type {}
%"core::iter::adapters::map::Map<core::ops::range::Range<usize>, {closure@src/lib.rs:545:20: 545:23}>" = type { %"core::ops::range::Range<usize>", %"{closure@src/lib.rs:545:20: 545:23}" }
%"{closure@src/lib.rs:487:18: 487:23}" = type {}
%"core::iter::adapters::filter::Filter<core::option::IntoIter<usize>, {closure@src/lib.rs:486:21: 486:27}>" = type { %"core::option::IntoIter<usize>", %"{closure@src/lib.rs:486:21: 486:27}" }
%"core::option::IntoIter<usize>" = type { %"core::option::Item<usize>" }
%"core::option::Item<usize>" = type { %"core::option::Option<usize>" }
%"{closure@src/lib.rs:486:21: 486:27}" = type {}
%"core::iter::adapters::map::Map<core::iter::adapters::filter::Filter<core::option::IntoIter<usize>, {closure@src/lib.rs:486:21: 486:27}>, {closure@src/lib.rs:487:18: 487:23}>" = type { %"core::iter::adapters::filter::Filter<core::option::IntoIter<usize>, {closure@src/lib.rs:486:21: 486:27}>", %"{closure@src/lib.rs:487:18: 487:23}" }
%"{closure@core::iter::traits::iterator::Iterator::all::check<(&u8, &u8), {closure@core::slice::ascii::<impl [u8]>::eq_ignore_ascii_case::{closure#0}}>::{closure#0}}" = type { %"{closure@core::slice::ascii::<impl [u8]>::eq_ignore_ascii_case::{closure#0}}" }
%"{closure@core::slice::ascii::<impl [u8]>::eq_ignore_ascii_case::{closure#0}}" = type {}
%"core::ops::control_flow::ControlFlow<core::ops::control_flow::ControlFlow<usize, core::convert::Infallible>>" = type { i64, [1 x i64] }
%"core::core_arch::arm_shared::barrier::common::SY" = type {}
%"core::result::Result<usize, usize>" = type { i64, [1 x i64] }
%"core::ptr::non_null::NonNull<[&str]>" = type { { ptr, i64 } }
%"core::slice::iter::Iter<'_, &str>" = type { ptr, ptr, %"core::marker::PhantomData<&&str>" }
%"core::marker::PhantomData<&&str>" = type {}
%"core::ptr::non_null::NonNull<[u8]>" = type { { ptr, i64 } }
%"core::option::Option<MaybeStaticStr<'_>>" = type { i64, [2 x i64] }
%"core::option::Option<&str>" = type { ptr, [1 x i64] }
%"{closure@src/lib.rs:594:18: 594:21}" = type {}
%ParseLevelError = type { {} }
%"core::option::Option<u32>" = type { i32, [1 x i32] }
%"{closure@src/lib.rs:593:23: 593:30}" = type { { ptr, i64 } }
%"{closure@src/lib.rs:484:23: 484:30}" = type { { ptr, i64 } }
%"RecordBuilder<'_>" = type { %"Record<'_>" }
%"Record<'_>" = type { %"core::option::Option<MaybeStaticStr<'_>>", %"core::option::Option<MaybeStaticStr<'_>>", %"Metadata<'_>", %"core::option::Option<u32>", %"core::fmt::Arguments<'_>" }
%"Metadata<'_>" = type { i64, { ptr, i64 } }
%"MetadataBuilder<'_>" = type { %"Metadata<'_>" }
%"{closure@src/lib.rs:1352:22: 1352:24}" = type { { ptr, ptr } }
%"core::fmt::rt::Argument<'_>" = type { ptr, ptr }
%"core::option::Option<&[(&str, &str)]>" = type { ptr, [1 x i64] }

@0 = private unnamed_addr constant <{ [8 x i8], [8 x i8] }> <{ [8 x i8] zeroinitializer, [8 x i8] undef }>, align 8
@alloc_91c7fa63c3cfeaa3c795652d5cf060e4 = private unnamed_addr constant <{ [12 x i8] }> <{ [12 x i8] c"invalid args" }>, align 1
@alloc_af99043bc04c419363a7f04d23183506 = private unnamed_addr constant <{ ptr, [8 x i8] }> <{ ptr @alloc_91c7fa63c3cfeaa3c795652d5cf060e4, [8 x i8] c"\0C\00\00\00\00\00\00\00" }>, align 8
@alloc_513570631223a12912d85da2bec3b15a = private unnamed_addr constant <{}> zeroinitializer, align 8
@alloc_b471600b253f24fcc8f91ba747bf2f04 = private unnamed_addr constant <{ [75 x i8] }> <{ [75 x i8] c"/rustc/46b180ec2452d388c5d9c14009442e2e0beb01d7/library/core/src/fmt/mod.rs" }>, align 1
@alloc_4ba2c5ddff77a51f3765b0dd5f2851cc = private unnamed_addr constant <{ ptr, [16 x i8] }> <{ ptr @alloc_b471600b253f24fcc8f91ba747bf2f04, [16 x i8] c"K\00\00\00\00\00\00\00U\01\00\00\0D\00\00\00" }>, align 8
@alloc_3d28b95801fd55932918b2920be93f48 = private unnamed_addr constant <{ ptr, [16 x i8] }> <{ ptr @alloc_b471600b253f24fcc8f91ba747bf2f04, [16 x i8] c"K\00\00\00\00\00\00\00K\01\00\00\0D\00\00\00" }>, align 8
@alloc_ec595fc0e82ef92fc59bd74f68296eae = private unnamed_addr constant <{ [73 x i8] }> <{ [73 x i8] c"assertion failed: 0 < pointee_size && pointee_size <= isize::MAX as usize" }>, align 1
@alloc_f1802761b0cba8787ff63a6853b741ad = private unnamed_addr constant <{ [81 x i8] }> <{ [81 x i8] c"/rustc/46b180ec2452d388c5d9c14009442e2e0beb01d7/library/core/src/ptr/const_ptr.rs" }>, align 1
@alloc_4e3a3aaf48410eaea90c90938dabe76a = private unnamed_addr constant <{ ptr, [16 x i8] }> <{ ptr @alloc_f1802761b0cba8787ff63a6853b741ad, [16 x i8] c"Q\00\00\00\00\00\00\00:\03\00\00\09\00\00\00" }>, align 8
@alloc_7efb3a7632b3620f628ce83a521b4d9b = private unnamed_addr constant <{ [71 x i8] }> <{ [71 x i8] c"unsafe precondition(s) violated: ptr::sub_ptr requires `self >= origin`" }>, align 1
@alloc_ab14703751a9eb3585c49b2e55e9a9e5 = private unnamed_addr constant <{ [104 x i8] }> <{ [104 x i8] c"unsafe precondition(s) violated: hint::assert_unchecked must never be called when the condition is false" }>, align 1
@alloc_9cd20c3e415f4d39f0ceb012cb758628 = private unnamed_addr constant <{ [40 x i8] }> <{ [40 x i8] c"there is no such thing as a release load" }>, align 1
@alloc_cf8f91dd8bc9347b20052f6ccc905cd7 = private unnamed_addr constant <{ ptr, [8 x i8] }> <{ ptr @alloc_9cd20c3e415f4d39f0ceb012cb758628, [8 x i8] c"(\00\00\00\00\00\00\00" }>, align 8
@alloc_fb04678f0d962c767fbe619d0fb3421c = private unnamed_addr constant <{ [79 x i8] }> <{ [79 x i8] c"/rustc/46b180ec2452d388c5d9c14009442e2e0beb01d7/library/core/src/sync/atomic.rs" }>, align 1
@alloc_8c9cdb58c2f0a4545f7cc326c35c8372 = private unnamed_addr constant <{ ptr, [16 x i8] }> <{ ptr @alloc_fb04678f0d962c767fbe619d0fb3421c, [16 x i8] c"O\00\00\00\00\00\00\00\EE\0C\00\00\18\00\00\00" }>, align 8
@alloc_96ab912d0054b46da785b206a96c9a45 = private unnamed_addr constant <{ [49 x i8] }> <{ [49 x i8] c"there is no such thing as an acquire-release load" }>, align 1
@alloc_7e8e9a1d4bc7d0bbec692f0a50681e22 = private unnamed_addr constant <{ ptr, [8 x i8] }> <{ ptr @alloc_96ab912d0054b46da785b206a96c9a45, [8 x i8] c"1\00\00\00\00\00\00\00" }>, align 8
@alloc_79a5c80227634b987971a232b8e75faa = private unnamed_addr constant <{ ptr, [16 x i8] }> <{ ptr @alloc_fb04678f0d962c767fbe619d0fb3421c, [16 x i8] c"O\00\00\00\00\00\00\00\EF\0C\00\00\17\00\00\00" }>, align 8
@alloc_bf39103a6db665396aab4632362d9353 = private unnamed_addr constant <{ [42 x i8] }> <{ [42 x i8] c"there is no such thing as an acquire store" }>, align 1
@alloc_47c752ba42fbab56d43a37cfd56e4899 = private unnamed_addr constant <{ ptr, [8 x i8] }> <{ ptr @alloc_bf39103a6db665396aab4632362d9353, [8 x i8] c"*\00\00\00\00\00\00\00" }>, align 8
@alloc_b157ad0004577c6c88dd62899145e37d = private unnamed_addr constant <{ ptr, [16 x i8] }> <{ ptr @alloc_fb04678f0d962c767fbe619d0fb3421c, [16 x i8] c"O\00\00\00\00\00\00\00\DF\0C\00\00\18\00\00\00" }>, align 8
@alloc_00c0bce0fa6327f8ec8e69d6d765d508 = private unnamed_addr constant <{ [50 x i8] }> <{ [50 x i8] c"there is no such thing as an acquire-release store" }>, align 1
@alloc_f8dbac861f87e25e445761cc4af66745 = private unnamed_addr constant <{ ptr, [8 x i8] }> <{ ptr @alloc_00c0bce0fa6327f8ec8e69d6d765d508, [8 x i8] c"2\00\00\00\00\00\00\00" }>, align 8
@alloc_59475c7fc9ca991233bda64f955b86c3 = private unnamed_addr constant <{ ptr, [16 x i8] }> <{ ptr @alloc_fb04678f0d962c767fbe619d0fb3421c, [16 x i8] c"O\00\00\00\00\00\00\00\E0\0C\00\00\17\00\00\00" }>, align 8
@alloc_5a43f8d94dd4505c1dba43832ce73af8 = private unnamed_addr constant <{ [52 x i8] }> <{ [52 x i8] c"there is no such thing as a release failure ordering" }>, align 1
@alloc_04ab601c54c6e0a22ff11d72dc7f4511 = private unnamed_addr constant <{ ptr, [8 x i8] }> <{ ptr @alloc_5a43f8d94dd4505c1dba43832ce73af8, [8 x i8] c"4\00\00\00\00\00\00\00" }>, align 8
@alloc_19270ecf540b1a1f8c2c2e2f9f23d498 = private unnamed_addr constant <{ ptr, [16 x i8] }> <{ ptr @alloc_fb04678f0d962c767fbe619d0fb3421c, [16 x i8] c"O\00\00\00\00\00\00\00C\0D\00\00\1D\00\00\00" }>, align 8
@alloc_7adef5546d83b439c7829602020737c6 = private unnamed_addr constant <{ [61 x i8] }> <{ [61 x i8] c"there is no such thing as an acquire-release failure ordering" }>, align 1
@alloc_dd7d8f77c173bf31726eae321f955bec = private unnamed_addr constant <{ ptr, [8 x i8] }> <{ ptr @alloc_7adef5546d83b439c7829602020737c6, [8 x i8] c"=\00\00\00\00\00\00\00" }>, align 8
@alloc_4d14c61bfb4767046945de79e7109737 = private unnamed_addr constant <{ ptr, [16 x i8] }> <{ ptr @alloc_fb04678f0d962c767fbe619d0fb3421c, [16 x i8] c"O\00\00\00\00\00\00\00B\0D\00\00\1C\00\00\00" }>, align 8
@alloc_914b2c69d7eca30497b9feaf15ac92f1 = private unnamed_addr constant <{ [1 x i8] }> zeroinitializer, align 1
@alloc_f195f5aa4597af008813b3ea9390d1c8 = private unnamed_addr constant <{ [78 x i8] }> <{ [78 x i8] c"/rustc/46b180ec2452d388c5d9c14009442e2e0beb01d7/library/core/src/slice/iter.rs" }>, align 1
@alloc_57aa458a7ae645d3a9cf1d07b69ee5e7 = private unnamed_addr constant <{ ptr, [16 x i8] }> <{ ptr @alloc_f195f5aa4597af008813b3ea9390d1c8, [16 x i8] c"N\00\00\00\00\00\00\00\85\00\00\00\01\00\00\00" }>, align 8
@str.0 = internal unnamed_addr constant [28 x i8] c"attempt to add with overflow"
@1 = private constant <{ ptr, [16 x i8], ptr, ptr, ptr }> <{ ptr @"_ZN4core3ptr35drop_in_place$LT$log..NopLogger$GT$17h548afc977dfa04c1E", [16 x i8] c"\00\00\00\00\00\00\00\00\01\00\00\00\00\00\00\00", ptr @"_ZN43_$LT$log..NopLogger$u20$as$u20$log..Log$GT$7enabled17h03ea95b6d069d9c4E", ptr @"_ZN43_$LT$log..NopLogger$u20$as$u20$log..Log$GT$3log17hc501104e9c1c5807E", ptr @"_ZN43_$LT$log..NopLogger$u20$as$u20$log..Log$GT$5flush17hed9375e49842852dE" }>, align 8, !dbg !0
@_ZN3log6LOGGER17h354ed3787fc77e7aE = internal global <{ ptr, ptr }> <{ ptr @alloc_513570631223a12912d85da2bec3b15a, ptr @1 }>, align 8, !dbg !17
@_ZN3log5STATE17haddfb4e7bc44858eE = internal global <{ [8 x i8] }> zeroinitializer, align 8, !dbg !30
@_ZN3log20MAX_LOG_LEVEL_FILTER17hadde22fb01b2796fE = global <{ [8 x i8] }> zeroinitializer, align 8, !dbg !44
@alloc_6f294884d0f9df4e1d5258383514475f = private unnamed_addr constant <{ [3 x i8] }> <{ [3 x i8] c"OFF" }>, align 1
@alloc_40a65520fe7375e1882a80e8cef489a0 = private unnamed_addr constant <{ [5 x i8] }> <{ [5 x i8] c"ERROR" }>, align 1
@alloc_1d41abab50566e38b6b37c068c764830 = private unnamed_addr constant <{ [4 x i8] }> <{ [4 x i8] c"WARN" }>, align 1
@alloc_1591955be0eee093da4dc18f50ed5668 = private unnamed_addr constant <{ [4 x i8] }> <{ [4 x i8] c"INFO" }>, align 1
@alloc_7ef91ea9956d1aada07140680929d02f = private unnamed_addr constant <{ [5 x i8] }> <{ [5 x i8] c"DEBUG" }>, align 1
@alloc_c48efc3c7774160b55f9544665da6049 = private unnamed_addr constant <{ [5 x i8] }> <{ [5 x i8] c"TRACE" }>, align 1
@_ZN3log15LOG_LEVEL_NAMES17hdd4089b906216a13E = internal constant <{ ptr, [8 x i8], ptr, [8 x i8], ptr, [8 x i8], ptr, [8 x i8], ptr, [8 x i8], ptr, [8 x i8] }> <{ ptr @alloc_6f294884d0f9df4e1d5258383514475f, [8 x i8] c"\03\00\00\00\00\00\00\00", ptr @alloc_40a65520fe7375e1882a80e8cef489a0, [8 x i8] c"\05\00\00\00\00\00\00\00", ptr @alloc_1d41abab50566e38b6b37c068c764830, [8 x i8] c"\04\00\00\00\00\00\00\00", ptr @alloc_1591955be0eee093da4dc18f50ed5668, [8 x i8] c"\04\00\00\00\00\00\00\00", ptr @alloc_7ef91ea9956d1aada07140680929d02f, [8 x i8] c"\05\00\00\00\00\00\00\00", ptr @alloc_c48efc3c7774160b55f9544665da6049, [8 x i8] c"\05\00\00\00\00\00\00\00" }>, align 8, !dbg !46
@alloc_58331354a2c004d7d7bd5027a61c79f1 = private unnamed_addr constant <{ [74 x i8] }> <{ [74 x i8] c"attempted to set a logger after the logging system was already initialized" }>, align 1
@_ZN3log16SET_LOGGER_ERROR17ha456ab970481b890E = internal constant <{ ptr, [8 x i8] }> <{ ptr @alloc_58331354a2c004d7d7bd5027a61c79f1, [8 x i8] c"J\00\00\00\00\00\00\00" }>, align 8, !dbg !57
@alloc_28db52544853e65d76515d92bff93a41 = private unnamed_addr constant <{ [70 x i8] }> <{ [70 x i8] c"attempted to convert a string that doesn't match an existing log level" }>, align 1
@_ZN3log17LEVEL_PARSE_ERROR17hc47c946f26dc4e68E = internal constant <{ ptr, [8 x i8] }> <{ ptr @alloc_28db52544853e65d76515d92bff93a41, [8 x i8] c"F\00\00\00\00\00\00\00" }>, align 8, !dbg !59
@alloc_f5ffd2fd1476bab43ad89fb40c72d0c5 = private unnamed_addr constant <{ [10 x i8] }> <{ [10 x i8] c"src/lib.rs" }>, align 1
@alloc_91bd29e032cbf43cf23507b4836e5016 = private unnamed_addr constant <{ ptr, [16 x i8] }> <{ ptr @alloc_f5ffd2fd1476bab43ad89fb40c72d0c5, [16 x i8] c"\0A\00\00\00\00\00\00\00\E7\01\00\00/\00\00\00" }>, align 8
@alloc_d953349424e79b8b913050fbce37beb5 = private unnamed_addr constant <{ ptr, [16 x i8] }> <{ ptr @alloc_f5ffd2fd1476bab43ad89fb40c72d0c5, [16 x i8] c"\0A\00\00\00\00\00\00\00\0F\02\00\00\09\00\00\00" }>, align 8
@alloc_63a0ba4f1edacfaceb85ef6f6dc2f732 = private unnamed_addr constant <{ ptr, [16 x i8] }> <{ ptr @alloc_f5ffd2fd1476bab43ad89fb40c72d0c5, [16 x i8] c"\0A\00\00\00\00\00\00\00R\02\00\001\00\00\00" }>, align 8
@alloc_232eae800df81020b88d490bd6ff4cee = private unnamed_addr constant <{ ptr, [16 x i8] }> <{ ptr @alloc_f5ffd2fd1476bab43ad89fb40c72d0c5, [16 x i8] c"\0A\00\00\00\00\00\00\00|\02\00\00\09\00\00\00" }>, align 8
@alloc_4a1798d56572b423fe894414c47ed2e6 = private unnamed_addr constant <{ [110 x i8] }> <{ [110 x i8] c"internal error: entered unreachable code: set_logger_racy must not be used with other initialization functions" }>, align 1
@alloc_3d2e94d6037c6f4adaf3efaeebc08703 = private unnamed_addr constant <{ ptr, [8 x i8] }> <{ ptr @alloc_4a1798d56572b423fe894414c47ed2e6, [8 x i8] c"n\00\00\00\00\00\00\00" }>, align 8
@alloc_425681888c313e0ab9025e3a4f372973 = private unnamed_addr constant <{ ptr, [16 x i8] }> <{ ptr @alloc_f5ffd2fd1476bab43ad89fb40c72d0c5, [16 x i8] c"\0A\00\00\00\00\00\00\00\88\05\00\00\0D\00\00\00" }>, align 8
@_ZN3log6logger3NOP17h218d4802b4df6a0fE = internal constant <{}> zeroinitializer, align 1, !dbg !61
@alloc_5c13b70202cdc3d3fb4d6afff5552086 = private unnamed_addr constant <{ [76 x i8] }> <{ [76 x i8] c"key-value support is experimental and must be enabled using the `kv` feature" }>, align 1
@alloc_a2e9a8a645ccf25eaac017087d3cee09 = private unnamed_addr constant <{ ptr, [8 x i8] }> <{ ptr @alloc_5c13b70202cdc3d3fb4d6afff5552086, [8 x i8] c"L\00\00\00\00\00\00\00" }>, align 8
@alloc_8027a940963b52873721fe0a84fce43a = private unnamed_addr constant <{ [20 x i8] }> <{ [20 x i8] c"src/__private_api.rs" }>, align 1
@alloc_f9383bfb10f31fdd94a9152798af3918 = private unnamed_addr constant <{ ptr, [16 x i8] }> <{ ptr @alloc_8027a940963b52873721fe0a84fce43a, [16 x i8] c"\14\00\00\00\00\00\00\00-\00\00\00\09\00\00\00" }>, align 8

; <core::iter::adapters::map::Map<I,F> as core::iter::traits::iterator::Iterator>::next
; Function Attrs: inlinehint uwtable
define i64 @"_ZN102_$LT$core..iter..adapters..map..Map$LT$I$C$F$GT$$u20$as$u20$core..iter..traits..iterator..Iterator$GT$4next17h9e7c8a9cbfc809cdE"(ptr align 8 %self) unnamed_addr #0 !dbg !105 {
start:
  %x.dbg.spill = alloca i64, align 8
  %f.dbg.spill = alloca ptr, align 8
  %self.dbg.spill = alloca ptr, align 8
  %_8 = alloca i64, align 8
  %self1 = alloca %"core::option::Option<usize>", align 8
  %_0 = alloca i64, align 8
  store ptr %self, ptr %self.dbg.spill, align 8
  call void @llvm.dbg.declare(metadata ptr %self.dbg.spill, metadata !167, metadata !DIExpression()), !dbg !170
  call void @llvm.dbg.declare(metadata ptr %self1, metadata !171, metadata !DIExpression()), !dbg !186
; call <core::iter::adapters::filter::Filter<I,P> as core::iter::traits::iterator::Iterator>::next
  %0 = call { i64, i64 } @"_ZN108_$LT$core..iter..adapters..filter..Filter$LT$I$C$P$GT$$u20$as$u20$core..iter..traits..iterator..Iterator$GT$4next17h307f2bd2746b726aE"(ptr align 8 %self), !dbg !188
  %1 = extractvalue { i64, i64 } %0, 0, !dbg !188
  %2 = extractvalue { i64, i64 } %0, 1, !dbg !188
  store i64 %1, ptr %self1, align 8, !dbg !188
  %3 = getelementptr inbounds i8, ptr %self1, i64 8, !dbg !188
  store i64 %2, ptr %3, align 8, !dbg !188
  %f = getelementptr inbounds i8, ptr %self, i64 16, !dbg !189
  store ptr %f, ptr %f.dbg.spill, align 8, !dbg !189
  call void @llvm.dbg.declare(metadata ptr %f.dbg.spill, metadata !183, metadata !DIExpression()), !dbg !190
  %_5 = load i64, ptr %self1, align 8, !dbg !191, !range !192, !noundef !16
  %4 = icmp eq i64 %_5, 0, !dbg !193
  br i1 %4, label %bb4, label %bb5, !dbg !193

bb4:                                              ; preds = %start
  store i64 0, ptr %_0, align 8, !dbg !194
  br label %bb2, !dbg !195

bb5:                                              ; preds = %start
  %5 = getelementptr inbounds i8, ptr %self1, i64 8, !dbg !196
  %x = load i64, ptr %5, align 8, !dbg !196, !noundef !16
  store i64 %x, ptr %x.dbg.spill, align 8, !dbg !196
  call void @llvm.dbg.declare(metadata ptr %x.dbg.spill, metadata !184, metadata !DIExpression()), !dbg !197
  store i64 %x, ptr %_8, align 8, !dbg !198
  %6 = load i64, ptr %_8, align 8, !dbg !198, !noundef !16
; call core::ops::function::impls::<impl core::ops::function::FnOnce<A> for &mut F>::call_once
  %_7 = call i64 @"_ZN4core3ops8function5impls80_$LT$impl$u20$core..ops..function..FnOnce$LT$A$GT$$u20$for$u20$$RF$mut$u20$F$GT$9call_once17h9dbb7080b9a7e759E"(ptr align 1 %f, i64 %6), !dbg !198, !range !199
  store i64 %_7, ptr %_0, align 8, !dbg !200
  br label %bb2, !dbg !201

bb2:                                              ; preds = %bb5, %bb4
  %7 = load i64, ptr %_0, align 8, !dbg !202, !range !203, !noundef !16
  ret i64 %7, !dbg !202

bb3:                                              ; No predecessors!
  unreachable, !dbg !191
}

; <core::iter::adapters::zip::Zip<A,B> as core::iter::traits::iterator::Iterator>::next
; Function Attrs: inlinehint uwtable
define { ptr, ptr } @"_ZN102_$LT$core..iter..adapters..zip..Zip$LT$A$C$B$GT$$u20$as$u20$core..iter..traits..iterator..Iterator$GT$4next17h60967f1d3510df51E"(ptr align 8 %self) unnamed_addr #0 !dbg !204 {
start:
  %self.dbg.spill = alloca ptr, align 8
  store ptr %self, ptr %self.dbg.spill, align 8
  call void @llvm.dbg.declare(metadata ptr %self.dbg.spill, metadata !259, metadata !DIExpression()), !dbg !260
; call <core::iter::adapters::zip::Zip<A,B> as core::iter::adapters::zip::ZipImpl<A,B>>::next
  %0 = call { ptr, ptr } @"_ZN111_$LT$core..iter..adapters..zip..Zip$LT$A$C$B$GT$$u20$as$u20$core..iter..adapters..zip..ZipImpl$LT$A$C$B$GT$$GT$4next17h43be631b85d184c9E"(ptr align 8 %self), !dbg !261
  %_0.0 = extractvalue { ptr, ptr } %0, 0, !dbg !261
  %_0.1 = extractvalue { ptr, ptr } %0, 1, !dbg !261
  %1 = insertvalue { ptr, ptr } poison, ptr %_0.0, 0, !dbg !262
  %2 = insertvalue { ptr, ptr } %1, ptr %_0.1, 1, !dbg !262
  ret { ptr, ptr } %2, !dbg !262
}

; <core::ops::control_flow::ControlFlow<B,C> as core::ops::try_trait::FromResidual>::from_residual
; Function Attrs: inlinehint uwtable
define { i64, i64 } @"_ZN104_$LT$core..ops..control_flow..ControlFlow$LT$B$C$C$GT$$u20$as$u20$core..ops..try_trait..FromResidual$GT$13from_residual17h516982bf56dca37fE"(i64 %0) unnamed_addr #0 !dbg !263 {
start:
  %b.dbg.spill = alloca i64, align 8
  %_0 = alloca %"core::ops::control_flow::ControlFlow<usize>", align 8
  %residual = alloca i64, align 8
  store i64 %0, ptr %residual, align 8
  call void @llvm.dbg.declare(metadata ptr %residual, metadata !305, metadata !DIExpression()), !dbg !308
  %b = load i64, ptr %residual, align 8, !dbg !309, !noundef !16
  store i64 %b, ptr %b.dbg.spill, align 8, !dbg !309
  call void @llvm.dbg.declare(metadata ptr %b.dbg.spill, metadata !306, metadata !DIExpression()), !dbg !310
  %1 = getelementptr inbounds i8, ptr %_0, i64 8, !dbg !311
  store i64 %b, ptr %1, align 8, !dbg !311
  store i64 1, ptr %_0, align 8, !dbg !311
  %2 = load i64, ptr %_0, align 8, !dbg !312, !range !192, !noundef !16
  %3 = getelementptr inbounds i8, ptr %_0, i64 8, !dbg !312
  %4 = load i64, ptr %3, align 8, !dbg !312
  %5 = insertvalue { i64, i64 } poison, i64 %2, 0, !dbg !312
  %6 = insertvalue { i64, i64 } %5, i64 %4, 1, !dbg !312
  ret { i64, i64 } %6, !dbg !312
}

; <core::ops::control_flow::ControlFlow<B,C> as core::ops::try_trait::FromResidual>::from_residual
; Function Attrs: inlinehint uwtable
define zeroext i1 @"_ZN104_$LT$core..ops..control_flow..ControlFlow$LT$B$C$C$GT$$u20$as$u20$core..ops..try_trait..FromResidual$GT$13from_residual17hfcbf343211970773E"() unnamed_addr #0 !dbg !313 {
start:
  %b.dbg.spill = alloca {}, align 1
  %residual.dbg.spill = alloca %"core::ops::control_flow::ControlFlow<(), core::convert::Infallible>::Break", align 1
  %_0 = alloca i8, align 1
  call void @llvm.dbg.declare(metadata ptr %residual.dbg.spill, metadata !345, metadata !DIExpression()), !dbg !348
  call void @llvm.dbg.declare(metadata ptr %b.dbg.spill, metadata !346, metadata !DIExpression()), !dbg !349
  store i8 1, ptr %_0, align 1, !dbg !350
  %0 = load i8, ptr %_0, align 1, !dbg !351, !range !352, !noundef !16
  %1 = trunc i8 %0 to i1, !dbg !351
  ret i1 %1, !dbg !351
}

; <core::iter::adapters::filter::Filter<I,P> as core::iter::traits::iterator::Iterator>::next
; Function Attrs: inlinehint uwtable
define { i64, i64 } @"_ZN108_$LT$core..iter..adapters..filter..Filter$LT$I$C$P$GT$$u20$as$u20$core..iter..traits..iterator..Iterator$GT$4next17h307f2bd2746b726aE"(ptr align 8 %self) unnamed_addr #0 !dbg !353 {
start:
  %self.dbg.spill = alloca ptr, align 8
  store ptr %self, ptr %self.dbg.spill, align 8
  call void @llvm.dbg.declare(metadata ptr %self.dbg.spill, metadata !360, metadata !DIExpression()), !dbg !361
  %_3 = getelementptr inbounds i8, ptr %self, i64 16, !dbg !362
; call core::iter::traits::iterator::Iterator::find
  %0 = call { i64, i64 } @_ZN4core4iter6traits8iterator8Iterator4find17hda58f10b92641ce4E(ptr align 8 %self, ptr align 1 %_3), !dbg !363
  %_0.0 = extractvalue { i64, i64 } %0, 0, !dbg !363
  %_0.1 = extractvalue { i64, i64 } %0, 1, !dbg !363
  %1 = insertvalue { i64, i64 } poison, i64 %_0.0, 0, !dbg !364
  %2 = insertvalue { i64, i64 } %1, i64 %_0.1, 1, !dbg !364
  ret { i64, i64 } %2, !dbg !364
}

; <core::iter::adapters::zip::Zip<A,B> as core::iter::adapters::zip::ZipImpl<A,B>>::new
; Function Attrs: uwtable
define void @"_ZN111_$LT$core..iter..adapters..zip..Zip$LT$A$C$B$GT$$u20$as$u20$core..iter..adapters..zip..ZipImpl$LT$A$C$B$GT$$GT$3new17hb7ef74806dd21780E"(ptr sret(%"core::iter::adapters::zip::Zip<core::slice::iter::Iter<'_, u8>, core::slice::iter::Iter<'_, u8>>") align 8 %_0, ptr %0, ptr %1, ptr %2, ptr %3) unnamed_addr #1 personality ptr @rust_eh_personality !dbg !365 {
start:
  %len.dbg.spill = alloca i64, align 8
  %v2.dbg.spill = alloca i64, align 8
  %a_len.dbg.spill = alloca i64, align 8
  %4 = alloca { ptr, i32, [1 x i32] }, align 8
  %b = alloca %"core::slice::iter::Iter<'_, u8>", align 8
  %a = alloca %"core::slice::iter::Iter<'_, u8>", align 8
  store ptr %0, ptr %a, align 8
  %5 = getelementptr inbounds i8, ptr %a, i64 8
  store ptr %1, ptr %5, align 8
  store ptr %2, ptr %b, align 8
  %6 = getelementptr inbounds i8, ptr %b, i64 8
  store ptr %3, ptr %6, align 8
  call void @llvm.dbg.declare(metadata ptr %a, metadata !370, metadata !DIExpression()), !dbg !376
  call void @llvm.dbg.declare(metadata ptr %b, metadata !371, metadata !DIExpression()), !dbg !377
; invoke core::iter::adapters::zip::TrustedRandomAccessNoCoerce::size
  %a_len = invoke i64 @_ZN4core4iter8adapters3zip27TrustedRandomAccessNoCoerce4size17h41d2b4ccd2c2402aE(ptr align 8 %a)
          to label %bb1 unwind label %cleanup, !dbg !378

bb3:                                              ; preds = %cleanup
  %7 = load ptr, ptr %4, align 8, !dbg !379, !noundef !16
  %8 = getelementptr inbounds i8, ptr %4, i64 8, !dbg !379
  %9 = load i32, ptr %8, align 8, !dbg !379, !noundef !16
  %10 = insertvalue { ptr, i32 } poison, ptr %7, 0, !dbg !379
  %11 = insertvalue { ptr, i32 } %10, i32 %9, 1, !dbg !379
  resume { ptr, i32 } %11, !dbg !379

cleanup:                                          ; preds = %bb2, %bb1, %start
  %12 = landingpad { ptr, i32 }
          cleanup
  %13 = extractvalue { ptr, i32 } %12, 0
  %14 = extractvalue { ptr, i32 } %12, 1
  store ptr %13, ptr %4, align 8
  %15 = getelementptr inbounds i8, ptr %4, i64 8
  store i32 %14, ptr %15, align 8
  br label %bb3

bb1:                                              ; preds = %start
  store i64 %a_len, ptr %a_len.dbg.spill, align 8, !dbg !378
  call void @llvm.dbg.declare(metadata ptr %a_len.dbg.spill, metadata !372, metadata !DIExpression()), !dbg !380
  call void @llvm.dbg.declare(metadata ptr %a_len.dbg.spill, metadata !381, metadata !DIExpression()), !dbg !389
  call void @llvm.dbg.declare(metadata ptr %a_len.dbg.spill, metadata !391, metadata !DIExpression()), !dbg !399
; invoke core::iter::adapters::zip::TrustedRandomAccessNoCoerce::size
  %v2 = invoke i64 @_ZN4core4iter8adapters3zip27TrustedRandomAccessNoCoerce4size17h41d2b4ccd2c2402aE(ptr align 8 %b)
          to label %bb2 unwind label %cleanup, !dbg !401

bb2:                                              ; preds = %bb1
  store i64 %v2, ptr %v2.dbg.spill, align 8, !dbg !401
  call void @llvm.dbg.declare(metadata ptr %v2.dbg.spill, metadata !388, metadata !DIExpression()), !dbg !402
  call void @llvm.dbg.declare(metadata ptr %v2.dbg.spill, metadata !396, metadata !DIExpression()), !dbg !403
; invoke core::cmp::min_by
  %len = invoke i64 @_ZN4core3cmp6min_by17h088fc4707a544adeE(i64 %a_len, i64 %v2)
          to label %bb6 unwind label %cleanup, !dbg !404

bb6:                                              ; preds = %bb2
  store i64 %len, ptr %len.dbg.spill, align 8, !dbg !404
  call void @llvm.dbg.declare(metadata ptr %len.dbg.spill, metadata !374, metadata !DIExpression()), !dbg !405
  %_8.0 = load ptr, ptr %a, align 8, !dbg !406, !nonnull !16, !noundef !16
  %16 = getelementptr inbounds i8, ptr %a, i64 8, !dbg !406
  %_8.1 = load ptr, ptr %16, align 8, !dbg !406, !noundef !16
  %_9.0 = load ptr, ptr %b, align 8, !dbg !407, !nonnull !16, !noundef !16
  %17 = getelementptr inbounds i8, ptr %b, i64 8, !dbg !407
  %_9.1 = load ptr, ptr %17, align 8, !dbg !407, !noundef !16
  store ptr %_8.0, ptr %_0, align 8, !dbg !408
  %18 = getelementptr inbounds i8, ptr %_0, i64 8, !dbg !408
  store ptr %_8.1, ptr %18, align 8, !dbg !408
  %19 = getelementptr inbounds i8, ptr %_0, i64 16, !dbg !408
  store ptr %_9.0, ptr %19, align 8, !dbg !408
  %20 = getelementptr inbounds i8, ptr %19, i64 8, !dbg !408
  store ptr %_9.1, ptr %20, align 8, !dbg !408
  %21 = getelementptr inbounds i8, ptr %_0, i64 32, !dbg !408
  store i64 0, ptr %21, align 8, !dbg !408
  %22 = getelementptr inbounds i8, ptr %_0, i64 40, !dbg !408
  store i64 %len, ptr %22, align 8, !dbg !408
  %23 = getelementptr inbounds i8, ptr %_0, i64 48, !dbg !408
  store i64 %a_len, ptr %23, align 8, !dbg !408
  ret void, !dbg !409
}

; <core::iter::adapters::zip::Zip<A,B> as core::iter::adapters::zip::ZipImpl<A,B>>::next
; Function Attrs: inlinehint uwtable
define { ptr, ptr } @"_ZN111_$LT$core..iter..adapters..zip..Zip$LT$A$C$B$GT$$u20$as$u20$core..iter..adapters..zip..ZipImpl$LT$A$C$B$GT$$GT$4next17h43be631b85d184c9E"(ptr align 8 %self) unnamed_addr #0 personality ptr @rust_eh_personality !dbg !410 {
start:
  %0 = alloca { ptr, i32, [1 x i32] }, align 8
  %i.dbg.spill2 = alloca i64, align 8
  %i.dbg.spill = alloca i64, align 8
  %self.dbg.spill = alloca ptr, align 8
  %_6 = alloca { ptr, ptr }, align 8
  %_0 = alloca %"core::option::Option<(&u8, &u8)>", align 8
  store ptr %self, ptr %self.dbg.spill, align 8
  call void @llvm.dbg.declare(metadata ptr %self.dbg.spill, metadata !412, metadata !DIExpression()), !dbg !417
  %1 = getelementptr inbounds i8, ptr %self, i64 32, !dbg !418
  %_3 = load i64, ptr %1, align 8, !dbg !418, !noundef !16
  %2 = getelementptr inbounds i8, ptr %self, i64 40, !dbg !419
  %_4 = load i64, ptr %2, align 8, !dbg !419, !noundef !16
  %_2 = icmp ult i64 %_3, %_4, !dbg !418
  br i1 %_2, label %bb1, label %bb4, !dbg !418

bb4:                                              ; preds = %start
  br label %bb10, !dbg !420

bb1:                                              ; preds = %start
  %3 = getelementptr inbounds i8, ptr %self, i64 32, !dbg !421
  %i1 = load i64, ptr %3, align 8, !dbg !421, !noundef !16
  store i64 %i1, ptr %i.dbg.spill2, align 8, !dbg !421
  call void @llvm.dbg.declare(metadata ptr %i.dbg.spill2, metadata !413, metadata !DIExpression()), !dbg !422
  %4 = getelementptr inbounds i8, ptr %self, i64 32, !dbg !423
  %5 = getelementptr inbounds i8, ptr %self, i64 32, !dbg !423
  %6 = load i64, ptr %5, align 8, !dbg !423, !noundef !16
  %7 = add i64 %6, 1, !dbg !423
  store i64 %7, ptr %4, align 8, !dbg !423
; call <core::slice::iter::Iter<T> as core::iter::traits::iterator::Iterator>::__iterator_get_unchecked
  %_7 = call align 1 ptr @"_ZN91_$LT$core..slice..iter..Iter$LT$T$GT$$u20$as$u20$core..iter..traits..iterator..Iterator$GT$24__iterator_get_unchecked17h03699e5a28905464E"(ptr align 8 %self, i64 %i1), !dbg !424
  %_10 = getelementptr inbounds i8, ptr %self, i64 16, !dbg !425
; invoke <core::slice::iter::Iter<T> as core::iter::traits::iterator::Iterator>::__iterator_get_unchecked
  %_9 = invoke align 1 ptr @"_ZN91_$LT$core..slice..iter..Iter$LT$T$GT$$u20$as$u20$core..iter..traits..iterator..Iterator$GT$24__iterator_get_unchecked17h03699e5a28905464E"(ptr align 8 %_10, i64 %i1)
          to label %bb3 unwind label %cleanup, !dbg !425

bb10:                                             ; preds = %bb9, %bb4
  store ptr null, ptr %_0, align 8, !dbg !426
  br label %bb11, !dbg !427

bb5:                                              ; No predecessors!
  %8 = getelementptr inbounds i8, ptr %self, i64 32, !dbg !428
  %_13 = load i64, ptr %8, align 8, !dbg !428, !noundef !16
  %9 = getelementptr inbounds i8, ptr %self, i64 48, !dbg !429
  %_14 = load i64, ptr %9, align 8, !dbg !429, !noundef !16
  %_12 = icmp ult i64 %_13, %_14, !dbg !428
  br i1 %_12, label %bb6, label %bb9, !dbg !428

bb9:                                              ; preds = %bb5
  br label %bb10, !dbg !430

bb6:                                              ; preds = %bb5
  %10 = getelementptr inbounds i8, ptr %self, i64 32, !dbg !432
  %i = load i64, ptr %10, align 8, !dbg !432, !noundef !16
  store i64 %i, ptr %i.dbg.spill, align 8, !dbg !432
  call void @llvm.dbg.declare(metadata ptr %i.dbg.spill, metadata !415, metadata !DIExpression()), !dbg !433
  %11 = getelementptr inbounds i8, ptr %self, i64 32, !dbg !434
  %12 = getelementptr inbounds i8, ptr %self, i64 32, !dbg !434
  %13 = load i64, ptr %12, align 8, !dbg !434, !noundef !16
  %14 = add i64 %13, 1, !dbg !434
  store i64 %14, ptr %11, align 8, !dbg !434
  %15 = getelementptr inbounds i8, ptr %self, i64 40, !dbg !435
  %16 = getelementptr inbounds i8, ptr %self, i64 40, !dbg !435
  %17 = load i64, ptr %16, align 8, !dbg !435, !noundef !16
  %18 = add i64 %17, 1, !dbg !435
  store i64 %18, ptr %15, align 8, !dbg !435
; call <core::slice::iter::Iter<T> as core::iter::traits::iterator::Iterator>::__iterator_get_unchecked
  %_16 = call align 1 ptr @"_ZN91_$LT$core..slice..iter..Iter$LT$T$GT$$u20$as$u20$core..iter..traits..iterator..Iterator$GT$24__iterator_get_unchecked17h03699e5a28905464E"(ptr align 8 %self, i64 %i), !dbg !436
  store ptr null, ptr %_0, align 8, !dbg !437
  br label %bb11, !dbg !427

bb11:                                             ; preds = %bb6, %bb10
  br label %bb12, !dbg !438

bb12:                                             ; preds = %bb3, %bb11
  %19 = load ptr, ptr %_0, align 8, !dbg !439, !align !440, !noundef !16
  %20 = getelementptr inbounds i8, ptr %_0, i64 8, !dbg !439
  %21 = load ptr, ptr %20, align 8, !dbg !439
  %22 = insertvalue { ptr, ptr } poison, ptr %19, 0, !dbg !439
  %23 = insertvalue { ptr, ptr } %22, ptr %21, 1, !dbg !439
  ret { ptr, ptr } %23, !dbg !439

bb13:                                             ; preds = %cleanup
  %24 = load ptr, ptr %0, align 8, !dbg !441, !noundef !16
  %25 = getelementptr inbounds i8, ptr %0, i64 8, !dbg !441
  %26 = load i32, ptr %25, align 8, !dbg !441, !noundef !16
  %27 = insertvalue { ptr, i32 } poison, ptr %24, 0, !dbg !441
  %28 = insertvalue { ptr, i32 } %27, i32 %26, 1, !dbg !441
  resume { ptr, i32 } %28, !dbg !441

cleanup:                                          ; preds = %bb1
  %29 = landingpad { ptr, i32 }
          cleanup
  %30 = extractvalue { ptr, i32 } %29, 0
  %31 = extractvalue { ptr, i32 } %29, 1
  store ptr %30, ptr %0, align 8
  %32 = getelementptr inbounds i8, ptr %0, i64 8
  store i32 %31, ptr %32, align 8
  br label %bb13

bb3:                                              ; preds = %bb1
  store ptr %_7, ptr %_6, align 8, !dbg !442
  %33 = getelementptr inbounds i8, ptr %_6, i64 8, !dbg !442
  store ptr %_9, ptr %33, align 8, !dbg !442
  %34 = load ptr, ptr %_6, align 8, !dbg !443, !nonnull !16, !align !440, !noundef !16
  %35 = getelementptr inbounds i8, ptr %_6, i64 8, !dbg !443
  %36 = load ptr, ptr %35, align 8, !dbg !443, !nonnull !16, !align !440, !noundef !16
  store ptr %34, ptr %_0, align 8, !dbg !443
  %37 = getelementptr inbounds i8, ptr %_0, i64 8, !dbg !443
  store ptr %36, ptr %37, align 8, !dbg !443
  br label %bb12, !dbg !438
}

; core::cmp::impls::<impl core::cmp::Ord for usize>::cmp
; Function Attrs: inlinehint uwtable
define internal i8 @"_ZN4core3cmp5impls50_$LT$impl$u20$core..cmp..Ord$u20$for$u20$usize$GT$3cmp17hb3bbf65a13f9eae9E"(ptr align 8 %self, ptr align 8 %other) unnamed_addr #0 !dbg !444 {
start:
  %other.dbg.spill = alloca ptr, align 8
  %self.dbg.spill = alloca ptr, align 8
  %_0 = alloca i8, align 1
  store ptr %self, ptr %self.dbg.spill, align 8
  call void @llvm.dbg.declare(metadata ptr %self.dbg.spill, metadata !451, metadata !DIExpression()), !dbg !453
  store ptr %other, ptr %other.dbg.spill, align 8
  call void @llvm.dbg.declare(metadata ptr %other.dbg.spill, metadata !452, metadata !DIExpression()), !dbg !454
  %_4 = load i64, ptr %self, align 8, !dbg !455, !noundef !16
  %_5 = load i64, ptr %other, align 8, !dbg !456, !noundef !16
  %_3 = icmp ult i64 %_4, %_5, !dbg !455
  br i1 %_3, label %bb1, label %bb2, !dbg !455

bb2:                                              ; preds = %start
  %_6 = icmp eq i64 %_4, %_5, !dbg !457
  br i1 %_6, label %bb3, label %bb4, !dbg !457

bb1:                                              ; preds = %start
  store i8 -1, ptr %_0, align 1, !dbg !458
  br label %bb6, !dbg !459

bb4:                                              ; preds = %bb2
  store i8 1, ptr %_0, align 1, !dbg !460
  br label %bb5, !dbg !461

bb3:                                              ; preds = %bb2
  store i8 0, ptr %_0, align 1, !dbg !462
  br label %bb5, !dbg !461

bb5:                                              ; preds = %bb3, %bb4
  br label %bb6, !dbg !459

bb6:                                              ; preds = %bb1, %bb5
  %0 = load i8, ptr %_0, align 1, !dbg !463, !range !464, !noundef !16
  ret i8 %0, !dbg !463
}

; core::cmp::impls::<impl core::cmp::PartialEq for ()>::eq
; Function Attrs: inlinehint uwtable
define internal zeroext i1 @"_ZN4core3cmp5impls59_$LT$impl$u20$core..cmp..PartialEq$u20$for$u20$$LP$$RP$$GT$2eq17hbdf2d13158f03ee4E"(ptr align 1 %self, ptr align 1 %_other) unnamed_addr #0 !dbg !465 {
start:
  %_other.dbg.spill = alloca ptr, align 8
  %self.dbg.spill = alloca ptr, align 8
  store ptr %self, ptr %self.dbg.spill, align 8
  call void @llvm.dbg.declare(metadata ptr %self.dbg.spill, metadata !472, metadata !DIExpression()), !dbg !474
  store ptr %_other, ptr %_other.dbg.spill, align 8
  call void @llvm.dbg.declare(metadata ptr %_other.dbg.spill, metadata !473, metadata !DIExpression()), !dbg !475
  ret i1 true, !dbg !476
}

; core::cmp::min_by
; Function Attrs: inlinehint uwtable
define i64 @_ZN4core3cmp6min_by17h088fc4707a544adeE(i64 %0, i64 %1) unnamed_addr #0 personality ptr @rust_eh_personality !dbg !477 {
start:
  %2 = alloca { ptr, i32, [1 x i32] }, align 8
  %compare.dbg.spill = alloca {}, align 1
  %_10 = alloca i8, align 1
  %_5 = alloca { ptr, ptr }, align 8
  %_4 = alloca i8, align 1
  %_0 = alloca i64, align 8
  %v2 = alloca i64, align 8
  %v1 = alloca i64, align 8
  store i64 %0, ptr %v1, align 8
  store i64 %1, ptr %v2, align 8
  call void @llvm.dbg.declare(metadata ptr %v1, metadata !482, metadata !DIExpression()), !dbg !487
  call void @llvm.dbg.declare(metadata ptr %v2, metadata !483, metadata !DIExpression()), !dbg !488
  call void @llvm.dbg.declare(metadata ptr %compare.dbg.spill, metadata !484, metadata !DIExpression()), !dbg !489
  store i8 1, ptr %_10, align 1, !dbg !490
  store ptr %v1, ptr %_5, align 8, !dbg !490
  %3 = getelementptr inbounds i8, ptr %_5, i64 8, !dbg !490
  store ptr %v2, ptr %3, align 8, !dbg !490
  %4 = load ptr, ptr %_5, align 8, !dbg !490, !nonnull !16, !align !491, !noundef !16
  %5 = getelementptr inbounds i8, ptr %_5, i64 8, !dbg !490
  %6 = load ptr, ptr %5, align 8, !dbg !490, !nonnull !16, !align !491, !noundef !16
; invoke core::ops::function::FnOnce::call_once
  %7 = invoke i8 @_ZN4core3ops8function6FnOnce9call_once17h1d27ab75171dc0f8E(ptr align 8 %4, ptr align 8 %6)
          to label %bb1 unwind label %cleanup, !dbg !490, !range !464

bb7:                                              ; preds = %cleanup
  br label %bb12, !dbg !492

cleanup:                                          ; preds = %start
  %8 = landingpad { ptr, i32 }
          cleanup
  %9 = extractvalue { ptr, i32 } %8, 0
  %10 = extractvalue { ptr, i32 } %8, 1
  store ptr %9, ptr %2, align 8
  %11 = getelementptr inbounds i8, ptr %2, i64 8
  store i32 %10, ptr %11, align 8
  br label %bb7

bb1:                                              ; preds = %start
  store i8 %7, ptr %_4, align 1, !dbg !490
  %_8 = load i8, ptr %_4, align 1, !dbg !490, !range !464, !noundef !16
  switch i8 %_8, label %bb2 [
    i8 -1, label %bb4
    i8 0, label %bb4
    i8 1, label %bb3
  ], !dbg !493

bb2:                                              ; preds = %bb1
  unreachable, !dbg !490

bb4:                                              ; preds = %bb1, %bb1
  store i8 0, ptr %_10, align 1, !dbg !494
  %12 = load i64, ptr %v1, align 8, !dbg !494, !noundef !16
  store i64 %12, ptr %_0, align 8, !dbg !494
  br label %bb9, !dbg !492

bb3:                                              ; preds = %bb1
  %13 = load i64, ptr %v2, align 8, !dbg !495, !noundef !16
  store i64 %13, ptr %_0, align 8, !dbg !495
  br label %bb5, !dbg !492

bb9:                                              ; preds = %bb4
  br label %bb6, !dbg !492

bb6:                                              ; preds = %bb10, %bb5, %bb9
  %14 = load i64, ptr %_0, align 8, !dbg !496, !noundef !16
  ret i64 %14, !dbg !496

bb5:                                              ; preds = %bb3
  %15 = load i8, ptr %_10, align 1, !dbg !492, !range !352, !noundef !16
  %16 = trunc i8 %15 to i1, !dbg !492
  br i1 %16, label %bb10, label %bb6, !dbg !492

bb10:                                             ; preds = %bb5
  br label %bb6, !dbg !492

bb12:                                             ; preds = %bb7
  %17 = load i8, ptr %_10, align 1, !dbg !492, !range !352, !noundef !16
  %18 = trunc i8 %17 to i1, !dbg !492
  br i1 %18, label %bb11, label %bb8, !dbg !492

bb8:                                              ; preds = %bb11, %bb12
  %19 = load ptr, ptr %2, align 8, !dbg !497, !noundef !16
  %20 = getelementptr inbounds i8, ptr %2, i64 8, !dbg !497
  %21 = load i32, ptr %20, align 8, !dbg !497, !noundef !16
  %22 = insertvalue { ptr, i32 } poison, ptr %19, 0, !dbg !497
  %23 = insertvalue { ptr, i32 } %22, i32 %21, 1, !dbg !497
  resume { ptr, i32 } %23, !dbg !497

bb11:                                             ; preds = %bb12
  br label %bb8, !dbg !492
}

; core::fmt::Arguments::new_v1
; Function Attrs: inlinehint uwtable
define internal void @_ZN4core3fmt9Arguments6new_v117h7f630e8b2be67e27E(ptr sret(%"core::fmt::Arguments<'_>") align 8 %_0, ptr align 8 %pieces.0, i64 %pieces.1, ptr align 8 %args.0, i64 %args.1) unnamed_addr #0 !dbg !498 {
start:
  %pieces.dbg.spill1 = alloca { ptr, i64 }, align 8
  %args.dbg.spill = alloca { ptr, i64 }, align 8
  %pieces.dbg.spill = alloca { ptr, i64 }, align 8
  %_9 = alloca %"core::fmt::Arguments<'_>", align 8
  store ptr %pieces.0, ptr %pieces.dbg.spill, align 8
  %0 = getelementptr inbounds i8, ptr %pieces.dbg.spill, i64 8
  store i64 %pieces.1, ptr %0, align 8
  call void @llvm.dbg.declare(metadata ptr %pieces.dbg.spill, metadata !605, metadata !DIExpression()), !dbg !607
  store ptr %args.0, ptr %args.dbg.spill, align 8
  %1 = getelementptr inbounds i8, ptr %args.dbg.spill, i64 8
  store i64 %args.1, ptr %1, align 8
  call void @llvm.dbg.declare(metadata ptr %args.dbg.spill, metadata !606, metadata !DIExpression()), !dbg !608
  %_3 = icmp ult i64 %pieces.1, %args.1, !dbg !609
  br i1 %_3, label %bb3, label %bb1, !dbg !609

bb1:                                              ; preds = %start
  %_7 = add i64 %args.1, 1, !dbg !610
  %_6 = icmp ugt i64 %pieces.1, %_7, !dbg !611
  br i1 %_6, label %bb2, label %bb4, !dbg !611

bb3:                                              ; preds = %bb2, %start
  store ptr @alloc_af99043bc04c419363a7f04d23183506, ptr %pieces.dbg.spill1, align 8, !dbg !612
  %2 = getelementptr inbounds i8, ptr %pieces.dbg.spill1, i64 8, !dbg !612
  store i64 1, ptr %2, align 8, !dbg !612
  call void @llvm.dbg.declare(metadata ptr %pieces.dbg.spill1, metadata !613, metadata !DIExpression()), !dbg !620
  store ptr @alloc_af99043bc04c419363a7f04d23183506, ptr %_9, align 8, !dbg !624
  %3 = getelementptr inbounds i8, ptr %_9, i64 8, !dbg !624
  store i64 1, ptr %3, align 8, !dbg !624
  %4 = load ptr, ptr @0, align 8, !dbg !624, !align !491, !noundef !16
  %5 = load i64, ptr getelementptr inbounds (i8, ptr @0, i64 8), align 8, !dbg !624
  %6 = getelementptr inbounds i8, ptr %_9, i64 32, !dbg !624
  store ptr %4, ptr %6, align 8, !dbg !624
  %7 = getelementptr inbounds i8, ptr %6, i64 8, !dbg !624
  store i64 %5, ptr %7, align 8, !dbg !624
  %8 = getelementptr inbounds i8, ptr %_9, i64 16, !dbg !624
  store ptr @alloc_513570631223a12912d85da2bec3b15a, ptr %8, align 8, !dbg !624
  %9 = getelementptr inbounds i8, ptr %8, i64 8, !dbg !624
  store i64 0, ptr %9, align 8, !dbg !624
; call core::panicking::panic_fmt
  call void @_ZN4core9panicking9panic_fmt17ha6d62ade15192290E(ptr align 8 %_9, ptr align 8 @alloc_4ba2c5ddff77a51f3765b0dd5f2851cc) #10, !dbg !625
  unreachable, !dbg !625

bb4:                                              ; preds = %bb1
  store ptr %pieces.0, ptr %_0, align 8, !dbg !626
  %10 = getelementptr inbounds i8, ptr %_0, i64 8, !dbg !626
  store i64 %pieces.1, ptr %10, align 8, !dbg !626
  %11 = load ptr, ptr @0, align 8, !dbg !626, !align !491, !noundef !16
  %12 = load i64, ptr getelementptr inbounds (i8, ptr @0, i64 8), align 8, !dbg !626
  %13 = getelementptr inbounds i8, ptr %_0, i64 32, !dbg !626
  store ptr %11, ptr %13, align 8, !dbg !626
  %14 = getelementptr inbounds i8, ptr %13, i64 8, !dbg !626
  store i64 %12, ptr %14, align 8, !dbg !626
  %15 = getelementptr inbounds i8, ptr %_0, i64 16, !dbg !626
  store ptr %args.0, ptr %15, align 8, !dbg !626
  %16 = getelementptr inbounds i8, ptr %15, i64 8, !dbg !626
  store i64 %args.1, ptr %16, align 8, !dbg !626
  ret void, !dbg !627

bb2:                                              ; preds = %bb1
  br label %bb3, !dbg !628
}

; core::fmt::Arguments::new_const
; Function Attrs: inlinehint uwtable
define internal void @_ZN4core3fmt9Arguments9new_const17h6276f106c53aeee8E(ptr sret(%"core::fmt::Arguments<'_>") align 8 %_0, ptr align 8 %pieces.0, i64 %pieces.1) unnamed_addr #0 !dbg !629 {
start:
  %pieces.dbg.spill = alloca { ptr, i64 }, align 8
  %_5 = alloca %"core::fmt::Arguments<'_>", align 8
  store ptr %pieces.0, ptr %pieces.dbg.spill, align 8
  %0 = getelementptr inbounds i8, ptr %pieces.dbg.spill, i64 8
  store i64 %pieces.1, ptr %0, align 8
  call void @llvm.dbg.declare(metadata ptr %pieces.dbg.spill, metadata !631, metadata !DIExpression()), !dbg !632
  %_2 = icmp ugt i64 %pieces.1, 1, !dbg !633
  br i1 %_2, label %bb1, label %bb3, !dbg !633

bb3:                                              ; preds = %start
  store ptr %pieces.0, ptr %_0, align 8, !dbg !634
  %1 = getelementptr inbounds i8, ptr %_0, i64 8, !dbg !634
  store i64 %pieces.1, ptr %1, align 8, !dbg !634
  %2 = load ptr, ptr @0, align 8, !dbg !634, !align !491, !noundef !16
  %3 = load i64, ptr getelementptr inbounds (i8, ptr @0, i64 8), align 8, !dbg !634
  %4 = getelementptr inbounds i8, ptr %_0, i64 32, !dbg !634
  store ptr %2, ptr %4, align 8, !dbg !634
  %5 = getelementptr inbounds i8, ptr %4, i64 8, !dbg !634
  store i64 %3, ptr %5, align 8, !dbg !634
  %6 = getelementptr inbounds i8, ptr %_0, i64 16, !dbg !634
  store ptr @alloc_513570631223a12912d85da2bec3b15a, ptr %6, align 8, !dbg !634
  %7 = getelementptr inbounds i8, ptr %6, i64 8, !dbg !634
  store i64 0, ptr %7, align 8, !dbg !634
  ret void, !dbg !635

bb1:                                              ; preds = %start
; call core::fmt::Arguments::new_const
  call void @_ZN4core3fmt9Arguments9new_const17h6276f106c53aeee8E(ptr sret(%"core::fmt::Arguments<'_>") align 8 %_5, ptr align 8 @alloc_af99043bc04c419363a7f04d23183506, i64 1), !dbg !636
; call core::panicking::panic_fmt
  call void @_ZN4core9panicking9panic_fmt17ha6d62ade15192290E(ptr align 8 %_5, ptr align 8 @alloc_3d28b95801fd55932918b2920be93f48) #10, !dbg !636
  unreachable, !dbg !636
}

; core::num::<impl u8>::eq_ignore_ascii_case
; Function Attrs: inlinehint uwtable
define internal zeroext i1 @"_ZN4core3num20_$LT$impl$u20$u8$GT$20eq_ignore_ascii_case17h31b5f8d89c006654E"(ptr align 1 %self, ptr align 1 %other) unnamed_addr #0 !dbg !637 {
start:
  %other.dbg.spill = alloca ptr, align 8
  %self.dbg.spill = alloca ptr, align 8
  %_14 = alloca i8, align 1
  %_8 = alloca i8, align 1
  store ptr %self, ptr %self.dbg.spill, align 8
  call void @llvm.dbg.declare(metadata ptr %self.dbg.spill, metadata !644, metadata !DIExpression()), !dbg !646
  call void @llvm.dbg.declare(metadata ptr %self.dbg.spill, metadata !647, metadata !DIExpression()), !dbg !655
  call void @llvm.dbg.declare(metadata ptr %self.dbg.spill, metadata !657, metadata !DIExpression()), !dbg !665
  store ptr %other, ptr %other.dbg.spill, align 8
  call void @llvm.dbg.declare(metadata ptr %other.dbg.spill, metadata !645, metadata !DIExpression()), !dbg !667
  call void @llvm.dbg.declare(metadata ptr %other.dbg.spill, metadata !653, metadata !DIExpression()), !dbg !668
  call void @llvm.dbg.declare(metadata ptr %other.dbg.spill, metadata !663, metadata !DIExpression()), !dbg !670
  %_5 = load i8, ptr %self, align 1, !dbg !672, !noundef !16
  %_9 = icmp ule i8 65, %_5, !dbg !673
  br i1 %_9, label %bb3, label %bb2, !dbg !673

bb2:                                              ; preds = %start
  store i8 0, ptr %_8, align 1, !dbg !674
  br label %bb1, !dbg !674

bb3:                                              ; preds = %start
  %_10 = icmp ule i8 %_5, 90, !dbg !673
  %0 = zext i1 %_10 to i8, !dbg !674
  store i8 %0, ptr %_8, align 1, !dbg !674
  br label %bb1, !dbg !673

bb1:                                              ; preds = %bb3, %bb2
  %1 = load i8, ptr %_8, align 1, !dbg !675, !range !352, !noundef !16
  %2 = trunc i8 %1 to i1, !dbg !675
  %_7 = zext i1 %2 to i8, !dbg !675
  %_6 = mul i8 %_7, 32, !dbg !676
  %_3 = or i8 %_5, %_6, !dbg !672
  %_11 = load i8, ptr %other, align 1, !dbg !677, !noundef !16
  %_15 = icmp ule i8 65, %_11, !dbg !678
  br i1 %_15, label %bb6, label %bb5, !dbg !678

bb5:                                              ; preds = %bb1
  store i8 0, ptr %_14, align 1, !dbg !679
  br label %bb4, !dbg !679

bb6:                                              ; preds = %bb1
  %_16 = icmp ule i8 %_11, 90, !dbg !678
  %3 = zext i1 %_16 to i8, !dbg !679
  store i8 %3, ptr %_14, align 1, !dbg !679
  br label %bb4, !dbg !678

bb4:                                              ; preds = %bb6, %bb5
  %4 = load i8, ptr %_14, align 1, !dbg !680, !range !352, !noundef !16
  %5 = trunc i8 %4 to i1, !dbg !680
  %_13 = zext i1 %5 to i8, !dbg !680
  %_12 = mul i8 %_13, 32, !dbg !681
  %_4 = or i8 %_11, %_12, !dbg !677
  %_0 = icmp eq i8 %_3, %_4, !dbg !682
  ret i1 %_0, !dbg !683
}

; core::ops::function::impls::<impl core::ops::function::FnMut<A> for &mut F>::call_mut
; Function Attrs: uwtable
define zeroext i1 @"_ZN4core3ops8function5impls79_$LT$impl$u20$core..ops..function..FnMut$LT$A$GT$$u20$for$u20$$RF$mut$u20$F$GT$8call_mut17heff1578a2e8c02e6E"(ptr align 8 %self, ptr align 8 %0) unnamed_addr #1 !dbg !684 {
start:
  %self.dbg.spill = alloca ptr, align 8
  %args = alloca ptr, align 8
  store ptr %0, ptr %args, align 8
  store ptr %self, ptr %self.dbg.spill, align 8
  call void @llvm.dbg.declare(metadata ptr %self.dbg.spill, metadata !694, metadata !DIExpression()), !dbg !702
  call void @llvm.dbg.declare(metadata ptr %args, metadata !695, metadata !DIExpression()), !dbg !703
  %_3 = load ptr, ptr %self, align 8, !dbg !704, !nonnull !16, !align !440, !noundef !16
  %1 = load ptr, ptr %args, align 8, !dbg !704, !nonnull !16, !align !491, !noundef !16
; call <log::Level as core::str::traits::FromStr>::from_str::{{closure}}
  %_0 = call zeroext i1 @"_ZN57_$LT$log..Level$u20$as$u20$core..str..traits..FromStr$GT$8from_str28_$u7b$$u7b$closure$u7d$$u7d$17h1773b09bfb358033E"(ptr align 1 %_3, ptr align 8 %1), !dbg !704
  ret i1 %_0, !dbg !705
}

; core::ops::function::impls::<impl core::ops::function::FnOnce<A> for &mut F>::call_once
; Function Attrs: uwtable
define i64 @"_ZN4core3ops8function5impls80_$LT$impl$u20$core..ops..function..FnOnce$LT$A$GT$$u20$for$u20$$RF$mut$u20$F$GT$9call_once17h9dbb7080b9a7e759E"(ptr align 1 %self, i64 %0) unnamed_addr #1 !dbg !706 {
start:
  %self.dbg.spill = alloca ptr, align 8
  %args = alloca i64, align 8
  store i64 %0, ptr %args, align 8
  store ptr %self, ptr %self.dbg.spill, align 8
  call void @llvm.dbg.declare(metadata ptr %self.dbg.spill, metadata !711, metadata !DIExpression()), !dbg !718
  call void @llvm.dbg.declare(metadata ptr %args, metadata !712, metadata !DIExpression()), !dbg !719
  %1 = load i64, ptr %args, align 8, !dbg !720, !noundef !16
; call <log::Level as core::str::traits::FromStr>::from_str::{{closure}}
  %_0 = call i64 @"_ZN57_$LT$log..Level$u20$as$u20$core..str..traits..FromStr$GT$8from_str28_$u7b$$u7b$closure$u7d$$u7d$17he5745b4ce0a3bcd4E"(ptr align 1 %self, i64 %1), !dbg !720, !range !199
  ret i64 %_0, !dbg !721
}

; core::ops::function::FnOnce::call_once
; Function Attrs: inlinehint uwtable
define internal i8 @_ZN4core3ops8function6FnOnce9call_once17h1d27ab75171dc0f8E(ptr align 8 %0, ptr align 8 %1) unnamed_addr #0 !dbg !722 {
start:
  %_1.dbg.spill = alloca {}, align 1
  %_2 = alloca { ptr, ptr }, align 8
  store ptr %0, ptr %_2, align 8
  %2 = getelementptr inbounds i8, ptr %_2, i64 8
  store ptr %1, ptr %2, align 8
  call void @llvm.dbg.declare(metadata ptr %_1.dbg.spill, metadata !727, metadata !DIExpression()), !dbg !736
  call void @llvm.dbg.declare(metadata ptr %_2, metadata !728, metadata !DIExpression()), !dbg !736
  %3 = load ptr, ptr %_2, align 8, !dbg !736, !nonnull !16, !align !491, !noundef !16
  %4 = getelementptr inbounds i8, ptr %_2, i64 8, !dbg !736
  %5 = load ptr, ptr %4, align 8, !dbg !736, !nonnull !16, !align !491, !noundef !16
; call core::cmp::impls::<impl core::cmp::Ord for usize>::cmp
  %_0 = call i8 @"_ZN4core3cmp5impls50_$LT$impl$u20$core..cmp..Ord$u20$for$u20$usize$GT$3cmp17hb3bbf65a13f9eae9E"(ptr align 8 %3, ptr align 8 %5), !dbg !736, !range !464
  ret i8 %_0, !dbg !736
}

; core::ops::function::FnOnce::call_once
; Function Attrs: inlinehint uwtable
define internal void @_ZN4core3ops8function6FnOnce9call_once17h3103c4b2a076735eE(ptr sret(%"MaybeStaticStr<'_>") align 8 %_0, ptr align 1 %0, i64 %1) unnamed_addr #0 !dbg !737 {
start:
  %_1.dbg.spill = alloca {}, align 1
  %_2 = alloca { { ptr, i64 } }, align 8
  store ptr %0, ptr %_2, align 8
  %2 = getelementptr inbounds i8, ptr %_2, i64 8
  store i64 %1, ptr %2, align 8
  call void @llvm.dbg.declare(metadata ptr %_1.dbg.spill, metadata !757, metadata !DIExpression()), !dbg !765
  call void @llvm.dbg.declare(metadata ptr %_2, metadata !758, metadata !DIExpression()), !dbg !765
  %3 = load ptr, ptr %_2, align 8, !dbg !765, !nonnull !16, !align !440, !noundef !16
  %4 = getelementptr inbounds i8, ptr %_2, i64 8, !dbg !765
  %5 = load i64, ptr %4, align 8, !dbg !765, !noundef !16
; call log::MaybeStaticStr::Static
  call void @_ZN3log14MaybeStaticStr6Static17h8d576d94068831d9E(ptr sret(%"MaybeStaticStr<'_>") align 8 %_0, ptr align 1 %3, i64 %5), !dbg !765
  ret void, !dbg !765
}

; core::ptr::drop_in_place<log::NopLogger>
; Function Attrs: inlinehint uwtable
define internal void @"_ZN4core3ptr35drop_in_place$LT$log..NopLogger$GT$17h548afc977dfa04c1E"(ptr align 1 %_1) unnamed_addr #0 !dbg !766 {
start:
  %_1.dbg.spill = alloca ptr, align 8
  store ptr %_1, ptr %_1.dbg.spill, align 8
  call void @llvm.dbg.declare(metadata ptr %_1.dbg.spill, metadata !772, metadata !DIExpression()), !dbg !775
  ret void, !dbg !775
}

; core::ptr::const_ptr::<impl *const T>::sub_ptr
; Function Attrs: inlinehint uwtable
define i64 @"_ZN4core3ptr9const_ptr33_$LT$impl$u20$$BP$const$u20$T$GT$7sub_ptr17h0c0365edc2735ed3E"(ptr %self, ptr %origin) unnamed_addr #0 !dbg !776 {
start:
  %0 = alloca i64, align 8
  %pointee_size.dbg.spill = alloca i64, align 8
  %origin.dbg.spill = alloca ptr, align 8
  %self.dbg.spill = alloca ptr, align 8
  store ptr %self, ptr %self.dbg.spill, align 8
  call void @llvm.dbg.declare(metadata ptr %self.dbg.spill, metadata !784, metadata !DIExpression()), !dbg !790
  store ptr %origin, ptr %origin.dbg.spill, align 8
  call void @llvm.dbg.declare(metadata ptr %origin.dbg.spill, metadata !785, metadata !DIExpression()), !dbg !791
  br label %bb1, !dbg !792

bb1:                                              ; preds = %start
; call core::ptr::const_ptr::<impl *const T>::sub_ptr::precondition_check
  call void @"_ZN4core3ptr9const_ptr33_$LT$impl$u20$$BP$const$u20$T$GT$7sub_ptr18precondition_check17haf3885dfd4e3017cE"(ptr %self, ptr %origin) #11, !dbg !792
  br label %bb2, !dbg !792

bb2:                                              ; preds = %bb1
  store i64 16, ptr %pointee_size.dbg.spill, align 8, !dbg !793
  call void @llvm.dbg.declare(metadata ptr %pointee_size.dbg.spill, metadata !786, metadata !DIExpression()), !dbg !801
  br label %bb3, !dbg !802

bb3:                                              ; preds = %bb2
  br label %bb4, !dbg !803

bb4:                                              ; preds = %bb3
  %1 = ptrtoint ptr %self to i64, !dbg !804
  %2 = ptrtoint ptr %origin to i64, !dbg !804
  %3 = sub nuw i64 %1, %2, !dbg !804
  %4 = udiv exact i64 %3, 16, !dbg !804
  store i64 %4, ptr %0, align 8, !dbg !804
  %_0 = load i64, ptr %0, align 8, !dbg !804, !noundef !16
  ret i64 %_0, !dbg !805

bb5:                                              ; No predecessors!
; call core::panicking::panic
  call void @_ZN4core9panicking5panic17h5884aad3a9044857E(ptr align 1 @alloc_ec595fc0e82ef92fc59bd74f68296eae, i64 73, ptr align 8 @alloc_4e3a3aaf48410eaea90c90938dabe76a) #10, !dbg !806
  unreachable, !dbg !806
}

; core::ptr::const_ptr::<impl *const T>::sub_ptr
; Function Attrs: inlinehint uwtable
define i64 @"_ZN4core3ptr9const_ptr33_$LT$impl$u20$$BP$const$u20$T$GT$7sub_ptr17h864385686a74c62cE"(ptr %self, ptr %origin) unnamed_addr #0 !dbg !807 {
start:
  %0 = alloca i64, align 8
  %pointee_size.dbg.spill = alloca i64, align 8
  %origin.dbg.spill = alloca ptr, align 8
  %self.dbg.spill = alloca ptr, align 8
  store ptr %self, ptr %self.dbg.spill, align 8
  call void @llvm.dbg.declare(metadata ptr %self.dbg.spill, metadata !811, metadata !DIExpression()), !dbg !815
  store ptr %origin, ptr %origin.dbg.spill, align 8
  call void @llvm.dbg.declare(metadata ptr %origin.dbg.spill, metadata !812, metadata !DIExpression()), !dbg !816
  br label %bb1, !dbg !817

bb1:                                              ; preds = %start
; call core::ptr::const_ptr::<impl *const T>::sub_ptr::precondition_check
  call void @"_ZN4core3ptr9const_ptr33_$LT$impl$u20$$BP$const$u20$T$GT$7sub_ptr18precondition_check17haf3885dfd4e3017cE"(ptr %self, ptr %origin) #11, !dbg !817
  br label %bb2, !dbg !817

bb2:                                              ; preds = %bb1
  store i64 1, ptr %pointee_size.dbg.spill, align 8, !dbg !818
  call void @llvm.dbg.declare(metadata ptr %pointee_size.dbg.spill, metadata !813, metadata !DIExpression()), !dbg !822
  br label %bb3, !dbg !823

bb3:                                              ; preds = %bb2
  br label %bb4, !dbg !824

bb4:                                              ; preds = %bb3
  %1 = ptrtoint ptr %self to i64, !dbg !825
  %2 = ptrtoint ptr %origin to i64, !dbg !825
  %3 = sub nuw i64 %1, %2, !dbg !825
  %4 = udiv exact i64 %3, 1, !dbg !825
  store i64 %4, ptr %0, align 8, !dbg !825
  %_0 = load i64, ptr %0, align 8, !dbg !825, !noundef !16
  ret i64 %_0, !dbg !826

bb5:                                              ; No predecessors!
; call core::panicking::panic
  call void @_ZN4core9panicking5panic17h5884aad3a9044857E(ptr align 1 @alloc_ec595fc0e82ef92fc59bd74f68296eae, i64 73, ptr align 8 @alloc_4e3a3aaf48410eaea90c90938dabe76a) #10, !dbg !827
  unreachable, !dbg !827
}

; core::ptr::const_ptr::<impl *const T>::sub_ptr::precondition_check
; Function Attrs: inlinehint nounwind uwtable
define internal void @"_ZN4core3ptr9const_ptr33_$LT$impl$u20$$BP$const$u20$T$GT$7sub_ptr18precondition_check17haf3885dfd4e3017cE"(ptr %this, ptr %origin) unnamed_addr #2 !dbg !828 {
start:
  %origin.dbg.spill = alloca ptr, align 8
  %this.dbg.spill = alloca ptr, align 8
  store ptr %this, ptr %this.dbg.spill, align 8
  call void @llvm.dbg.declare(metadata ptr %this.dbg.spill, metadata !834, metadata !DIExpression()), !dbg !836
  store ptr %origin, ptr %origin.dbg.spill, align 8
  call void @llvm.dbg.declare(metadata ptr %origin.dbg.spill, metadata !835, metadata !DIExpression()), !dbg !836
  %_3 = icmp uge ptr %this, %origin, !dbg !837
  br i1 %_3, label %bb1, label %bb2, !dbg !837

bb2:                                              ; preds = %start
; call core::panicking::panic_nounwind
  call void @_ZN4core9panicking14panic_nounwind17h50c31e15afde233eE(ptr align 1 @alloc_7efb3a7632b3620f628ce83a521b4d9b, i64 71) #12, !dbg !839
  unreachable, !dbg !839

bb1:                                              ; preds = %start
  ret void, !dbg !840
}

; core::str::<impl str>::eq_ignore_ascii_case
; Function Attrs: inlinehint uwtable
define internal zeroext i1 @"_ZN4core3str21_$LT$impl$u20$str$GT$20eq_ignore_ascii_case17hbc742da59280304aE"(ptr align 1 %self.0, i64 %self.1, ptr align 1 %other.0, i64 %other.1) unnamed_addr #0 !dbg !841 {
start:
  %other.dbg.spill = alloca { ptr, i64 }, align 8
  %self.dbg.spill = alloca { ptr, i64 }, align 8
  store ptr %self.0, ptr %self.dbg.spill, align 8
  %0 = getelementptr inbounds i8, ptr %self.dbg.spill, i64 8
  store i64 %self.1, ptr %0, align 8
  call void @llvm.dbg.declare(metadata ptr %self.dbg.spill, metadata !848, metadata !DIExpression()), !dbg !850
  call void @llvm.dbg.declare(metadata ptr %self.dbg.spill, metadata !851, metadata !DIExpression()), !dbg !863
  store ptr %other.0, ptr %other.dbg.spill, align 8
  %1 = getelementptr inbounds i8, ptr %other.dbg.spill, i64 8
  store i64 %other.1, ptr %1, align 8
  call void @llvm.dbg.declare(metadata ptr %other.dbg.spill, metadata !849, metadata !DIExpression()), !dbg !865
  call void @llvm.dbg.declare(metadata ptr %other.dbg.spill, metadata !861, metadata !DIExpression()), !dbg !866
; call core::slice::ascii::<impl [u8]>::eq_ignore_ascii_case
  %_0 = call zeroext i1 @"_ZN4core5slice5ascii30_$LT$impl$u20$$u5b$u8$u5d$$GT$20eq_ignore_ascii_case17h66752e285ed09062E"(ptr align 1 %self.0, i64 %self.1, ptr align 1 %other.0, i64 %other.1), !dbg !868
  ret i1 %_0, !dbg !869
}

; core::hint::assert_unchecked::precondition_check
; Function Attrs: inlinehint nounwind uwtable
define internal void @_ZN4core4hint16assert_unchecked18precondition_check17h01dce3b97a240e4aE(i1 zeroext %cond) unnamed_addr #2 !dbg !870 {
start:
  %cond.dbg.spill = alloca i8, align 1
  %0 = zext i1 %cond to i8
  store i8 %0, ptr %cond.dbg.spill, align 1
  call void @llvm.dbg.declare(metadata ptr %cond.dbg.spill, metadata !876, metadata !DIExpression()), !dbg !877
  br i1 %cond, label %bb2, label %bb1, !dbg !878

bb1:                                              ; preds = %start
; call core::panicking::panic_nounwind
  call void @_ZN4core9panicking14panic_nounwind17h50c31e15afde233eE(ptr align 1 @alloc_ab14703751a9eb3585c49b2e55e9a9e5, i64 104) #12, !dbg !881
  unreachable, !dbg !881

bb2:                                              ; preds = %start
  ret void, !dbg !882
}

; core::iter::traits::iterator::Iterator::all::check::{{closure}}
; Function Attrs: inlinehint uwtable
define zeroext i1 @"_ZN4core4iter6traits8iterator8Iterator3all5check28_$u7b$$u7b$closure$u7d$$u7d$17h51e544c67c132cd2E"(ptr align 1 %_1, ptr align 1 %x.0, ptr align 1 %x.1) unnamed_addr #0 !dbg !883 {
start:
  %x.dbg.spill = alloca { ptr, ptr }, align 8
  %_2.dbg.spill = alloca {}, align 1
  %_1.dbg.spill = alloca ptr, align 8
  %_6 = alloca { { ptr, ptr } }, align 8
  %_0 = alloca i8, align 1
  store ptr %_1, ptr %_1.dbg.spill, align 8
  call void @llvm.dbg.declare(metadata ptr %_1.dbg.spill, metadata !902, metadata !DIExpression(DW_OP_deref)), !dbg !906
  call void @llvm.dbg.declare(metadata ptr %_2.dbg.spill, metadata !903, metadata !DIExpression()), !dbg !907
  store ptr %x.0, ptr %x.dbg.spill, align 8
  %0 = getelementptr inbounds i8, ptr %x.dbg.spill, i64 8
  store ptr %x.1, ptr %0, align 8
  call void @llvm.dbg.declare(metadata ptr %x.dbg.spill, metadata !901, metadata !DIExpression()), !dbg !908
  store ptr %x.0, ptr %_6, align 8, !dbg !909
  %1 = getelementptr inbounds i8, ptr %_6, i64 8, !dbg !909
  store ptr %x.1, ptr %1, align 8, !dbg !909
  %2 = load ptr, ptr %_6, align 8, !dbg !909, !nonnull !16, !align !440, !noundef !16
  %3 = getelementptr inbounds i8, ptr %_6, i64 8, !dbg !909
  %4 = load ptr, ptr %3, align 8, !dbg !909, !nonnull !16, !align !440, !noundef !16
; call core::slice::ascii::<impl [u8]>::eq_ignore_ascii_case::{{closure}}
  %_4 = call zeroext i1 @"_ZN4core5slice5ascii30_$LT$impl$u20$$u5b$u8$u5d$$GT$20eq_ignore_ascii_case28_$u7b$$u7b$closure$u7d$$u7d$17h56efb19bb3a4b78dE"(ptr align 1 %_1, ptr align 1 %2, ptr align 1 %4), !dbg !909
  br i1 %_4, label %bb2, label %bb3, !dbg !909

bb3:                                              ; preds = %start
  store i8 1, ptr %_0, align 1, !dbg !910
  br label %bb4, !dbg !911

bb2:                                              ; preds = %start
  store i8 0, ptr %_0, align 1, !dbg !912
  br label %bb4, !dbg !911

bb4:                                              ; preds = %bb2, %bb3
  %5 = load i8, ptr %_0, align 1, !dbg !913, !range !352, !noundef !16
  %6 = trunc i8 %5 to i1, !dbg !913
  ret i1 %6, !dbg !913
}

; core::iter::traits::iterator::Iterator::map
; Function Attrs: inlinehint uwtable
define { i64, i64 } @_ZN4core4iter6traits8iterator8Iterator3map17h0ca70bc607b6d220E(i64 %self.0, i64 %self.1) unnamed_addr #0 !dbg !914 {
start:
  %f.dbg.spill = alloca %"{closure@src/lib.rs:654:20: 654:23}", align 1
  %self.dbg.spill = alloca %"core::ops::range::Range<usize>", align 8
  %_0 = alloca %"core::iter::adapters::map::Map<core::ops::range::Range<usize>, {closure@src/lib.rs:654:20: 654:23}>", align 8
  store i64 %self.0, ptr %self.dbg.spill, align 8
  %0 = getelementptr inbounds i8, ptr %self.dbg.spill, i64 8
  store i64 %self.1, ptr %0, align 8
  call void @llvm.dbg.declare(metadata ptr %self.dbg.spill, metadata !935, metadata !DIExpression()), !dbg !940
  call void @llvm.dbg.declare(metadata ptr %self.dbg.spill, metadata !941, metadata !DIExpression()), !dbg !947
  call void @llvm.dbg.declare(metadata ptr %f.dbg.spill, metadata !936, metadata !DIExpression()), !dbg !949
  call void @llvm.dbg.declare(metadata ptr %f.dbg.spill, metadata !946, metadata !DIExpression()), !dbg !950
  store i64 %self.0, ptr %_0, align 8, !dbg !951
  %1 = getelementptr inbounds i8, ptr %_0, i64 8, !dbg !951
  store i64 %self.1, ptr %1, align 8, !dbg !951
  %2 = load i64, ptr %_0, align 8, !dbg !952, !noundef !16
  %3 = getelementptr inbounds i8, ptr %_0, i64 8, !dbg !952
  %4 = load i64, ptr %3, align 8, !dbg !952, !noundef !16
  %5 = insertvalue { i64, i64 } poison, i64 %2, 0, !dbg !952
  %6 = insertvalue { i64, i64 } %5, i64 %4, 1, !dbg !952
  ret { i64, i64 } %6, !dbg !952
}

; core::iter::traits::iterator::Iterator::map
; Function Attrs: inlinehint uwtable
define { i64, i64 } @_ZN4core4iter6traits8iterator8Iterator3map17hf8f89c8f9bc77e75E(i64 %self.0, i64 %self.1) unnamed_addr #0 !dbg !953 {
start:
  %f.dbg.spill = alloca %"{closure@src/lib.rs:545:20: 545:23}", align 1
  %self.dbg.spill = alloca %"core::ops::range::Range<usize>", align 8
  %_0 = alloca %"core::iter::adapters::map::Map<core::ops::range::Range<usize>, {closure@src/lib.rs:545:20: 545:23}>", align 8
  store i64 %self.0, ptr %self.dbg.spill, align 8
  %0 = getelementptr inbounds i8, ptr %self.dbg.spill, i64 8
  store i64 %self.1, ptr %0, align 8
  call void @llvm.dbg.declare(metadata ptr %self.dbg.spill, metadata !966, metadata !DIExpression()), !dbg !969
  call void @llvm.dbg.declare(metadata ptr %self.dbg.spill, metadata !970, metadata !DIExpression()), !dbg !976
  call void @llvm.dbg.declare(metadata ptr %f.dbg.spill, metadata !967, metadata !DIExpression()), !dbg !978
  call void @llvm.dbg.declare(metadata ptr %f.dbg.spill, metadata !975, metadata !DIExpression()), !dbg !979
  store i64 %self.0, ptr %_0, align 8, !dbg !980
  %1 = getelementptr inbounds i8, ptr %_0, i64 8, !dbg !980
  store i64 %self.1, ptr %1, align 8, !dbg !980
  %2 = load i64, ptr %_0, align 8, !dbg !981, !noundef !16
  %3 = getelementptr inbounds i8, ptr %_0, i64 8, !dbg !981
  %4 = load i64, ptr %3, align 8, !dbg !981, !noundef !16
  %5 = insertvalue { i64, i64 } poison, i64 %2, 0, !dbg !981
  %6 = insertvalue { i64, i64 } %5, i64 %4, 1, !dbg !981
  ret { i64, i64 } %6, !dbg !981
}

; core::iter::traits::iterator::Iterator::map
; Function Attrs: inlinehint uwtable
define { i64, i64 } @_ZN4core4iter6traits8iterator8Iterator3map17hfa4b317ad75b6d4eE(i64 %self.0, i64 %self.1) unnamed_addr #0 !dbg !982 {
start:
  %f.dbg.spill = alloca %"{closure@src/lib.rs:487:18: 487:23}", align 1
  %self.dbg.spill = alloca %"core::iter::adapters::filter::Filter<core::option::IntoIter<usize>, {closure@src/lib.rs:486:21: 486:27}>", align 8
  %_0 = alloca %"core::iter::adapters::map::Map<core::iter::adapters::filter::Filter<core::option::IntoIter<usize>, {closure@src/lib.rs:486:21: 486:27}>, {closure@src/lib.rs:487:18: 487:23}>", align 8
  store i64 %self.0, ptr %self.dbg.spill, align 8
  %0 = getelementptr inbounds i8, ptr %self.dbg.spill, i64 8
  store i64 %self.1, ptr %0, align 8
  call void @llvm.dbg.declare(metadata ptr %self.dbg.spill, metadata !986, metadata !DIExpression()), !dbg !990
  call void @llvm.dbg.declare(metadata ptr %self.dbg.spill, metadata !991, metadata !DIExpression()), !dbg !997
  call void @llvm.dbg.declare(metadata ptr %f.dbg.spill, metadata !987, metadata !DIExpression()), !dbg !999
  call void @llvm.dbg.declare(metadata ptr %f.dbg.spill, metadata !996, metadata !DIExpression()), !dbg !1000
  store i64 %self.0, ptr %_0, align 8, !dbg !1001
  %1 = getelementptr inbounds i8, ptr %_0, i64 8, !dbg !1001
  store i64 %self.1, ptr %1, align 8, !dbg !1001
  %2 = load i64, ptr %_0, align 8, !dbg !1002, !range !192, !noundef !16
  %3 = getelementptr inbounds i8, ptr %_0, i64 8, !dbg !1002
  %4 = load i64, ptr %3, align 8, !dbg !1002
  %5 = insertvalue { i64, i64 } poison, i64 %2, 0, !dbg !1002
  %6 = insertvalue { i64, i64 } %5, i64 %4, 1, !dbg !1002
  ret { i64, i64 } %6, !dbg !1002
}

; core::iter::traits::iterator::Iterator::find
; Function Attrs: inlinehint uwtable
define { i64, i64 } @_ZN4core4iter6traits8iterator8Iterator4find17hda58f10b92641ce4E(ptr align 8 %self, ptr align 1 %predicate) unnamed_addr #0 !dbg !1003 {
start:
  %x.dbg.spill = alloca i64, align 8
  %predicate.dbg.spill = alloca ptr, align 8
  %self.dbg.spill = alloca ptr, align 8
  %_4 = alloca ptr, align 8
  %self1 = alloca %"core::ops::control_flow::ControlFlow<usize>", align 8
  %_0 = alloca %"core::option::Option<usize>", align 8
  store ptr %self, ptr %self.dbg.spill, align 8
  call void @llvm.dbg.declare(metadata ptr %self.dbg.spill, metadata !1008, metadata !DIExpression()), !dbg !1013
  store ptr %predicate, ptr %predicate.dbg.spill, align 8
  call void @llvm.dbg.declare(metadata ptr %predicate.dbg.spill, metadata !1009, metadata !DIExpression()), !dbg !1014
  call void @llvm.dbg.declare(metadata ptr %predicate.dbg.spill, metadata !1015, metadata !DIExpression()), !dbg !1028
  call void @llvm.dbg.declare(metadata ptr %self1, metadata !1030, metadata !DIExpression()), !dbg !1039
  store ptr %predicate, ptr %_4, align 8, !dbg !1041
  %0 = load ptr, ptr %_4, align 8, !dbg !1042, !nonnull !16, !align !440, !noundef !16
; call core::iter::traits::iterator::Iterator::try_fold
  %1 = call { i64, i64 } @_ZN4core4iter6traits8iterator8Iterator8try_fold17h8cb35f6f3e6cde8eE(ptr align 8 %self, ptr align 1 %0), !dbg !1042
  %2 = extractvalue { i64, i64 } %1, 0, !dbg !1042
  %3 = extractvalue { i64, i64 } %1, 1, !dbg !1042
  store i64 %2, ptr %self1, align 8, !dbg !1042
  %4 = getelementptr inbounds i8, ptr %self1, i64 8, !dbg !1042
  store i64 %3, ptr %4, align 8, !dbg !1042
  %_5 = load i64, ptr %self1, align 8, !dbg !1043, !range !192, !noundef !16
  %5 = icmp eq i64 %_5, 0, !dbg !1044
  br i1 %5, label %bb4, label %bb3, !dbg !1044

bb4:                                              ; preds = %start
  store i64 0, ptr %_0, align 8, !dbg !1045
  br label %bb7, !dbg !1045

bb3:                                              ; preds = %start
  %6 = getelementptr inbounds i8, ptr %self1, i64 8, !dbg !1046
  %x = load i64, ptr %6, align 8, !dbg !1046, !noundef !16
  store i64 %x, ptr %x.dbg.spill, align 8, !dbg !1046
  call void @llvm.dbg.declare(metadata ptr %x.dbg.spill, metadata !1037, metadata !DIExpression()), !dbg !1047
  %7 = getelementptr inbounds i8, ptr %_0, i64 8, !dbg !1048
  store i64 %x, ptr %7, align 8, !dbg !1048
  store i64 1, ptr %_0, align 8, !dbg !1048
  br label %bb7, !dbg !1049

bb7:                                              ; preds = %bb3, %bb4
  %_7 = load i64, ptr %self1, align 8, !dbg !1050, !range !192, !noundef !16
  %8 = icmp eq i64 %_7, 1, !dbg !1050
  br i1 %8, label %bb5, label %bb6, !dbg !1050

bb5:                                              ; preds = %bb6, %bb7
  %9 = load i64, ptr %_0, align 8, !dbg !1051, !range !192, !noundef !16
  %10 = getelementptr inbounds i8, ptr %_0, i64 8, !dbg !1051
  %11 = load i64, ptr %10, align 8, !dbg !1051
  %12 = insertvalue { i64, i64 } poison, i64 %9, 0, !dbg !1051
  %13 = insertvalue { i64, i64 } %12, i64 %11, 1, !dbg !1051
  ret { i64, i64 } %13, !dbg !1051

bb6:                                              ; preds = %bb7
  br label %bb5, !dbg !1050

bb2:                                              ; No predecessors!
  unreachable, !dbg !1043
}

; core::iter::traits::iterator::Iterator::find::check::{{closure}}
; Function Attrs: inlinehint uwtable
define { i64, i64 } @"_ZN4core4iter6traits8iterator8Iterator4find5check28_$u7b$$u7b$closure$u7d$$u7d$17h717dd77dc15f6c01E"(ptr align 8 %_1, i64 %0) unnamed_addr #0 personality ptr @rust_eh_personality !dbg !1052 {
start:
  %1 = alloca { ptr, i32, [1 x i32] }, align 8
  %_2.dbg.spill = alloca {}, align 1
  %_1.dbg.spill = alloca ptr, align 8
  %_6 = alloca ptr, align 8
  %_0 = alloca %"core::ops::control_flow::ControlFlow<usize>", align 8
  %x = alloca i64, align 8
  store i64 %0, ptr %x, align 8
  store ptr %_1, ptr %_1.dbg.spill, align 8
  call void @llvm.dbg.declare(metadata ptr %_1.dbg.spill, metadata !1058, metadata !DIExpression(DW_OP_deref)), !dbg !1060
  call void @llvm.dbg.declare(metadata ptr %_2.dbg.spill, metadata !1059, metadata !DIExpression()), !dbg !1061
  call void @llvm.dbg.declare(metadata ptr %x, metadata !1057, metadata !DIExpression()), !dbg !1062
  store ptr %x, ptr %_6, align 8, !dbg !1063
  %2 = load ptr, ptr %_6, align 8, !dbg !1063, !nonnull !16, !align !491, !noundef !16
; invoke core::ops::function::impls::<impl core::ops::function::FnMut<A> for &mut F>::call_mut
  %_4 = invoke zeroext i1 @"_ZN4core3ops8function5impls79_$LT$impl$u20$core..ops..function..FnMut$LT$A$GT$$u20$for$u20$$RF$mut$u20$F$GT$8call_mut17heff1578a2e8c02e6E"(ptr align 8 %_1, ptr align 8 %2)
          to label %bb1 unwind label %cleanup, !dbg !1063

bb5:                                              ; preds = %cleanup
  %3 = load ptr, ptr %1, align 8, !dbg !1064, !noundef !16
  %4 = getelementptr inbounds i8, ptr %1, i64 8, !dbg !1064
  %5 = load i32, ptr %4, align 8, !dbg !1064, !noundef !16
  %6 = insertvalue { ptr, i32 } poison, ptr %3, 0, !dbg !1064
  %7 = insertvalue { ptr, i32 } %6, i32 %5, 1, !dbg !1064
  resume { ptr, i32 } %7, !dbg !1064

cleanup:                                          ; preds = %start
  %8 = landingpad { ptr, i32 }
          cleanup
  %9 = extractvalue { ptr, i32 } %8, 0
  %10 = extractvalue { ptr, i32 } %8, 1
  store ptr %9, ptr %1, align 8
  %11 = getelementptr inbounds i8, ptr %1, i64 8
  store i32 %10, ptr %11, align 8
  br label %bb5

bb1:                                              ; preds = %start
  br i1 %_4, label %bb2, label %bb3, !dbg !1063

bb3:                                              ; preds = %bb1
  store i64 0, ptr %_0, align 8, !dbg !1065
  br label %bb4, !dbg !1066

bb2:                                              ; preds = %bb1
  %_8 = load i64, ptr %x, align 8, !dbg !1067, !noundef !16
  %12 = getelementptr inbounds i8, ptr %_0, i64 8, !dbg !1068
  store i64 %_8, ptr %12, align 8, !dbg !1068
  store i64 1, ptr %_0, align 8, !dbg !1068
  br label %bb4, !dbg !1066

bb4:                                              ; preds = %bb2, %bb3
  %13 = load i64, ptr %_0, align 8, !dbg !1069, !range !192, !noundef !16
  %14 = getelementptr inbounds i8, ptr %_0, i64 8, !dbg !1069
  %15 = load i64, ptr %14, align 8, !dbg !1069
  %16 = insertvalue { i64, i64 } poison, i64 %13, 0, !dbg !1069
  %17 = insertvalue { i64, i64 } %16, i64 %15, 1, !dbg !1069
  ret { i64, i64 } %17, !dbg !1069
}

; core::iter::traits::iterator::Iterator::filter
; Function Attrs: inlinehint uwtable
define { i64, i64 } @_ZN4core4iter6traits8iterator8Iterator6filter17h2822bd4582a8ae92E(i64 %self.0, i64 %self.1) unnamed_addr #0 !dbg !1070 {
start:
  %predicate.dbg.spill = alloca %"{closure@src/lib.rs:486:21: 486:27}", align 1
  %self.dbg.spill = alloca %"core::option::IntoIter<usize>", align 8
  %_0 = alloca %"core::iter::adapters::filter::Filter<core::option::IntoIter<usize>, {closure@src/lib.rs:486:21: 486:27}>", align 8
  store i64 %self.0, ptr %self.dbg.spill, align 8
  %0 = getelementptr inbounds i8, ptr %self.dbg.spill, i64 8
  store i64 %self.1, ptr %0, align 8
  call void @llvm.dbg.declare(metadata ptr %self.dbg.spill, metadata !1074, metadata !DIExpression()), !dbg !1077
  call void @llvm.dbg.declare(metadata ptr %self.dbg.spill, metadata !1078, metadata !DIExpression()), !dbg !1084
  call void @llvm.dbg.declare(metadata ptr %predicate.dbg.spill, metadata !1075, metadata !DIExpression()), !dbg !1086
  call void @llvm.dbg.declare(metadata ptr %predicate.dbg.spill, metadata !1083, metadata !DIExpression()), !dbg !1087
  store i64 %self.0, ptr %_0, align 8, !dbg !1088
  %1 = getelementptr inbounds i8, ptr %_0, i64 8, !dbg !1088
  store i64 %self.1, ptr %1, align 8, !dbg !1088
  %2 = load i64, ptr %_0, align 8, !dbg !1089, !range !192, !noundef !16
  %3 = getelementptr inbounds i8, ptr %_0, i64 8, !dbg !1089
  %4 = load i64, ptr %3, align 8, !dbg !1089
  %5 = insertvalue { i64, i64 } poison, i64 %2, 0, !dbg !1089
  %6 = insertvalue { i64, i64 } %5, i64 %4, 1, !dbg !1089
  ret { i64, i64 } %6, !dbg !1089
}

; core::iter::traits::iterator::Iterator::try_fold
; Function Attrs: inlinehint uwtable
define zeroext i1 @_ZN4core4iter6traits8iterator8Iterator8try_fold17h2e5002da4bf30c23E(ptr align 8 %self) unnamed_addr #0 personality ptr @rust_eh_personality !dbg !1090 {
start:
  %x.dbg.spill = alloca { ptr, ptr }, align 8
  %0 = alloca { ptr, i32, [1 x i32] }, align 8
  %val.dbg.spill = alloca {}, align 1
  %residual.dbg.spill = alloca %"core::ops::control_flow::ControlFlow<(), core::convert::Infallible>::Break", align 1
  %accum.dbg.spill = alloca {}, align 1
  %init.dbg.spill = alloca {}, align 1
  %self.dbg.spill = alloca ptr, align 8
  %_17 = alloca i8, align 1
  %_11 = alloca { {}, { ptr, ptr } }, align 8
  %_8 = alloca i8, align 1
  %_5 = alloca %"core::option::Option<(&u8, &u8)>", align 8
  %_0 = alloca i8, align 1
  %f = alloca %"{closure@core::iter::traits::iterator::Iterator::all::check<(&u8, &u8), {closure@core::slice::ascii::<impl [u8]>::eq_ignore_ascii_case::{closure#0}}>::{closure#0}}", align 1
  store ptr %self, ptr %self.dbg.spill, align 8
  call void @llvm.dbg.declare(metadata ptr %self.dbg.spill, metadata !1094, metadata !DIExpression()), !dbg !1109
  call void @llvm.dbg.declare(metadata ptr %init.dbg.spill, metadata !1095, metadata !DIExpression()), !dbg !1110
  call void @llvm.dbg.declare(metadata ptr %f, metadata !1096, metadata !DIExpression()), !dbg !1111
  call void @llvm.dbg.declare(metadata ptr %accum.dbg.spill, metadata !1097, metadata !DIExpression()), !dbg !1112
  call void @llvm.dbg.declare(metadata ptr %residual.dbg.spill, metadata !1101, metadata !DIExpression()), !dbg !1113
  call void @llvm.dbg.declare(metadata ptr %val.dbg.spill, metadata !1103, metadata !DIExpression()), !dbg !1114
  store i8 1, ptr %_17, align 1, !dbg !1115
  br label %bb1, !dbg !1116

bb1:                                              ; preds = %bb7, %start
; invoke <core::iter::adapters::zip::Zip<A,B> as core::iter::traits::iterator::Iterator>::next
  %1 = invoke { ptr, ptr } @"_ZN102_$LT$core..iter..adapters..zip..Zip$LT$A$C$B$GT$$u20$as$u20$core..iter..traits..iterator..Iterator$GT$4next17h60967f1d3510df51E"(ptr align 8 %self)
          to label %bb2 unwind label %cleanup.loopexit, !dbg !1117

bb17:                                             ; preds = %cleanup
  %2 = load i8, ptr %_17, align 1, !dbg !1118, !range !352, !noundef !16
  %3 = trunc i8 %2 to i1, !dbg !1118
  br i1 %3, label %bb16, label %bb14, !dbg !1118

cleanup.loopexit:                                 ; preds = %bb1, %bb3, %bb4
  %lpad.loopexit = landingpad { ptr, i32 }
          cleanup
  br label %cleanup

cleanup.loopexit.split-lp:                        ; preds = %bb8, %bb11
  %lpad.loopexit.split-lp = landingpad { ptr, i32 }
          cleanup
  br label %cleanup

cleanup:                                          ; preds = %cleanup.loopexit.split-lp, %cleanup.loopexit
  %lpad.phi = phi { ptr, i32 } [ %lpad.loopexit, %cleanup.loopexit ], [ %lpad.loopexit.split-lp, %cleanup.loopexit.split-lp ]
  %4 = extractvalue { ptr, i32 } %lpad.phi, 0
  %5 = extractvalue { ptr, i32 } %lpad.phi, 1
  store ptr %4, ptr %0, align 8
  %6 = getelementptr inbounds i8, ptr %0, i64 8
  store i32 %5, ptr %6, align 8
  br label %bb17

bb2:                                              ; preds = %bb1
  %7 = extractvalue { ptr, ptr } %1, 0, !dbg !1117
  %8 = extractvalue { ptr, ptr } %1, 1, !dbg !1117
  store ptr %7, ptr %_5, align 8, !dbg !1117
  %9 = getelementptr inbounds i8, ptr %_5, i64 8, !dbg !1117
  store ptr %8, ptr %9, align 8, !dbg !1117
  %10 = load ptr, ptr %_5, align 8, !dbg !1119, !noundef !16
  %11 = ptrtoint ptr %10 to i64, !dbg !1119
  %12 = icmp eq i64 %11, 0, !dbg !1119
  %_6 = select i1 %12, i64 0, i64 1, !dbg !1119
  %13 = icmp eq i64 %_6, 1, !dbg !1119
  br i1 %13, label %bb3, label %bb10, !dbg !1119

bb3:                                              ; preds = %bb2
  %x.0 = load ptr, ptr %_5, align 8, !dbg !1120, !nonnull !16, !align !440, !noundef !16
  %14 = getelementptr inbounds i8, ptr %_5, i64 8, !dbg !1120
  %x.1 = load ptr, ptr %14, align 8, !dbg !1120, !nonnull !16, !align !440, !noundef !16
  store ptr %x.0, ptr %x.dbg.spill, align 8, !dbg !1120
  %15 = getelementptr inbounds i8, ptr %x.dbg.spill, i64 8, !dbg !1120
  store ptr %x.1, ptr %15, align 8, !dbg !1120
  call void @llvm.dbg.declare(metadata ptr %x.dbg.spill, metadata !1099, metadata !DIExpression()), !dbg !1120
  store i8 0, ptr %_17, align 1, !dbg !1121
  store ptr %x.0, ptr %_11, align 8, !dbg !1122
  %16 = getelementptr inbounds i8, ptr %_11, i64 8, !dbg !1122
  store ptr %x.1, ptr %16, align 8, !dbg !1122
  %17 = load ptr, ptr %_11, align 8, !dbg !1122, !nonnull !16, !align !440, !noundef !16
  %18 = getelementptr inbounds i8, ptr %_11, i64 8, !dbg !1122
  %19 = load ptr, ptr %18, align 8, !dbg !1122, !nonnull !16, !align !440, !noundef !16
; invoke core::iter::traits::iterator::Iterator::all::check::{{closure}}
  %_9 = invoke zeroext i1 @"_ZN4core4iter6traits8iterator8Iterator3all5check28_$u7b$$u7b$closure$u7d$$u7d$17h51e544c67c132cd2E"(ptr align 1 %f, ptr align 1 %17, ptr align 1 %19)
          to label %bb4 unwind label %cleanup.loopexit, !dbg !1122

bb10:                                             ; preds = %bb2
  br label %bb11, !dbg !1116

bb4:                                              ; preds = %bb3
; invoke <core::ops::control_flow::ControlFlow<B,C> as core::ops::try_trait::Try>::branch
  %20 = invoke zeroext i1 @"_ZN95_$LT$core..ops..control_flow..ControlFlow$LT$B$C$C$GT$$u20$as$u20$core..ops..try_trait..Try$GT$6branch17h5c1935094904d8f6E"(i1 zeroext %_9)
          to label %bb5 unwind label %cleanup.loopexit, !dbg !1122

bb5:                                              ; preds = %bb4
  %21 = zext i1 %20 to i8, !dbg !1122
  store i8 %21, ptr %_8, align 1, !dbg !1122
  %22 = load i8, ptr %_8, align 1, !dbg !1122, !range !352, !noundef !16
  %23 = trunc i8 %22 to i1, !dbg !1122
  %_13 = zext i1 %23 to i64, !dbg !1122
  %24 = icmp eq i64 %_13, 0, !dbg !1122
  br i1 %24, label %bb7, label %bb8, !dbg !1122

bb7:                                              ; preds = %bb5
  store i8 1, ptr %_17, align 1, !dbg !1123
  br label %bb1, !dbg !1116

bb8:                                              ; preds = %bb5
; invoke <core::ops::control_flow::ControlFlow<B,C> as core::ops::try_trait::FromResidual>::from_residual
  %25 = invoke zeroext i1 @"_ZN104_$LT$core..ops..control_flow..ControlFlow$LT$B$C$C$GT$$u20$as$u20$core..ops..try_trait..FromResidual$GT$13from_residual17hfcbf343211970773E"()
          to label %bb9 unwind label %cleanup.loopexit.split-lp, !dbg !1124

bb9:                                              ; preds = %bb8
  %26 = zext i1 %25 to i8, !dbg !1124
  store i8 %26, ptr %_0, align 1, !dbg !1124
  br label %bb13, !dbg !1118

bb13:                                             ; preds = %bb12, %bb9
  %27 = load i8, ptr %_0, align 1, !dbg !1125, !range !352, !noundef !16
  %28 = trunc i8 %27 to i1, !dbg !1125
  ret i1 %28, !dbg !1125

bb11:                                             ; preds = %bb10
  store i8 0, ptr %_17, align 1, !dbg !1126
; invoke <core::ops::control_flow::ControlFlow<B,C> as core::ops::try_trait::Try>::from_output
  %29 = invoke zeroext i1 @"_ZN95_$LT$core..ops..control_flow..ControlFlow$LT$B$C$C$GT$$u20$as$u20$core..ops..try_trait..Try$GT$11from_output17h2e3e53a91ce4ccdaE"()
          to label %bb12 unwind label %cleanup.loopexit.split-lp, !dbg !1126

bb12:                                             ; preds = %bb11
  %30 = zext i1 %29 to i8, !dbg !1126
  store i8 %30, ptr %_0, align 1, !dbg !1126
  br label %bb13, !dbg !1118

bb6:                                              ; No predecessors!
  unreachable, !dbg !1122

bb14:                                             ; preds = %bb16, %bb17
  %31 = load ptr, ptr %0, align 8, !dbg !1127, !noundef !16
  %32 = getelementptr inbounds i8, ptr %0, i64 8, !dbg !1127
  %33 = load i32, ptr %32, align 8, !dbg !1127, !noundef !16
  %34 = insertvalue { ptr, i32 } poison, ptr %31, 0, !dbg !1127
  %35 = insertvalue { ptr, i32 } %34, i32 %33, 1, !dbg !1127
  resume { ptr, i32 } %35, !dbg !1127

bb16:                                             ; preds = %bb17
  br label %bb14, !dbg !1118
}

; core::iter::traits::iterator::Iterator::try_fold
; Function Attrs: inlinehint uwtable
define { i64, i64 } @_ZN4core4iter6traits8iterator8Iterator8try_fold17h8cb35f6f3e6cde8eE(ptr align 8 %self, ptr align 1 %0) unnamed_addr #0 personality ptr @rust_eh_personality !dbg !1128 {
start:
  %residual.dbg.spill = alloca i64, align 8
  %x.dbg.spill = alloca i64, align 8
  %1 = alloca { ptr, i32, [1 x i32] }, align 8
  %val.dbg.spill = alloca {}, align 1
  %accum.dbg.spill = alloca {}, align 1
  %init.dbg.spill = alloca {}, align 1
  %self.dbg.spill = alloca ptr, align 8
  %_17 = alloca i8, align 1
  %_11 = alloca i64, align 8
  %_8 = alloca %"core::ops::control_flow::ControlFlow<core::ops::control_flow::ControlFlow<usize, core::convert::Infallible>>", align 8
  %_5 = alloca %"core::option::Option<usize>", align 8
  %_0 = alloca %"core::ops::control_flow::ControlFlow<usize>", align 8
  %f = alloca ptr, align 8
  store ptr %0, ptr %f, align 8
  store ptr %self, ptr %self.dbg.spill, align 8
  call void @llvm.dbg.declare(metadata ptr %self.dbg.spill, metadata !1132, metadata !DIExpression()), !dbg !1146
  call void @llvm.dbg.declare(metadata ptr %init.dbg.spill, metadata !1133, metadata !DIExpression()), !dbg !1147
  call void @llvm.dbg.declare(metadata ptr %f, metadata !1134, metadata !DIExpression()), !dbg !1148
  call void @llvm.dbg.declare(metadata ptr %accum.dbg.spill, metadata !1135, metadata !DIExpression()), !dbg !1149
  call void @llvm.dbg.declare(metadata ptr %val.dbg.spill, metadata !1141, metadata !DIExpression()), !dbg !1150
  store i8 1, ptr %_17, align 1, !dbg !1151
  br label %bb1, !dbg !1152

bb1:                                              ; preds = %bb7, %start
; invoke <core::option::IntoIter<A> as core::iter::traits::iterator::Iterator>::next
  %2 = invoke { i64, i64 } @"_ZN90_$LT$core..option..IntoIter$LT$A$GT$$u20$as$u20$core..iter..traits..iterator..Iterator$GT$4next17hd2b853fbf608bbf9E"(ptr align 8 %self)
          to label %bb2 unwind label %cleanup.loopexit, !dbg !1153

bb17:                                             ; preds = %cleanup
  %3 = load i8, ptr %_17, align 1, !dbg !1154, !range !352, !noundef !16
  %4 = trunc i8 %3 to i1, !dbg !1154
  br i1 %4, label %bb16, label %bb14, !dbg !1154

cleanup.loopexit:                                 ; preds = %bb1, %bb3, %bb4
  %lpad.loopexit = landingpad { ptr, i32 }
          cleanup
  br label %cleanup

cleanup.loopexit.split-lp:                        ; preds = %bb8, %bb11
  %lpad.loopexit.split-lp = landingpad { ptr, i32 }
          cleanup
  br label %cleanup

cleanup:                                          ; preds = %cleanup.loopexit.split-lp, %cleanup.loopexit
  %lpad.phi = phi { ptr, i32 } [ %lpad.loopexit, %cleanup.loopexit ], [ %lpad.loopexit.split-lp, %cleanup.loopexit.split-lp ]
  %5 = extractvalue { ptr, i32 } %lpad.phi, 0
  %6 = extractvalue { ptr, i32 } %lpad.phi, 1
  store ptr %5, ptr %1, align 8
  %7 = getelementptr inbounds i8, ptr %1, i64 8
  store i32 %6, ptr %7, align 8
  br label %bb17

bb2:                                              ; preds = %bb1
  %8 = extractvalue { i64, i64 } %2, 0, !dbg !1153
  %9 = extractvalue { i64, i64 } %2, 1, !dbg !1153
  store i64 %8, ptr %_5, align 8, !dbg !1153
  %10 = getelementptr inbounds i8, ptr %_5, i64 8, !dbg !1153
  store i64 %9, ptr %10, align 8, !dbg !1153
  %_6 = load i64, ptr %_5, align 8, !dbg !1155, !range !192, !noundef !16
  %11 = icmp eq i64 %_6, 1, !dbg !1155
  br i1 %11, label %bb3, label %bb10, !dbg !1155

bb3:                                              ; preds = %bb2
  %12 = getelementptr inbounds i8, ptr %_5, i64 8, !dbg !1156
  %x = load i64, ptr %12, align 8, !dbg !1156, !noundef !16
  store i64 %x, ptr %x.dbg.spill, align 8, !dbg !1156
  call void @llvm.dbg.declare(metadata ptr %x.dbg.spill, metadata !1137, metadata !DIExpression()), !dbg !1156
  store i8 0, ptr %_17, align 1, !dbg !1157
  store i64 %x, ptr %_11, align 8, !dbg !1158
  %13 = load i64, ptr %_11, align 8, !dbg !1158, !noundef !16
; invoke core::iter::traits::iterator::Iterator::find::check::{{closure}}
  %14 = invoke { i64, i64 } @"_ZN4core4iter6traits8iterator8Iterator4find5check28_$u7b$$u7b$closure$u7d$$u7d$17h717dd77dc15f6c01E"(ptr align 8 %f, i64 %13)
          to label %bb4 unwind label %cleanup.loopexit, !dbg !1158

bb10:                                             ; preds = %bb2
  br label %bb11, !dbg !1152

bb4:                                              ; preds = %bb3
  %_9.0 = extractvalue { i64, i64 } %14, 0, !dbg !1158
  %_9.1 = extractvalue { i64, i64 } %14, 1, !dbg !1158
; invoke <core::ops::control_flow::ControlFlow<B,C> as core::ops::try_trait::Try>::branch
  %15 = invoke { i64, i64 } @"_ZN95_$LT$core..ops..control_flow..ControlFlow$LT$B$C$C$GT$$u20$as$u20$core..ops..try_trait..Try$GT$6branch17heaa11fd113377f60E"(i64 %_9.0, i64 %_9.1)
          to label %bb5 unwind label %cleanup.loopexit, !dbg !1158

bb5:                                              ; preds = %bb4
  %16 = extractvalue { i64, i64 } %15, 0, !dbg !1158
  %17 = extractvalue { i64, i64 } %15, 1, !dbg !1158
  store i64 %16, ptr %_8, align 8, !dbg !1158
  %18 = getelementptr inbounds i8, ptr %_8, i64 8, !dbg !1158
  store i64 %17, ptr %18, align 8, !dbg !1158
  %_13 = load i64, ptr %_8, align 8, !dbg !1158, !range !192, !noundef !16
  %19 = icmp eq i64 %_13, 0, !dbg !1158
  br i1 %19, label %bb7, label %bb8, !dbg !1158

bb7:                                              ; preds = %bb5
  store i8 1, ptr %_17, align 1, !dbg !1159
  br label %bb1, !dbg !1152

bb8:                                              ; preds = %bb5
  %20 = getelementptr inbounds i8, ptr %_8, i64 8, !dbg !1160
  %residual = load i64, ptr %20, align 8, !dbg !1160, !noundef !16
  store i64 %residual, ptr %residual.dbg.spill, align 8, !dbg !1160
  call void @llvm.dbg.declare(metadata ptr %residual.dbg.spill, metadata !1139, metadata !DIExpression()), !dbg !1161
; invoke <core::ops::control_flow::ControlFlow<B,C> as core::ops::try_trait::FromResidual>::from_residual
  %21 = invoke { i64, i64 } @"_ZN104_$LT$core..ops..control_flow..ControlFlow$LT$B$C$C$GT$$u20$as$u20$core..ops..try_trait..FromResidual$GT$13from_residual17h516982bf56dca37fE"(i64 %residual)
          to label %bb9 unwind label %cleanup.loopexit.split-lp, !dbg !1162

bb9:                                              ; preds = %bb8
  %22 = extractvalue { i64, i64 } %21, 0, !dbg !1162
  %23 = extractvalue { i64, i64 } %21, 1, !dbg !1162
  store i64 %22, ptr %_0, align 8, !dbg !1162
  %24 = getelementptr inbounds i8, ptr %_0, i64 8, !dbg !1162
  store i64 %23, ptr %24, align 8, !dbg !1162
  br label %bb13, !dbg !1154

bb13:                                             ; preds = %bb12, %bb9
  %25 = load i64, ptr %_0, align 8, !dbg !1163, !range !192, !noundef !16
  %26 = getelementptr inbounds i8, ptr %_0, i64 8, !dbg !1163
  %27 = load i64, ptr %26, align 8, !dbg !1163
  %28 = insertvalue { i64, i64 } poison, i64 %25, 0, !dbg !1163
  %29 = insertvalue { i64, i64 } %28, i64 %27, 1, !dbg !1163
  ret { i64, i64 } %29, !dbg !1163

bb11:                                             ; preds = %bb10
  store i8 0, ptr %_17, align 1, !dbg !1164
; invoke <core::ops::control_flow::ControlFlow<B,C> as core::ops::try_trait::Try>::from_output
  %30 = invoke { i64, i64 } @"_ZN95_$LT$core..ops..control_flow..ControlFlow$LT$B$C$C$GT$$u20$as$u20$core..ops..try_trait..Try$GT$11from_output17hb0ed64ee4e6ae20bE"()
          to label %bb12 unwind label %cleanup.loopexit.split-lp, !dbg !1164

bb12:                                             ; preds = %bb11
  %31 = extractvalue { i64, i64 } %30, 0, !dbg !1164
  %32 = extractvalue { i64, i64 } %30, 1, !dbg !1164
  store i64 %31, ptr %_0, align 8, !dbg !1164
  %33 = getelementptr inbounds i8, ptr %_0, i64 8, !dbg !1164
  store i64 %32, ptr %33, align 8, !dbg !1164
  br label %bb13, !dbg !1154

bb6:                                              ; No predecessors!
  unreachable, !dbg !1158

bb14:                                             ; preds = %bb16, %bb17
  %34 = load ptr, ptr %1, align 8, !dbg !1165, !noundef !16
  %35 = getelementptr inbounds i8, ptr %1, i64 8, !dbg !1165
  %36 = load i32, ptr %35, align 8, !dbg !1165, !noundef !16
  %37 = insertvalue { ptr, i32 } poison, ptr %34, 0, !dbg !1165
  %38 = insertvalue { ptr, i32 } %37, i32 %36, 1, !dbg !1165
  resume { ptr, i32 } %38, !dbg !1165

bb16:                                             ; preds = %bb17
  br label %bb14, !dbg !1154
}

; core::iter::adapters::zip::TrustedRandomAccessNoCoerce::size
; Function Attrs: uwtable
define i64 @_ZN4core4iter8adapters3zip27TrustedRandomAccessNoCoerce4size17h41d2b4ccd2c2402aE(ptr align 8 %self) unnamed_addr #1 !dbg !1166 {
start:
  %self.dbg.spill = alloca ptr, align 8
  %_2 = alloca { i64, %"core::option::Option<usize>" }, align 8
  store ptr %self, ptr %self.dbg.spill, align 8
  call void @llvm.dbg.declare(metadata ptr %self.dbg.spill, metadata !1172, metadata !DIExpression()), !dbg !1175
; call <core::slice::iter::Iter<T> as core::iter::traits::iterator::Iterator>::size_hint
  call void @"_ZN91_$LT$core..slice..iter..Iter$LT$T$GT$$u20$as$u20$core..iter..traits..iterator..Iterator$GT$9size_hint17heb37d0981046a352E"(ptr sret({ i64, %"core::option::Option<usize>" }) align 8 %_2, ptr align 8 %self), !dbg !1176
  %_0 = load i64, ptr %_2, align 8, !dbg !1176, !noundef !16
  ret i64 %_0, !dbg !1177
}

; core::iter::adapters::zip::zip
; Function Attrs: uwtable
define void @_ZN4core4iter8adapters3zip3zip17ha0cebdf76e1cdb5eE(ptr sret(%"core::iter::adapters::zip::Zip<core::slice::iter::Iter<'_, u8>, core::slice::iter::Iter<'_, u8>>") align 8 %_0, ptr align 1 %a.0, i64 %a.1, ptr align 1 %b.0, i64 %b.1) unnamed_addr #1 personality ptr @rust_eh_personality !dbg !1178 {
start:
  %0 = alloca { ptr, i32, [1 x i32] }, align 8
  %b.dbg.spill = alloca { ptr, i64 }, align 8
  %a.dbg.spill = alloca { ptr, i64 }, align 8
  %_7 = alloca i8, align 1
  %_6 = alloca i8, align 1
  store ptr %a.0, ptr %a.dbg.spill, align 8
  %1 = getelementptr inbounds i8, ptr %a.dbg.spill, i64 8
  store i64 %a.1, ptr %1, align 8
  call void @llvm.dbg.declare(metadata ptr %a.dbg.spill, metadata !1182, metadata !DIExpression()), !dbg !1187
  store ptr %b.0, ptr %b.dbg.spill, align 8
  %2 = getelementptr inbounds i8, ptr %b.dbg.spill, i64 8
  store i64 %b.1, ptr %2, align 8
  call void @llvm.dbg.declare(metadata ptr %b.dbg.spill, metadata !1183, metadata !DIExpression()), !dbg !1188
  store i8 1, ptr %_7, align 1, !dbg !1189
; invoke core::slice::iter::<impl core::iter::traits::collect::IntoIterator for &[T]>::into_iter
  %3 = invoke { ptr, ptr } @"_ZN4core5slice4iter87_$LT$impl$u20$core..iter..traits..collect..IntoIterator$u20$for$u20$$RF$$u5b$T$u5d$$GT$9into_iter17h1d3a00f3631628f4E"(ptr align 1 %a.0, i64 %a.1)
          to label %bb1 unwind label %cleanup, !dbg !1189

bb8:                                              ; preds = %bb5, %bb6, %cleanup
  %4 = load i8, ptr %_7, align 1, !dbg !1190, !range !352, !noundef !16
  %5 = trunc i8 %4 to i1, !dbg !1190
  br i1 %5, label %bb7, label %bb4, !dbg !1190

cleanup:                                          ; preds = %start
  %6 = landingpad { ptr, i32 }
          cleanup
  %7 = extractvalue { ptr, i32 } %6, 0
  %8 = extractvalue { ptr, i32 } %6, 1
  store ptr %7, ptr %0, align 8
  %9 = getelementptr inbounds i8, ptr %0, i64 8
  store i32 %8, ptr %9, align 8
  br label %bb8

bb1:                                              ; preds = %start
  %_3.0 = extractvalue { ptr, ptr } %3, 0, !dbg !1189
  %_3.1 = extractvalue { ptr, ptr } %3, 1, !dbg !1189
  store i8 1, ptr %_6, align 1, !dbg !1191
  store i8 0, ptr %_7, align 1, !dbg !1192
; invoke core::slice::iter::<impl core::iter::traits::collect::IntoIterator for &[T]>::into_iter
  %10 = invoke { ptr, ptr } @"_ZN4core5slice4iter87_$LT$impl$u20$core..iter..traits..collect..IntoIterator$u20$for$u20$$RF$$u5b$T$u5d$$GT$9into_iter17h1d3a00f3631628f4E"(ptr align 1 %b.0, i64 %b.1)
          to label %bb2 unwind label %cleanup1, !dbg !1192

bb6:                                              ; preds = %cleanup1
  %11 = load i8, ptr %_6, align 1, !dbg !1193, !range !352, !noundef !16
  %12 = trunc i8 %11 to i1, !dbg !1193
  br i1 %12, label %bb5, label %bb8, !dbg !1193

cleanup1:                                         ; preds = %bb2, %bb1
  %13 = landingpad { ptr, i32 }
          cleanup
  %14 = extractvalue { ptr, i32 } %13, 0
  %15 = extractvalue { ptr, i32 } %13, 1
  store ptr %14, ptr %0, align 8
  %16 = getelementptr inbounds i8, ptr %0, i64 8
  store i32 %15, ptr %16, align 8
  br label %bb6

bb2:                                              ; preds = %bb1
  %_4.0 = extractvalue { ptr, ptr } %10, 0, !dbg !1192
  %_4.1 = extractvalue { ptr, ptr } %10, 1, !dbg !1192
  store i8 0, ptr %_6, align 1, !dbg !1194
; invoke <core::iter::adapters::zip::Zip<A,B> as core::iter::adapters::zip::ZipImpl<A,B>>::new
  invoke void @"_ZN111_$LT$core..iter..adapters..zip..Zip$LT$A$C$B$GT$$u20$as$u20$core..iter..adapters..zip..ZipImpl$LT$A$C$B$GT$$GT$3new17hb7ef74806dd21780E"(ptr sret(%"core::iter::adapters::zip::Zip<core::slice::iter::Iter<'_, u8>, core::slice::iter::Iter<'_, u8>>") align 8 %_0, ptr %_3.0, ptr %_3.1, ptr %_4.0, ptr %_4.1)
          to label %bb3 unwind label %cleanup1, !dbg !1194

bb3:                                              ; preds = %bb2
  ret void, !dbg !1195

bb5:                                              ; preds = %bb6
  br label %bb8, !dbg !1193

bb4:                                              ; preds = %bb7, %bb8
  %17 = load ptr, ptr %0, align 8, !dbg !1196, !noundef !16
  %18 = getelementptr inbounds i8, ptr %0, i64 8, !dbg !1196
  %19 = load i32, ptr %18, align 8, !dbg !1196, !noundef !16
  %20 = insertvalue { ptr, i32 } poison, ptr %17, 0, !dbg !1196
  %21 = insertvalue { ptr, i32 } %20, i32 %19, 1, !dbg !1196
  resume { ptr, i32 } %21, !dbg !1196

bb7:                                              ; preds = %bb8
  br label %bb4, !dbg !1190
}

; core::sync::atomic::AtomicUsize::compare_exchange
; Function Attrs: inlinehint uwtable
define internal { i64, i64 } @_ZN4core4sync6atomic11AtomicUsize16compare_exchange17h8c0117f3636e199fE(ptr align 8 %self, i64 %current, i64 %new, i8 %success, i8 %failure) unnamed_addr #0 !dbg !1197 {
start:
  %self.dbg.spill1 = alloca ptr, align 8
  %failure.dbg.spill = alloca i8, align 1
  %success.dbg.spill = alloca i8, align 1
  %new.dbg.spill = alloca i64, align 8
  %current.dbg.spill = alloca i64, align 8
  %self.dbg.spill = alloca ptr, align 8
  store ptr %self, ptr %self.dbg.spill, align 8
  call void @llvm.dbg.declare(metadata ptr %self.dbg.spill, metadata !1219, metadata !DIExpression()), !dbg !1224
  store i64 %current, ptr %current.dbg.spill, align 8
  call void @llvm.dbg.declare(metadata ptr %current.dbg.spill, metadata !1220, metadata !DIExpression()), !dbg !1225
  store i64 %new, ptr %new.dbg.spill, align 8
  call void @llvm.dbg.declare(metadata ptr %new.dbg.spill, metadata !1221, metadata !DIExpression()), !dbg !1226
  store i8 %success, ptr %success.dbg.spill, align 1
  call void @llvm.dbg.declare(metadata ptr %success.dbg.spill, metadata !1222, metadata !DIExpression()), !dbg !1227
  store i8 %failure, ptr %failure.dbg.spill, align 1
  call void @llvm.dbg.declare(metadata ptr %failure.dbg.spill, metadata !1223, metadata !DIExpression()), !dbg !1228
  store ptr %self, ptr %self.dbg.spill1, align 8, !dbg !1229
  call void @llvm.dbg.declare(metadata ptr %self.dbg.spill1, metadata !1230, metadata !DIExpression()), !dbg !1240
; call core::sync::atomic::atomic_compare_exchange
  %0 = call { i64, i64 } @_ZN4core4sync6atomic23atomic_compare_exchange17h09424a71c9d0b9edE(ptr %self, i64 %current, i64 %new, i8 %success, i8 %failure), !dbg !1242
  %_0.0 = extractvalue { i64, i64 } %0, 0, !dbg !1242
  %_0.1 = extractvalue { i64, i64 } %0, 1, !dbg !1242
  %1 = insertvalue { i64, i64 } poison, i64 %_0.0, 0, !dbg !1243
  %2 = insertvalue { i64, i64 } %1, i64 %_0.1, 1, !dbg !1243
  ret { i64, i64 } %2, !dbg !1243
}

; core::sync::atomic::AtomicUsize::load
; Function Attrs: inlinehint uwtable
define internal i64 @_ZN4core4sync6atomic11AtomicUsize4load17hb00e7f0c118ee937E(ptr align 8 %self, i8 %order) unnamed_addr #0 !dbg !1244 {
start:
  %self.dbg.spill1 = alloca ptr, align 8
  %order.dbg.spill = alloca i8, align 1
  %self.dbg.spill = alloca ptr, align 8
  store ptr %self, ptr %self.dbg.spill, align 8
  call void @llvm.dbg.declare(metadata ptr %self.dbg.spill, metadata !1249, metadata !DIExpression()), !dbg !1251
  store i8 %order, ptr %order.dbg.spill, align 1
  call void @llvm.dbg.declare(metadata ptr %order.dbg.spill, metadata !1250, metadata !DIExpression()), !dbg !1252
  store ptr %self, ptr %self.dbg.spill1, align 8, !dbg !1253
  call void @llvm.dbg.declare(metadata ptr %self.dbg.spill1, metadata !1254, metadata !DIExpression()), !dbg !1258
; call core::sync::atomic::atomic_load
  %_0 = call i64 @_ZN4core4sync6atomic11atomic_load17h773fe7a8870f1bdbE(ptr %self, i8 %order), !dbg !1260
  ret i64 %_0, !dbg !1261
}

; core::sync::atomic::AtomicUsize::store
; Function Attrs: inlinehint uwtable
define internal void @_ZN4core4sync6atomic11AtomicUsize5store17h3888cccb291204aaE(ptr align 8 %self, i64 %val, i8 %order) unnamed_addr #0 !dbg !1262 {
start:
  %self.dbg.spill1 = alloca ptr, align 8
  %order.dbg.spill = alloca i8, align 1
  %val.dbg.spill = alloca i64, align 8
  %self.dbg.spill = alloca ptr, align 8
  store ptr %self, ptr %self.dbg.spill, align 8
  call void @llvm.dbg.declare(metadata ptr %self.dbg.spill, metadata !1267, metadata !DIExpression()), !dbg !1270
  store i64 %val, ptr %val.dbg.spill, align 8
  call void @llvm.dbg.declare(metadata ptr %val.dbg.spill, metadata !1268, metadata !DIExpression()), !dbg !1271
  store i8 %order, ptr %order.dbg.spill, align 1
  call void @llvm.dbg.declare(metadata ptr %order.dbg.spill, metadata !1269, metadata !DIExpression()), !dbg !1272
  store ptr %self, ptr %self.dbg.spill1, align 8, !dbg !1273
  call void @llvm.dbg.declare(metadata ptr %self.dbg.spill1, metadata !1274, metadata !DIExpression()), !dbg !1278
; call core::sync::atomic::atomic_store
  call void @_ZN4core4sync6atomic12atomic_store17hcbc426f1db4cdc18E(ptr %self, i64 %val, i8 %order), !dbg !1280
  ret void, !dbg !1281
}

; core::sync::atomic::atomic_load
; Function Attrs: inlinehint uwtable
define i64 @_ZN4core4sync6atomic11atomic_load17h773fe7a8870f1bdbE(ptr %dst, i8 %0) unnamed_addr #0 !dbg !1282 {
start:
  %pieces.dbg.spill1 = alloca { ptr, i64 }, align 8
  %pieces.dbg.spill = alloca { ptr, i64 }, align 8
  %dst.dbg.spill = alloca ptr, align 8
  %_8 = alloca %"core::fmt::Arguments<'_>", align 8
  %_5 = alloca %"core::fmt::Arguments<'_>", align 8
  %_0 = alloca i64, align 8
  %order = alloca i8, align 1
  store i8 %0, ptr %order, align 1
  store ptr %dst, ptr %dst.dbg.spill, align 8
  call void @llvm.dbg.declare(metadata ptr %dst.dbg.spill, metadata !1287, metadata !DIExpression()), !dbg !1289
  call void @llvm.dbg.declare(metadata ptr %order, metadata !1288, metadata !DIExpression()), !dbg !1290
  %1 = load i8, ptr %order, align 1, !dbg !1291, !range !1292, !noundef !16
  %_3 = zext i8 %1 to i64, !dbg !1291
  switch i64 %_3, label %bb1 [
    i64 0, label %bb3
    i64 1, label %bb6
    i64 2, label %bb4
    i64 3, label %bb2
    i64 4, label %bb5
  ], !dbg !1293

bb1:                                              ; preds = %start
  unreachable, !dbg !1291

bb3:                                              ; preds = %start
  %2 = load atomic i64, ptr %dst monotonic, align 8, !dbg !1294
  store i64 %2, ptr %_0, align 8, !dbg !1294
  br label %bb7, !dbg !1294

bb6:                                              ; preds = %start
  store ptr @alloc_cf8f91dd8bc9347b20052f6ccc905cd7, ptr %pieces.dbg.spill, align 8, !dbg !1295
  %3 = getelementptr inbounds i8, ptr %pieces.dbg.spill, i64 8, !dbg !1295
  store i64 1, ptr %3, align 8, !dbg !1295
  call void @llvm.dbg.declare(metadata ptr %pieces.dbg.spill, metadata !1296, metadata !DIExpression()), !dbg !1302
  store ptr @alloc_cf8f91dd8bc9347b20052f6ccc905cd7, ptr %_5, align 8, !dbg !1305
  %4 = getelementptr inbounds i8, ptr %_5, i64 8, !dbg !1305
  store i64 1, ptr %4, align 8, !dbg !1305
  %5 = load ptr, ptr @0, align 8, !dbg !1305, !align !491, !noundef !16
  %6 = load i64, ptr getelementptr inbounds (i8, ptr @0, i64 8), align 8, !dbg !1305
  %7 = getelementptr inbounds i8, ptr %_5, i64 32, !dbg !1305
  store ptr %5, ptr %7, align 8, !dbg !1305
  %8 = getelementptr inbounds i8, ptr %7, i64 8, !dbg !1305
  store i64 %6, ptr %8, align 8, !dbg !1305
  %9 = getelementptr inbounds i8, ptr %_5, i64 16, !dbg !1305
  store ptr @alloc_513570631223a12912d85da2bec3b15a, ptr %9, align 8, !dbg !1305
  %10 = getelementptr inbounds i8, ptr %9, i64 8, !dbg !1305
  store i64 0, ptr %10, align 8, !dbg !1305
; call core::panicking::panic_fmt
  call void @_ZN4core9panicking9panic_fmt17ha6d62ade15192290E(ptr align 8 %_5, ptr align 8 @alloc_8c9cdb58c2f0a4545f7cc326c35c8372) #10, !dbg !1306
  unreachable, !dbg !1306

bb4:                                              ; preds = %start
  %11 = load atomic i64, ptr %dst acquire, align 8, !dbg !1307
  store i64 %11, ptr %_0, align 8, !dbg !1307
  br label %bb7, !dbg !1307

bb2:                                              ; preds = %start
  store ptr @alloc_7e8e9a1d4bc7d0bbec692f0a50681e22, ptr %pieces.dbg.spill1, align 8, !dbg !1308
  %12 = getelementptr inbounds i8, ptr %pieces.dbg.spill1, i64 8, !dbg !1308
  store i64 1, ptr %12, align 8, !dbg !1308
  call void @llvm.dbg.declare(metadata ptr %pieces.dbg.spill1, metadata !1300, metadata !DIExpression()), !dbg !1309
  store ptr @alloc_7e8e9a1d4bc7d0bbec692f0a50681e22, ptr %_8, align 8, !dbg !1310
  %13 = getelementptr inbounds i8, ptr %_8, i64 8, !dbg !1310
  store i64 1, ptr %13, align 8, !dbg !1310
  %14 = load ptr, ptr @0, align 8, !dbg !1310, !align !491, !noundef !16
  %15 = load i64, ptr getelementptr inbounds (i8, ptr @0, i64 8), align 8, !dbg !1310
  %16 = getelementptr inbounds i8, ptr %_8, i64 32, !dbg !1310
  store ptr %14, ptr %16, align 8, !dbg !1310
  %17 = getelementptr inbounds i8, ptr %16, i64 8, !dbg !1310
  store i64 %15, ptr %17, align 8, !dbg !1310
  %18 = getelementptr inbounds i8, ptr %_8, i64 16, !dbg !1310
  store ptr @alloc_513570631223a12912d85da2bec3b15a, ptr %18, align 8, !dbg !1310
  %19 = getelementptr inbounds i8, ptr %18, i64 8, !dbg !1310
  store i64 0, ptr %19, align 8, !dbg !1310
; call core::panicking::panic_fmt
  call void @_ZN4core9panicking9panic_fmt17ha6d62ade15192290E(ptr align 8 %_8, ptr align 8 @alloc_79a5c80227634b987971a232b8e75faa) #10, !dbg !1311
  unreachable, !dbg !1311

bb5:                                              ; preds = %start
  %20 = load atomic i64, ptr %dst seq_cst, align 8, !dbg !1312
  store i64 %20, ptr %_0, align 8, !dbg !1312
  br label %bb7, !dbg !1312

bb7:                                              ; preds = %bb5, %bb4, %bb3
  %21 = load i64, ptr %_0, align 8, !dbg !1313, !noundef !16
  ret i64 %21, !dbg !1313
}

; core::sync::atomic::atomic_store
; Function Attrs: inlinehint uwtable
define void @_ZN4core4sync6atomic12atomic_store17hcbc426f1db4cdc18E(ptr %dst, i64 %val, i8 %0) unnamed_addr #0 !dbg !1314 {
start:
  %pieces.dbg.spill1 = alloca { ptr, i64 }, align 8
  %pieces.dbg.spill = alloca { ptr, i64 }, align 8
  %val.dbg.spill = alloca i64, align 8
  %dst.dbg.spill = alloca ptr, align 8
  %_9 = alloca %"core::fmt::Arguments<'_>", align 8
  %_6 = alloca %"core::fmt::Arguments<'_>", align 8
  %order = alloca i8, align 1
  store i8 %0, ptr %order, align 1
  store ptr %dst, ptr %dst.dbg.spill, align 8
  call void @llvm.dbg.declare(metadata ptr %dst.dbg.spill, metadata !1318, metadata !DIExpression()), !dbg !1321
  store i64 %val, ptr %val.dbg.spill, align 8
  call void @llvm.dbg.declare(metadata ptr %val.dbg.spill, metadata !1319, metadata !DIExpression()), !dbg !1322
  call void @llvm.dbg.declare(metadata ptr %order, metadata !1320, metadata !DIExpression()), !dbg !1323
  %1 = load i8, ptr %order, align 1, !dbg !1324, !range !1292, !noundef !16
  %_4 = zext i8 %1 to i64, !dbg !1324
  switch i64 %_4, label %bb1 [
    i64 0, label %bb3
    i64 1, label %bb4
    i64 2, label %bb6
    i64 3, label %bb2
    i64 4, label %bb5
  ], !dbg !1325

bb1:                                              ; preds = %start
  unreachable, !dbg !1324

bb3:                                              ; preds = %start
  store atomic i64 %val, ptr %dst monotonic, align 8, !dbg !1326
  br label %bb7, !dbg !1326

bb4:                                              ; preds = %start
  store atomic i64 %val, ptr %dst release, align 8, !dbg !1327
  br label %bb7, !dbg !1327

bb6:                                              ; preds = %start
  store ptr @alloc_47c752ba42fbab56d43a37cfd56e4899, ptr %pieces.dbg.spill, align 8, !dbg !1328
  %2 = getelementptr inbounds i8, ptr %pieces.dbg.spill, i64 8, !dbg !1328
  store i64 1, ptr %2, align 8, !dbg !1328
  call void @llvm.dbg.declare(metadata ptr %pieces.dbg.spill, metadata !1329, metadata !DIExpression()), !dbg !1335
  store ptr @alloc_47c752ba42fbab56d43a37cfd56e4899, ptr %_6, align 8, !dbg !1338
  %3 = getelementptr inbounds i8, ptr %_6, i64 8, !dbg !1338
  store i64 1, ptr %3, align 8, !dbg !1338
  %4 = load ptr, ptr @0, align 8, !dbg !1338, !align !491, !noundef !16
  %5 = load i64, ptr getelementptr inbounds (i8, ptr @0, i64 8), align 8, !dbg !1338
  %6 = getelementptr inbounds i8, ptr %_6, i64 32, !dbg !1338
  store ptr %4, ptr %6, align 8, !dbg !1338
  %7 = getelementptr inbounds i8, ptr %6, i64 8, !dbg !1338
  store i64 %5, ptr %7, align 8, !dbg !1338
  %8 = getelementptr inbounds i8, ptr %_6, i64 16, !dbg !1338
  store ptr @alloc_513570631223a12912d85da2bec3b15a, ptr %8, align 8, !dbg !1338
  %9 = getelementptr inbounds i8, ptr %8, i64 8, !dbg !1338
  store i64 0, ptr %9, align 8, !dbg !1338
; call core::panicking::panic_fmt
  call void @_ZN4core9panicking9panic_fmt17ha6d62ade15192290E(ptr align 8 %_6, ptr align 8 @alloc_b157ad0004577c6c88dd62899145e37d) #10, !dbg !1339
  unreachable, !dbg !1339

bb2:                                              ; preds = %start
  store ptr @alloc_f8dbac861f87e25e445761cc4af66745, ptr %pieces.dbg.spill1, align 8, !dbg !1340
  %10 = getelementptr inbounds i8, ptr %pieces.dbg.spill1, i64 8, !dbg !1340
  store i64 1, ptr %10, align 8, !dbg !1340
  call void @llvm.dbg.declare(metadata ptr %pieces.dbg.spill1, metadata !1333, metadata !DIExpression()), !dbg !1341
  store ptr @alloc_f8dbac861f87e25e445761cc4af66745, ptr %_9, align 8, !dbg !1342
  %11 = getelementptr inbounds i8, ptr %_9, i64 8, !dbg !1342
  store i64 1, ptr %11, align 8, !dbg !1342
  %12 = load ptr, ptr @0, align 8, !dbg !1342, !align !491, !noundef !16
  %13 = load i64, ptr getelementptr inbounds (i8, ptr @0, i64 8), align 8, !dbg !1342
  %14 = getelementptr inbounds i8, ptr %_9, i64 32, !dbg !1342
  store ptr %12, ptr %14, align 8, !dbg !1342
  %15 = getelementptr inbounds i8, ptr %14, i64 8, !dbg !1342
  store i64 %13, ptr %15, align 8, !dbg !1342
  %16 = getelementptr inbounds i8, ptr %_9, i64 16, !dbg !1342
  store ptr @alloc_513570631223a12912d85da2bec3b15a, ptr %16, align 8, !dbg !1342
  %17 = getelementptr inbounds i8, ptr %16, i64 8, !dbg !1342
  store i64 0, ptr %17, align 8, !dbg !1342
; call core::panicking::panic_fmt
  call void @_ZN4core9panicking9panic_fmt17ha6d62ade15192290E(ptr align 8 %_9, ptr align 8 @alloc_59475c7fc9ca991233bda64f955b86c3) #10, !dbg !1343
  unreachable, !dbg !1343

bb5:                                              ; preds = %start
  store atomic i64 %val, ptr %dst seq_cst, align 8, !dbg !1344
  br label %bb7, !dbg !1344

bb7:                                              ; preds = %bb5, %bb4, %bb3
  ret void, !dbg !1345
}

; core::sync::atomic::spin_loop_hint
; Function Attrs: inlinehint uwtable
define internal void @_ZN4core4sync6atomic14spin_loop_hint17hf0e656ba847060fdE() unnamed_addr #0 personality ptr @rust_eh_personality !dbg !1346 {
start:
  %self.dbg.spill.i.i = alloca ptr, align 8
  %arg.i = alloca %"core::core_arch::arm_shared::barrier::common::SY", align 1
  call void @llvm.dbg.declare(metadata ptr %arg.i, metadata !1349, metadata !DIExpression()), !dbg !1362
  store ptr %arg.i, ptr %self.dbg.spill.i.i, align 8
  call void @llvm.dbg.declare(metadata ptr %self.dbg.spill.i.i, metadata !1367, metadata !DIExpression()), !dbg !1375
  call void @llvm.aarch64.isb(i32 15) #11, !dbg !1377
  ret void, !dbg !1378
}

; core::sync::atomic::atomic_compare_exchange
; Function Attrs: inlinehint uwtable
define { i64, i64 } @_ZN4core4sync6atomic23atomic_compare_exchange17h09424a71c9d0b9edE(ptr %dst, i64 %old, i64 %new, i8 %0, i8 %1) unnamed_addr #0 !dbg !1379 {
start:
  %pieces.dbg.spill1 = alloca { ptr, i64 }, align 8
  %pieces.dbg.spill = alloca { ptr, i64 }, align 8
  %ok.dbg.spill = alloca i8, align 1
  %val.dbg.spill = alloca i64, align 8
  %new.dbg.spill = alloca i64, align 8
  %old.dbg.spill = alloca i64, align 8
  %dst.dbg.spill = alloca ptr, align 8
  %_20 = alloca %"core::fmt::Arguments<'_>", align 8
  %_17 = alloca %"core::fmt::Arguments<'_>", align 8
  %_8 = alloca { i64, i8, [7 x i8] }, align 8
  %_0 = alloca %"core::result::Result<usize, usize>", align 8
  %failure = alloca i8, align 1
  %success = alloca i8, align 1
  store i8 %0, ptr %success, align 1
  store i8 %1, ptr %failure, align 1
  store ptr %dst, ptr %dst.dbg.spill, align 8
  call void @llvm.dbg.declare(metadata ptr %dst.dbg.spill, metadata !1383, metadata !DIExpression()), !dbg !1391
  store i64 %old, ptr %old.dbg.spill, align 8
  call void @llvm.dbg.declare(metadata ptr %old.dbg.spill, metadata !1384, metadata !DIExpression()), !dbg !1392
  store i64 %new, ptr %new.dbg.spill, align 8
  call void @llvm.dbg.declare(metadata ptr %new.dbg.spill, metadata !1385, metadata !DIExpression()), !dbg !1393
  call void @llvm.dbg.declare(metadata ptr %success, metadata !1386, metadata !DIExpression()), !dbg !1394
  call void @llvm.dbg.declare(metadata ptr %failure, metadata !1387, metadata !DIExpression()), !dbg !1395
  %2 = load i8, ptr %success, align 1, !dbg !1396, !range !1292, !noundef !16
  %_15 = zext i8 %2 to i64, !dbg !1396
  switch i64 %_15, label %bb1 [
    i64 0, label %bb4
    i64 1, label %bb5
    i64 2, label %bb6
    i64 3, label %bb7
    i64 4, label %bb8
  ], !dbg !1397

bb1:                                              ; preds = %start
  unreachable, !dbg !1396

bb4:                                              ; preds = %start
  %3 = load i8, ptr %failure, align 1, !dbg !1396, !range !1292, !noundef !16
  %_10 = zext i8 %3 to i64, !dbg !1396
  switch i64 %_10, label %bb2 [
    i64 0, label %bb9
    i64 2, label %bb10
    i64 4, label %bb11
  ], !dbg !1397

bb5:                                              ; preds = %start
  %4 = load i8, ptr %failure, align 1, !dbg !1396, !range !1292, !noundef !16
  %_11 = zext i8 %4 to i64, !dbg !1396
  switch i64 %_11, label %bb2 [
    i64 0, label %bb15
    i64 2, label %bb16
    i64 4, label %bb17
  ], !dbg !1397

bb6:                                              ; preds = %start
  %5 = load i8, ptr %failure, align 1, !dbg !1396, !range !1292, !noundef !16
  %_12 = zext i8 %5 to i64, !dbg !1396
  switch i64 %_12, label %bb2 [
    i64 0, label %bb12
    i64 2, label %bb13
    i64 4, label %bb14
  ], !dbg !1397

bb7:                                              ; preds = %start
  %6 = load i8, ptr %failure, align 1, !dbg !1396, !range !1292, !noundef !16
  %_13 = zext i8 %6 to i64, !dbg !1396
  switch i64 %_13, label %bb2 [
    i64 0, label %bb18
    i64 2, label %bb19
    i64 4, label %bb20
  ], !dbg !1397

bb8:                                              ; preds = %start
  %7 = load i8, ptr %failure, align 1, !dbg !1396, !range !1292, !noundef !16
  %_14 = zext i8 %7 to i64, !dbg !1396
  switch i64 %_14, label %bb2 [
    i64 0, label %bb21
    i64 2, label %bb22
    i64 4, label %bb23
  ], !dbg !1397

bb2:                                              ; preds = %bb8, %bb7, %bb6, %bb5, %bb4
  %8 = load i8, ptr %failure, align 1, !dbg !1396, !range !1292, !noundef !16
  %_9 = zext i8 %8 to i64, !dbg !1396
  %9 = icmp eq i64 %_9, 1, !dbg !1397
  br i1 %9, label %bb3, label %bb24, !dbg !1397

bb9:                                              ; preds = %bb4
  %10 = cmpxchg ptr %dst, i64 %old, i64 %new monotonic monotonic, align 8, !dbg !1398
  %11 = extractvalue { i64, i1 } %10, 0, !dbg !1398
  %12 = extractvalue { i64, i1 } %10, 1, !dbg !1398
  %13 = zext i1 %12 to i8, !dbg !1398
  store i64 %11, ptr %_8, align 8, !dbg !1398
  %14 = getelementptr inbounds i8, ptr %_8, i64 8, !dbg !1398
  store i8 %13, ptr %14, align 8, !dbg !1398
  br label %bb25, !dbg !1398

bb10:                                             ; preds = %bb4
  %15 = cmpxchg ptr %dst, i64 %old, i64 %new monotonic acquire, align 8, !dbg !1399
  %16 = extractvalue { i64, i1 } %15, 0, !dbg !1399
  %17 = extractvalue { i64, i1 } %15, 1, !dbg !1399
  %18 = zext i1 %17 to i8, !dbg !1399
  store i64 %16, ptr %_8, align 8, !dbg !1399
  %19 = getelementptr inbounds i8, ptr %_8, i64 8, !dbg !1399
  store i8 %18, ptr %19, align 8, !dbg !1399
  br label %bb25, !dbg !1399

bb11:                                             ; preds = %bb4
  %20 = cmpxchg ptr %dst, i64 %old, i64 %new monotonic seq_cst, align 8, !dbg !1400
  %21 = extractvalue { i64, i1 } %20, 0, !dbg !1400
  %22 = extractvalue { i64, i1 } %20, 1, !dbg !1400
  %23 = zext i1 %22 to i8, !dbg !1400
  store i64 %21, ptr %_8, align 8, !dbg !1400
  %24 = getelementptr inbounds i8, ptr %_8, i64 8, !dbg !1400
  store i8 %23, ptr %24, align 8, !dbg !1400
  br label %bb25, !dbg !1400

bb25:                                             ; preds = %bb23, %bb22, %bb21, %bb20, %bb19, %bb18, %bb14, %bb13, %bb12, %bb17, %bb16, %bb15, %bb11, %bb10, %bb9
  %val = load i64, ptr %_8, align 8, !dbg !1401, !noundef !16
  store i64 %val, ptr %val.dbg.spill, align 8, !dbg !1401
  call void @llvm.dbg.declare(metadata ptr %val.dbg.spill, metadata !1388, metadata !DIExpression()), !dbg !1402
  %25 = getelementptr inbounds i8, ptr %_8, i64 8, !dbg !1403
  %26 = load i8, ptr %25, align 8, !dbg !1403, !range !352, !noundef !16
  %ok = trunc i8 %26 to i1, !dbg !1403
  %27 = zext i1 %ok to i8, !dbg !1403
  store i8 %27, ptr %ok.dbg.spill, align 1, !dbg !1403
  call void @llvm.dbg.declare(metadata ptr %ok.dbg.spill, metadata !1390, metadata !DIExpression()), !dbg !1404
  br i1 %ok, label %bb26, label %bb27, !dbg !1405

bb15:                                             ; preds = %bb5
  %28 = cmpxchg ptr %dst, i64 %old, i64 %new release monotonic, align 8, !dbg !1406
  %29 = extractvalue { i64, i1 } %28, 0, !dbg !1406
  %30 = extractvalue { i64, i1 } %28, 1, !dbg !1406
  %31 = zext i1 %30 to i8, !dbg !1406
  store i64 %29, ptr %_8, align 8, !dbg !1406
  %32 = getelementptr inbounds i8, ptr %_8, i64 8, !dbg !1406
  store i8 %31, ptr %32, align 8, !dbg !1406
  br label %bb25, !dbg !1406

bb16:                                             ; preds = %bb5
  %33 = cmpxchg ptr %dst, i64 %old, i64 %new release acquire, align 8, !dbg !1407
  %34 = extractvalue { i64, i1 } %33, 0, !dbg !1407
  %35 = extractvalue { i64, i1 } %33, 1, !dbg !1407
  %36 = zext i1 %35 to i8, !dbg !1407
  store i64 %34, ptr %_8, align 8, !dbg !1407
  %37 = getelementptr inbounds i8, ptr %_8, i64 8, !dbg !1407
  store i8 %36, ptr %37, align 8, !dbg !1407
  br label %bb25, !dbg !1407

bb17:                                             ; preds = %bb5
  %38 = cmpxchg ptr %dst, i64 %old, i64 %new release seq_cst, align 8, !dbg !1408
  %39 = extractvalue { i64, i1 } %38, 0, !dbg !1408
  %40 = extractvalue { i64, i1 } %38, 1, !dbg !1408
  %41 = zext i1 %40 to i8, !dbg !1408
  store i64 %39, ptr %_8, align 8, !dbg !1408
  %42 = getelementptr inbounds i8, ptr %_8, i64 8, !dbg !1408
  store i8 %41, ptr %42, align 8, !dbg !1408
  br label %bb25, !dbg !1408

bb12:                                             ; preds = %bb6
  %43 = cmpxchg ptr %dst, i64 %old, i64 %new acquire monotonic, align 8, !dbg !1409
  %44 = extractvalue { i64, i1 } %43, 0, !dbg !1409
  %45 = extractvalue { i64, i1 } %43, 1, !dbg !1409
  %46 = zext i1 %45 to i8, !dbg !1409
  store i64 %44, ptr %_8, align 8, !dbg !1409
  %47 = getelementptr inbounds i8, ptr %_8, i64 8, !dbg !1409
  store i8 %46, ptr %47, align 8, !dbg !1409
  br label %bb25, !dbg !1409

bb13:                                             ; preds = %bb6
  %48 = cmpxchg ptr %dst, i64 %old, i64 %new acquire acquire, align 8, !dbg !1410
  %49 = extractvalue { i64, i1 } %48, 0, !dbg !1410
  %50 = extractvalue { i64, i1 } %48, 1, !dbg !1410
  %51 = zext i1 %50 to i8, !dbg !1410
  store i64 %49, ptr %_8, align 8, !dbg !1410
  %52 = getelementptr inbounds i8, ptr %_8, i64 8, !dbg !1410
  store i8 %51, ptr %52, align 8, !dbg !1410
  br label %bb25, !dbg !1410

bb14:                                             ; preds = %bb6
  %53 = cmpxchg ptr %dst, i64 %old, i64 %new acquire seq_cst, align 8, !dbg !1411
  %54 = extractvalue { i64, i1 } %53, 0, !dbg !1411
  %55 = extractvalue { i64, i1 } %53, 1, !dbg !1411
  %56 = zext i1 %55 to i8, !dbg !1411
  store i64 %54, ptr %_8, align 8, !dbg !1411
  %57 = getelementptr inbounds i8, ptr %_8, i64 8, !dbg !1411
  store i8 %56, ptr %57, align 8, !dbg !1411
  br label %bb25, !dbg !1411

bb18:                                             ; preds = %bb7
  %58 = cmpxchg ptr %dst, i64 %old, i64 %new acq_rel monotonic, align 8, !dbg !1412
  %59 = extractvalue { i64, i1 } %58, 0, !dbg !1412
  %60 = extractvalue { i64, i1 } %58, 1, !dbg !1412
  %61 = zext i1 %60 to i8, !dbg !1412
  store i64 %59, ptr %_8, align 8, !dbg !1412
  %62 = getelementptr inbounds i8, ptr %_8, i64 8, !dbg !1412
  store i8 %61, ptr %62, align 8, !dbg !1412
  br label %bb25, !dbg !1412

bb19:                                             ; preds = %bb7
  %63 = cmpxchg ptr %dst, i64 %old, i64 %new acq_rel acquire, align 8, !dbg !1413
  %64 = extractvalue { i64, i1 } %63, 0, !dbg !1413
  %65 = extractvalue { i64, i1 } %63, 1, !dbg !1413
  %66 = zext i1 %65 to i8, !dbg !1413
  store i64 %64, ptr %_8, align 8, !dbg !1413
  %67 = getelementptr inbounds i8, ptr %_8, i64 8, !dbg !1413
  store i8 %66, ptr %67, align 8, !dbg !1413
  br label %bb25, !dbg !1413

bb20:                                             ; preds = %bb7
  %68 = cmpxchg ptr %dst, i64 %old, i64 %new acq_rel seq_cst, align 8, !dbg !1414
  %69 = extractvalue { i64, i1 } %68, 0, !dbg !1414
  %70 = extractvalue { i64, i1 } %68, 1, !dbg !1414
  %71 = zext i1 %70 to i8, !dbg !1414
  store i64 %69, ptr %_8, align 8, !dbg !1414
  %72 = getelementptr inbounds i8, ptr %_8, i64 8, !dbg !1414
  store i8 %71, ptr %72, align 8, !dbg !1414
  br label %bb25, !dbg !1414

bb21:                                             ; preds = %bb8
  %73 = cmpxchg ptr %dst, i64 %old, i64 %new seq_cst monotonic, align 8, !dbg !1415
  %74 = extractvalue { i64, i1 } %73, 0, !dbg !1415
  %75 = extractvalue { i64, i1 } %73, 1, !dbg !1415
  %76 = zext i1 %75 to i8, !dbg !1415
  store i64 %74, ptr %_8, align 8, !dbg !1415
  %77 = getelementptr inbounds i8, ptr %_8, i64 8, !dbg !1415
  store i8 %76, ptr %77, align 8, !dbg !1415
  br label %bb25, !dbg !1415

bb22:                                             ; preds = %bb8
  %78 = cmpxchg ptr %dst, i64 %old, i64 %new seq_cst acquire, align 8, !dbg !1416
  %79 = extractvalue { i64, i1 } %78, 0, !dbg !1416
  %80 = extractvalue { i64, i1 } %78, 1, !dbg !1416
  %81 = zext i1 %80 to i8, !dbg !1416
  store i64 %79, ptr %_8, align 8, !dbg !1416
  %82 = getelementptr inbounds i8, ptr %_8, i64 8, !dbg !1416
  store i8 %81, ptr %82, align 8, !dbg !1416
  br label %bb25, !dbg !1416

bb23:                                             ; preds = %bb8
  %83 = cmpxchg ptr %dst, i64 %old, i64 %new seq_cst seq_cst, align 8, !dbg !1417
  %84 = extractvalue { i64, i1 } %83, 0, !dbg !1417
  %85 = extractvalue { i64, i1 } %83, 1, !dbg !1417
  %86 = zext i1 %85 to i8, !dbg !1417
  store i64 %84, ptr %_8, align 8, !dbg !1417
  %87 = getelementptr inbounds i8, ptr %_8, i64 8, !dbg !1417
  store i8 %86, ptr %87, align 8, !dbg !1417
  br label %bb25, !dbg !1417

bb27:                                             ; preds = %bb25
  %88 = getelementptr inbounds i8, ptr %_0, i64 8, !dbg !1418
  store i64 %val, ptr %88, align 8, !dbg !1418
  store i64 1, ptr %_0, align 8, !dbg !1418
  br label %bb28, !dbg !1419

bb26:                                             ; preds = %bb25
  %89 = getelementptr inbounds i8, ptr %_0, i64 8, !dbg !1420
  store i64 %val, ptr %89, align 8, !dbg !1420
  store i64 0, ptr %_0, align 8, !dbg !1420
  br label %bb28, !dbg !1419

bb28:                                             ; preds = %bb26, %bb27
  %90 = load i64, ptr %_0, align 8, !dbg !1421, !range !192, !noundef !16
  %91 = getelementptr inbounds i8, ptr %_0, i64 8, !dbg !1421
  %92 = load i64, ptr %91, align 8, !dbg !1421, !noundef !16
  %93 = insertvalue { i64, i64 } poison, i64 %90, 0, !dbg !1421
  %94 = insertvalue { i64, i64 } %93, i64 %92, 1, !dbg !1421
  ret { i64, i64 } %94, !dbg !1421

bb3:                                              ; preds = %bb2
  store ptr @alloc_04ab601c54c6e0a22ff11d72dc7f4511, ptr %pieces.dbg.spill, align 8, !dbg !1422
  %95 = getelementptr inbounds i8, ptr %pieces.dbg.spill, i64 8, !dbg !1422
  store i64 1, ptr %95, align 8, !dbg !1422
  call void @llvm.dbg.declare(metadata ptr %pieces.dbg.spill, metadata !1423, metadata !DIExpression()), !dbg !1429
  store ptr @alloc_04ab601c54c6e0a22ff11d72dc7f4511, ptr %_20, align 8, !dbg !1432
  %96 = getelementptr inbounds i8, ptr %_20, i64 8, !dbg !1432
  store i64 1, ptr %96, align 8, !dbg !1432
  %97 = load ptr, ptr @0, align 8, !dbg !1432, !align !491, !noundef !16
  %98 = load i64, ptr getelementptr inbounds (i8, ptr @0, i64 8), align 8, !dbg !1432
  %99 = getelementptr inbounds i8, ptr %_20, i64 32, !dbg !1432
  store ptr %97, ptr %99, align 8, !dbg !1432
  %100 = getelementptr inbounds i8, ptr %99, i64 8, !dbg !1432
  store i64 %98, ptr %100, align 8, !dbg !1432
  %101 = getelementptr inbounds i8, ptr %_20, i64 16, !dbg !1432
  store ptr @alloc_513570631223a12912d85da2bec3b15a, ptr %101, align 8, !dbg !1432
  %102 = getelementptr inbounds i8, ptr %101, i64 8, !dbg !1432
  store i64 0, ptr %102, align 8, !dbg !1432
; call core::panicking::panic_fmt
  call void @_ZN4core9panicking9panic_fmt17ha6d62ade15192290E(ptr align 8 %_20, ptr align 8 @alloc_19270ecf540b1a1f8c2c2e2f9f23d498) #10, !dbg !1433
  unreachable, !dbg !1433

bb24:                                             ; preds = %bb2
  store ptr @alloc_dd7d8f77c173bf31726eae321f955bec, ptr %pieces.dbg.spill1, align 8, !dbg !1434
  %103 = getelementptr inbounds i8, ptr %pieces.dbg.spill1, i64 8, !dbg !1434
  store i64 1, ptr %103, align 8, !dbg !1434
  call void @llvm.dbg.declare(metadata ptr %pieces.dbg.spill1, metadata !1427, metadata !DIExpression()), !dbg !1435
  store ptr @alloc_dd7d8f77c173bf31726eae321f955bec, ptr %_17, align 8, !dbg !1436
  %104 = getelementptr inbounds i8, ptr %_17, i64 8, !dbg !1436
  store i64 1, ptr %104, align 8, !dbg !1436
  %105 = load ptr, ptr @0, align 8, !dbg !1436, !align !491, !noundef !16
  %106 = load i64, ptr getelementptr inbounds (i8, ptr @0, i64 8), align 8, !dbg !1436
  %107 = getelementptr inbounds i8, ptr %_17, i64 32, !dbg !1436
  store ptr %105, ptr %107, align 8, !dbg !1436
  %108 = getelementptr inbounds i8, ptr %107, i64 8, !dbg !1436
  store i64 %106, ptr %108, align 8, !dbg !1436
  %109 = getelementptr inbounds i8, ptr %_17, i64 16, !dbg !1436
  store ptr @alloc_513570631223a12912d85da2bec3b15a, ptr %109, align 8, !dbg !1436
  %110 = getelementptr inbounds i8, ptr %109, i64 8, !dbg !1436
  store i64 0, ptr %110, align 8, !dbg !1436
; call core::panicking::panic_fmt
  call void @_ZN4core9panicking9panic_fmt17ha6d62ade15192290E(ptr align 8 %_17, ptr align 8 @alloc_4d14c61bfb4767046945de79e7109737) #10, !dbg !1437
  unreachable, !dbg !1437
}

; core::slice::<impl [T]>::iter
; Function Attrs: inlinehint uwtable
define { ptr, ptr } @"_ZN4core5slice29_$LT$impl$u20$$u5b$T$u5d$$GT$4iter17h6c54ecd20462dd44E"(ptr align 8 %self.0, i64 %self.1) unnamed_addr #0 !dbg !1438 {
start:
  %self.dbg.spill1 = alloca ptr, align 8
  %len.dbg.spill = alloca i64, align 8
  %self.dbg.spill = alloca { ptr, i64 }, align 8
  %end_or_len = alloca ptr, align 8
  %self = alloca %"core::ptr::non_null::NonNull<[&str]>", align 8
  %ptr = alloca ptr, align 8
  %_0 = alloca %"core::slice::iter::Iter<'_, &str>", align 8
  store ptr %self.0, ptr %self.dbg.spill, align 8
  %0 = getelementptr inbounds i8, ptr %self.dbg.spill, i64 8
  store i64 %self.1, ptr %0, align 8
  call void @llvm.dbg.declare(metadata ptr %self.dbg.spill, metadata !1456, metadata !DIExpression()), !dbg !1457
  call void @llvm.dbg.declare(metadata ptr %self.dbg.spill, metadata !1458, metadata !DIExpression()), !dbg !1470
  call void @llvm.dbg.declare(metadata ptr %self.dbg.spill, metadata !1472, metadata !DIExpression()), !dbg !1487
  call void @llvm.dbg.declare(metadata ptr %ptr, metadata !1466, metadata !DIExpression()), !dbg !1489
  call void @llvm.dbg.declare(metadata ptr %ptr, metadata !1490, metadata !DIExpression()), !dbg !1498
  call void @llvm.dbg.declare(metadata ptr %self, metadata !1500, metadata !DIExpression()), !dbg !1509
  call void @llvm.dbg.declare(metadata ptr %self, metadata !1511, metadata !DIExpression()), !dbg !1522
  call void @llvm.dbg.declare(metadata ptr %end_or_len, metadata !1468, metadata !DIExpression()), !dbg !1524
  store i64 %self.1, ptr %len.dbg.spill, align 8, !dbg !1525
  call void @llvm.dbg.declare(metadata ptr %len.dbg.spill, metadata !1464, metadata !DIExpression()), !dbg !1526
  call void @llvm.dbg.declare(metadata ptr %len.dbg.spill, metadata !1527, metadata !DIExpression()), !dbg !1533
  call void @llvm.dbg.declare(metadata ptr %len.dbg.spill, metadata !1535, metadata !DIExpression()), !dbg !1545
  store ptr %self.0, ptr %self, align 8, !dbg !1547
  %1 = getelementptr inbounds i8, ptr %self, i64 8, !dbg !1547
  store i64 %self.1, ptr %1, align 8, !dbg !1547
  store ptr %self.0, ptr %ptr, align 8, !dbg !1548
  br label %bb2, !dbg !1549

bb2:                                              ; preds = %start
  store ptr %self.0, ptr %self.dbg.spill1, align 8, !dbg !1550
  call void @llvm.dbg.declare(metadata ptr %self.dbg.spill1, metadata !1544, metadata !DIExpression()), !dbg !1551
  %_7 = getelementptr inbounds { ptr, i64 }, ptr %self.0, i64 %self.1, !dbg !1552
  store ptr %_7, ptr %end_or_len, align 8, !dbg !1553
  br label %bb3, !dbg !1554

bb3:                                              ; preds = %bb1, %bb2
  %_9 = load ptr, ptr %end_or_len, align 8, !dbg !1555, !noundef !16
  %2 = load ptr, ptr %ptr, align 8, !dbg !1556, !nonnull !16, !noundef !16
  store ptr %2, ptr %_0, align 8, !dbg !1556
  %3 = getelementptr inbounds i8, ptr %_0, i64 8, !dbg !1556
  store ptr %_9, ptr %3, align 8, !dbg !1556
  %4 = load ptr, ptr %_0, align 8, !dbg !1557, !nonnull !16, !noundef !16
  %5 = getelementptr inbounds i8, ptr %_0, i64 8, !dbg !1557
  %6 = load ptr, ptr %5, align 8, !dbg !1557, !noundef !16
  %7 = insertvalue { ptr, ptr } poison, ptr %4, 0, !dbg !1557
  %8 = insertvalue { ptr, ptr } %7, ptr %6, 1, !dbg !1557
  ret { ptr, ptr } %8, !dbg !1557

bb1:                                              ; No predecessors!
  %9 = inttoptr i64 %self.1 to ptr, !dbg !1558
  store ptr %9, ptr %end_or_len, align 8, !dbg !1558
  br label %bb3, !dbg !1554
}

; core::slice::iter::<impl core::iter::traits::collect::IntoIterator for &[T]>::into_iter
; Function Attrs: uwtable
define { ptr, ptr } @"_ZN4core5slice4iter87_$LT$impl$u20$core..iter..traits..collect..IntoIterator$u20$for$u20$$RF$$u5b$T$u5d$$GT$9into_iter17h1d3a00f3631628f4E"(ptr align 1 %self.0, i64 %self.1) unnamed_addr #1 !dbg !1559 {
start:
  %self.dbg.spill1 = alloca ptr, align 8
  %len.dbg.spill = alloca i64, align 8
  %self.dbg.spill = alloca { ptr, i64 }, align 8
  %end_or_len = alloca ptr, align 8
  %self = alloca %"core::ptr::non_null::NonNull<[u8]>", align 8
  %ptr = alloca ptr, align 8
  %_0 = alloca %"core::slice::iter::Iter<'_, u8>", align 8
  store ptr %self.0, ptr %self.dbg.spill, align 8
  %0 = getelementptr inbounds i8, ptr %self.dbg.spill, i64 8
  store i64 %self.1, ptr %0, align 8
  call void @llvm.dbg.declare(metadata ptr %self.dbg.spill, metadata !1564, metadata !DIExpression()), !dbg !1565
  call void @llvm.dbg.declare(metadata ptr %self.dbg.spill, metadata !1566, metadata !DIExpression()), !dbg !1570
  call void @llvm.dbg.declare(metadata ptr %self.dbg.spill, metadata !1572, metadata !DIExpression()), !dbg !1583
  call void @llvm.dbg.declare(metadata ptr %self.dbg.spill, metadata !1585, metadata !DIExpression()), !dbg !1598
  call void @llvm.dbg.declare(metadata ptr %ptr, metadata !1579, metadata !DIExpression()), !dbg !1600
  call void @llvm.dbg.declare(metadata ptr %ptr, metadata !1601, metadata !DIExpression()), !dbg !1609
  call void @llvm.dbg.declare(metadata ptr %self, metadata !1611, metadata !DIExpression()), !dbg !1620
  call void @llvm.dbg.declare(metadata ptr %self, metadata !1622, metadata !DIExpression()), !dbg !1633
  call void @llvm.dbg.declare(metadata ptr %end_or_len, metadata !1581, metadata !DIExpression()), !dbg !1635
  store i64 %self.1, ptr %len.dbg.spill, align 8, !dbg !1636
  call void @llvm.dbg.declare(metadata ptr %len.dbg.spill, metadata !1577, metadata !DIExpression()), !dbg !1637
  call void @llvm.dbg.declare(metadata ptr %len.dbg.spill, metadata !1638, metadata !DIExpression()), !dbg !1644
  call void @llvm.dbg.declare(metadata ptr %len.dbg.spill, metadata !1646, metadata !DIExpression()), !dbg !1653
  store ptr %self.0, ptr %self, align 8, !dbg !1655
  %1 = getelementptr inbounds i8, ptr %self, i64 8, !dbg !1655
  store i64 %self.1, ptr %1, align 8, !dbg !1655
  store ptr %self.0, ptr %ptr, align 8, !dbg !1656
  br label %bb2, !dbg !1657

bb2:                                              ; preds = %start
  store ptr %self.0, ptr %self.dbg.spill1, align 8, !dbg !1658
  call void @llvm.dbg.declare(metadata ptr %self.dbg.spill1, metadata !1652, metadata !DIExpression()), !dbg !1659
  %_7 = getelementptr inbounds i8, ptr %self.0, i64 %self.1, !dbg !1660
  store ptr %_7, ptr %end_or_len, align 8, !dbg !1661
  br label %bb3, !dbg !1662

bb3:                                              ; preds = %bb1, %bb2
  %_9 = load ptr, ptr %end_or_len, align 8, !dbg !1663, !noundef !16
  %2 = load ptr, ptr %ptr, align 8, !dbg !1664, !nonnull !16, !noundef !16
  store ptr %2, ptr %_0, align 8, !dbg !1664
  %3 = getelementptr inbounds i8, ptr %_0, i64 8, !dbg !1664
  store ptr %_9, ptr %3, align 8, !dbg !1664
  %4 = load ptr, ptr %_0, align 8, !dbg !1665, !nonnull !16, !noundef !16
  %5 = getelementptr inbounds i8, ptr %_0, i64 8, !dbg !1665
  %6 = load ptr, ptr %5, align 8, !dbg !1665, !noundef !16
  %7 = insertvalue { ptr, ptr } poison, ptr %4, 0, !dbg !1665
  %8 = insertvalue { ptr, ptr } %7, ptr %6, 1, !dbg !1665
  ret { ptr, ptr } %8, !dbg !1665

bb1:                                              ; No predecessors!
  %9 = inttoptr i64 %self.1 to ptr, !dbg !1666
  store ptr %9, ptr %end_or_len, align 8, !dbg !1666
  br label %bb3, !dbg !1662
}

; core::slice::ascii::<impl [u8]>::eq_ignore_ascii_case
; Function Attrs: inlinehint uwtable
define internal zeroext i1 @"_ZN4core5slice5ascii30_$LT$impl$u20$$u5b$u8$u5d$$GT$20eq_ignore_ascii_case17h66752e285ed09062E"(ptr align 1 %self.0, i64 %self.1, ptr align 1 %other.0, i64 %other.1) unnamed_addr #0 !dbg !1667 {
start:
  %self.dbg.spill2 = alloca ptr, align 8
  %other.dbg.spill = alloca { ptr, i64 }, align 8
  %self.dbg.spill = alloca { ptr, i64 }, align 8
  %_9 = alloca i8, align 1
  %_7 = alloca %"core::iter::adapters::zip::Zip<core::slice::iter::Iter<'_, u8>, core::slice::iter::Iter<'_, u8>>", align 8
  %_0 = alloca i8, align 1
  %f.dbg.spill1 = alloca %"{closure@core::slice::ascii::<impl [u8]>::eq_ignore_ascii_case::{closure#0}}", align 1
  %f.dbg.spill = alloca %"{closure@core::slice::ascii::<impl [u8]>::eq_ignore_ascii_case::{closure#0}}", align 1
  call void @llvm.dbg.declare(metadata ptr %f.dbg.spill, metadata !1674, metadata !DIExpression()), !dbg !1683
  call void @llvm.dbg.declare(metadata ptr %f.dbg.spill1, metadata !1685, metadata !DIExpression()), !dbg !1691
  store ptr %self.0, ptr %self.dbg.spill, align 8, !dbg !1691
  %0 = getelementptr inbounds i8, ptr %self.dbg.spill, i64 8, !dbg !1691
  store i64 %self.1, ptr %0, align 8, !dbg !1691
  call void @llvm.dbg.declare(metadata ptr %self.dbg.spill, metadata !1672, metadata !DIExpression()), !dbg !1693
  store ptr %other.0, ptr %other.dbg.spill, align 8, !dbg !1691
  %1 = getelementptr inbounds i8, ptr %other.dbg.spill, i64 8, !dbg !1691
  store i64 %other.1, ptr %1, align 8, !dbg !1691
  call void @llvm.dbg.declare(metadata ptr %other.dbg.spill, metadata !1673, metadata !DIExpression()), !dbg !1694
  %_3 = icmp eq i64 %self.1, %other.1, !dbg !1695
  br i1 %_3, label %bb1, label %bb2, !dbg !1695

bb2:                                              ; preds = %start
  store i8 0, ptr %_0, align 1, !dbg !1695
  br label %bb4, !dbg !1695

bb1:                                              ; preds = %start
; call core::iter::adapters::zip::zip
  call void @_ZN4core4iter8adapters3zip3zip17ha0cebdf76e1cdb5eE(ptr sret(%"core::iter::adapters::zip::Zip<core::slice::iter::Iter<'_, u8>, core::slice::iter::Iter<'_, u8>>") align 8 %_7, ptr align 1 %self.0, i64 %self.1, ptr align 1 %other.0, i64 %other.1), !dbg !1696
  store ptr %_7, ptr %self.dbg.spill2, align 8, !dbg !1696
  call void @llvm.dbg.declare(metadata ptr %self.dbg.spill2, metadata !1680, metadata !DIExpression()), !dbg !1697
; call core::iter::traits::iterator::Iterator::try_fold
  %2 = call zeroext i1 @_ZN4core4iter6traits8iterator8Iterator8try_fold17h2e5002da4bf30c23E(ptr align 8 %_7), !dbg !1698
  %3 = zext i1 %2 to i8, !dbg !1698
  store i8 %3, ptr %_9, align 1, !dbg !1698
; call <core::ops::control_flow::ControlFlow<B,C> as core::cmp::PartialEq>::eq
  %4 = call zeroext i1 @"_ZN90_$LT$core..ops..control_flow..ControlFlow$LT$B$C$C$GT$$u20$as$u20$core..cmp..PartialEq$GT$2eq17h1371368cc0d41fdbE"(ptr align 1 %_9, ptr align 1 @alloc_914b2c69d7eca30497b9feaf15ac92f1), !dbg !1698
  %5 = zext i1 %4 to i8, !dbg !1698
  store i8 %5, ptr %_0, align 1, !dbg !1698
  br label %bb4, !dbg !1695

bb4:                                              ; preds = %bb1, %bb2
  %6 = load i8, ptr %_0, align 1, !dbg !1699, !range !352, !noundef !16
  %7 = trunc i8 %6 to i1, !dbg !1699
  ret i1 %7, !dbg !1699
}

; core::slice::ascii::<impl [u8]>::eq_ignore_ascii_case::{{closure}}
; Function Attrs: inlinehint uwtable
define zeroext i1 @"_ZN4core5slice5ascii30_$LT$impl$u20$$u5b$u8$u5d$$GT$20eq_ignore_ascii_case28_$u7b$$u7b$closure$u7d$$u7d$17h56efb19bb3a4b78dE"(ptr align 1 %_1, ptr align 1 %_2.0, ptr align 1 %_2.1) unnamed_addr #0 !dbg !1700 {
start:
  %b.dbg.spill = alloca ptr, align 8
  %a.dbg.spill = alloca ptr, align 8
  %_2.dbg.spill = alloca { ptr, ptr }, align 8
  %_1.dbg.spill = alloca ptr, align 8
  store ptr %_1, ptr %_1.dbg.spill, align 8
  call void @llvm.dbg.declare(metadata ptr %_1.dbg.spill, metadata !1708, metadata !DIExpression()), !dbg !1710
  store ptr %_2.0, ptr %_2.dbg.spill, align 8
  %0 = getelementptr inbounds i8, ptr %_2.dbg.spill, i64 8
  store ptr %_2.1, ptr %0, align 8
  call void @llvm.dbg.declare(metadata ptr %_2.dbg.spill, metadata !1709, metadata !DIExpression()), !dbg !1711
  store ptr %_2.0, ptr %a.dbg.spill, align 8, !dbg !1712
  call void @llvm.dbg.declare(metadata ptr %a.dbg.spill, metadata !1705, metadata !DIExpression()), !dbg !1713
  store ptr %_2.1, ptr %b.dbg.spill, align 8, !dbg !1714
  call void @llvm.dbg.declare(metadata ptr %b.dbg.spill, metadata !1707, metadata !DIExpression()), !dbg !1715
; call core::num::<impl u8>::eq_ignore_ascii_case
  %_0 = call zeroext i1 @"_ZN4core3num20_$LT$impl$u20$u8$GT$20eq_ignore_ascii_case17h31b5f8d89c006654E"(ptr align 1 %_2.0, ptr align 1 %_2.1), !dbg !1716
  ret i1 %_0, !dbg !1717
}

; core::option::Option<T>::map
; Function Attrs: inlinehint uwtable
define void @"_ZN4core6option15Option$LT$T$GT$3map17h9eaf521876342928E"(ptr sret(%"core::option::Option<MaybeStaticStr<'_>>") align 8 %_0, ptr align 1 %0, i64 %1) unnamed_addr #0 !dbg !1718 {
start:
  %x.dbg.spill = alloca { ptr, i64 }, align 8
  %f.dbg.spill = alloca {}, align 1
  %_7 = alloca { { ptr, i64 } }, align 8
  %_5 = alloca %"MaybeStaticStr<'_>", align 8
  %self = alloca %"core::option::Option<&str>", align 8
  store ptr %0, ptr %self, align 8
  %2 = getelementptr inbounds i8, ptr %self, i64 8
  store i64 %1, ptr %2, align 8
  call void @llvm.dbg.declare(metadata ptr %self, metadata !1750, metadata !DIExpression()), !dbg !1754
  call void @llvm.dbg.declare(metadata ptr %f.dbg.spill, metadata !1751, metadata !DIExpression()), !dbg !1755
  %3 = load ptr, ptr %self, align 8, !dbg !1756, !noundef !16
  %4 = ptrtoint ptr %3 to i64, !dbg !1756
  %5 = icmp eq i64 %4, 0, !dbg !1756
  %_3 = select i1 %5, i64 0, i64 1, !dbg !1756
  %6 = icmp eq i64 %_3, 0, !dbg !1757
  br i1 %6, label %bb2, label %bb3, !dbg !1757

bb2:                                              ; preds = %start
  store i64 2, ptr %_0, align 8, !dbg !1758
  br label %bb5, !dbg !1759

bb3:                                              ; preds = %start
  %x.0 = load ptr, ptr %self, align 8, !dbg !1760, !nonnull !16, !align !440, !noundef !16
  %7 = getelementptr inbounds i8, ptr %self, i64 8, !dbg !1760
  %x.1 = load i64, ptr %7, align 8, !dbg !1760, !noundef !16
  store ptr %x.0, ptr %x.dbg.spill, align 8, !dbg !1760
  %8 = getelementptr inbounds i8, ptr %x.dbg.spill, i64 8, !dbg !1760
  store i64 %x.1, ptr %8, align 8, !dbg !1760
  call void @llvm.dbg.declare(metadata ptr %x.dbg.spill, metadata !1752, metadata !DIExpression()), !dbg !1761
  store ptr %x.0, ptr %_7, align 8, !dbg !1762
  %9 = getelementptr inbounds i8, ptr %_7, i64 8, !dbg !1762
  store i64 %x.1, ptr %9, align 8, !dbg !1762
  %10 = load ptr, ptr %_7, align 8, !dbg !1762, !nonnull !16, !align !440, !noundef !16
  %11 = getelementptr inbounds i8, ptr %_7, i64 8, !dbg !1762
  %12 = load i64, ptr %11, align 8, !dbg !1762, !noundef !16
; call core::ops::function::FnOnce::call_once
  call void @_ZN4core3ops8function6FnOnce9call_once17h3103c4b2a076735eE(ptr sret(%"MaybeStaticStr<'_>") align 8 %_5, ptr align 1 %10, i64 %12), !dbg !1762
  call void @llvm.memcpy.p0.p0.i64(ptr align 8 %_0, ptr align 8 %_5, i64 24, i1 false), !dbg !1763
  br label %bb5, !dbg !1764

bb5:                                              ; preds = %bb3, %bb2
  ret void, !dbg !1765

bb1:                                              ; No predecessors!
  unreachable, !dbg !1756
}

; core::option::Option<T>::map
; Function Attrs: inlinehint uwtable
define i64 @"_ZN4core6option15Option$LT$T$GT$3map17had91460e1e5201fdE"(i64 %0, i64 %1) unnamed_addr #0 !dbg !1766 {
start:
  %x.dbg.spill = alloca i64, align 8
  %f.dbg.spill = alloca %"{closure@src/lib.rs:594:18: 594:21}", align 1
  %_7 = alloca i64, align 8
  %_0 = alloca i64, align 8
  %self = alloca %"core::option::Option<usize>", align 8
  store i64 %0, ptr %self, align 8
  %2 = getelementptr inbounds i8, ptr %self, i64 8
  store i64 %1, ptr %2, align 8
  call void @llvm.dbg.declare(metadata ptr %self, metadata !1790, metadata !DIExpression()), !dbg !1794
  call void @llvm.dbg.declare(metadata ptr %f.dbg.spill, metadata !1791, metadata !DIExpression()), !dbg !1795
  %_3 = load i64, ptr %self, align 8, !dbg !1796, !range !192, !noundef !16
  %3 = icmp eq i64 %_3, 0, !dbg !1797
  br i1 %3, label %bb2, label %bb3, !dbg !1797

bb2:                                              ; preds = %start
  store i64 6, ptr %_0, align 8, !dbg !1798
  br label %bb5, !dbg !1799

bb3:                                              ; preds = %start
  %4 = getelementptr inbounds i8, ptr %self, i64 8, !dbg !1800
  %x = load i64, ptr %4, align 8, !dbg !1800, !noundef !16
  store i64 %x, ptr %x.dbg.spill, align 8, !dbg !1800
  call void @llvm.dbg.declare(metadata ptr %x.dbg.spill, metadata !1792, metadata !DIExpression()), !dbg !1801
  store i64 %x, ptr %_7, align 8, !dbg !1802
  %5 = load i64, ptr %_7, align 8, !dbg !1802, !noundef !16
; call <log::LevelFilter as core::str::traits::FromStr>::from_str::{{closure}}
  %_5 = call i64 @"_ZN63_$LT$log..LevelFilter$u20$as$u20$core..str..traits..FromStr$GT$8from_str28_$u7b$$u7b$closure$u7d$$u7d$17hb52fb0dd7391f197E"(i64 %5), !dbg !1802, !range !203
  store i64 %_5, ptr %_0, align 8, !dbg !1803
  br label %bb5, !dbg !1804

bb5:                                              ; preds = %bb3, %bb2
  %6 = load i64, ptr %_0, align 8, !dbg !1805, !range !1806, !noundef !16
  ret i64 %6, !dbg !1805

bb1:                                              ; No predecessors!
  unreachable, !dbg !1796
}

; core::option::Option<T>::ok_or
; Function Attrs: inlinehint uwtable
define i64 @"_ZN4core6option15Option$LT$T$GT$5ok_or17h4ebb2a884dd5a1eeE"(i64 %0) unnamed_addr #0 !dbg !1807 {
start:
  %v.dbg.spill = alloca i64, align 8
  %err.dbg.spill = alloca %ParseLevelError, align 1
  %_0 = alloca i64, align 8
  %self = alloca i64, align 8
  store i64 %0, ptr %self, align 8
  call void @llvm.dbg.declare(metadata ptr %self, metadata !1830, metadata !DIExpression()), !dbg !1834
  call void @llvm.dbg.declare(metadata ptr %err.dbg.spill, metadata !1831, metadata !DIExpression()), !dbg !1835
  %1 = load i64, ptr %self, align 8, !dbg !1836, !range !203, !noundef !16
  %2 = icmp eq i64 %1, 0, !dbg !1836
  %_3 = select i1 %2, i64 0, i64 1, !dbg !1836
  %3 = icmp eq i64 %_3, 0, !dbg !1837
  br i1 %3, label %bb2, label %bb3, !dbg !1837

bb2:                                              ; preds = %start
  store i64 0, ptr %_0, align 8, !dbg !1838
  br label %bb4, !dbg !1839

bb3:                                              ; preds = %start
  %v = load i64, ptr %self, align 8, !dbg !1840, !range !199, !noundef !16
  store i64 %v, ptr %v.dbg.spill, align 8, !dbg !1840
  call void @llvm.dbg.declare(metadata ptr %v.dbg.spill, metadata !1832, metadata !DIExpression()), !dbg !1841
  store i64 %v, ptr %_0, align 8, !dbg !1842
  br label %bb4, !dbg !1843

bb4:                                              ; preds = %bb3, %bb2
  %4 = load i64, ptr %_0, align 8, !dbg !1844, !range !203, !noundef !16
  ret i64 %4, !dbg !1844

bb1:                                              ; No predecessors!
  unreachable, !dbg !1836
}

; core::option::Option<T>::ok_or
; Function Attrs: inlinehint uwtable
define i64 @"_ZN4core6option15Option$LT$T$GT$5ok_or17hec7991082e2ebae5E"(i64 %0) unnamed_addr #0 !dbg !1845 {
start:
  %v.dbg.spill = alloca i64, align 8
  %err.dbg.spill = alloca %ParseLevelError, align 1
  %_0 = alloca i64, align 8
  %self = alloca i64, align 8
  store i64 %0, ptr %self, align 8
  call void @llvm.dbg.declare(metadata ptr %self, metadata !1864, metadata !DIExpression()), !dbg !1868
  call void @llvm.dbg.declare(metadata ptr %err.dbg.spill, metadata !1865, metadata !DIExpression()), !dbg !1869
  %1 = load i64, ptr %self, align 8, !dbg !1870, !range !1806, !noundef !16
  %2 = icmp eq i64 %1, 6, !dbg !1870
  %_3 = select i1 %2, i64 0, i64 1, !dbg !1870
  %3 = icmp eq i64 %_3, 0, !dbg !1871
  br i1 %3, label %bb2, label %bb3, !dbg !1871

bb2:                                              ; preds = %start
  store i64 6, ptr %_0, align 8, !dbg !1872
  br label %bb4, !dbg !1873

bb3:                                              ; preds = %start
  %v = load i64, ptr %self, align 8, !dbg !1874, !range !203, !noundef !16
  store i64 %v, ptr %v.dbg.spill, align 8, !dbg !1874
  call void @llvm.dbg.declare(metadata ptr %v.dbg.spill, metadata !1866, metadata !DIExpression()), !dbg !1875
  store i64 %v, ptr %_0, align 8, !dbg !1876
  br label %bb4, !dbg !1877

bb4:                                              ; preds = %bb3, %bb2
  %4 = load i64, ptr %_0, align 8, !dbg !1878, !range !1806, !noundef !16
  ret i64 %4, !dbg !1878

bb1:                                              ; No predecessors!
  unreachable, !dbg !1870
}

; core::option::Option<T>::is_some
; Function Attrs: inlinehint uwtable
define zeroext i1 @"_ZN4core6option15Option$LT$T$GT$7is_some17hf97b0bfcf885fa94E"(ptr align 8 %self) unnamed_addr #0 !dbg !1879 {
start:
  %self.dbg.spill = alloca ptr, align 8
  %_0 = alloca i8, align 1
  store ptr %self, ptr %self.dbg.spill, align 8
  call void @llvm.dbg.declare(metadata ptr %self.dbg.spill, metadata !1907, metadata !DIExpression()), !dbg !1908
  %0 = load ptr, ptr %self, align 8, !dbg !1909, !noundef !16
  %1 = ptrtoint ptr %0 to i64, !dbg !1909
  %2 = icmp eq i64 %1, 0, !dbg !1909
  %_2 = select i1 %2, i64 0, i64 1, !dbg !1909
  %3 = icmp eq i64 %_2, 1, !dbg !1910
  br i1 %3, label %bb2, label %bb1, !dbg !1910

bb2:                                              ; preds = %start
  store i8 1, ptr %_0, align 1, !dbg !1910
  br label %bb3, !dbg !1910

bb1:                                              ; preds = %start
  store i8 0, ptr %_0, align 1, !dbg !1910
  br label %bb3, !dbg !1910

bb3:                                              ; preds = %bb1, %bb2
  %4 = load i8, ptr %_0, align 1, !dbg !1911, !range !352, !noundef !16
  %5 = trunc i8 %4 to i1, !dbg !1911
  ret i1 %5, !dbg !1911

bb4:                                              ; No predecessors!
  unreachable, !dbg !1912
}

; <core::fmt::Arguments as core::clone::Clone>::clone
; Function Attrs: inlinehint uwtable
define internal void @"_ZN59_$LT$core..fmt..Arguments$u20$as$u20$core..clone..Clone$GT$5clone17h2f0790a0a66624e5E"(ptr sret(%"core::fmt::Arguments<'_>") align 8 %_0, ptr align 8 %self) unnamed_addr #0 !dbg !1913 {
start:
  %self.dbg.spill = alloca ptr, align 8
  store ptr %self, ptr %self.dbg.spill, align 8
  call void @llvm.dbg.declare(metadata ptr %self.dbg.spill, metadata !1919, metadata !DIExpression()), !dbg !1920
  call void @llvm.memcpy.p0.p0.i64(ptr align 8 %_0, ptr align 8 %self, i64 48, i1 false), !dbg !1920
  ret void, !dbg !1921
}

; <core::option::Option<T> as core::clone::Clone>::clone
; Function Attrs: inlinehint uwtable
define void @"_ZN68_$LT$core..option..Option$LT$T$GT$$u20$as$u20$core..clone..Clone$GT$5clone17h355db3628318a45fE"(ptr sret(%"core::option::Option<MaybeStaticStr<'_>>") align 8 %_0, ptr align 8 %self) unnamed_addr #0 !dbg !1922 {
start:
  %x.dbg.spill = alloca ptr, align 8
  %self.dbg.spill = alloca ptr, align 8
  %_4 = alloca %"MaybeStaticStr<'_>", align 8
  store ptr %self, ptr %self.dbg.spill, align 8
  call void @llvm.dbg.declare(metadata ptr %self.dbg.spill, metadata !1928, metadata !DIExpression()), !dbg !1932
  %0 = load i64, ptr %self, align 8, !dbg !1933, !range !1934, !noundef !16
  %1 = icmp eq i64 %0, 2, !dbg !1933
  %_2 = select i1 %1, i64 0, i64 1, !dbg !1933
  %2 = icmp eq i64 %_2, 0, !dbg !1935
  br i1 %2, label %bb2, label %bb3, !dbg !1935

bb2:                                              ; preds = %start
  store i64 2, ptr %_0, align 8, !dbg !1936
  br label %bb5, !dbg !1936

bb3:                                              ; preds = %start
  store ptr %self, ptr %x.dbg.spill, align 8, !dbg !1937
  call void @llvm.dbg.declare(metadata ptr %x.dbg.spill, metadata !1929, metadata !DIExpression()), !dbg !1938
; call <log::MaybeStaticStr as core::clone::Clone>::clone
  call void @"_ZN58_$LT$log..MaybeStaticStr$u20$as$u20$core..clone..Clone$GT$5clone17hb4fc9d5a8df2551bE"(ptr sret(%"MaybeStaticStr<'_>") align 8 %_4, ptr align 8 %self), !dbg !1939
  call void @llvm.memcpy.p0.p0.i64(ptr align 8 %_0, ptr align 8 %_4, i64 24, i1 false), !dbg !1940
  br label %bb5, !dbg !1941

bb5:                                              ; preds = %bb3, %bb2
  ret void, !dbg !1942

bb1:                                              ; No predecessors!
  unreachable, !dbg !1933
}

; <core::option::Option<T> as core::clone::Clone>::clone
; Function Attrs: inlinehint uwtable
define { i32, i32 } @"_ZN68_$LT$core..option..Option$LT$T$GT$$u20$as$u20$core..clone..Clone$GT$5clone17h7699940d16a6f5e6E"(ptr align 4 %self) unnamed_addr #0 !dbg !1943 {
start:
  %self.dbg.spill.i = alloca ptr, align 8
  %x.dbg.spill = alloca ptr, align 8
  %self.dbg.spill = alloca ptr, align 8
  %_0 = alloca %"core::option::Option<u32>", align 4
  store ptr %self, ptr %self.dbg.spill, align 8
  call void @llvm.dbg.declare(metadata ptr %self.dbg.spill, metadata !1961, metadata !DIExpression()), !dbg !1965
  %0 = load i32, ptr %self, align 4, !dbg !1966, !range !1967, !noundef !16
  %_2 = zext i32 %0 to i64, !dbg !1966
  %1 = icmp eq i64 %_2, 0, !dbg !1968
  br i1 %1, label %bb2, label %bb3, !dbg !1968

bb2:                                              ; preds = %start
  store i32 0, ptr %_0, align 4, !dbg !1969
  br label %bb5, !dbg !1969

bb3:                                              ; preds = %start
  %x = getelementptr inbounds i8, ptr %self, i64 4, !dbg !1970
  store ptr %x, ptr %x.dbg.spill, align 8, !dbg !1970
  call void @llvm.dbg.declare(metadata ptr %x.dbg.spill, metadata !1962, metadata !DIExpression()), !dbg !1971
  %_5 = getelementptr inbounds i8, ptr %self, i64 4, !dbg !1972
  store ptr %_5, ptr %self.dbg.spill.i, align 8
  call void @llvm.dbg.declare(metadata ptr %self.dbg.spill.i, metadata !1973, metadata !DIExpression()), !dbg !1982
  %_0.i = load i32, ptr %_5, align 4, !dbg !1984, !noundef !16
  %2 = getelementptr inbounds i8, ptr %_0, i64 4, !dbg !1985
  store i32 %_0.i, ptr %2, align 4, !dbg !1985
  store i32 1, ptr %_0, align 4, !dbg !1985
  br label %bb5, !dbg !1986

bb5:                                              ; preds = %bb3, %bb2
  %3 = load i32, ptr %_0, align 4, !dbg !1987, !range !1967, !noundef !16
  %4 = getelementptr inbounds i8, ptr %_0, i64 4, !dbg !1987
  %5 = load i32, ptr %4, align 4, !dbg !1987
  %6 = insertvalue { i32, i32 } poison, i32 %3, 0, !dbg !1987
  %7 = insertvalue { i32, i32 } %6, i32 %5, 1, !dbg !1987
  ret { i32, i32 } %7, !dbg !1987

bb1:                                              ; No predecessors!
  unreachable, !dbg !1966
}

; <core::ops::control_flow::ControlFlow<B,C> as core::cmp::PartialEq>::eq
; Function Attrs: inlinehint uwtable
define zeroext i1 @"_ZN90_$LT$core..ops..control_flow..ControlFlow$LT$B$C$C$GT$$u20$as$u20$core..cmp..PartialEq$GT$2eq17h1371368cc0d41fdbE"(ptr align 1 %self, ptr align 1 %other) unnamed_addr #0 !dbg !1988 {
start:
  %__arg1_0.dbg.spill4 = alloca ptr, align 8
  %__self_0.dbg.spill2 = alloca ptr, align 8
  %__arg1_0.dbg.spill = alloca ptr, align 8
  %__self_0.dbg.spill = alloca ptr, align 8
  %__arg1_tag.dbg.spill = alloca i64, align 8
  %__self_tag.dbg.spill = alloca i64, align 8
  %other.dbg.spill = alloca ptr, align 8
  %self.dbg.spill = alloca ptr, align 8
  %_0 = alloca i8, align 1
  store ptr %self, ptr %self.dbg.spill, align 8
  call void @llvm.dbg.declare(metadata ptr %self.dbg.spill, metadata !1994, metadata !DIExpression()), !dbg !2007
  store ptr %other, ptr %other.dbg.spill, align 8
  call void @llvm.dbg.declare(metadata ptr %other.dbg.spill, metadata !1995, metadata !DIExpression()), !dbg !2007
  %0 = load i8, ptr %self, align 1, !dbg !2007, !range !352, !noundef !16
  %1 = trunc i8 %0 to i1, !dbg !2007
  %__self_tag = zext i1 %1 to i64, !dbg !2007
  store i64 %__self_tag, ptr %__self_tag.dbg.spill, align 8, !dbg !2007
  call void @llvm.dbg.declare(metadata ptr %__self_tag.dbg.spill, metadata !1996, metadata !DIExpression()), !dbg !2008
  %2 = load i8, ptr %other, align 1, !dbg !2008, !range !352, !noundef !16
  %3 = trunc i8 %2 to i1, !dbg !2008
  %__arg1_tag = zext i1 %3 to i64, !dbg !2008
  store i64 %__arg1_tag, ptr %__arg1_tag.dbg.spill, align 8, !dbg !2008
  call void @llvm.dbg.declare(metadata ptr %__arg1_tag.dbg.spill, metadata !1999, metadata !DIExpression()), !dbg !2009
  %_5 = icmp eq i64 %__self_tag, %__arg1_tag, !dbg !2009
  br i1 %_5, label %bb1, label %bb2, !dbg !2009

bb2:                                              ; preds = %start
  store i8 0, ptr %_0, align 1, !dbg !2009
  br label %bb7, !dbg !2009

bb1:                                              ; preds = %start
  %4 = load i8, ptr %self, align 1, !dbg !2009, !range !352, !noundef !16
  %5 = trunc i8 %4 to i1, !dbg !2009
  %_8 = zext i1 %5 to i64, !dbg !2009
  %6 = icmp eq i64 %_8, 0, !dbg !2009
  br i1 %6, label %bb3, label %bb4, !dbg !2009

bb7:                                              ; preds = %bb4, %bb3, %bb2
  %7 = load i8, ptr %_0, align 1, !dbg !2010, !range !352, !noundef !16
  %8 = trunc i8 %7 to i1, !dbg !2010
  ret i1 %8, !dbg !2010

bb3:                                              ; preds = %bb1
  %9 = load i8, ptr %other, align 1, !dbg !2009, !range !352, !noundef !16
  %10 = trunc i8 %9 to i1, !dbg !2009
  %_6 = zext i1 %10 to i64, !dbg !2009
  %_18 = icmp eq i64 %_6, 0, !dbg !2009
  %__self_0 = getelementptr inbounds i8, ptr %self, i64 1, !dbg !2011
  store ptr %__self_0, ptr %__self_0.dbg.spill, align 8, !dbg !2011
  call void @llvm.dbg.declare(metadata ptr %__self_0.dbg.spill, metadata !2001, metadata !DIExpression()), !dbg !2012
  %__arg1_0 = getelementptr inbounds i8, ptr %other, i64 1, !dbg !2011
  store ptr %__arg1_0, ptr %__arg1_0.dbg.spill, align 8, !dbg !2011
  call void @llvm.dbg.declare(metadata ptr %__arg1_0.dbg.spill, metadata !2003, metadata !DIExpression()), !dbg !2012
  %_11 = getelementptr inbounds i8, ptr %self, i64 1, !dbg !2012
  %_12 = getelementptr inbounds i8, ptr %other, i64 1, !dbg !2012
; call core::cmp::impls::<impl core::cmp::PartialEq for ()>::eq
  %11 = call zeroext i1 @"_ZN4core3cmp5impls59_$LT$impl$u20$core..cmp..PartialEq$u20$for$u20$$LP$$RP$$GT$2eq17hbdf2d13158f03ee4E"(ptr align 1 %_11, ptr align 1 %_12), !dbg !2012
  %12 = zext i1 %11 to i8, !dbg !2012
  store i8 %12, ptr %_0, align 1, !dbg !2012
  br label %bb7, !dbg !2013

bb4:                                              ; preds = %bb1
  %13 = load i8, ptr %other, align 1, !dbg !2009, !range !352, !noundef !16
  %14 = trunc i8 %13 to i1, !dbg !2009
  %_7 = zext i1 %14 to i64, !dbg !2009
  %_17 = icmp eq i64 %_7, 1, !dbg !2009
  %__self_01 = getelementptr inbounds i8, ptr %self, i64 1, !dbg !2014
  store ptr %__self_01, ptr %__self_0.dbg.spill2, align 8, !dbg !2014
  call void @llvm.dbg.declare(metadata ptr %__self_0.dbg.spill2, metadata !2004, metadata !DIExpression()), !dbg !2015
  %__arg1_03 = getelementptr inbounds i8, ptr %other, i64 1, !dbg !2014
  store ptr %__arg1_03, ptr %__arg1_0.dbg.spill4, align 8, !dbg !2014
  call void @llvm.dbg.declare(metadata ptr %__arg1_0.dbg.spill4, metadata !2006, metadata !DIExpression()), !dbg !2015
  %_15 = getelementptr inbounds i8, ptr %self, i64 1, !dbg !2015
  %_16 = getelementptr inbounds i8, ptr %other, i64 1, !dbg !2015
; call core::cmp::impls::<impl core::cmp::PartialEq for ()>::eq
  %15 = call zeroext i1 @"_ZN4core3cmp5impls59_$LT$impl$u20$core..cmp..PartialEq$u20$for$u20$$LP$$RP$$GT$2eq17hbdf2d13158f03ee4E"(ptr align 1 %_15, ptr align 1 %_16), !dbg !2015
  %16 = zext i1 %15 to i8, !dbg !2015
  store i8 %16, ptr %_0, align 1, !dbg !2015
  br label %bb7, !dbg !2013

bb8:                                              ; No predecessors!
  unreachable, !dbg !2007
}

; <core::option::IntoIter<A> as core::iter::traits::iterator::Iterator>::next
; Function Attrs: inlinehint uwtable
define { i64, i64 } @"_ZN90_$LT$core..option..IntoIter$LT$A$GT$$u20$as$u20$core..iter..traits..iterator..Iterator$GT$4next17hd2b853fbf608bbf9E"(ptr align 8 %self) unnamed_addr #0 !dbg !2016 {
start:
  %result.dbg.spill = alloca %"core::option::Option<usize>", align 8
  %self.dbg.spill2 = alloca ptr, align 8
  %self.dbg.spill1 = alloca ptr, align 8
  %self.dbg.spill = alloca ptr, align 8
  %src = alloca %"core::option::Option<usize>", align 8
  store ptr %self, ptr %self.dbg.spill, align 8
  call void @llvm.dbg.declare(metadata ptr %self.dbg.spill, metadata !2021, metadata !DIExpression()), !dbg !2022
  call void @llvm.dbg.declare(metadata ptr %src, metadata !2023, metadata !DIExpression()), !dbg !2035
  call void @llvm.dbg.declare(metadata ptr %src, metadata !2054, metadata !DIExpression()), !dbg !2062
  store ptr %self, ptr %self.dbg.spill1, align 8, !dbg !2064
  call void @llvm.dbg.declare(metadata ptr %self.dbg.spill1, metadata !2052, metadata !DIExpression()), !dbg !2065
  store ptr %self, ptr %self.dbg.spill2, align 8, !dbg !2066
  call void @llvm.dbg.declare(metadata ptr %self.dbg.spill2, metadata !2043, metadata !DIExpression()), !dbg !2067
  call void @llvm.dbg.declare(metadata ptr %self.dbg.spill2, metadata !2030, metadata !DIExpression()), !dbg !2068
  call void @llvm.dbg.declare(metadata ptr %self.dbg.spill2, metadata !2069, metadata !DIExpression()), !dbg !2076
  call void @llvm.dbg.declare(metadata ptr %self.dbg.spill2, metadata !2061, metadata !DIExpression()), !dbg !2078
  store i64 0, ptr %src, align 8, !dbg !2079
  %result.0 = load i64, ptr %self, align 8, !dbg !2080, !range !192, !noundef !16
  %0 = getelementptr inbounds i8, ptr %self, i64 8, !dbg !2080
  %result.1 = load i64, ptr %0, align 8, !dbg !2080
  store i64 %result.0, ptr %result.dbg.spill, align 8, !dbg !2080
  %1 = getelementptr inbounds i8, ptr %result.dbg.spill, i64 8, !dbg !2080
  store i64 %result.1, ptr %1, align 8, !dbg !2080
  call void @llvm.dbg.declare(metadata ptr %result.dbg.spill, metadata !2031, metadata !DIExpression()), !dbg !2081
  %2 = load i64, ptr %src, align 8, !dbg !2082, !range !192, !noundef !16
  %3 = getelementptr inbounds i8, ptr %src, i64 8, !dbg !2082
  %4 = load i64, ptr %3, align 8, !dbg !2082
  store i64 %2, ptr %self, align 8, !dbg !2082
  %5 = getelementptr inbounds i8, ptr %self, i64 8, !dbg !2082
  store i64 %4, ptr %5, align 8, !dbg !2082
  %6 = insertvalue { i64, i64 } poison, i64 %result.0, 0, !dbg !2083
  %7 = insertvalue { i64, i64 } %6, i64 %result.1, 1, !dbg !2083
  ret { i64, i64 } %7, !dbg !2083
}

; <core::option::Option<T> as core::iter::traits::collect::IntoIterator>::into_iter
; Function Attrs: inlinehint uwtable
define { i64, i64 } @"_ZN91_$LT$core..option..Option$LT$T$GT$$u20$as$u20$core..iter..traits..collect..IntoIterator$GT$9into_iter17h106680ff334c8a89E"(i64 %self.0, i64 %self.1) unnamed_addr #0 !dbg !2084 {
start:
  %self.dbg.spill = alloca %"core::option::Option<usize>", align 8
  %_2 = alloca %"core::option::Item<usize>", align 8
  %_0 = alloca %"core::option::IntoIter<usize>", align 8
  store i64 %self.0, ptr %self.dbg.spill, align 8
  %0 = getelementptr inbounds i8, ptr %self.dbg.spill, i64 8
  store i64 %self.1, ptr %0, align 8
  call void @llvm.dbg.declare(metadata ptr %self.dbg.spill, metadata !2089, metadata !DIExpression()), !dbg !2090
  store i64 %self.0, ptr %_2, align 8, !dbg !2091
  %1 = getelementptr inbounds i8, ptr %_2, i64 8, !dbg !2091
  store i64 %self.1, ptr %1, align 8, !dbg !2091
  %2 = load i64, ptr %_2, align 8, !dbg !2092, !range !192, !noundef !16
  %3 = getelementptr inbounds i8, ptr %_2, i64 8, !dbg !2092
  %4 = load i64, ptr %3, align 8, !dbg !2092
  store i64 %2, ptr %_0, align 8, !dbg !2092
  %5 = getelementptr inbounds i8, ptr %_0, i64 8, !dbg !2092
  store i64 %4, ptr %5, align 8, !dbg !2092
  %6 = load i64, ptr %_0, align 8, !dbg !2093, !range !192, !noundef !16
  %7 = getelementptr inbounds i8, ptr %_0, i64 8, !dbg !2093
  %8 = load i64, ptr %7, align 8, !dbg !2093
  %9 = insertvalue { i64, i64 } poison, i64 %6, 0, !dbg !2093
  %10 = insertvalue { i64, i64 } %9, i64 %8, 1, !dbg !2093
  ret { i64, i64 } %10, !dbg !2093
}

; <core::slice::iter::Iter<T> as core::iter::traits::iterator::Iterator>::__iterator_get_unchecked
; Function Attrs: inlinehint uwtable
define align 1 ptr @"_ZN91_$LT$core..slice..iter..Iter$LT$T$GT$$u20$as$u20$core..iter..traits..iterator..Iterator$GT$24__iterator_get_unchecked17h03699e5a28905464E"(ptr align 8 %self, i64 %idx) unnamed_addr #0 !dbg !2094 {
start:
  %self.dbg.spill3 = alloca ptr, align 8
  %self.dbg.spill2 = alloca ptr, align 8
  %idx.dbg.spill = alloca i64, align 8
  %self.dbg.spill = alloca ptr, align 8
  store ptr %self, ptr %self.dbg.spill, align 8
  call void @llvm.dbg.declare(metadata ptr %self.dbg.spill, metadata !2101, metadata !DIExpression()), !dbg !2103
  store i64 %idx, ptr %idx.dbg.spill, align 8
  call void @llvm.dbg.declare(metadata ptr %idx.dbg.spill, metadata !2102, metadata !DIExpression()), !dbg !2104
  call void @llvm.dbg.declare(metadata ptr %idx.dbg.spill, metadata !2105, metadata !DIExpression()), !dbg !2110
  %self1 = load ptr, ptr %self, align 8, !dbg !2112, !nonnull !16, !noundef !16
  store ptr %self1, ptr %self.dbg.spill2, align 8, !dbg !2112
  call void @llvm.dbg.declare(metadata ptr %self.dbg.spill2, metadata !2113, metadata !DIExpression()), !dbg !2117
  store ptr %self1, ptr %self.dbg.spill3, align 8, !dbg !2119
  call void @llvm.dbg.declare(metadata ptr %self.dbg.spill3, metadata !2109, metadata !DIExpression()), !dbg !2120
  %_3 = getelementptr inbounds i8, ptr %self1, i64 %idx, !dbg !2121
  ret ptr %_3, !dbg !2122
}

; <core::slice::iter::Iter<T> as core::iter::traits::iterator::Iterator>::next
; Function Attrs: inlinehint uwtable
define align 8 ptr @"_ZN91_$LT$core..slice..iter..Iter$LT$T$GT$$u20$as$u20$core..iter..traits..iterator..Iterator$GT$4next17hb304998046f089e5E"(ptr align 8 %self) unnamed_addr #0 !dbg !2123 {
start:
  %self.dbg.spill22 = alloca ptr, align 8
  %self.dbg.spill21 = alloca ptr, align 8
  %self.dbg.spill19 = alloca ptr, align 8
  %self.dbg.spill18 = alloca i64, align 8
  %len.dbg.spill16 = alloca ptr, align 8
  %self.dbg.spill15 = alloca ptr, align 8
  %self.dbg.spill13 = alloca ptr, align 8
  %_end.dbg.spill = alloca ptr, align 8
  %self.dbg.spill11 = alloca ptr, align 8
  %len.dbg.spill = alloca i64, align 8
  %self.dbg.spill9 = alloca ptr, align 8
  %self.dbg.spill7 = alloca ptr, align 8
  %self.dbg.spill5 = alloca ptr, align 8
  %other.dbg.spill = alloca ptr, align 8
  %self.dbg.spill3 = alloca ptr, align 8
  %self.dbg.spill2 = alloca ptr, align 8
  %self.dbg.spill = alloca ptr, align 8
  %_28 = alloca ptr, align 8
  %old = alloca ptr, align 8
  %end = alloca ptr, align 8
  %_2 = alloca i8, align 1
  %_0 = alloca ptr, align 8
  %count.dbg.spill = alloca i64, align 8
  %rhs.dbg.spill = alloca i64, align 8
  %offset.dbg.spill = alloca i64, align 8
  store i64 1, ptr %offset.dbg.spill, align 8, !dbg !2144
  call void @llvm.dbg.declare(metadata ptr %offset.dbg.spill, metadata !2152, metadata !DIExpression()), !dbg !2144
  store i64 1, ptr %rhs.dbg.spill, align 8, !dbg !2161
  call void @llvm.dbg.declare(metadata ptr %rhs.dbg.spill, metadata !2169, metadata !DIExpression()), !dbg !2161
  store i64 1, ptr %count.dbg.spill, align 8, !dbg !2171
  call void @llvm.dbg.declare(metadata ptr %count.dbg.spill, metadata !2179, metadata !DIExpression()), !dbg !2171
  store ptr %self, ptr %self.dbg.spill, align 8, !dbg !2171
  call void @llvm.dbg.declare(metadata ptr %self.dbg.spill, metadata !2139, metadata !DIExpression()), !dbg !2181
  call void @llvm.dbg.declare(metadata ptr %self.dbg.spill, metadata !2151, metadata !DIExpression()), !dbg !2182
  call void @llvm.dbg.declare(metadata ptr %end, metadata !2142, metadata !DIExpression()), !dbg !2183
  call void @llvm.dbg.declare(metadata ptr %old, metadata !2153, metadata !DIExpression()), !dbg !2184
  br label %bb2, !dbg !2185

bb2:                                              ; preds = %start
  %self1 = getelementptr inbounds i8, ptr %self, i64 8, !dbg !2185
  store ptr %self1, ptr %self.dbg.spill2, align 8, !dbg !2185
  call void @llvm.dbg.declare(metadata ptr %self.dbg.spill2, metadata !2186, metadata !DIExpression()), !dbg !2197
  %0 = load ptr, ptr %self1, align 8, !dbg !2185, !nonnull !16, !noundef !16
  store ptr %0, ptr %end, align 8, !dbg !2185
  store ptr %self, ptr %self.dbg.spill3, align 8, !dbg !2183
  call void @llvm.dbg.declare(metadata ptr %self.dbg.spill3, metadata !2199, metadata !DIExpression()), !dbg !2208
  store ptr %end, ptr %other.dbg.spill, align 8, !dbg !2183
  call void @llvm.dbg.declare(metadata ptr %other.dbg.spill, metadata !2207, metadata !DIExpression()), !dbg !2210
  %self4 = load ptr, ptr %self, align 8, !dbg !2211, !nonnull !16, !noundef !16
  store ptr %self4, ptr %self.dbg.spill5, align 8, !dbg !2211
  call void @llvm.dbg.declare(metadata ptr %self.dbg.spill5, metadata !2212, metadata !DIExpression()), !dbg !2220
  %self6 = load ptr, ptr %end, align 8, !dbg !2222, !nonnull !16, !noundef !16
  store ptr %self6, ptr %self.dbg.spill7, align 8, !dbg !2222
  call void @llvm.dbg.declare(metadata ptr %self.dbg.spill7, metadata !2216, metadata !DIExpression()), !dbg !2223
  %1 = icmp eq ptr %self4, %self6, !dbg !2211
  %2 = zext i1 %1 to i8, !dbg !2211
  store i8 %2, ptr %_2, align 1, !dbg !2211
  br label %bb3, !dbg !2185

bb3:                                              ; preds = %bb1, %bb2
  %3 = load i8, ptr %_2, align 1, !dbg !2185, !range !352, !noundef !16
  %4 = trunc i8 %3 to i1, !dbg !2185
  br i1 %4, label %bb4, label %bb5, !dbg !2185

bb1:                                              ; No predecessors!
  %5 = getelementptr inbounds i8, ptr %self, i64 8, !dbg !2185
  %self8 = load ptr, ptr %5, align 8, !dbg !2185, !noundef !16
  store ptr %self8, ptr %self.dbg.spill9, align 8, !dbg !2185
  call void @llvm.dbg.declare(metadata ptr %self.dbg.spill9, metadata !2225, metadata !DIExpression()), !dbg !2231
  call void @llvm.dbg.declare(metadata ptr %self.dbg.spill9, metadata !2233, metadata !DIExpression()), !dbg !2241
  %len = ptrtoint ptr %self8 to i64, !dbg !2243
  store i64 %len, ptr %len.dbg.spill, align 8, !dbg !2243
  call void @llvm.dbg.declare(metadata ptr %len.dbg.spill, metadata !2140, metadata !DIExpression()), !dbg !2244
  %6 = icmp eq i64 %len, 0, !dbg !2244
  %7 = zext i1 %6 to i8, !dbg !2244
  store i8 %7, ptr %_2, align 1, !dbg !2244
  br label %bb3, !dbg !2185

bb5:                                              ; preds = %bb3
  %8 = load ptr, ptr %self, align 8, !dbg !2245, !nonnull !16, !noundef !16
  store ptr %8, ptr %old, align 8, !dbg !2245
  br label %bb8, !dbg !2246

bb4:                                              ; preds = %bb3
  store ptr null, ptr %_0, align 8, !dbg !2247
  br label %bb6, !dbg !2248

bb8:                                              ; preds = %bb5
  %self10 = getelementptr inbounds i8, ptr %self, i64 8, !dbg !2246
  store ptr %self10, ptr %self.dbg.spill11, align 8, !dbg !2246
  call void @llvm.dbg.declare(metadata ptr %self.dbg.spill11, metadata !2249, metadata !DIExpression()), !dbg !2256
  store ptr %self10, ptr %_end.dbg.spill, align 8, !dbg !2258
  call void @llvm.dbg.declare(metadata ptr %_end.dbg.spill, metadata !2157, metadata !DIExpression()), !dbg !2259
  %self12 = load ptr, ptr %self, align 8, !dbg !2260, !nonnull !16, !noundef !16
  store ptr %self12, ptr %self.dbg.spill13, align 8, !dbg !2260
  call void @llvm.dbg.declare(metadata ptr %self.dbg.spill13, metadata !2178, metadata !DIExpression()), !dbg !2261
  %_30 = getelementptr inbounds { ptr, i64 }, ptr %self12, i64 1, !dbg !2262
  store ptr %_30, ptr %_28, align 8, !dbg !2263
  %9 = load ptr, ptr %_28, align 8, !dbg !2264, !nonnull !16, !noundef !16
  store ptr %9, ptr %self, align 8, !dbg !2264
  br label %bb9, !dbg !2246

bb9:                                              ; preds = %bb7, %bb8
  store ptr %old, ptr %self.dbg.spill19, align 8, !dbg !2265
  call void @llvm.dbg.declare(metadata ptr %self.dbg.spill19, metadata !2266, metadata !DIExpression()), !dbg !2273
  %self20 = load ptr, ptr %old, align 8, !dbg !2275, !nonnull !16, !noundef !16
  store ptr %self20, ptr %self.dbg.spill21, align 8, !dbg !2275
  call void @llvm.dbg.declare(metadata ptr %self.dbg.spill21, metadata !2218, metadata !DIExpression()), !dbg !2276
  store ptr %self20, ptr %self.dbg.spill22, align 8, !dbg !2278
  call void @llvm.dbg.declare(metadata ptr %self.dbg.spill22, metadata !2279, metadata !DIExpression()), !dbg !2285
  store ptr %self20, ptr %_0, align 8, !dbg !2287
  br label %bb6, !dbg !2248

bb7:                                              ; No predecessors!
  %self14 = getelementptr inbounds i8, ptr %self, i64 8, !dbg !2246
  store ptr %self14, ptr %self.dbg.spill15, align 8, !dbg !2246
  call void @llvm.dbg.declare(metadata ptr %self.dbg.spill15, metadata !2288, metadata !DIExpression()), !dbg !2296
  store ptr %self14, ptr %len.dbg.spill16, align 8, !dbg !2298
  call void @llvm.dbg.declare(metadata ptr %len.dbg.spill16, metadata !2155, metadata !DIExpression()), !dbg !2299
  %self17 = load i64, ptr %self14, align 8, !dbg !2300, !noundef !16
  store i64 %self17, ptr %self.dbg.spill18, align 8, !dbg !2300
  call void @llvm.dbg.declare(metadata ptr %self.dbg.spill18, metadata !2168, metadata !DIExpression()), !dbg !2161
  %_24 = sub nuw i64 %self17, 1, !dbg !2161
  store i64 %_24, ptr %self14, align 8, !dbg !2301
  br label %bb9, !dbg !2246

bb6:                                              ; preds = %bb4, %bb9
  %10 = load ptr, ptr %_0, align 8, !dbg !2302, !align !491, !noundef !16
  ret ptr %10, !dbg !2302
}

; <core::slice::iter::Iter<T> as core::iter::traits::iterator::Iterator>::position
; Function Attrs: inlinehint uwtable
define { i64, i64 } @"_ZN91_$LT$core..slice..iter..Iter$LT$T$GT$$u20$as$u20$core..iter..traits..iterator..Iterator$GT$8position17h756c1feff16b7e9fE"(ptr align 8 %self, ptr align 1 %0, i64 %1) unnamed_addr #0 personality ptr @rust_eh_personality !dbg !2303 {
start:
  %cond.dbg.spill = alloca i8, align 1
  %x.dbg.spill = alloca ptr, align 8
  %len.dbg.spill = alloca i64, align 8
  %self.dbg.spill4 = alloca ptr, align 8
  %2 = alloca { ptr, i32, [1 x i32] }, align 8
  %subtracted.dbg.spill = alloca ptr, align 8
  %end.dbg.spill = alloca ptr, align 8
  %self.dbg.spill2 = alloca ptr, align 8
  %self.dbg.spill = alloca ptr, align 8
  %_17 = alloca ptr, align 8
  %_12 = alloca ptr, align 8
  %i = alloca i64, align 8
  %n = alloca i64, align 8
  %_0 = alloca %"core::option::Option<usize>", align 8
  %predicate = alloca %"{closure@src/lib.rs:593:23: 593:30}", align 8
  store ptr %0, ptr %predicate, align 8
  %3 = getelementptr inbounds i8, ptr %predicate, i64 8
  store i64 %1, ptr %3, align 8
  store ptr %self, ptr %self.dbg.spill, align 8
  call void @llvm.dbg.declare(metadata ptr %self.dbg.spill, metadata !2310, metadata !DIExpression()), !dbg !2324
  call void @llvm.dbg.declare(metadata ptr %predicate, metadata !2311, metadata !DIExpression()), !dbg !2325
  call void @llvm.dbg.declare(metadata ptr %n, metadata !2312, metadata !DIExpression()), !dbg !2326
  call void @llvm.dbg.declare(metadata ptr %i, metadata !2318, metadata !DIExpression()), !dbg !2327
  br label %bb2, !dbg !2328

bb2:                                              ; preds = %start
  %self1 = getelementptr inbounds i8, ptr %self, i64 8, !dbg !2328
  store ptr %self1, ptr %self.dbg.spill2, align 8, !dbg !2328
  call void @llvm.dbg.declare(metadata ptr %self.dbg.spill2, metadata !2329, metadata !DIExpression()), !dbg !2333
  %end = load ptr, ptr %self1, align 8, !dbg !2328, !nonnull !16, !noundef !16
  store ptr %end, ptr %end.dbg.spill, align 8, !dbg !2328
  call void @llvm.dbg.declare(metadata ptr %end.dbg.spill, metadata !2316, metadata !DIExpression()), !dbg !2335
  call void @llvm.dbg.declare(metadata ptr %end.dbg.spill, metadata !2336, metadata !DIExpression()), !dbg !2344
  %subtracted = load ptr, ptr %self, align 8, !dbg !2335, !nonnull !16, !noundef !16
  store ptr %subtracted, ptr %subtracted.dbg.spill, align 8, !dbg !2335
  call void @llvm.dbg.declare(metadata ptr %subtracted.dbg.spill, metadata !2343, metadata !DIExpression()), !dbg !2346
; invoke core::ptr::const_ptr::<impl *const T>::sub_ptr
  %4 = invoke i64 @"_ZN4core3ptr9const_ptr33_$LT$impl$u20$$BP$const$u20$T$GT$7sub_ptr17h0c0365edc2735ed3E"(ptr %end, ptr %subtracted)
          to label %bb15 unwind label %cleanup.loopexit.split-lp, !dbg !2347

bb13:                                             ; preds = %cleanup
  %5 = load ptr, ptr %2, align 8, !dbg !2348, !noundef !16
  %6 = getelementptr inbounds i8, ptr %2, i64 8, !dbg !2348
  %7 = load i32, ptr %6, align 8, !dbg !2348, !noundef !16
  %8 = insertvalue { ptr, i32 } poison, ptr %5, 0, !dbg !2348
  %9 = insertvalue { ptr, i32 } %8, i32 %7, 1, !dbg !2348
  resume { ptr, i32 } %9, !dbg !2348

cleanup.loopexit:                                 ; preds = %bb4, %bb6
  %lpad.loopexit = landingpad { ptr, i32 }
          cleanup
  br label %cleanup

cleanup.loopexit.split-lp:                        ; preds = %bb2, %panic
  %lpad.loopexit.split-lp = landingpad { ptr, i32 }
          cleanup
  br label %cleanup

cleanup:                                          ; preds = %cleanup.loopexit.split-lp, %cleanup.loopexit
  %lpad.phi = phi { ptr, i32 } [ %lpad.loopexit, %cleanup.loopexit ], [ %lpad.loopexit.split-lp, %cleanup.loopexit.split-lp ]
  %10 = extractvalue { ptr, i32 } %lpad.phi, 0
  %11 = extractvalue { ptr, i32 } %lpad.phi, 1
  store ptr %10, ptr %2, align 8
  %12 = getelementptr inbounds i8, ptr %2, i64 8
  store i32 %11, ptr %12, align 8
  br label %bb13

bb15:                                             ; preds = %bb2
  store i64 %4, ptr %n, align 8, !dbg !2347
  br label %bb3, !dbg !2328

bb3:                                              ; preds = %bb1, %bb15
  store i64 0, ptr %i, align 8, !dbg !2349
  br label %bb4, !dbg !2350

bb1:                                              ; No predecessors!
  %13 = getelementptr inbounds i8, ptr %self, i64 8, !dbg !2328
  %self3 = load ptr, ptr %13, align 8, !dbg !2328, !noundef !16
  store ptr %self3, ptr %self.dbg.spill4, align 8, !dbg !2328
  call void @llvm.dbg.declare(metadata ptr %self.dbg.spill4, metadata !2351, metadata !DIExpression()), !dbg !2355
  call void @llvm.dbg.declare(metadata ptr %self.dbg.spill4, metadata !2357, metadata !DIExpression()), !dbg !2361
  %len = ptrtoint ptr %self3 to i64, !dbg !2363
  store i64 %len, ptr %len.dbg.spill, align 8, !dbg !2363
  call void @llvm.dbg.declare(metadata ptr %len.dbg.spill, metadata !2314, metadata !DIExpression()), !dbg !2364
  store i64 %len, ptr %n, align 8, !dbg !2364
  br label %bb3, !dbg !2328

bb4:                                              ; preds = %bb10, %bb3
; invoke <core::slice::iter::Iter<T> as core::iter::traits::iterator::Iterator>::next
  %14 = invoke align 8 ptr @"_ZN91_$LT$core..slice..iter..Iter$LT$T$GT$$u20$as$u20$core..iter..traits..iterator..Iterator$GT$4next17hb304998046f089e5E"(ptr align 8 %self)
          to label %bb5 unwind label %cleanup.loopexit, !dbg !2365

bb5:                                              ; preds = %bb4
  store ptr %14, ptr %_12, align 8, !dbg !2365
  %15 = load ptr, ptr %_12, align 8, !dbg !2366, !noundef !16
  %16 = ptrtoint ptr %15 to i64, !dbg !2366
  %17 = icmp eq i64 %16, 0, !dbg !2366
  %_13 = select i1 %17, i64 0, i64 1, !dbg !2366
  %18 = icmp eq i64 %_13, 1, !dbg !2366
  br i1 %18, label %bb6, label %bb11, !dbg !2366

bb6:                                              ; preds = %bb5
  %x = load ptr, ptr %_12, align 8, !dbg !2367, !nonnull !16, !align !491, !noundef !16
  store ptr %x, ptr %x.dbg.spill, align 8, !dbg !2367
  call void @llvm.dbg.declare(metadata ptr %x.dbg.spill, metadata !2320, metadata !DIExpression()), !dbg !2367
  store ptr %x, ptr %_17, align 8, !dbg !2368
  %19 = load ptr, ptr %_17, align 8, !dbg !2368, !nonnull !16, !align !491, !noundef !16
; invoke <log::LevelFilter as core::str::traits::FromStr>::from_str::{{closure}}
  %_15 = invoke zeroext i1 @"_ZN63_$LT$log..LevelFilter$u20$as$u20$core..str..traits..FromStr$GT$8from_str28_$u7b$$u7b$closure$u7d$$u7d$17h78498649d922709dE"(ptr align 8 %predicate, ptr align 8 %19)
          to label %bb7 unwind label %cleanup.loopexit, !dbg !2368

bb11:                                             ; preds = %bb5
  %20 = load i64, ptr @0, align 8, !dbg !2369, !range !192, !noundef !16
  %21 = load i64, ptr getelementptr inbounds (i8, ptr @0, i64 8), align 8, !dbg !2369
  store i64 %20, ptr %_0, align 8, !dbg !2369
  %22 = getelementptr inbounds i8, ptr %_0, i64 8, !dbg !2369
  store i64 %21, ptr %22, align 8, !dbg !2369
  br label %bb12, !dbg !2370

bb7:                                              ; preds = %bb6
  br i1 %_15, label %bb8, label %bb9, !dbg !2368

bb9:                                              ; preds = %bb7
  %23 = load i64, ptr %i, align 8, !dbg !2371, !noundef !16
  %24 = call { i64, i1 } @llvm.uadd.with.overflow.i64(i64 %23, i64 1), !dbg !2371
  %_22.0 = extractvalue { i64, i1 } %24, 0, !dbg !2371
  %_22.1 = extractvalue { i64, i1 } %24, 1, !dbg !2371
  %25 = call i1 @llvm.expect.i1(i1 %_22.1, i1 false), !dbg !2371
  br i1 %25, label %panic, label %bb10, !dbg !2371

bb8:                                              ; preds = %bb7
  %_19 = load i64, ptr %i, align 8, !dbg !2372, !noundef !16
  %_20 = load i64, ptr %n, align 8, !dbg !2373, !noundef !16
  %cond = icmp ult i64 %_19, %_20, !dbg !2372
  %26 = zext i1 %cond to i8, !dbg !2372
  store i8 %26, ptr %cond.dbg.spill, align 1, !dbg !2372
  call void @llvm.dbg.declare(metadata ptr %cond.dbg.spill, metadata !2374, metadata !DIExpression()), !dbg !2388
  br label %bb16, !dbg !2390

bb10:                                             ; preds = %bb9
  store i64 %_22.0, ptr %i, align 8, !dbg !2371
  br label %bb4, !dbg !2350

panic:                                            ; preds = %bb9
; invoke core::panicking::panic
  invoke void @_ZN4core9panicking5panic17h5884aad3a9044857E(ptr align 1 @str.0, i64 28, ptr align 8 @alloc_57aa458a7ae645d3a9cf1d07b69ee5e7) #10
          to label %unreachable unwind label %cleanup.loopexit.split-lp, !dbg !2371

unreachable:                                      ; preds = %panic
  unreachable

bb16:                                             ; preds = %bb8
; call core::hint::assert_unchecked::precondition_check
  call void @_ZN4core4hint16assert_unchecked18precondition_check17h01dce3b97a240e4aE(i1 zeroext %cond) #11, !dbg !2390
  br label %bb17, !dbg !2390

bb17:                                             ; preds = %bb16
  %_21 = load i64, ptr %i, align 8, !dbg !2391, !noundef !16
  %27 = getelementptr inbounds i8, ptr %_0, i64 8, !dbg !2392
  store i64 %_21, ptr %27, align 8, !dbg !2392
  store i64 1, ptr %_0, align 8, !dbg !2392
  br label %bb12, !dbg !2370

bb12:                                             ; preds = %bb11, %bb17
  %28 = load i64, ptr %_0, align 8, !dbg !2393, !range !192, !noundef !16
  %29 = getelementptr inbounds i8, ptr %_0, i64 8, !dbg !2393
  %30 = load i64, ptr %29, align 8, !dbg !2393
  %31 = insertvalue { i64, i64 } poison, i64 %28, 0, !dbg !2393
  %32 = insertvalue { i64, i64 } %31, i64 %30, 1, !dbg !2393
  ret { i64, i64 } %32, !dbg !2393

bb18:                                             ; No predecessors!
  unreachable, !dbg !2348
}

; <core::slice::iter::Iter<T> as core::iter::traits::iterator::Iterator>::position
; Function Attrs: inlinehint uwtable
define { i64, i64 } @"_ZN91_$LT$core..slice..iter..Iter$LT$T$GT$$u20$as$u20$core..iter..traits..iterator..Iterator$GT$8position17hdef0d0a45951c5aaE"(ptr align 8 %self, ptr align 1 %0, i64 %1) unnamed_addr #0 personality ptr @rust_eh_personality !dbg !2394 {
start:
  %cond.dbg.spill = alloca i8, align 1
  %x.dbg.spill = alloca ptr, align 8
  %len.dbg.spill = alloca i64, align 8
  %self.dbg.spill4 = alloca ptr, align 8
  %2 = alloca { ptr, i32, [1 x i32] }, align 8
  %subtracted.dbg.spill = alloca ptr, align 8
  %end.dbg.spill = alloca ptr, align 8
  %self.dbg.spill2 = alloca ptr, align 8
  %self.dbg.spill = alloca ptr, align 8
  %_17 = alloca ptr, align 8
  %_12 = alloca ptr, align 8
  %i = alloca i64, align 8
  %n = alloca i64, align 8
  %_0 = alloca %"core::option::Option<usize>", align 8
  %predicate = alloca %"{closure@src/lib.rs:484:23: 484:30}", align 8
  store ptr %0, ptr %predicate, align 8
  %3 = getelementptr inbounds i8, ptr %predicate, i64 8
  store i64 %1, ptr %3, align 8
  store ptr %self, ptr %self.dbg.spill, align 8
  call void @llvm.dbg.declare(metadata ptr %self.dbg.spill, metadata !2401, metadata !DIExpression()), !dbg !2415
  call void @llvm.dbg.declare(metadata ptr %predicate, metadata !2402, metadata !DIExpression()), !dbg !2416
  call void @llvm.dbg.declare(metadata ptr %n, metadata !2403, metadata !DIExpression()), !dbg !2417
  call void @llvm.dbg.declare(metadata ptr %i, metadata !2409, metadata !DIExpression()), !dbg !2418
  br label %bb2, !dbg !2419

bb2:                                              ; preds = %start
  %self1 = getelementptr inbounds i8, ptr %self, i64 8, !dbg !2419
  store ptr %self1, ptr %self.dbg.spill2, align 8, !dbg !2419
  call void @llvm.dbg.declare(metadata ptr %self.dbg.spill2, metadata !2420, metadata !DIExpression()), !dbg !2424
  %end = load ptr, ptr %self1, align 8, !dbg !2419, !nonnull !16, !noundef !16
  store ptr %end, ptr %end.dbg.spill, align 8, !dbg !2419
  call void @llvm.dbg.declare(metadata ptr %end.dbg.spill, metadata !2407, metadata !DIExpression()), !dbg !2426
  call void @llvm.dbg.declare(metadata ptr %end.dbg.spill, metadata !2427, metadata !DIExpression()), !dbg !2432
  %subtracted = load ptr, ptr %self, align 8, !dbg !2426, !nonnull !16, !noundef !16
  store ptr %subtracted, ptr %subtracted.dbg.spill, align 8, !dbg !2426
  call void @llvm.dbg.declare(metadata ptr %subtracted.dbg.spill, metadata !2431, metadata !DIExpression()), !dbg !2434
; invoke core::ptr::const_ptr::<impl *const T>::sub_ptr
  %4 = invoke i64 @"_ZN4core3ptr9const_ptr33_$LT$impl$u20$$BP$const$u20$T$GT$7sub_ptr17h0c0365edc2735ed3E"(ptr %end, ptr %subtracted)
          to label %bb15 unwind label %cleanup.loopexit.split-lp, !dbg !2435

bb13:                                             ; preds = %cleanup
  %5 = load ptr, ptr %2, align 8, !dbg !2436, !noundef !16
  %6 = getelementptr inbounds i8, ptr %2, i64 8, !dbg !2436
  %7 = load i32, ptr %6, align 8, !dbg !2436, !noundef !16
  %8 = insertvalue { ptr, i32 } poison, ptr %5, 0, !dbg !2436
  %9 = insertvalue { ptr, i32 } %8, i32 %7, 1, !dbg !2436
  resume { ptr, i32 } %9, !dbg !2436

cleanup.loopexit:                                 ; preds = %bb4, %bb6
  %lpad.loopexit = landingpad { ptr, i32 }
          cleanup
  br label %cleanup

cleanup.loopexit.split-lp:                        ; preds = %bb2, %panic
  %lpad.loopexit.split-lp = landingpad { ptr, i32 }
          cleanup
  br label %cleanup

cleanup:                                          ; preds = %cleanup.loopexit.split-lp, %cleanup.loopexit
  %lpad.phi = phi { ptr, i32 } [ %lpad.loopexit, %cleanup.loopexit ], [ %lpad.loopexit.split-lp, %cleanup.loopexit.split-lp ]
  %10 = extractvalue { ptr, i32 } %lpad.phi, 0
  %11 = extractvalue { ptr, i32 } %lpad.phi, 1
  store ptr %10, ptr %2, align 8
  %12 = getelementptr inbounds i8, ptr %2, i64 8
  store i32 %11, ptr %12, align 8
  br label %bb13

bb15:                                             ; preds = %bb2
  store i64 %4, ptr %n, align 8, !dbg !2435
  br label %bb3, !dbg !2419

bb3:                                              ; preds = %bb1, %bb15
  store i64 0, ptr %i, align 8, !dbg !2437
  br label %bb4, !dbg !2438

bb1:                                              ; No predecessors!
  %13 = getelementptr inbounds i8, ptr %self, i64 8, !dbg !2419
  %self3 = load ptr, ptr %13, align 8, !dbg !2419, !noundef !16
  store ptr %self3, ptr %self.dbg.spill4, align 8, !dbg !2419
  call void @llvm.dbg.declare(metadata ptr %self.dbg.spill4, metadata !2439, metadata !DIExpression()), !dbg !2443
  call void @llvm.dbg.declare(metadata ptr %self.dbg.spill4, metadata !2445, metadata !DIExpression()), !dbg !2449
  %len = ptrtoint ptr %self3 to i64, !dbg !2451
  store i64 %len, ptr %len.dbg.spill, align 8, !dbg !2451
  call void @llvm.dbg.declare(metadata ptr %len.dbg.spill, metadata !2405, metadata !DIExpression()), !dbg !2452
  store i64 %len, ptr %n, align 8, !dbg !2452
  br label %bb3, !dbg !2419

bb4:                                              ; preds = %bb10, %bb3
; invoke <core::slice::iter::Iter<T> as core::iter::traits::iterator::Iterator>::next
  %14 = invoke align 8 ptr @"_ZN91_$LT$core..slice..iter..Iter$LT$T$GT$$u20$as$u20$core..iter..traits..iterator..Iterator$GT$4next17hb304998046f089e5E"(ptr align 8 %self)
          to label %bb5 unwind label %cleanup.loopexit, !dbg !2453

bb5:                                              ; preds = %bb4
  store ptr %14, ptr %_12, align 8, !dbg !2453
  %15 = load ptr, ptr %_12, align 8, !dbg !2454, !noundef !16
  %16 = ptrtoint ptr %15 to i64, !dbg !2454
  %17 = icmp eq i64 %16, 0, !dbg !2454
  %_13 = select i1 %17, i64 0, i64 1, !dbg !2454
  %18 = icmp eq i64 %_13, 1, !dbg !2454
  br i1 %18, label %bb6, label %bb11, !dbg !2454

bb6:                                              ; preds = %bb5
  %x = load ptr, ptr %_12, align 8, !dbg !2455, !nonnull !16, !align !491, !noundef !16
  store ptr %x, ptr %x.dbg.spill, align 8, !dbg !2455
  call void @llvm.dbg.declare(metadata ptr %x.dbg.spill, metadata !2411, metadata !DIExpression()), !dbg !2455
  store ptr %x, ptr %_17, align 8, !dbg !2456
  %19 = load ptr, ptr %_17, align 8, !dbg !2456, !nonnull !16, !align !491, !noundef !16
; invoke <log::Level as core::str::traits::FromStr>::from_str::{{closure}}
  %_15 = invoke zeroext i1 @"_ZN57_$LT$log..Level$u20$as$u20$core..str..traits..FromStr$GT$8from_str28_$u7b$$u7b$closure$u7d$$u7d$17had554395a3ced57eE"(ptr align 8 %predicate, ptr align 8 %19)
          to label %bb7 unwind label %cleanup.loopexit, !dbg !2456

bb11:                                             ; preds = %bb5
  %20 = load i64, ptr @0, align 8, !dbg !2457, !range !192, !noundef !16
  %21 = load i64, ptr getelementptr inbounds (i8, ptr @0, i64 8), align 8, !dbg !2457
  store i64 %20, ptr %_0, align 8, !dbg !2457
  %22 = getelementptr inbounds i8, ptr %_0, i64 8, !dbg !2457
  store i64 %21, ptr %22, align 8, !dbg !2457
  br label %bb12, !dbg !2458

bb7:                                              ; preds = %bb6
  br i1 %_15, label %bb8, label %bb9, !dbg !2456

bb9:                                              ; preds = %bb7
  %23 = load i64, ptr %i, align 8, !dbg !2459, !noundef !16
  %24 = call { i64, i1 } @llvm.uadd.with.overflow.i64(i64 %23, i64 1), !dbg !2459
  %_22.0 = extractvalue { i64, i1 } %24, 0, !dbg !2459
  %_22.1 = extractvalue { i64, i1 } %24, 1, !dbg !2459
  %25 = call i1 @llvm.expect.i1(i1 %_22.1, i1 false), !dbg !2459
  br i1 %25, label %panic, label %bb10, !dbg !2459

bb8:                                              ; preds = %bb7
  %_19 = load i64, ptr %i, align 8, !dbg !2460, !noundef !16
  %_20 = load i64, ptr %n, align 8, !dbg !2461, !noundef !16
  %cond = icmp ult i64 %_19, %_20, !dbg !2460
  %26 = zext i1 %cond to i8, !dbg !2460
  store i8 %26, ptr %cond.dbg.spill, align 1, !dbg !2460
  call void @llvm.dbg.declare(metadata ptr %cond.dbg.spill, metadata !2462, metadata !DIExpression()), !dbg !2466
  br label %bb16, !dbg !2468

bb10:                                             ; preds = %bb9
  store i64 %_22.0, ptr %i, align 8, !dbg !2459
  br label %bb4, !dbg !2438

panic:                                            ; preds = %bb9
; invoke core::panicking::panic
  invoke void @_ZN4core9panicking5panic17h5884aad3a9044857E(ptr align 1 @str.0, i64 28, ptr align 8 @alloc_57aa458a7ae645d3a9cf1d07b69ee5e7) #10
          to label %unreachable unwind label %cleanup.loopexit.split-lp, !dbg !2459

unreachable:                                      ; preds = %panic
  unreachable

bb16:                                             ; preds = %bb8
; call core::hint::assert_unchecked::precondition_check
  call void @_ZN4core4hint16assert_unchecked18precondition_check17h01dce3b97a240e4aE(i1 zeroext %cond) #11, !dbg !2468
  br label %bb17, !dbg !2468

bb17:                                             ; preds = %bb16
  %_21 = load i64, ptr %i, align 8, !dbg !2469, !noundef !16
  %27 = getelementptr inbounds i8, ptr %_0, i64 8, !dbg !2470
  store i64 %_21, ptr %27, align 8, !dbg !2470
  store i64 1, ptr %_0, align 8, !dbg !2470
  br label %bb12, !dbg !2458

bb12:                                             ; preds = %bb11, %bb17
  %28 = load i64, ptr %_0, align 8, !dbg !2471, !range !192, !noundef !16
  %29 = getelementptr inbounds i8, ptr %_0, i64 8, !dbg !2471
  %30 = load i64, ptr %29, align 8, !dbg !2471
  %31 = insertvalue { i64, i64 } poison, i64 %28, 0, !dbg !2471
  %32 = insertvalue { i64, i64 } %31, i64 %30, 1, !dbg !2471
  ret { i64, i64 } %32, !dbg !2471

bb18:                                             ; No predecessors!
  unreachable, !dbg !2436
}

; <core::slice::iter::Iter<T> as core::iter::traits::iterator::Iterator>::size_hint
; Function Attrs: inlinehint uwtable
define void @"_ZN91_$LT$core..slice..iter..Iter$LT$T$GT$$u20$as$u20$core..iter..traits..iterator..Iterator$GT$9size_hint17heb37d0981046a352E"(ptr sret({ i64, %"core::option::Option<usize>" }) align 8 %_0, ptr align 8 %self) unnamed_addr #0 !dbg !2472 {
start:
  %len.dbg.spill = alloca i64, align 8
  %self.dbg.spill4 = alloca ptr, align 8
  %subtracted.dbg.spill = alloca ptr, align 8
  %end.dbg.spill = alloca ptr, align 8
  %self.dbg.spill2 = alloca ptr, align 8
  %self.dbg.spill = alloca ptr, align 8
  %_11 = alloca %"core::option::Option<usize>", align 8
  %exact = alloca i64, align 8
  store ptr %self, ptr %self.dbg.spill, align 8
  call void @llvm.dbg.declare(metadata ptr %self.dbg.spill, metadata !2480, metadata !DIExpression()), !dbg !2487
  call void @llvm.dbg.declare(metadata ptr %exact, metadata !2481, metadata !DIExpression()), !dbg !2488
  br label %bb2, !dbg !2489

bb2:                                              ; preds = %start
  %self1 = getelementptr inbounds i8, ptr %self, i64 8, !dbg !2489
  store ptr %self1, ptr %self.dbg.spill2, align 8, !dbg !2489
  call void @llvm.dbg.declare(metadata ptr %self.dbg.spill2, metadata !2490, metadata !DIExpression()), !dbg !2501
  %end = load ptr, ptr %self1, align 8, !dbg !2489, !nonnull !16, !noundef !16
  store ptr %end, ptr %end.dbg.spill, align 8, !dbg !2489
  call void @llvm.dbg.declare(metadata ptr %end.dbg.spill, metadata !2485, metadata !DIExpression()), !dbg !2503
  call void @llvm.dbg.declare(metadata ptr %end.dbg.spill, metadata !2504, metadata !DIExpression()), !dbg !2512
  %subtracted = load ptr, ptr %self, align 8, !dbg !2503, !nonnull !16, !noundef !16
  store ptr %subtracted, ptr %subtracted.dbg.spill, align 8, !dbg !2503
  call void @llvm.dbg.declare(metadata ptr %subtracted.dbg.spill, metadata !2511, metadata !DIExpression()), !dbg !2514
; call core::ptr::const_ptr::<impl *const T>::sub_ptr
  %0 = call i64 @"_ZN4core3ptr9const_ptr33_$LT$impl$u20$$BP$const$u20$T$GT$7sub_ptr17h864385686a74c62cE"(ptr %end, ptr %subtracted), !dbg !2515
  store i64 %0, ptr %exact, align 8, !dbg !2515
  br label %bb3, !dbg !2489

bb3:                                              ; preds = %bb1, %bb2
  %_10 = load i64, ptr %exact, align 8, !dbg !2516, !noundef !16
  %_12 = load i64, ptr %exact, align 8, !dbg !2517, !noundef !16
  %1 = getelementptr inbounds i8, ptr %_11, i64 8, !dbg !2518
  store i64 %_12, ptr %1, align 8, !dbg !2518
  store i64 1, ptr %_11, align 8, !dbg !2518
  store i64 %_10, ptr %_0, align 8, !dbg !2519
  %2 = load i64, ptr %_11, align 8, !dbg !2519, !range !192, !noundef !16
  %3 = getelementptr inbounds i8, ptr %_11, i64 8, !dbg !2519
  %4 = load i64, ptr %3, align 8, !dbg !2519
  %5 = getelementptr inbounds i8, ptr %_0, i64 8, !dbg !2519
  store i64 %2, ptr %5, align 8, !dbg !2519
  %6 = getelementptr inbounds i8, ptr %5, i64 8, !dbg !2519
  store i64 %4, ptr %6, align 8, !dbg !2519
  ret void, !dbg !2520

bb1:                                              ; No predecessors!
  %7 = getelementptr inbounds i8, ptr %self, i64 8, !dbg !2489
  %self3 = load ptr, ptr %7, align 8, !dbg !2489, !noundef !16
  store ptr %self3, ptr %self.dbg.spill4, align 8, !dbg !2489
  call void @llvm.dbg.declare(metadata ptr %self.dbg.spill4, metadata !2521, metadata !DIExpression()), !dbg !2527
  call void @llvm.dbg.declare(metadata ptr %self.dbg.spill4, metadata !2529, metadata !DIExpression()), !dbg !2536
  %len = ptrtoint ptr %self3 to i64, !dbg !2538
  store i64 %len, ptr %len.dbg.spill, align 8, !dbg !2538
  call void @llvm.dbg.declare(metadata ptr %len.dbg.spill, metadata !2483, metadata !DIExpression()), !dbg !2539
  store i64 %len, ptr %exact, align 8, !dbg !2539
  br label %bb3, !dbg !2489
}

; <core::ops::control_flow::ControlFlow<B,C> as core::ops::try_trait::Try>::from_output
; Function Attrs: inlinehint uwtable
define zeroext i1 @"_ZN95_$LT$core..ops..control_flow..ControlFlow$LT$B$C$C$GT$$u20$as$u20$core..ops..try_trait..Try$GT$11from_output17h2e3e53a91ce4ccdaE"() unnamed_addr #0 !dbg !2540 {
start:
  %output.dbg.spill = alloca {}, align 1
  %_0 = alloca i8, align 1
  call void @llvm.dbg.declare(metadata ptr %output.dbg.spill, metadata !2545, metadata !DIExpression()), !dbg !2546
  store i8 0, ptr %_0, align 1, !dbg !2547
  %0 = load i8, ptr %_0, align 1, !dbg !2548, !range !352, !noundef !16
  %1 = trunc i8 %0 to i1, !dbg !2548
  ret i1 %1, !dbg !2548
}

; <core::ops::control_flow::ControlFlow<B,C> as core::ops::try_trait::Try>::from_output
; Function Attrs: inlinehint uwtable
define { i64, i64 } @"_ZN95_$LT$core..ops..control_flow..ControlFlow$LT$B$C$C$GT$$u20$as$u20$core..ops..try_trait..Try$GT$11from_output17hb0ed64ee4e6ae20bE"() unnamed_addr #0 !dbg !2549 {
start:
  %output.dbg.spill = alloca {}, align 1
  %_0 = alloca %"core::ops::control_flow::ControlFlow<usize>", align 8
  call void @llvm.dbg.declare(metadata ptr %output.dbg.spill, metadata !2553, metadata !DIExpression()), !dbg !2554
  store i64 0, ptr %_0, align 8, !dbg !2555
  %0 = load i64, ptr %_0, align 8, !dbg !2556, !range !192, !noundef !16
  %1 = getelementptr inbounds i8, ptr %_0, i64 8, !dbg !2556
  %2 = load i64, ptr %1, align 8, !dbg !2556
  %3 = insertvalue { i64, i64 } poison, i64 %0, 0, !dbg !2556
  %4 = insertvalue { i64, i64 } %3, i64 %2, 1, !dbg !2556
  ret { i64, i64 } %4, !dbg !2556
}

; <core::ops::control_flow::ControlFlow<B,C> as core::ops::try_trait::Try>::branch
; Function Attrs: inlinehint uwtable
define zeroext i1 @"_ZN95_$LT$core..ops..control_flow..ControlFlow$LT$B$C$C$GT$$u20$as$u20$core..ops..try_trait..Try$GT$6branch17h5c1935094904d8f6E"(i1 zeroext %0) unnamed_addr #0 !dbg !2557 {
start:
  %b.dbg.spill = alloca {}, align 1
  %c.dbg.spill = alloca {}, align 1
  %_0 = alloca i8, align 1
  %self = alloca i8, align 1
  %1 = zext i1 %0 to i8
  store i8 %1, ptr %self, align 1
  call void @llvm.dbg.declare(metadata ptr %self, metadata !2576, metadata !DIExpression()), !dbg !2581
  call void @llvm.dbg.declare(metadata ptr %c.dbg.spill, metadata !2577, metadata !DIExpression()), !dbg !2582
  call void @llvm.dbg.declare(metadata ptr %b.dbg.spill, metadata !2579, metadata !DIExpression()), !dbg !2583
  %2 = load i8, ptr %self, align 1, !dbg !2584, !range !352, !noundef !16
  %3 = trunc i8 %2 to i1, !dbg !2584
  %_2 = zext i1 %3 to i64, !dbg !2584
  %4 = icmp eq i64 %_2, 0, !dbg !2585
  br i1 %4, label %bb3, label %bb2, !dbg !2585

bb3:                                              ; preds = %start
  store i8 0, ptr %_0, align 1, !dbg !2586
  br label %bb4, !dbg !2587

bb2:                                              ; preds = %start
  store i8 1, ptr %_0, align 1, !dbg !2588
  br label %bb4, !dbg !2589

bb4:                                              ; preds = %bb2, %bb3
  %5 = load i8, ptr %_0, align 1, !dbg !2590, !range !352, !noundef !16
  %6 = trunc i8 %5 to i1, !dbg !2590
  ret i1 %6, !dbg !2590

bb1:                                              ; No predecessors!
  unreachable, !dbg !2584
}

; <core::ops::control_flow::ControlFlow<B,C> as core::ops::try_trait::Try>::branch
; Function Attrs: inlinehint uwtable
define { i64, i64 } @"_ZN95_$LT$core..ops..control_flow..ControlFlow$LT$B$C$C$GT$$u20$as$u20$core..ops..try_trait..Try$GT$6branch17heaa11fd113377f60E"(i64 %0, i64 %1) unnamed_addr #0 !dbg !2591 {
start:
  %b.dbg.spill = alloca i64, align 8
  %c.dbg.spill = alloca {}, align 1
  %_5 = alloca i64, align 8
  %_0 = alloca %"core::ops::control_flow::ControlFlow<core::ops::control_flow::ControlFlow<usize, core::convert::Infallible>>", align 8
  %self = alloca %"core::ops::control_flow::ControlFlow<usize>", align 8
  store i64 %0, ptr %self, align 8
  %2 = getelementptr inbounds i8, ptr %self, i64 8
  store i64 %1, ptr %2, align 8
  call void @llvm.dbg.declare(metadata ptr %self, metadata !2610, metadata !DIExpression()), !dbg !2615
  call void @llvm.dbg.declare(metadata ptr %c.dbg.spill, metadata !2611, metadata !DIExpression()), !dbg !2616
  %_2 = load i64, ptr %self, align 8, !dbg !2617, !range !192, !noundef !16
  %3 = icmp eq i64 %_2, 0, !dbg !2618
  br i1 %3, label %bb3, label %bb2, !dbg !2618

bb3:                                              ; preds = %start
  store i64 0, ptr %_0, align 8, !dbg !2619
  br label %bb4, !dbg !2620

bb2:                                              ; preds = %start
  %4 = getelementptr inbounds i8, ptr %self, i64 8, !dbg !2621
  %b = load i64, ptr %4, align 8, !dbg !2621, !noundef !16
  store i64 %b, ptr %b.dbg.spill, align 8, !dbg !2621
  call void @llvm.dbg.declare(metadata ptr %b.dbg.spill, metadata !2613, metadata !DIExpression()), !dbg !2622
  store i64 %b, ptr %_5, align 8, !dbg !2623
  %5 = load i64, ptr %_5, align 8, !dbg !2624, !noundef !16
  %6 = getelementptr inbounds i8, ptr %_0, i64 8, !dbg !2624
  store i64 %5, ptr %6, align 8, !dbg !2624
  store i64 1, ptr %_0, align 8, !dbg !2624
  br label %bb4, !dbg !2625

bb4:                                              ; preds = %bb2, %bb3
  %7 = load i64, ptr %_0, align 8, !dbg !2626, !range !192, !noundef !16
  %8 = getelementptr inbounds i8, ptr %_0, i64 8, !dbg !2626
  %9 = load i64, ptr %8, align 8, !dbg !2626
  %10 = insertvalue { i64, i64 } poison, i64 %7, 0, !dbg !2626
  %11 = insertvalue { i64, i64 } %10, i64 %9, 1, !dbg !2626
  ret { i64, i64 } %11, !dbg !2626

bb1:                                              ; No predecessors!
  unreachable, !dbg !2617
}

; <log::Level as core::str::traits::FromStr>::from_str
; Function Attrs: uwtable
define i64 @"_ZN57_$LT$log..Level$u20$as$u20$core..str..traits..FromStr$GT$8from_str17h440e9e331f059308E"(ptr align 1 %level.0, i64 %level.1) unnamed_addr #1 !dbg !2627 {
start:
  %level.dbg.spill = alloca { ptr, i64 }, align 8
  %_12 = alloca %"{closure@src/lib.rs:484:23: 484:30}", align 8
  %_9 = alloca %"core::slice::iter::Iter<'_, &str>", align 8
  %_4 = alloca %"core::iter::adapters::map::Map<core::iter::adapters::filter::Filter<core::option::IntoIter<usize>, {closure@src/lib.rs:486:21: 486:27}>, {closure@src/lib.rs:487:18: 487:23}>", align 8
  store ptr %level.0, ptr %level.dbg.spill, align 8
  %0 = getelementptr inbounds i8, ptr %level.dbg.spill, i64 8
  store i64 %level.1, ptr %0, align 8
  call void @llvm.dbg.declare(metadata ptr %level.dbg.spill, metadata !2631, metadata !DIExpression()), !dbg !2632
; call core::slice::<impl [T]>::iter
  %1 = call { ptr, ptr } @"_ZN4core5slice29_$LT$impl$u20$$u5b$T$u5d$$GT$4iter17h6c54ecd20462dd44E"(ptr align 8 @_ZN3log15LOG_LEVEL_NAMES17hdd4089b906216a13E, i64 6), !dbg !2633
  %2 = extractvalue { ptr, ptr } %1, 0, !dbg !2633
  %3 = extractvalue { ptr, ptr } %1, 1, !dbg !2633
  store ptr %2, ptr %_9, align 8, !dbg !2633
  %4 = getelementptr inbounds i8, ptr %_9, i64 8, !dbg !2633
  store ptr %3, ptr %4, align 8, !dbg !2633
  store ptr %level.0, ptr %_12, align 8, !dbg !2634
  %5 = getelementptr inbounds i8, ptr %_12, i64 8, !dbg !2634
  store i64 %level.1, ptr %5, align 8, !dbg !2634
  %6 = load ptr, ptr %_12, align 8, !dbg !2633, !nonnull !16, !align !440, !noundef !16
  %7 = getelementptr inbounds i8, ptr %_12, i64 8, !dbg !2633
  %8 = load i64, ptr %7, align 8, !dbg !2633, !noundef !16
; call <core::slice::iter::Iter<T> as core::iter::traits::iterator::Iterator>::position
  %9 = call { i64, i64 } @"_ZN91_$LT$core..slice..iter..Iter$LT$T$GT$$u20$as$u20$core..iter..traits..iterator..Iterator$GT$8position17hdef0d0a45951c5aaE"(ptr align 8 %_9, ptr align 1 %6, i64 %8), !dbg !2633
  %_7.0 = extractvalue { i64, i64 } %9, 0, !dbg !2633
  %_7.1 = extractvalue { i64, i64 } %9, 1, !dbg !2633
; call <core::option::Option<T> as core::iter::traits::collect::IntoIterator>::into_iter
  %10 = call { i64, i64 } @"_ZN91_$LT$core..option..Option$LT$T$GT$$u20$as$u20$core..iter..traits..collect..IntoIterator$GT$9into_iter17h106680ff334c8a89E"(i64 %_7.0, i64 %_7.1), !dbg !2633
  %_6.0 = extractvalue { i64, i64 } %10, 0, !dbg !2633
  %_6.1 = extractvalue { i64, i64 } %10, 1, !dbg !2633
; call core::iter::traits::iterator::Iterator::filter
  %11 = call { i64, i64 } @_ZN4core4iter6traits8iterator8Iterator6filter17h2822bd4582a8ae92E(i64 %_6.0, i64 %_6.1), !dbg !2633
  %_5.0 = extractvalue { i64, i64 } %11, 0, !dbg !2633
  %_5.1 = extractvalue { i64, i64 } %11, 1, !dbg !2633
; call core::iter::traits::iterator::Iterator::map
  %12 = call { i64, i64 } @_ZN4core4iter6traits8iterator8Iterator3map17hfa4b317ad75b6d4eE(i64 %_5.0, i64 %_5.1), !dbg !2633
  %13 = extractvalue { i64, i64 } %12, 0, !dbg !2633
  %14 = extractvalue { i64, i64 } %12, 1, !dbg !2633
  store i64 %13, ptr %_4, align 8, !dbg !2633
  %15 = getelementptr inbounds i8, ptr %_4, i64 8, !dbg !2633
  store i64 %14, ptr %15, align 8, !dbg !2633
; call <core::iter::adapters::map::Map<I,F> as core::iter::traits::iterator::Iterator>::next
  %_2 = call i64 @"_ZN102_$LT$core..iter..adapters..map..Map$LT$I$C$F$GT$$u20$as$u20$core..iter..traits..iterator..Iterator$GT$4next17h9e7c8a9cbfc809cdE"(ptr align 8 %_4), !dbg !2633, !range !203
; call core::option::Option<T>::ok_or
  %_0 = call i64 @"_ZN4core6option15Option$LT$T$GT$5ok_or17h4ebb2a884dd5a1eeE"(i64 %_2), !dbg !2633, !range !203
  ret i64 %_0, !dbg !2635
}

; <log::Level as core::str::traits::FromStr>::from_str::{{closure}}
; Function Attrs: inlinehint uwtable
define internal zeroext i1 @"_ZN57_$LT$log..Level$u20$as$u20$core..str..traits..FromStr$GT$8from_str28_$u7b$$u7b$closure$u7d$$u7d$17had554395a3ced57eE"(ptr align 8 %_1, ptr align 8 %_2) unnamed_addr #0 !dbg !2636 {
start:
  %name.dbg.spill = alloca { ptr, i64 }, align 8
  %_2.dbg.spill = alloca ptr, align 8
  %_1.dbg.spill = alloca ptr, align 8
  store ptr %_1, ptr %_1.dbg.spill, align 8
  call void @llvm.dbg.declare(metadata ptr %_1.dbg.spill, metadata !2641, metadata !DIExpression(DW_OP_deref, DW_OP_deref)), !dbg !2645
  store ptr %_2, ptr %_2.dbg.spill, align 8
  call void @llvm.dbg.declare(metadata ptr %_2.dbg.spill, metadata !2644, metadata !DIExpression()), !dbg !2646
  %name.0 = load ptr, ptr %_2, align 8, !dbg !2647, !nonnull !16, !align !440, !noundef !16
  %0 = getelementptr inbounds i8, ptr %_2, i64 8, !dbg !2647
  %name.1 = load i64, ptr %0, align 8, !dbg !2647, !noundef !16
  store ptr %name.0, ptr %name.dbg.spill, align 8, !dbg !2647
  %1 = getelementptr inbounds i8, ptr %name.dbg.spill, i64 8, !dbg !2647
  store i64 %name.1, ptr %1, align 8, !dbg !2647
  call void @llvm.dbg.declare(metadata ptr %name.dbg.spill, metadata !2642, metadata !DIExpression()), !dbg !2648
  %_4.0 = load ptr, ptr %_1, align 8, !dbg !2649, !nonnull !16, !align !440, !noundef !16
  %2 = getelementptr inbounds i8, ptr %_1, i64 8, !dbg !2649
  %_4.1 = load i64, ptr %2, align 8, !dbg !2649, !noundef !16
; call core::str::<impl str>::eq_ignore_ascii_case
  %_0 = call zeroext i1 @"_ZN4core3str21_$LT$impl$u20$str$GT$20eq_ignore_ascii_case17hbc742da59280304aE"(ptr align 1 %name.0, i64 %name.1, ptr align 1 %_4.0, i64 %_4.1), !dbg !2650
  ret i1 %_0, !dbg !2651
}

; <log::Level as core::str::traits::FromStr>::from_str::{{closure}}
; Function Attrs: inlinehint uwtable
define internal zeroext i1 @"_ZN57_$LT$log..Level$u20$as$u20$core..str..traits..FromStr$GT$8from_str28_$u7b$$u7b$closure$u7d$$u7d$17h1773b09bfb358033E"(ptr align 1 %_1, ptr align 8 %_2) unnamed_addr #0 !dbg !2652 {
start:
  %idx.dbg.spill = alloca i64, align 8
  %_2.dbg.spill = alloca ptr, align 8
  %_1.dbg.spill = alloca ptr, align 8
  store ptr %_1, ptr %_1.dbg.spill, align 8
  call void @llvm.dbg.declare(metadata ptr %_1.dbg.spill, metadata !2658, metadata !DIExpression()), !dbg !2660
  store ptr %_2, ptr %_2.dbg.spill, align 8
  call void @llvm.dbg.declare(metadata ptr %_2.dbg.spill, metadata !2659, metadata !DIExpression()), !dbg !2661
  %idx = load i64, ptr %_2, align 8, !dbg !2662, !noundef !16
  store i64 %idx, ptr %idx.dbg.spill, align 8, !dbg !2662
  call void @llvm.dbg.declare(metadata ptr %idx.dbg.spill, metadata !2656, metadata !DIExpression()), !dbg !2663
  %_0 = icmp ne i64 %idx, 0, !dbg !2664
  ret i1 %_0, !dbg !2665
}

; <log::Level as core::str::traits::FromStr>::from_str::{{closure}}
; Function Attrs: inlinehint uwtable
define internal i64 @"_ZN57_$LT$log..Level$u20$as$u20$core..str..traits..FromStr$GT$8from_str28_$u7b$$u7b$closure$u7d$$u7d$17he5745b4ce0a3bcd4E"(ptr align 1 %_1, i64 %idx) unnamed_addr #0 !dbg !2666 {
start:
  %val.dbg.spill.i = alloca i64, align 8
  %self.i = alloca i64, align 8
  %idx.dbg.spill = alloca i64, align 8
  %_1.dbg.spill = alloca ptr, align 8
  store ptr %_1, ptr %_1.dbg.spill, align 8
  call void @llvm.dbg.declare(metadata ptr %_1.dbg.spill, metadata !2669, metadata !DIExpression()), !dbg !2670
  store i64 %idx, ptr %idx.dbg.spill, align 8
  call void @llvm.dbg.declare(metadata ptr %idx.dbg.spill, metadata !2668, metadata !DIExpression()), !dbg !2671
; call log::Level::from_usize
  %_3 = call i64 @_ZN3log5Level10from_usize17he1a3397df0056e01E(i64 %idx), !dbg !2672, !range !203
  store i64 %_3, ptr %self.i, align 8
  call void @llvm.dbg.declare(metadata ptr %self.i, metadata !2673, metadata !DIExpression()), !dbg !2681
  %0 = load i64, ptr %self.i, align 8, !dbg !2683, !range !203, !noundef !16
  %1 = icmp eq i64 %0, 0, !dbg !2683
  %_2.i = select i1 %1, i64 0, i64 1, !dbg !2683
  br i1 %1, label %bb2.i, label %"_ZN4core6option15Option$LT$T$GT$6unwrap17hf7deebcf15320d2cE.exit", !dbg !2684

bb2.i:                                            ; preds = %start
; call core::option::unwrap_failed
  call void @_ZN4core6option13unwrap_failed17h30d0e12d963f0916E(ptr align 8 @alloc_91bd29e032cbf43cf23507b4836e5016) #10, !dbg !2685
  unreachable, !dbg !2685

"_ZN4core6option15Option$LT$T$GT$6unwrap17hf7deebcf15320d2cE.exit": ; preds = %start
  %val.i = load i64, ptr %self.i, align 8, !dbg !2686, !range !199, !noundef !16
  store i64 %val.i, ptr %val.dbg.spill.i, align 8, !dbg !2686
  call void @llvm.dbg.declare(metadata ptr %val.dbg.spill.i, metadata !2679, metadata !DIExpression()), !dbg !2687
  ret i64 %val.i, !dbg !2688
}

; <log::Level as core::fmt::Display>::fmt
; Function Attrs: uwtable
define zeroext i1 @"_ZN49_$LT$log..Level$u20$as$u20$core..fmt..Display$GT$3fmt17h6e359b3c8ac1ae26E"(ptr align 8 %self, ptr align 8 %fmt) unnamed_addr #1 !dbg !2689 {
start:
  %fmt.dbg.spill = alloca ptr, align 8
  %self.dbg.spill = alloca ptr, align 8
  store ptr %self, ptr %self.dbg.spill, align 8
  call void @llvm.dbg.declare(metadata ptr %self.dbg.spill, metadata !2695, metadata !DIExpression()), !dbg !2697
  store ptr %fmt, ptr %fmt.dbg.spill, align 8
  call void @llvm.dbg.declare(metadata ptr %fmt.dbg.spill, metadata !2696, metadata !DIExpression()), !dbg !2698
; call log::Level::as_str
  %0 = call { ptr, i64 } @_ZN3log5Level6as_str17hb77850a72f3098d5E(ptr align 8 %self), !dbg !2699
  %_3.0 = extractvalue { ptr, i64 } %0, 0, !dbg !2699
  %_3.1 = extractvalue { ptr, i64 } %0, 1, !dbg !2699
; call core::fmt::Formatter::pad
  %_0 = call zeroext i1 @_ZN4core3fmt9Formatter3pad17h2f69a4922a0818bbE(ptr align 8 %fmt, ptr align 1 %_3.0, i64 %_3.1), !dbg !2700
  ret i1 %_0, !dbg !2701
}

; log::Level::from_usize
; Function Attrs: uwtable
define i64 @_ZN3log5Level10from_usize17he1a3397df0056e01E(i64 %u) unnamed_addr #1 !dbg !2702 {
start:
  %u.dbg.spill = alloca i64, align 8
  %_6 = alloca i64, align 8
  %_5 = alloca i64, align 8
  %_4 = alloca i64, align 8
  %_3 = alloca i64, align 8
  %_2 = alloca i64, align 8
  %_0 = alloca i64, align 8
  store i64 %u, ptr %u.dbg.spill, align 8
  call void @llvm.dbg.declare(metadata ptr %u.dbg.spill, metadata !2707, metadata !DIExpression()), !dbg !2708
  switch i64 %u, label %bb1 [
    i64 1, label %bb2
    i64 2, label %bb3
    i64 3, label %bb4
    i64 4, label %bb5
    i64 5, label %bb6
  ], !dbg !2709

bb1:                                              ; preds = %start
  store i64 0, ptr %_0, align 8, !dbg !2710
  br label %bb7, !dbg !2710

bb2:                                              ; preds = %start
  store i64 1, ptr %_2, align 8, !dbg !2711
  %0 = load i64, ptr %_2, align 8, !dbg !2712, !range !199, !noundef !16
  store i64 %0, ptr %_0, align 8, !dbg !2712
  br label %bb7, !dbg !2713

bb3:                                              ; preds = %start
  store i64 2, ptr %_3, align 8, !dbg !2714
  %1 = load i64, ptr %_3, align 8, !dbg !2715, !range !199, !noundef !16
  store i64 %1, ptr %_0, align 8, !dbg !2715
  br label %bb7, !dbg !2716

bb4:                                              ; preds = %start
  store i64 3, ptr %_4, align 8, !dbg !2717
  %2 = load i64, ptr %_4, align 8, !dbg !2718, !range !199, !noundef !16
  store i64 %2, ptr %_0, align 8, !dbg !2718
  br label %bb7, !dbg !2719

bb5:                                              ; preds = %start
  store i64 4, ptr %_5, align 8, !dbg !2720
  %3 = load i64, ptr %_5, align 8, !dbg !2721, !range !199, !noundef !16
  store i64 %3, ptr %_0, align 8, !dbg !2721
  br label %bb7, !dbg !2722

bb6:                                              ; preds = %start
  store i64 5, ptr %_6, align 8, !dbg !2723
  %4 = load i64, ptr %_6, align 8, !dbg !2724, !range !199, !noundef !16
  store i64 %4, ptr %_0, align 8, !dbg !2724
  br label %bb7, !dbg !2725

bb7:                                              ; preds = %bb1, %bb6, %bb5, %bb4, %bb3, %bb2
  %5 = load i64, ptr %_0, align 8, !dbg !2726, !range !203, !noundef !16
  ret i64 %5, !dbg !2726
}

; log::Level::as_str
; Function Attrs: uwtable
define { ptr, i64 } @_ZN3log5Level6as_str17hb77850a72f3098d5E(ptr align 8 %self) unnamed_addr #1 !dbg !2727 {
start:
  %self.dbg.spill = alloca ptr, align 8
  %_3 = alloca i64, align 8
  store ptr %self, ptr %self.dbg.spill, align 8
  call void @llvm.dbg.declare(metadata ptr %self.dbg.spill, metadata !2732, metadata !DIExpression()), !dbg !2733
  %0 = load i64, ptr %self, align 8, !dbg !2734, !range !199, !noundef !16
  store i64 %0, ptr %_3, align 8, !dbg !2734
  %_4 = load i64, ptr %_3, align 8, !dbg !2734, !range !199, !noundef !16
  %_6 = icmp uge i64 %_4, 1, !dbg !2734
  %_7 = icmp ule i64 %_4, 5, !dbg !2734
  %_8 = and i1 %_6, %_7, !dbg !2734
  %_10 = icmp ult i64 %_4, 6, !dbg !2735
  %1 = call i1 @llvm.expect.i1(i1 %_10, i1 true), !dbg !2735
  br i1 %1, label %bb1, label %panic, !dbg !2735

bb1:                                              ; preds = %start
  %2 = getelementptr inbounds [6 x { ptr, i64 }], ptr @_ZN3log15LOG_LEVEL_NAMES17hdd4089b906216a13E, i64 0, i64 %_4, !dbg !2735
  %_0.0 = load ptr, ptr %2, align 8, !dbg !2735, !nonnull !16, !align !440, !noundef !16
  %3 = getelementptr inbounds i8, ptr %2, i64 8, !dbg !2735
  %_0.1 = load i64, ptr %3, align 8, !dbg !2735, !noundef !16
  %4 = insertvalue { ptr, i64 } poison, ptr %_0.0, 0, !dbg !2736
  %5 = insertvalue { ptr, i64 } %4, i64 %_0.1, 1, !dbg !2736
  ret { ptr, i64 } %5, !dbg !2736

panic:                                            ; preds = %start
; call core::panicking::panic_bounds_check
  call void @_ZN4core9panicking18panic_bounds_check17he946c798844ee491E(i64 %_4, i64 6, ptr align 8 @alloc_d953349424e79b8b913050fbce37beb5) #10, !dbg !2735
  unreachable, !dbg !2735
}

; log::Level::iter
; Function Attrs: uwtable
define { i64, i64 } @_ZN3log5Level4iter17h7d9d9cf52aa0e1fdE() unnamed_addr #1 !dbg !2737 {
start:
  %_1 = alloca %"core::ops::range::Range<usize>", align 8
  store i64 1, ptr %_1, align 8, !dbg !2741
  %0 = getelementptr inbounds i8, ptr %_1, i64 8, !dbg !2741
  store i64 6, ptr %0, align 8, !dbg !2741
  %1 = load i64, ptr %_1, align 8, !dbg !2741, !noundef !16
  %2 = getelementptr inbounds i8, ptr %_1, i64 8, !dbg !2741
  %3 = load i64, ptr %2, align 8, !dbg !2741, !noundef !16
; call core::iter::traits::iterator::Iterator::map
  %4 = call { i64, i64 } @_ZN4core4iter6traits8iterator8Iterator3map17hf8f89c8f9bc77e75E(i64 %1, i64 %3), !dbg !2741
  %_0.0 = extractvalue { i64, i64 } %4, 0, !dbg !2741
  %_0.1 = extractvalue { i64, i64 } %4, 1, !dbg !2741
  %5 = insertvalue { i64, i64 } poison, i64 %_0.0, 0, !dbg !2742
  %6 = insertvalue { i64, i64 } %5, i64 %_0.1, 1, !dbg !2742
  ret { i64, i64 } %6, !dbg !2742
}

; <log::LevelFilter as core::str::traits::FromStr>::from_str
; Function Attrs: uwtable
define i64 @"_ZN63_$LT$log..LevelFilter$u20$as$u20$core..str..traits..FromStr$GT$8from_str17h268037cf144be24dE"(ptr align 1 %level.0, i64 %level.1) unnamed_addr #1 !dbg !2743 {
start:
  %level.dbg.spill = alloca { ptr, i64 }, align 8
  %_8 = alloca %"{closure@src/lib.rs:593:23: 593:30}", align 8
  %_5 = alloca %"core::slice::iter::Iter<'_, &str>", align 8
  store ptr %level.0, ptr %level.dbg.spill, align 8
  %0 = getelementptr inbounds i8, ptr %level.dbg.spill, i64 8
  store i64 %level.1, ptr %0, align 8
  call void @llvm.dbg.declare(metadata ptr %level.dbg.spill, metadata !2747, metadata !DIExpression()), !dbg !2748
; call core::slice::<impl [T]>::iter
  %1 = call { ptr, ptr } @"_ZN4core5slice29_$LT$impl$u20$$u5b$T$u5d$$GT$4iter17h6c54ecd20462dd44E"(ptr align 8 @_ZN3log15LOG_LEVEL_NAMES17hdd4089b906216a13E, i64 6), !dbg !2749
  %2 = extractvalue { ptr, ptr } %1, 0, !dbg !2749
  %3 = extractvalue { ptr, ptr } %1, 1, !dbg !2749
  store ptr %2, ptr %_5, align 8, !dbg !2749
  %4 = getelementptr inbounds i8, ptr %_5, i64 8, !dbg !2749
  store ptr %3, ptr %4, align 8, !dbg !2749
  store ptr %level.0, ptr %_8, align 8, !dbg !2750
  %5 = getelementptr inbounds i8, ptr %_8, i64 8, !dbg !2750
  store i64 %level.1, ptr %5, align 8, !dbg !2750
  %6 = load ptr, ptr %_8, align 8, !dbg !2749, !nonnull !16, !align !440, !noundef !16
  %7 = getelementptr inbounds i8, ptr %_8, i64 8, !dbg !2749
  %8 = load i64, ptr %7, align 8, !dbg !2749, !noundef !16
; call <core::slice::iter::Iter<T> as core::iter::traits::iterator::Iterator>::position
  %9 = call { i64, i64 } @"_ZN91_$LT$core..slice..iter..Iter$LT$T$GT$$u20$as$u20$core..iter..traits..iterator..Iterator$GT$8position17h756c1feff16b7e9fE"(ptr align 8 %_5, ptr align 1 %6, i64 %8), !dbg !2749
  %_3.0 = extractvalue { i64, i64 } %9, 0, !dbg !2749
  %_3.1 = extractvalue { i64, i64 } %9, 1, !dbg !2749
; call core::option::Option<T>::map
  %_2 = call i64 @"_ZN4core6option15Option$LT$T$GT$3map17had91460e1e5201fdE"(i64 %_3.0, i64 %_3.1), !dbg !2749, !range !1806
; call core::option::Option<T>::ok_or
  %_0 = call i64 @"_ZN4core6option15Option$LT$T$GT$5ok_or17hec7991082e2ebae5E"(i64 %_2), !dbg !2749, !range !1806
  ret i64 %_0, !dbg !2751
}

; <log::LevelFilter as core::str::traits::FromStr>::from_str::{{closure}}
; Function Attrs: inlinehint uwtable
define internal zeroext i1 @"_ZN63_$LT$log..LevelFilter$u20$as$u20$core..str..traits..FromStr$GT$8from_str28_$u7b$$u7b$closure$u7d$$u7d$17h78498649d922709dE"(ptr align 8 %_1, ptr align 8 %_2) unnamed_addr #0 !dbg !2752 {
start:
  %name.dbg.spill = alloca { ptr, i64 }, align 8
  %_2.dbg.spill = alloca ptr, align 8
  %_1.dbg.spill = alloca ptr, align 8
  store ptr %_1, ptr %_1.dbg.spill, align 8
  call void @llvm.dbg.declare(metadata ptr %_1.dbg.spill, metadata !2757, metadata !DIExpression(DW_OP_deref, DW_OP_deref)), !dbg !2761
  store ptr %_2, ptr %_2.dbg.spill, align 8
  call void @llvm.dbg.declare(metadata ptr %_2.dbg.spill, metadata !2760, metadata !DIExpression()), !dbg !2762
  %name.0 = load ptr, ptr %_2, align 8, !dbg !2763, !nonnull !16, !align !440, !noundef !16
  %0 = getelementptr inbounds i8, ptr %_2, i64 8, !dbg !2763
  %name.1 = load i64, ptr %0, align 8, !dbg !2763, !noundef !16
  store ptr %name.0, ptr %name.dbg.spill, align 8, !dbg !2763
  %1 = getelementptr inbounds i8, ptr %name.dbg.spill, i64 8, !dbg !2763
  store i64 %name.1, ptr %1, align 8, !dbg !2763
  call void @llvm.dbg.declare(metadata ptr %name.dbg.spill, metadata !2758, metadata !DIExpression()), !dbg !2764
  %_4.0 = load ptr, ptr %_1, align 8, !dbg !2765, !nonnull !16, !align !440, !noundef !16
  %2 = getelementptr inbounds i8, ptr %_1, i64 8, !dbg !2765
  %_4.1 = load i64, ptr %2, align 8, !dbg !2765, !noundef !16
; call core::str::<impl str>::eq_ignore_ascii_case
  %_0 = call zeroext i1 @"_ZN4core3str21_$LT$impl$u20$str$GT$20eq_ignore_ascii_case17hbc742da59280304aE"(ptr align 1 %name.0, i64 %name.1, ptr align 1 %_4.0, i64 %_4.1), !dbg !2766
  ret i1 %_0, !dbg !2767
}

; <log::LevelFilter as core::str::traits::FromStr>::from_str::{{closure}}
; Function Attrs: inlinehint uwtable
define internal i64 @"_ZN63_$LT$log..LevelFilter$u20$as$u20$core..str..traits..FromStr$GT$8from_str28_$u7b$$u7b$closure$u7d$$u7d$17hb52fb0dd7391f197E"(i64 %p) unnamed_addr #0 !dbg !2768 {
start:
  %val.dbg.spill.i = alloca i64, align 8
  %self.i = alloca i64, align 8
  %p.dbg.spill = alloca i64, align 8
  %_1.dbg.spill = alloca %"{closure@src/lib.rs:594:18: 594:21}", align 1
  call void @llvm.dbg.declare(metadata ptr %_1.dbg.spill, metadata !2773, metadata !DIExpression()), !dbg !2774
  store i64 %p, ptr %p.dbg.spill, align 8
  call void @llvm.dbg.declare(metadata ptr %p.dbg.spill, metadata !2772, metadata !DIExpression()), !dbg !2775
; call log::LevelFilter::from_usize
  %_3 = call i64 @_ZN3log11LevelFilter10from_usize17h7a9e4d04f9a05928E(i64 %p), !dbg !2776, !range !1806
  store i64 %_3, ptr %self.i, align 8
  call void @llvm.dbg.declare(metadata ptr %self.i, metadata !2777, metadata !DIExpression()), !dbg !2785
  %0 = load i64, ptr %self.i, align 8, !dbg !2787, !range !1806, !noundef !16
  %1 = icmp eq i64 %0, 6, !dbg !2787
  %_2.i = select i1 %1, i64 0, i64 1, !dbg !2787
  br i1 %1, label %bb2.i, label %"_ZN4core6option15Option$LT$T$GT$6unwrap17h8dcb9d9c886c2aa6E.exit", !dbg !2788

bb2.i:                                            ; preds = %start
; call core::option::unwrap_failed
  call void @_ZN4core6option13unwrap_failed17h30d0e12d963f0916E(ptr align 8 @alloc_63a0ba4f1edacfaceb85ef6f6dc2f732) #10, !dbg !2789
  unreachable, !dbg !2789

"_ZN4core6option15Option$LT$T$GT$6unwrap17h8dcb9d9c886c2aa6E.exit": ; preds = %start
  %val.i = load i64, ptr %self.i, align 8, !dbg !2790, !range !203, !noundef !16
  store i64 %val.i, ptr %val.dbg.spill.i, align 8, !dbg !2790
  call void @llvm.dbg.declare(metadata ptr %val.dbg.spill.i, metadata !2783, metadata !DIExpression()), !dbg !2791
  ret i64 %val.i, !dbg !2792
}

; <log::LevelFilter as core::fmt::Display>::fmt
; Function Attrs: uwtable
define zeroext i1 @"_ZN55_$LT$log..LevelFilter$u20$as$u20$core..fmt..Display$GT$3fmt17h0fa5a8d9aab19819E"(ptr align 8 %self, ptr align 8 %fmt) unnamed_addr #1 !dbg !2793 {
start:
  %fmt.dbg.spill = alloca ptr, align 8
  %self.dbg.spill = alloca ptr, align 8
  store ptr %self, ptr %self.dbg.spill, align 8
  call void @llvm.dbg.declare(metadata ptr %self.dbg.spill, metadata !2799, metadata !DIExpression()), !dbg !2801
  store ptr %fmt, ptr %fmt.dbg.spill, align 8
  call void @llvm.dbg.declare(metadata ptr %fmt.dbg.spill, metadata !2800, metadata !DIExpression()), !dbg !2802
; call log::LevelFilter::as_str
  %0 = call { ptr, i64 } @_ZN3log11LevelFilter6as_str17hab00c04068de2ce9E(ptr align 8 %self), !dbg !2803
  %_3.0 = extractvalue { ptr, i64 } %0, 0, !dbg !2803
  %_3.1 = extractvalue { ptr, i64 } %0, 1, !dbg !2803
; call core::fmt::Formatter::pad
  %_0 = call zeroext i1 @_ZN4core3fmt9Formatter3pad17h2f69a4922a0818bbE(ptr align 8 %fmt, ptr align 1 %_3.0, i64 %_3.1), !dbg !2804
  ret i1 %_0, !dbg !2805
}

; log::LevelFilter::from_usize
; Function Attrs: uwtable
define i64 @_ZN3log11LevelFilter10from_usize17h7a9e4d04f9a05928E(i64 %u) unnamed_addr #1 !dbg !2806 {
start:
  %u.dbg.spill = alloca i64, align 8
  %_7 = alloca i64, align 8
  %_6 = alloca i64, align 8
  %_5 = alloca i64, align 8
  %_4 = alloca i64, align 8
  %_3 = alloca i64, align 8
  %_2 = alloca i64, align 8
  %_0 = alloca i64, align 8
  store i64 %u, ptr %u.dbg.spill, align 8
  call void @llvm.dbg.declare(metadata ptr %u.dbg.spill, metadata !2811, metadata !DIExpression()), !dbg !2812
  switch i64 %u, label %bb1 [
    i64 0, label %bb2
    i64 1, label %bb3
    i64 2, label %bb4
    i64 3, label %bb5
    i64 4, label %bb6
    i64 5, label %bb7
  ], !dbg !2813

bb1:                                              ; preds = %start
  store i64 6, ptr %_0, align 8, !dbg !2814
  br label %bb8, !dbg !2814

bb2:                                              ; preds = %start
  store i64 0, ptr %_2, align 8, !dbg !2815
  %0 = load i64, ptr %_2, align 8, !dbg !2816, !range !203, !noundef !16
  store i64 %0, ptr %_0, align 8, !dbg !2816
  br label %bb8, !dbg !2817

bb3:                                              ; preds = %start
  store i64 1, ptr %_3, align 8, !dbg !2818
  %1 = load i64, ptr %_3, align 8, !dbg !2819, !range !203, !noundef !16
  store i64 %1, ptr %_0, align 8, !dbg !2819
  br label %bb8, !dbg !2820

bb4:                                              ; preds = %start
  store i64 2, ptr %_4, align 8, !dbg !2821
  %2 = load i64, ptr %_4, align 8, !dbg !2822, !range !203, !noundef !16
  store i64 %2, ptr %_0, align 8, !dbg !2822
  br label %bb8, !dbg !2823

bb5:                                              ; preds = %start
  store i64 3, ptr %_5, align 8, !dbg !2824
  %3 = load i64, ptr %_5, align 8, !dbg !2825, !range !203, !noundef !16
  store i64 %3, ptr %_0, align 8, !dbg !2825
  br label %bb8, !dbg !2826

bb6:                                              ; preds = %start
  store i64 4, ptr %_6, align 8, !dbg !2827
  %4 = load i64, ptr %_6, align 8, !dbg !2828, !range !203, !noundef !16
  store i64 %4, ptr %_0, align 8, !dbg !2828
  br label %bb8, !dbg !2829

bb7:                                              ; preds = %start
  store i64 5, ptr %_7, align 8, !dbg !2830
  %5 = load i64, ptr %_7, align 8, !dbg !2831, !range !203, !noundef !16
  store i64 %5, ptr %_0, align 8, !dbg !2831
  br label %bb8, !dbg !2832

bb8:                                              ; preds = %bb1, %bb7, %bb6, %bb5, %bb4, %bb3, %bb2
  %6 = load i64, ptr %_0, align 8, !dbg !2833, !range !1806, !noundef !16
  ret i64 %6, !dbg !2833
}

; log::LevelFilter::as_str
; Function Attrs: uwtable
define { ptr, i64 } @_ZN3log11LevelFilter6as_str17hab00c04068de2ce9E(ptr align 8 %self) unnamed_addr #1 !dbg !2834 {
start:
  %self.dbg.spill = alloca ptr, align 8
  %_3 = alloca i64, align 8
  store ptr %self, ptr %self.dbg.spill, align 8
  call void @llvm.dbg.declare(metadata ptr %self.dbg.spill, metadata !2839, metadata !DIExpression()), !dbg !2840
  %0 = load i64, ptr %self, align 8, !dbg !2841, !range !203, !noundef !16
  store i64 %0, ptr %_3, align 8, !dbg !2841
  %_4 = load i64, ptr %_3, align 8, !dbg !2841, !range !203, !noundef !16
  %_6 = icmp ule i64 %_4, 5, !dbg !2841
  %_8 = icmp ult i64 %_4, 6, !dbg !2842
  %1 = call i1 @llvm.expect.i1(i1 %_8, i1 true), !dbg !2842
  br i1 %1, label %bb1, label %panic, !dbg !2842

bb1:                                              ; preds = %start
  %2 = getelementptr inbounds [6 x { ptr, i64 }], ptr @_ZN3log15LOG_LEVEL_NAMES17hdd4089b906216a13E, i64 0, i64 %_4, !dbg !2842
  %_0.0 = load ptr, ptr %2, align 8, !dbg !2842, !nonnull !16, !align !440, !noundef !16
  %3 = getelementptr inbounds i8, ptr %2, i64 8, !dbg !2842
  %_0.1 = load i64, ptr %3, align 8, !dbg !2842, !noundef !16
  %4 = insertvalue { ptr, i64 } poison, ptr %_0.0, 0, !dbg !2843
  %5 = insertvalue { ptr, i64 } %4, i64 %_0.1, 1, !dbg !2843
  ret { ptr, i64 } %5, !dbg !2843

panic:                                            ; preds = %start
; call core::panicking::panic_bounds_check
  call void @_ZN4core9panicking18panic_bounds_check17he946c798844ee491E(i64 %_4, i64 6, ptr align 8 @alloc_232eae800df81020b88d490bd6ff4cee) #10, !dbg !2842
  unreachable, !dbg !2842
}

; log::LevelFilter::iter
; Function Attrs: uwtable
define { i64, i64 } @_ZN3log11LevelFilter4iter17hb0334ac284885e33E() unnamed_addr #1 !dbg !2844 {
start:
  %_1 = alloca %"core::ops::range::Range<usize>", align 8
  store i64 0, ptr %_1, align 8, !dbg !2848
  %0 = getelementptr inbounds i8, ptr %_1, i64 8, !dbg !2848
  store i64 6, ptr %0, align 8, !dbg !2848
  %1 = load i64, ptr %_1, align 8, !dbg !2848, !noundef !16
  %2 = getelementptr inbounds i8, ptr %_1, i64 8, !dbg !2848
  %3 = load i64, ptr %2, align 8, !dbg !2848, !noundef !16
; call core::iter::traits::iterator::Iterator::map
  %4 = call { i64, i64 } @_ZN4core4iter6traits8iterator8Iterator3map17h0ca70bc607b6d220E(i64 %1, i64 %3), !dbg !2848
  %_0.0 = extractvalue { i64, i64 } %4, 0, !dbg !2848
  %_0.1 = extractvalue { i64, i64 } %4, 1, !dbg !2848
  %5 = insertvalue { i64, i64 } poison, i64 %_0.0, 0, !dbg !2849
  %6 = insertvalue { i64, i64 } %5, i64 %_0.1, 1, !dbg !2849
  ret { i64, i64 } %6, !dbg !2849
}

; log::Record::builder
; Function Attrs: inlinehint uwtable
define internal void @_ZN3log6Record7builder17hc72e74483d4d0038E(ptr sret(%"RecordBuilder<'_>") align 8 %_0) unnamed_addr #0 !dbg !2850 {
start:
; call log::RecordBuilder::new
  call void @_ZN3log13RecordBuilder3new17h4c982dc8af729076E(ptr sret(%"RecordBuilder<'_>") align 8 %_0), !dbg !2868
  ret void, !dbg !2869
}

; log::RecordBuilder::new
; Function Attrs: inlinehint uwtable
define internal void @_ZN3log13RecordBuilder3new17h4c982dc8af729076E(ptr sret(%"RecordBuilder<'_>") align 8 %_0) unnamed_addr #0 !dbg !2870 {
start:
  %_9 = alloca %"core::option::Option<u32>", align 4
  %_8 = alloca %"core::option::Option<MaybeStaticStr<'_>>", align 8
  %_7 = alloca %"core::option::Option<MaybeStaticStr<'_>>", align 8
  %_6 = alloca %"MetadataBuilder<'_>", align 8
  %_4 = alloca %"Metadata<'_>", align 8
  %_2 = alloca %"core::fmt::Arguments<'_>", align 8
  %_1 = alloca %"Record<'_>", align 8
; call core::fmt::Arguments::new_const
  call void @_ZN4core3fmt9Arguments9new_const17h6276f106c53aeee8E(ptr sret(%"core::fmt::Arguments<'_>") align 8 %_2, ptr align 8 @alloc_513570631223a12912d85da2bec3b15a, i64 0), !dbg !2872
; call log::Metadata::builder
  call void @_ZN3log8Metadata7builder17hc715629f5be81798E(ptr sret(%"MetadataBuilder<'_>") align 8 %_6), !dbg !2873
; call log::MetadataBuilder::build
  call void @_ZN3log15MetadataBuilder5build17h0871e20c22da19cdE(ptr sret(%"Metadata<'_>") align 8 %_4, ptr align 8 %_6), !dbg !2873
  store i64 2, ptr %_7, align 8, !dbg !2874
  store i64 2, ptr %_8, align 8, !dbg !2875
  store i32 0, ptr %_9, align 4, !dbg !2876
  %0 = getelementptr inbounds i8, ptr %_1, i64 48, !dbg !2877
  call void @llvm.memcpy.p0.p0.i64(ptr align 8 %0, ptr align 8 %_4, i64 24, i1 false), !dbg !2877
  %1 = getelementptr inbounds i8, ptr %_1, i64 80, !dbg !2877
  call void @llvm.memcpy.p0.p0.i64(ptr align 8 %1, ptr align 8 %_2, i64 48, i1 false), !dbg !2877
  call void @llvm.memcpy.p0.p0.i64(ptr align 8 %_1, ptr align 8 %_7, i64 24, i1 false), !dbg !2877
  %2 = getelementptr inbounds i8, ptr %_1, i64 24, !dbg !2877
  call void @llvm.memcpy.p0.p0.i64(ptr align 8 %2, ptr align 8 %_8, i64 24, i1 false), !dbg !2877
  %3 = load i32, ptr %_9, align 4, !dbg !2877, !range !1967, !noundef !16
  %4 = getelementptr inbounds i8, ptr %_9, i64 4, !dbg !2877
  %5 = load i32, ptr %4, align 4, !dbg !2877
  %6 = getelementptr inbounds i8, ptr %_1, i64 72, !dbg !2877
  store i32 %3, ptr %6, align 8, !dbg !2877
  %7 = getelementptr inbounds i8, ptr %6, i64 4, !dbg !2877
  store i32 %5, ptr %7, align 4, !dbg !2877
  call void @llvm.memcpy.p0.p0.i64(ptr align 8 %_0, ptr align 8 %_1, i64 128, i1 false), !dbg !2878
  ret void, !dbg !2879
}

; log::RecordBuilder::args
; Function Attrs: inlinehint uwtable
define internal align 8 ptr @_ZN3log13RecordBuilder4args17h508424ee26cc1f0bE(ptr align 8 %self, ptr align 8 %args) unnamed_addr #0 !dbg !2880 {
start:
  %self.dbg.spill = alloca ptr, align 8
  store ptr %self, ptr %self.dbg.spill, align 8
  call void @llvm.dbg.declare(metadata ptr %self.dbg.spill, metadata !2886, metadata !DIExpression()), !dbg !2888
  call void @llvm.dbg.declare(metadata ptr %args, metadata !2887, metadata !DIExpression()), !dbg !2889
  %0 = getelementptr inbounds i8, ptr %self, i64 80, !dbg !2890
  call void @llvm.memcpy.p0.p0.i64(ptr align 8 %0, ptr align 8 %args, i64 48, i1 false), !dbg !2890
  ret ptr %self, !dbg !2891
}

; log::RecordBuilder::level
; Function Attrs: inlinehint uwtable
define internal align 8 ptr @_ZN3log13RecordBuilder5level17h78e0eef259df7fafE(ptr align 8 %self, i64 %level) unnamed_addr #0 !dbg !2892 {
start:
  %level.dbg.spill = alloca i64, align 8
  %self.dbg.spill = alloca ptr, align 8
  store ptr %self, ptr %self.dbg.spill, align 8
  call void @llvm.dbg.declare(metadata ptr %self.dbg.spill, metadata !2897, metadata !DIExpression()), !dbg !2899
  store i64 %level, ptr %level.dbg.spill, align 8
  call void @llvm.dbg.declare(metadata ptr %level.dbg.spill, metadata !2898, metadata !DIExpression()), !dbg !2900
  %0 = getelementptr inbounds i8, ptr %self, i64 48, !dbg !2901
  store i64 %level, ptr %0, align 8, !dbg !2901
  ret ptr %self, !dbg !2902
}

; log::RecordBuilder::target
; Function Attrs: inlinehint uwtable
define internal align 8 ptr @_ZN3log13RecordBuilder6target17h4802aba5b20ab0c5E(ptr align 8 %self, ptr align 1 %target.0, i64 %target.1) unnamed_addr #0 !dbg !2903 {
start:
  %target.dbg.spill = alloca { ptr, i64 }, align 8
  %self.dbg.spill = alloca ptr, align 8
  store ptr %self, ptr %self.dbg.spill, align 8
  call void @llvm.dbg.declare(metadata ptr %self.dbg.spill, metadata !2908, metadata !DIExpression()), !dbg !2910
  store ptr %target.0, ptr %target.dbg.spill, align 8
  %0 = getelementptr inbounds i8, ptr %target.dbg.spill, i64 8
  store i64 %target.1, ptr %0, align 8
  call void @llvm.dbg.declare(metadata ptr %target.dbg.spill, metadata !2909, metadata !DIExpression()), !dbg !2911
  %1 = getelementptr inbounds i8, ptr %self, i64 48, !dbg !2912
  %2 = getelementptr inbounds i8, ptr %1, i64 8, !dbg !2912
  store ptr %target.0, ptr %2, align 8, !dbg !2912
  %3 = getelementptr inbounds i8, ptr %2, i64 8, !dbg !2912
  store i64 %target.1, ptr %3, align 8, !dbg !2912
  ret ptr %self, !dbg !2913
}

; log::RecordBuilder::module_path_static
; Function Attrs: inlinehint uwtable
define internal align 8 ptr @_ZN3log13RecordBuilder18module_path_static17h1ad94a37f4d0ab30E(ptr align 8 %self, ptr align 1 %path.0, i64 %path.1) unnamed_addr #0 !dbg !2914 {
start:
  %path.dbg.spill = alloca %"core::option::Option<&str>", align 8
  %self.dbg.spill = alloca ptr, align 8
  %_3 = alloca %"core::option::Option<MaybeStaticStr<'_>>", align 8
  store ptr %self, ptr %self.dbg.spill, align 8
  call void @llvm.dbg.declare(metadata ptr %self.dbg.spill, metadata !2919, metadata !DIExpression()), !dbg !2921
  store ptr %path.0, ptr %path.dbg.spill, align 8
  %0 = getelementptr inbounds i8, ptr %path.dbg.spill, i64 8
  store i64 %path.1, ptr %0, align 8
  call void @llvm.dbg.declare(metadata ptr %path.dbg.spill, metadata !2920, metadata !DIExpression()), !dbg !2922
; call core::option::Option<T>::map
  call void @"_ZN4core6option15Option$LT$T$GT$3map17h9eaf521876342928E"(ptr sret(%"core::option::Option<MaybeStaticStr<'_>>") align 8 %_3, ptr align 1 %path.0, i64 %path.1), !dbg !2923
  call void @llvm.memcpy.p0.p0.i64(ptr align 8 %self, ptr align 8 %_3, i64 24, i1 false), !dbg !2924
  ret ptr %self, !dbg !2925
}

; log::RecordBuilder::file_static
; Function Attrs: inlinehint uwtable
define internal align 8 ptr @_ZN3log13RecordBuilder11file_static17hbd4b8c2187a32404E(ptr align 8 %self, ptr align 1 %file.0, i64 %file.1) unnamed_addr #0 !dbg !2926 {
start:
  %file.dbg.spill = alloca %"core::option::Option<&str>", align 8
  %self.dbg.spill = alloca ptr, align 8
  %_3 = alloca %"core::option::Option<MaybeStaticStr<'_>>", align 8
  store ptr %self, ptr %self.dbg.spill, align 8
  call void @llvm.dbg.declare(metadata ptr %self.dbg.spill, metadata !2929, metadata !DIExpression()), !dbg !2931
  store ptr %file.0, ptr %file.dbg.spill, align 8
  %0 = getelementptr inbounds i8, ptr %file.dbg.spill, i64 8
  store i64 %file.1, ptr %0, align 8
  call void @llvm.dbg.declare(metadata ptr %file.dbg.spill, metadata !2930, metadata !DIExpression()), !dbg !2932
; call core::option::Option<T>::map
  call void @"_ZN4core6option15Option$LT$T$GT$3map17h9eaf521876342928E"(ptr sret(%"core::option::Option<MaybeStaticStr<'_>>") align 8 %_3, ptr align 1 %file.0, i64 %file.1), !dbg !2933
  %1 = getelementptr inbounds i8, ptr %self, i64 24, !dbg !2934
  call void @llvm.memcpy.p0.p0.i64(ptr align 8 %1, ptr align 8 %_3, i64 24, i1 false), !dbg !2934
  ret ptr %self, !dbg !2935
}

; log::RecordBuilder::line
; Function Attrs: inlinehint uwtable
define internal align 8 ptr @_ZN3log13RecordBuilder4line17h3555e3263958a50eE(ptr align 8 %self, i32 %line.0, i32 %line.1) unnamed_addr #0 !dbg !2936 {
start:
  %line.dbg.spill = alloca %"core::option::Option<u32>", align 4
  %self.dbg.spill = alloca ptr, align 8
  store ptr %self, ptr %self.dbg.spill, align 8
  call void @llvm.dbg.declare(metadata ptr %self.dbg.spill, metadata !2941, metadata !DIExpression()), !dbg !2943
  store i32 %line.0, ptr %line.dbg.spill, align 4
  %0 = getelementptr inbounds i8, ptr %line.dbg.spill, i64 4
  store i32 %line.1, ptr %0, align 4
  call void @llvm.dbg.declare(metadata ptr %line.dbg.spill, metadata !2942, metadata !DIExpression()), !dbg !2944
  %1 = getelementptr inbounds i8, ptr %self, i64 72, !dbg !2945
  store i32 %line.0, ptr %1, align 8, !dbg !2945
  %2 = getelementptr inbounds i8, ptr %1, i64 4, !dbg !2945
  store i32 %line.1, ptr %2, align 4, !dbg !2945
  ret ptr %self, !dbg !2946
}

; log::RecordBuilder::build
; Function Attrs: inlinehint uwtable
define internal void @_ZN3log13RecordBuilder5build17hff32c4f5feebd101E(ptr sret(%"Record<'_>") align 8 %_0, ptr align 8 %self) unnamed_addr #0 !dbg !2947 {
start:
  %self.dbg.spill = alloca ptr, align 8
  store ptr %self, ptr %self.dbg.spill, align 8
  call void @llvm.dbg.declare(metadata ptr %self.dbg.spill, metadata !2953, metadata !DIExpression()), !dbg !2954
; call <log::Record as core::clone::Clone>::clone
  call void @"_ZN50_$LT$log..Record$u20$as$u20$core..clone..Clone$GT$5clone17hc3567e84a10a1fc5E"(ptr sret(%"Record<'_>") align 8 %_0, ptr align 8 %self), !dbg !2955
  ret void, !dbg !2956
}

; <log::RecordBuilder as core::default::Default>::default
; Function Attrs: uwtable
define void @"_ZN61_$LT$log..RecordBuilder$u20$as$u20$core..default..Default$GT$7default17h981791f949d28f13E"(ptr sret(%"RecordBuilder<'_>") align 8 %_0) unnamed_addr #1 !dbg !2957 {
start:
; call log::RecordBuilder::new
  call void @_ZN3log13RecordBuilder3new17h4c982dc8af729076E(ptr sret(%"RecordBuilder<'_>") align 8 %_0), !dbg !2959
  ret void, !dbg !2960
}

; log::Metadata::builder
; Function Attrs: inlinehint uwtable
define internal void @_ZN3log8Metadata7builder17hc715629f5be81798E(ptr sret(%"MetadataBuilder<'_>") align 8 %_0) unnamed_addr #0 !dbg !2961 {
start:
; call log::MetadataBuilder::new
  call void @_ZN3log15MetadataBuilder3new17hb20dd09e2f252a23E(ptr sret(%"MetadataBuilder<'_>") align 8 %_0), !dbg !2968
  ret void, !dbg !2969
}

; log::MetadataBuilder::new
; Function Attrs: inlinehint uwtable
define internal void @_ZN3log15MetadataBuilder3new17hb20dd09e2f252a23E(ptr sret(%"MetadataBuilder<'_>") align 8 %_0) unnamed_addr #0 !dbg !2970 {
start:
  %_2 = alloca i64, align 8
  %_1 = alloca %"Metadata<'_>", align 8
  store i64 3, ptr %_2, align 8, !dbg !2972
  %0 = load i64, ptr %_2, align 8, !dbg !2973, !range !199, !noundef !16
  store i64 %0, ptr %_1, align 8, !dbg !2973
  %1 = getelementptr inbounds i8, ptr %_1, i64 8, !dbg !2973
  store ptr @alloc_513570631223a12912d85da2bec3b15a, ptr %1, align 8, !dbg !2973
  %2 = getelementptr inbounds i8, ptr %1, i64 8, !dbg !2973
  store i64 0, ptr %2, align 8, !dbg !2973
  call void @llvm.memcpy.p0.p0.i64(ptr align 8 %_0, ptr align 8 %_1, i64 24, i1 false), !dbg !2974
  ret void, !dbg !2975
}

; log::MetadataBuilder::level
; Function Attrs: inlinehint uwtable
define internal align 8 ptr @_ZN3log15MetadataBuilder5level17hbce2778e1ad13c30E(ptr align 8 %self, i64 %arg) unnamed_addr #0 !dbg !2976 {
start:
  %arg.dbg.spill = alloca i64, align 8
  %self.dbg.spill = alloca ptr, align 8
  store ptr %self, ptr %self.dbg.spill, align 8
  call void @llvm.dbg.declare(metadata ptr %self.dbg.spill, metadata !2982, metadata !DIExpression()), !dbg !2984
  store i64 %arg, ptr %arg.dbg.spill, align 8
  call void @llvm.dbg.declare(metadata ptr %arg.dbg.spill, metadata !2983, metadata !DIExpression()), !dbg !2985
  store i64 %arg, ptr %self, align 8, !dbg !2986
  ret ptr %self, !dbg !2987
}

; log::MetadataBuilder::target
; Function Attrs: inlinehint uwtable
define internal align 8 ptr @_ZN3log15MetadataBuilder6target17h08916050d1dad7a4E(ptr align 8 %self, ptr align 1 %target.0, i64 %target.1) unnamed_addr #0 !dbg !2988 {
start:
  %target.dbg.spill = alloca { ptr, i64 }, align 8
  %self.dbg.spill = alloca ptr, align 8
  store ptr %self, ptr %self.dbg.spill, align 8
  call void @llvm.dbg.declare(metadata ptr %self.dbg.spill, metadata !2993, metadata !DIExpression()), !dbg !2995
  store ptr %target.0, ptr %target.dbg.spill, align 8
  %0 = getelementptr inbounds i8, ptr %target.dbg.spill, i64 8
  store i64 %target.1, ptr %0, align 8
  call void @llvm.dbg.declare(metadata ptr %target.dbg.spill, metadata !2994, metadata !DIExpression()), !dbg !2996
  %1 = getelementptr inbounds i8, ptr %self, i64 8, !dbg !2997
  store ptr %target.0, ptr %1, align 8, !dbg !2997
  %2 = getelementptr inbounds i8, ptr %1, i64 8, !dbg !2997
  store i64 %target.1, ptr %2, align 8, !dbg !2997
  ret ptr %self, !dbg !2998
}

; log::MetadataBuilder::build
; Function Attrs: inlinehint uwtable
define internal void @_ZN3log15MetadataBuilder5build17h0871e20c22da19cdE(ptr sret(%"Metadata<'_>") align 8 %_0, ptr align 8 %self) unnamed_addr #0 !dbg !2999 {
start:
  %self.dbg.spill = alloca ptr, align 8
  store ptr %self, ptr %self.dbg.spill, align 8
  call void @llvm.dbg.declare(metadata ptr %self.dbg.spill, metadata !3005, metadata !DIExpression()), !dbg !3006
; call <log::Metadata as core::clone::Clone>::clone
  call void @"_ZN52_$LT$log..Metadata$u20$as$u20$core..clone..Clone$GT$5clone17h13a53ff468c166d1E"(ptr sret(%"Metadata<'_>") align 8 %_0, ptr align 8 %self), !dbg !3007
  ret void, !dbg !3008
}

; <log::MetadataBuilder as core::default::Default>::default
; Function Attrs: uwtable
define void @"_ZN63_$LT$log..MetadataBuilder$u20$as$u20$core..default..Default$GT$7default17h237081148321e292E"(ptr sret(%"MetadataBuilder<'_>") align 8 %_0) unnamed_addr #1 !dbg !3009 {
start:
; call log::MetadataBuilder::new
  call void @_ZN3log15MetadataBuilder3new17hb20dd09e2f252a23E(ptr sret(%"MetadataBuilder<'_>") align 8 %_0), !dbg !3011
  ret void, !dbg !3012
}

; <log::NopLogger as log::Log>::enabled
; Function Attrs: uwtable
define zeroext i1 @"_ZN43_$LT$log..NopLogger$u20$as$u20$log..Log$GT$7enabled17h03ea95b6d069d9c4E"(ptr align 1 %self, ptr align 8 %_2) unnamed_addr #1 !dbg !3013 {
start:
  %_2.dbg.spill = alloca ptr, align 8
  %self.dbg.spill = alloca ptr, align 8
  store ptr %self, ptr %self.dbg.spill, align 8
  call void @llvm.dbg.declare(metadata ptr %self.dbg.spill, metadata !3020, metadata !DIExpression()), !dbg !3022
  store ptr %_2, ptr %_2.dbg.spill, align 8
  call void @llvm.dbg.declare(metadata ptr %_2.dbg.spill, metadata !3021, metadata !DIExpression()), !dbg !3023
  ret i1 false, !dbg !3024
}

; <log::NopLogger as log::Log>::log
; Function Attrs: uwtable
define void @"_ZN43_$LT$log..NopLogger$u20$as$u20$log..Log$GT$3log17hc501104e9c1c5807E"(ptr align 1 %self, ptr align 8 %_2) unnamed_addr #1 !dbg !3025 {
start:
  %_2.dbg.spill = alloca ptr, align 8
  %self.dbg.spill = alloca ptr, align 8
  store ptr %self, ptr %self.dbg.spill, align 8
  call void @llvm.dbg.declare(metadata ptr %self.dbg.spill, metadata !3030, metadata !DIExpression()), !dbg !3032
  store ptr %_2, ptr %_2.dbg.spill, align 8
  call void @llvm.dbg.declare(metadata ptr %_2.dbg.spill, metadata !3031, metadata !DIExpression()), !dbg !3033
  ret void, !dbg !3034
}

; <log::NopLogger as log::Log>::flush
; Function Attrs: uwtable
define void @"_ZN43_$LT$log..NopLogger$u20$as$u20$log..Log$GT$5flush17hed9375e49842852dE"(ptr align 1 %self) unnamed_addr #1 !dbg !3035 {
start:
  %self.dbg.spill = alloca ptr, align 8
  store ptr %self, ptr %self.dbg.spill, align 8
  call void @llvm.dbg.declare(metadata ptr %self.dbg.spill, metadata !3039, metadata !DIExpression()), !dbg !3040
  ret void, !dbg !3041
}

; log::set_logger
; Function Attrs: uwtable
define zeroext i1 @_ZN3log10set_logger17h94ea8a1def549795E(ptr align 1 %logger.0, ptr align 8 %logger.1) unnamed_addr #1 !dbg !3042 {
start:
  %logger.dbg.spill = alloca { ptr, ptr }, align 8
  %_2 = alloca %"{closure@src/lib.rs:1352:22: 1352:24}", align 8
  store ptr %logger.0, ptr %logger.dbg.spill, align 8
  %0 = getelementptr inbounds i8, ptr %logger.dbg.spill, i64 8
  store ptr %logger.1, ptr %0, align 8
  call void @llvm.dbg.declare(metadata ptr %logger.dbg.spill, metadata !3064, metadata !DIExpression()), !dbg !3065
  store ptr %logger.0, ptr %_2, align 8, !dbg !3066
  %1 = getelementptr inbounds i8, ptr %_2, i64 8, !dbg !3066
  store ptr %logger.1, ptr %1, align 8, !dbg !3066
  %2 = load ptr, ptr %_2, align 8, !dbg !3067, !nonnull !16, !align !440, !noundef !16
  %3 = getelementptr inbounds i8, ptr %_2, i64 8, !dbg !3067
  %4 = load ptr, ptr %3, align 8, !dbg !3067, !nonnull !16, !align !491, !noundef !16
; call log::set_logger_inner
  %_0 = call zeroext i1 @_ZN3log16set_logger_inner17hbe8ee3baab1d3bf7E(ptr align 1 %2, ptr align 8 %4), !dbg !3067
  ret i1 %_0, !dbg !3068
}

; log::set_logger::{{closure}}
; Function Attrs: inlinehint uwtable
define internal { ptr, ptr } @"_ZN3log10set_logger28_$u7b$$u7b$closure$u7d$$u7d$17h62ade43174a380f3E"(ptr align 1 %0, ptr align 8 %1) unnamed_addr #0 !dbg !3069 {
start:
  %_1 = alloca %"{closure@src/lib.rs:1352:22: 1352:24}", align 8
  store ptr %0, ptr %_1, align 8
  %2 = getelementptr inbounds i8, ptr %_1, i64 8
  store ptr %1, ptr %2, align 8
  call void @llvm.dbg.declare(metadata ptr %_1, metadata !3077, metadata !DIExpression(DW_OP_deref)), !dbg !3078
  %_0.0 = load ptr, ptr %_1, align 8, !dbg !3079, !nonnull !16, !align !440, !noundef !16
  %3 = getelementptr inbounds i8, ptr %_1, i64 8, !dbg !3079
  %_0.1 = load ptr, ptr %3, align 8, !dbg !3079, !nonnull !16, !align !491, !noundef !16
  %4 = insertvalue { ptr, ptr } poison, ptr %_0.0, 0, !dbg !3080
  %5 = insertvalue { ptr, ptr } %4, ptr %_0.1, 1, !dbg !3080
  ret { ptr, ptr } %5, !dbg !3080
}

; log::set_logger_inner
; Function Attrs: uwtable
define internal zeroext i1 @_ZN3log16set_logger_inner17hbe8ee3baab1d3bf7E(ptr align 1 %make_logger.0, ptr align 8 %make_logger.1) unnamed_addr #1 personality ptr @rust_eh_personality !dbg !3081 {
start:
  %old_state.dbg.spill = alloca i64, align 8
  %0 = alloca { ptr, i32, [1 x i32] }, align 8
  %make_logger.dbg.spill = alloca %"{closure@src/lib.rs:1352:22: 1352:24}", align 8
  %_20 = alloca i8, align 1
  %_18 = alloca i8, align 1
  %_14 = alloca i8, align 1
  %s = alloca i64, align 8
  %_6 = alloca i8, align 1
  %_5 = alloca i8, align 1
  %_3 = alloca %"core::result::Result<usize, usize>", align 8
  %_0 = alloca i8, align 1
  store ptr %make_logger.0, ptr %make_logger.dbg.spill, align 8
  %1 = getelementptr inbounds i8, ptr %make_logger.dbg.spill, i64 8
  store ptr %make_logger.1, ptr %1, align 8
  call void @llvm.dbg.declare(metadata ptr %make_logger.dbg.spill, metadata !3085, metadata !DIExpression()), !dbg !3092
  call void @llvm.dbg.declare(metadata ptr %s, metadata !3088, metadata !DIExpression()), !dbg !3093
  store i8 0, ptr %_20, align 1, !dbg !3094
  store i8 1, ptr %_20, align 1, !dbg !3094
  store i8 4, ptr %_5, align 1, !dbg !3095
  store i8 4, ptr %_6, align 1, !dbg !3096
  %2 = load i8, ptr %_5, align 1, !dbg !3097, !range !1292, !noundef !16
  %3 = load i8, ptr %_6, align 1, !dbg !3097, !range !1292, !noundef !16
; invoke core::sync::atomic::AtomicUsize::compare_exchange
