; ModuleID = '1j13r2h18o22ba8n'
source_filename = "1j13r2h18o22ba8n"
target datalayout = "e-m:o-i64:64-i128:128-n32:64-S128"
target triple = "arm64-apple-macosx11.0.0"

%"core::ops::range::Range<usize>" = type { i64, i64 }
%"core::ptr::metadata::PtrComponents<[u8]>" = type { ptr, i64 }
%"core::ptr::metadata::PtrRepr<[u8]>" = type { [2 x i64] }
%"core::option::Option<&[u8]>" = type { ptr, [1 x i64] }
%"core::option::Option<usize>" = type { i64, [1 x i64] }
%"core::fmt::Arguments<'_>" = type { { ptr, i64 }, { ptr, i64 }, %"core::option::Option<&[core::fmt::rt::Placeholder]>" }
%"core::option::Option<&[core::fmt::rt::Placeholder]>" = type { ptr, [1 x i64] }
%"core::iter::adapters::rev::Rev<core::ops::range::Range<usize>>" = type { %"core::ops::range::Range<usize>" }
%"core::option::Option<(&[u8], &[u8])>" = type { ptr, [3 x i64] }
%"core::ptr::non_null::NonNull<[u8]>" = type { { ptr, i64 } }
%"core::slice::iter::Iter<'_, u8>" = type { ptr, ptr, %"core::marker::PhantomData<&u8>" }
%"core::marker::PhantomData<&u8>" = type {}
%"core::result::Result<usize, core::num::error::TryFromIntError>" = type { i64, [1 x i64] }
%"core::result::Result<u32, core::num::error::TryFromIntError>" = type { i32, [1 x i32] }
%"core::ops::control_flow::ControlFlow<core::option::Option<core::convert::Infallible>, usize>" = type { i64, [1 x i64] }
%"core::ops::control_flow::ControlFlow<core::option::Option<core::convert::Infallible>, *const u8>" = type { i64, [1 x i64] }
%"core::option::Option<*const u8>" = type { i64, [1 x i64] }
%"core::ops::control_flow::ControlFlow<core::option::Option<core::convert::Infallible>, &[u8]>" = type { ptr, [1 x i64] }
%"core::option::Option<core::convert::Infallible>::None" = type {}
%"arch::all::memchr::One" = type { i64, i8, [7 x i8] }
%"core::option::Option<core::fmt::Arguments<'_>>" = type { ptr, [5 x i64] }
%"arch::all::memchr::OneIter<'_, '_>" = type { ptr, %"arch::generic::memchr::Iter<'_>" }
%"arch::generic::memchr::Iter<'_>" = type { ptr, ptr, ptr, %"core::marker::PhantomData<&[u8]>" }
%"core::marker::PhantomData<&[u8]>" = type {}
%"arch::all::memchr::TwoIter<'_, '_>" = type { ptr, %"arch::generic::memchr::Iter<'_>" }
%"arch::all::memchr::ThreeIter<'_, '_>" = type { ptr, %"arch::generic::memchr::Iter<'_>" }
%"core::option::Option<memmem::searcher::Pre<'_>>" = type { ptr, [1 x i64] }
%"arch::all::twoway::Shift" = type { i64, [1 x i64] }
%"arch::all::twoway::Suffix" = type { i64, i64 }
%"arch::aarch64::neon::memchr::One" = type { %"arch::generic::memchr::One<core::core_arch::arm_shared::neon::uint8x16_t>" }
%"arch::generic::memchr::One<core::core_arch::arm_shared::neon::uint8x16_t>" = type { <16 x i8>, i8, [15 x i8] }
%"core::fmt::rt::Argument<'_>" = type { ptr, ptr }
%"core::fmt::builders::DebugStruct<'_, '_>" = type { ptr, i8, i8, [6 x i8] }
%"memmem::searcher::Pre<'_>" = type { ptr, ptr }

@alloc_0dc6db72fcead760fba2799443fc0f82 = private unnamed_addr constant <{ [64 x i8] }> <{ [64 x i8] c"slice::get_unchecked requires that the range is within the slice" }>, align 1
@0 = private unnamed_addr constant <{ [8 x i8], [8 x i8] }> <{ [8 x i8] zeroinitializer, [8 x i8] undef }>, align 8
@alloc_763310d78c99c2c1ad3f8a9821e942f3 = private unnamed_addr constant <{ [61 x i8] }> <{ [61 x i8] c"is_nonoverlapping: `size_of::<T>() * count` overflows a usize" }>, align 1
@alloc_8df0580a595a87d56789d20c7318e185 = private unnamed_addr constant <{ [166 x i8] }> <{ [166 x i8] c"unsafe precondition(s) violated: ptr::copy_nonoverlapping requires that both pointer arguments are aligned and non-null and the specified memory ranges do not overlap" }>, align 1
@alloc_fad0cd83b7d1858a846a172eb260e593 = private unnamed_addr constant <{ [42 x i8] }> <{ [42 x i8] c"is_aligned_to: align is not a power-of-two" }>, align 1
@alloc_041983ee8170efdaaf95ba67fd072d26 = private unnamed_addr constant <{ ptr, [8 x i8] }> <{ ptr @alloc_fad0cd83b7d1858a846a172eb260e593, [8 x i8] c"*\00\00\00\00\00\00\00" }>, align 8
@alloc_513570631223a12912d85da2bec3b15a = private unnamed_addr constant <{}> zeroinitializer, align 8
@alloc_f1802761b0cba8787ff63a6853b741ad = private unnamed_addr constant <{ [81 x i8] }> <{ [81 x i8] c"/rustc/46b180ec2452d388c5d9c14009442e2e0beb01d7/library/core/src/ptr/const_ptr.rs" }>, align 1
@alloc_33f991fa5bbac1da9d8a778b0f014caf = private unnamed_addr constant <{ ptr, [16 x i8] }> <{ ptr @alloc_f1802761b0cba8787ff63a6853b741ad, [16 x i8] c"Q\00\00\00\00\00\00\00T\06\00\00\0D\00\00\00" }>, align 8
@alloc_91c7fa63c3cfeaa3c795652d5cf060e4 = private unnamed_addr constant <{ [12 x i8] }> <{ [12 x i8] c"invalid args" }>, align 1
@alloc_af99043bc04c419363a7f04d23183506 = private unnamed_addr constant <{ ptr, [8 x i8] }> <{ ptr @alloc_91c7fa63c3cfeaa3c795652d5cf060e4, [8 x i8] c"\0C\00\00\00\00\00\00\00" }>, align 8
@alloc_b471600b253f24fcc8f91ba747bf2f04 = private unnamed_addr constant <{ [75 x i8] }> <{ [75 x i8] c"/rustc/46b180ec2452d388c5d9c14009442e2e0beb01d7/library/core/src/fmt/mod.rs" }>, align 1
@alloc_4ba2c5ddff77a51f3765b0dd5f2851cc = private unnamed_addr constant <{ ptr, [16 x i8] }> <{ ptr @alloc_b471600b253f24fcc8f91ba747bf2f04, [16 x i8] c"K\00\00\00\00\00\00\00U\01\00\00\0D\00\00\00" }>, align 8
@alloc_3d28b95801fd55932918b2920be93f48 = private unnamed_addr constant <{ ptr, [16 x i8] }> <{ ptr @alloc_b471600b253f24fcc8f91ba747bf2f04, [16 x i8] c"K\00\00\00\00\00\00\00K\01\00\00\0D\00\00\00" }>, align 8
@alloc_ec595fc0e82ef92fc59bd74f68296eae = private unnamed_addr constant <{ [73 x i8] }> <{ [73 x i8] c"assertion failed: 0 < pointee_size && pointee_size <= isize::MAX as usize" }>, align 1
@alloc_a0e61a1e27d0492d8a5ee70454b95870 = private unnamed_addr constant <{ ptr, [16 x i8] }> <{ ptr @alloc_f1802761b0cba8787ff63a6853b741ad, [16 x i8] c"Q\00\00\00\00\00\00\00\D0\02\00\00\09\00\00\00" }>, align 8
@alloc_1eb6f53a157dccb32488e066ad957e6d = private unnamed_addr constant <{ [82 x i8] }> <{ [82 x i8] c"unsafe precondition(s) violated: hint::unreachable_unchecked must never be reached" }>, align 1
@alloc_584baff3633a9fd987857f744de1d20e = private unnamed_addr constant <{ [67 x i8] }> <{ [67 x i8] c"slice::split_at_unchecked requires the index to be within the slice" }>, align 1
@alloc_d1084648e479974e70c9329824bf76f9 = private unnamed_addr constant <{ [9 x i8] }> <{ [9 x i8] c"mid > len" }>, align 1
@alloc_2b3e40161faa82f936e1f97ea2aea002 = private unnamed_addr constant <{ ptr, [8 x i8] }> <{ ptr @alloc_d1084648e479974e70c9329824bf76f9, [8 x i8] c"\09\00\00\00\00\00\00\00" }>, align 8
@alloc_81f9ea5ad36a4fd02db0f8c6040ce6ce = private unnamed_addr constant <{ [78 x i8] }> <{ [78 x i8] c"/rustc/46b180ec2452d388c5d9c14009442e2e0beb01d7/library/core/src/intrinsics.rs" }>, align 1
@alloc_3ddfd615a577a80e66751be046ca7362 = private unnamed_addr constant <{ ptr, [16 x i8] }> <{ ptr @alloc_81f9ea5ad36a4fd02db0f8c6040ce6ce, [16 x i8] c"N\00\00\00\00\00\00\00\E6\0A\00\006\00\00\00" }>, align 8
@str.0 = internal unnamed_addr constant [25 x i8] c"attempt to divide by zero"
@alloc_11195730e5236cfdc15ea13be1c301f9 = private unnamed_addr constant <{ [162 x i8] }> <{ [162 x i8] c"unsafe precondition(s) violated: slice::from_raw_parts requires the pointer to be aligned and non-null, and the total size of the slice not to exceed `isize::MAX`" }>, align 1
@1 = private unnamed_addr constant <{ [4 x i8], [4 x i8] }> <{ [4 x i8] c"\01\00\00\00", [4 x i8] undef }>, align 4
@2 = private unnamed_addr constant <{ [8 x i8], [8 x i8] }> <{ [8 x i8] c"\01\00\00\00\00\00\00\00", [8 x i8] undef }>, align 8
@vtable.1 = private constant <{ ptr, [16 x i8], ptr }> <{ ptr @"_ZN4core3ptr30drop_in_place$LT$$RF$usize$GT$17h88c00010659db5deE", [16 x i8] c"\08\00\00\00\00\00\00\00\08\00\00\00\00\00\00\00", ptr @"_ZN42_$LT$$RF$T$u20$as$u20$core..fmt..Debug$GT$3fmt17h1df4a28bab986b8eE" }>, align 8, !dbg !0
@alloc_8572d294b7d4b9d2125dc5191e02725c = private unnamed_addr constant <{ [64 x i8] }> <{ [64 x i8] c"slice::get_unchecked requires that the index is within the slice" }>, align 1
@alloc_73efae5ea7fff11ceb4ad45af16fc7e7 = private unnamed_addr constant <{ [22 x i8] }> <{ [22 x i8] c"src/arch/all/memchr.rs" }>, align 1
@alloc_7e05073be92564159fdebaf016a4526f = private unnamed_addr constant <{ ptr, [16 x i8] }> <{ ptr @alloc_73efae5ea7fff11ceb4ad45af16fc7e7, [16 x i8] c"\16\00\00\00\00\00\00\00\9A\00\00\00\17\00\00\00" }>, align 8
@str.2 = internal unnamed_addr constant [33 x i8] c"attempt to subtract with overflow"
@alloc_6fe664658f49ab47903479b832ca18f4 = private unnamed_addr constant <{ [29 x i8] }> <{ [29 x i8] c"assertion failed: cur > start" }>, align 1
@alloc_ed4c91e0f51b5cefa6706036f191ec1a = private unnamed_addr constant <{ ptr, [16 x i8] }> <{ ptr @alloc_73efae5ea7fff11ceb4ad45af16fc7e7, [16 x i8] c"\16\00\00\00\00\00\00\00\9B\00\00\00\09\00\00\00" }>, align 8
@alloc_f1c6749015889da01654509f5b6d6ce7 = private unnamed_addr constant <{ [51 x i8] }> <{ [51 x i8] c"assertion failed: end.sub(One::LOOP_BYTES) >= start" }>, align 1
@alloc_b45b823d5acb4f9883172817beb6d41e = private unnamed_addr constant <{ ptr, [16 x i8] }> <{ ptr @alloc_73efae5ea7fff11ceb4ad45af16fc7e7, [16 x i8] c"\16\00\00\00\00\00\00\00\9F\00\00\00\09\00\00\00" }>, align 8
@alloc_53973d2fe29b4adba8bb7390b5678745 = private unnamed_addr constant <{ [8 x i8] }> zeroinitializer, align 8
@alloc_18b0dad24a9c03afaef3155d59616654 = private unnamed_addr constant <{ ptr, [16 x i8] }> <{ ptr @alloc_73efae5ea7fff11ceb4ad45af16fc7e7, [16 x i8] c"\16\00\00\00\00\00\00\00\A1\00\00\00\0D\00\00\00" }>, align 8
@alloc_87ded04d224f1779bf0d95ca0b2acd1e = private unnamed_addr constant <{ ptr, [16 x i8] }> <{ ptr @alloc_73efae5ea7fff11ceb4ad45af16fc7e7, [16 x i8] c"\16\00\00\00\00\00\00\00~\03\00\00\05\00\00\00" }>, align 8
@str.3 = internal unnamed_addr constant [33 x i8] c"attempt to multiply with overflow"
@alloc_3fba4d8d9c50dc7dbe32618bb276c6b0 = private unnamed_addr constant <{ [30 x i8] }> <{ [30 x i8] c"src/arch/all/packedpair/mod.rs" }>, align 1
@alloc_0f4deeaa2ce26417fafa49eea4a01aea = private unnamed_addr constant <{ ptr, [16 x i8] }> <{ ptr @alloc_3fba4d8d9c50dc7dbe32618bb276c6b0, [16 x i8] c"\1E\00\00\00\00\00\00\00M\00\00\00.\00\00\00" }>, align 8
@alloc_f158133441bad77fb52c53b919d2334f = private unnamed_addr constant <{ ptr, [16 x i8] }> <{ ptr @alloc_3fba4d8d9c50dc7dbe32618bb276c6b0, [16 x i8] c"\1E\00\00\00\00\00\00\00M\00\00\00\0D\00\00\00" }>, align 8
@str.4 = internal unnamed_addr constant [28 x i8] c"attempt to add with overflow"
@alloc_6f8c98ce36add95a866268df18099aa7 = private unnamed_addr constant <{ ptr, [16 x i8] }> <{ ptr @alloc_3fba4d8d9c50dc7dbe32618bb276c6b0, [16 x i8] c"\1E\00\00\00\00\00\00\00O\00\00\00\0D\00\00\00" }>, align 8
@3 = private unnamed_addr constant <{ [256 x i8] }> <{ [256 x i8] c"743210/.-g\F2BC\E5,+*)('&%$#\22!8 \1F\1E\1D\1C\FF\94\A4\95\88\A0\9B\AD\DD\DE\86z\E8\CA\D7\E0\D0\DC\CC\BB\B7\B3\B1\A8\B2\C8\E2\C3\9A\B8\AE~x\BF\9D\C2\AA\BD\A2\A1\96\C1\8E\89\AB\B0\B9\A7\BAp\AF\C0\BC\9C\8C\8F{\85\80\93\8A\92r\DF\97\F9\D8\EE\EC\FD\E3\DA\E6\F7\87\B4\F1\E9\F6\F4\E7\8B\F5\F3\FB\EB\C9\C4\F0\D6\98\B6\CD\B5\7F\1B\D4\D3\D2\D5\E4\C5\A9\9F\83\ACiPb`aQ\CF\91ts\90\82\99yk\84mn|oRlv\8Dq\81w}\A5u\\jSHc]AO\A6\ED\A3\C7\BE\E1\D1\CB\C6\D9\DB\CE\EA\F8\9E\EF\FF\FF\FF\FF\FF\FF\FF\FF\FF\FF\FF\FF\FF\FF\FF\FF\FF\FF\FF\FF\FF\FF\FF\FF\FF\FF\FF\FF\FF\FF\FF\FF\FF\FF\FF\FF\FF\FF\FF\FF\FF\FF\FF\FF\FF\FF\FF\FF\FF\FF\FF\FF\FF\FF\FF\FF\FF\FF\FF\FF\FF\FF\FF\FF" }>, align 1
@alloc_e2d9a4f913eb1f0b67c00db3bd3d94b0 = private unnamed_addr constant <{ ptr, [16 x i8] }> <{ ptr @alloc_3fba4d8d9c50dc7dbe32618bb276c6b0, [16 x i8] c"\1E\00\00\00\00\00\00\00E\01\00\00\09\00\00\00" }>, align 8
@alloc_69687d9466939b2d135b4328a543e1dc = private unnamed_addr constant <{ [22 x i8] }> <{ [22 x i8] c"src/arch/all/twoway.rs" }>, align 1
@alloc_2e042c49a67f6ee7b98a2f0f99dc36ea = private unnamed_addr constant <{ ptr, [16 x i8] }> <{ ptr @alloc_69687d9466939b2d135b4328a543e1dc, [16 x i8] c"\16\00\00\00\00\00\00\00\BB\00\00\00\0F\00\00\00" }>, align 8
@alloc_24e8b8383cb87937cddf0602525d6094 = private unnamed_addr constant <{ ptr, [16 x i8] }> <{ ptr @alloc_69687d9466939b2d135b4328a543e1dc, [16 x i8] c"\16\00\00\00\00\00\00\00\BF\00\00\00.\00\00\00" }>, align 8
@alloc_b0fea2371b047182ed02b9e20f5d2683 = private unnamed_addr constant <{ ptr, [16 x i8] }> <{ ptr @alloc_69687d9466939b2d135b4328a543e1dc, [16 x i8] c"\16\00\00\00\00\00\00\00\BF\00\00\00\15\00\00\00" }>, align 8
@alloc_3d924e4645abd4d969c7b1e293ee932c = private unnamed_addr constant <{ ptr, [16 x i8] }> <{ ptr @alloc_69687d9466939b2d135b4328a543e1dc, [16 x i8] c"\16\00\00\00\00\00\00\00\C2\00\00\00\18\00\00\00" }>, align 8
@alloc_6e3d70efd476c6ebdfbece44d8e0f2a6 = private unnamed_addr constant <{ ptr, [16 x i8] }> <{ ptr @alloc_69687d9466939b2d135b4328a543e1dc, [16 x i8] c"\16\00\00\00\00\00\00\00\C7\00\00\002\00\00\00" }>, align 8
@alloc_c8ba3f56d631a2075bec7a0b5b7492ad = private unnamed_addr constant <{ ptr, [16 x i8] }> <{ ptr @alloc_69687d9466939b2d135b4328a543e1dc, [16 x i8] c"\16\00\00\00\00\00\00\00\C7\00\00\00)\00\00\00" }>, align 8
@alloc_502fcd653d713ba5248d92ffcbfdfe5d = private unnamed_addr constant <{ ptr, [16 x i8] }> <{ ptr @alloc_69687d9466939b2d135b4328a543e1dc, [16 x i8] c"\16\00\00\00\00\00\00\00\C8\00\00\00\11\00\00\00" }>, align 8
@alloc_8e12cb9d7c3df245639c35fdc85ecb47 = private unnamed_addr constant <{ ptr, [16 x i8] }> <{ ptr @alloc_69687d9466939b2d135b4328a543e1dc, [16 x i8] c"\16\00\00\00\00\00\00\00\CC\00\00\00'\00\00\00" }>, align 8
@alloc_37973d04ab832a7c7c9351324975ffb9 = private unnamed_addr constant <{ ptr, [16 x i8] }> <{ ptr @alloc_69687d9466939b2d135b4328a543e1dc, [16 x i8] c"\16\00\00\00\00\00\00\00\CC\00\00\00=\00\00\00" }>, align 8
@alloc_a0cef7249d9dbd35f7026b3820f00d9f = private unnamed_addr constant <{ ptr, [16 x i8] }> <{ ptr @alloc_69687d9466939b2d135b4328a543e1dc, [16 x i8] c"\16\00\00\00\00\00\00\00\CC\00\00\004\00\00\00" }>, align 8
@alloc_c0478aba1249c399a23239b5feecd21d = private unnamed_addr constant <{ ptr, [16 x i8] }> <{ ptr @alloc_69687d9466939b2d135b4328a543e1dc, [16 x i8] c"\16\00\00\00\00\00\00\00\D4\00\00\00$\00\00\00" }>, align 8
@alloc_8d45c7545ccb43182d98c9d4145b17ed = private unnamed_addr constant <{ ptr, [16 x i8] }> <{ ptr @alloc_69687d9466939b2d135b4328a543e1dc, [16 x i8] c"\16\00\00\00\00\00\00\00\D4\00\00\00:\00\00\00" }>, align 8
@alloc_801856b2434d759ae17acd9d4d0184de = private unnamed_addr constant <{ ptr, [16 x i8] }> <{ ptr @alloc_69687d9466939b2d135b4328a543e1dc, [16 x i8] c"\16\00\00\00\00\00\00\00\D4\00\00\001\00\00\00" }>, align 8
@alloc_51515c2dfe90fa7a2a93e99976e47e7d = private unnamed_addr constant <{ ptr, [16 x i8] }> <{ ptr @alloc_69687d9466939b2d135b4328a543e1dc, [16 x i8] c"\16\00\00\00\00\00\00\00\D7\00\00\00\22\00\00\00" }>, align 8
@alloc_56836b75f5af81987112eeb84ca4905e = private unnamed_addr constant <{ ptr, [16 x i8] }> <{ ptr @alloc_69687d9466939b2d135b4328a543e1dc, [16 x i8] c"\16\00\00\00\00\00\00\00\D7\00\00\00<\00\00\00" }>, align 8
@alloc_0fc2a4da7209a8ff75819b6ff30c81cc = private unnamed_addr constant <{ ptr, [16 x i8] }> <{ ptr @alloc_69687d9466939b2d135b4328a543e1dc, [16 x i8] c"\16\00\00\00\00\00\00\00\D7\00\00\003\00\00\00" }>, align 8
@alloc_d971f0b6c43fb78bd31d41f3871d6f7b = private unnamed_addr constant <{ ptr, [16 x i8] }> <{ ptr @alloc_69687d9466939b2d135b4328a543e1dc, [16 x i8] c"\16\00\00\00\00\00\00\00\DA\00\00\00\11\00\00\00" }>, align 8
@alloc_bf24ff8faae4aefbc80a0dfae1abdbda = private unnamed_addr constant <{ ptr, [16 x i8] }> <{ ptr @alloc_69687d9466939b2d135b4328a543e1dc, [16 x i8] c"\16\00\00\00\00\00\00\00\DB\00\00\00\19\00\00\00" }>, align 8
@alloc_5b17bffebb1546cd8816d845a5d93daa = private unnamed_addr constant <{ ptr, [16 x i8] }> <{ ptr @alloc_69687d9466939b2d135b4328a543e1dc, [16 x i8] c"\16\00\00\00\00\00\00\00\D5\00\00\00\15\00\00\00" }>, align 8
@alloc_0a4a69bf32e398e4f10acf426bc6d6b7 = private unnamed_addr constant <{ ptr, [16 x i8] }> <{ ptr @alloc_69687d9466939b2d135b4328a543e1dc, [16 x i8] c"\16\00\00\00\00\00\00\00\D0\00\00\00\18\00\00\00" }>, align 8
@alloc_87e4af1973dd5a184a371f8b6d9c3b85 = private unnamed_addr constant <{ ptr, [16 x i8] }> <{ ptr @alloc_69687d9466939b2d135b4328a543e1dc, [16 x i8] c"\16\00\00\00\00\00\00\00\D0\00\00\00\11\00\00\00" }>, align 8
@alloc_b4e227688314bcc6dc4775bbe3baacb0 = private unnamed_addr constant <{ ptr, [16 x i8] }> <{ ptr @alloc_69687d9466939b2d135b4328a543e1dc, [16 x i8] c"\16\00\00\00\00\00\00\00\CD\00\00\00\11\00\00\00" }>, align 8
@alloc_6d741d87c134a1aa11178ac226c73aa8 = private unnamed_addr constant <{ ptr, [16 x i8] }> <{ ptr @alloc_69687d9466939b2d135b4328a543e1dc, [16 x i8] c"\16\00\00\00\00\00\00\00\EE\00\00\00\17\00\00\00" }>, align 8
@alloc_83c613a44d44cab8f427168b69efff0c = private unnamed_addr constant <{ ptr, [16 x i8] }> <{ ptr @alloc_69687d9466939b2d135b4328a543e1dc, [16 x i8] c"\16\00\00\00\00\00\00\00\F1\00\00\00.\00\00\00" }>, align 8
@alloc_7a0fad275c21f8b4eb246b64febf5504 = private unnamed_addr constant <{ ptr, [16 x i8] }> <{ ptr @alloc_69687d9466939b2d135b4328a543e1dc, [16 x i8] c"\16\00\00\00\00\00\00\00\F1\00\00\00\15\00\00\00" }>, align 8
@alloc_98619411cf09088a149dd6fe2689a7f9 = private unnamed_addr constant <{ ptr, [16 x i8] }> <{ ptr @alloc_69687d9466939b2d135b4328a543e1dc, [16 x i8] c"\16\00\00\00\00\00\00\00\F2\00\00\00\18\00\00\00" }>, align 8
@alloc_f1927a13650e210dd9c5e27ef2592183 = private unnamed_addr constant <{ ptr, [16 x i8] }> <{ ptr @alloc_69687d9466939b2d135b4328a543e1dc, [16 x i8] c"\16\00\00\00\00\00\00\00\F8\00\00\002\00\00\00" }>, align 8
@alloc_f0780403a9f5fc8563ccafe52062e980 = private unnamed_addr constant <{ ptr, [16 x i8] }> <{ ptr @alloc_69687d9466939b2d135b4328a543e1dc, [16 x i8] c"\16\00\00\00\00\00\00\00\F8\00\00\00)\00\00\00" }>, align 8
@alloc_601fc0b994ca50b088a7dd8abba0df67 = private unnamed_addr constant <{ ptr, [16 x i8] }> <{ ptr @alloc_69687d9466939b2d135b4328a543e1dc, [16 x i8] c"\16\00\00\00\00\00\00\00\F9\00\00\00\11\00\00\00" }>, align 8
@alloc_4253d7382e2d8205a0f68226fcd108a9 = private unnamed_addr constant <{ ptr, [16 x i8] }> <{ ptr @alloc_69687d9466939b2d135b4328a543e1dc, [16 x i8] c"\16\00\00\00\00\00\00\00\FD\00\00\00'\00\00\00" }>, align 8
@alloc_991658463dffc4421109cd4afcb33168 = private unnamed_addr constant <{ ptr, [16 x i8] }> <{ ptr @alloc_69687d9466939b2d135b4328a543e1dc, [16 x i8] c"\16\00\00\00\00\00\00\00\FD\00\00\00=\00\00\00" }>, align 8
@alloc_b912ebb84480de06b44a40e501f5e9e0 = private unnamed_addr constant <{ ptr, [16 x i8] }> <{ ptr @alloc_69687d9466939b2d135b4328a543e1dc, [16 x i8] c"\16\00\00\00\00\00\00\00\FD\00\00\004\00\00\00" }>, align 8
@alloc_7f59bfdb5411c9181502d67d29dd7109 = private unnamed_addr constant <{ ptr, [16 x i8] }> <{ ptr @alloc_69687d9466939b2d135b4328a543e1dc, [16 x i8] c"\16\00\00\00\00\00\00\00\04\01\00\00\18\00\00\00" }>, align 8
@alloc_79656f79edaf93ae10d2b287ede0a9da = private unnamed_addr constant <{ ptr, [16 x i8] }> <{ ptr @alloc_69687d9466939b2d135b4328a543e1dc, [16 x i8] c"\16\00\00\00\00\00\00\00\04\01\00\00.\00\00\00" }>, align 8
@alloc_e361d056c1123597668df4d684a50496 = private unnamed_addr constant <{ ptr, [16 x i8] }> <{ ptr @alloc_69687d9466939b2d135b4328a543e1dc, [16 x i8] c"\16\00\00\00\00\00\00\00\04\01\00\00%\00\00\00" }>, align 8
@alloc_7a45609c57ab00ac81c1dcef1d5fc556 = private unnamed_addr constant <{ ptr, [16 x i8] }> <{ ptr @alloc_69687d9466939b2d135b4328a543e1dc, [16 x i8] c"\16\00\00\00\00\00\00\00\05\01\00\00\19\00\00\00" }>, align 8
@alloc_6f13417113f7732859e1bd5e1dd07f48 = private unnamed_addr constant <{ ptr, [16 x i8] }> <{ ptr @alloc_69687d9466939b2d135b4328a543e1dc, [16 x i8] c"\16\00\00\00\00\00\00\00\01\01\00\00\18\00\00\00" }>, align 8
@alloc_5e0a04442cee24e137485cfd12458177 = private unnamed_addr constant <{ ptr, [16 x i8] }> <{ ptr @alloc_69687d9466939b2d135b4328a543e1dc, [16 x i8] c"\16\00\00\00\00\00\00\00\01\01\00\00\11\00\00\00" }>, align 8
@alloc_cb2f2ba2bb3a900b6ba230bfa43d3821 = private unnamed_addr constant <{ ptr, [16 x i8] }> <{ ptr @alloc_69687d9466939b2d135b4328a543e1dc, [16 x i8] c"\16\00\00\00\00\00\00\00\FE\00\00\00\11\00\00\00" }>, align 8
@alloc_9d336a82343e62b5b59ff5806914e6a2 = private unnamed_addr constant <{ ptr, [16 x i8] }> <{ ptr @alloc_69687d9466939b2d135b4328a543e1dc, [16 x i8] c"\16\00\00\00\00\00\00\00K\01\00\002\00\00\00" }>, align 8
@alloc_167fd3ef274a40648b13b392da455e3d = private unnamed_addr constant <{ ptr, [16 x i8] }> <{ ptr @alloc_69687d9466939b2d135b4328a543e1dc, [16 x i8] c"\16\00\00\00\00\00\00\00K\01\00\00)\00\00\00" }>, align 8
@alloc_3b9de6df52116a487d93d76c537ffae5 = private unnamed_addr constant <{ ptr, [16 x i8] }> <{ ptr @alloc_69687d9466939b2d135b4328a543e1dc, [16 x i8] c"\16\00\00\00\00\00\00\00L\01\00\00\11\00\00\00" }>, align 8
@alloc_7821b7423385071cdac9d7118145d7ba = private unnamed_addr constant <{ ptr, [16 x i8] }> <{ ptr @alloc_69687d9466939b2d135b4328a543e1dc, [16 x i8] c"\16\00\00\00\00\00\00\00Q\01\00\00#\00\00\00" }>, align 8
@alloc_b742277919a141a1567a44c91b2fdeca = private unnamed_addr constant <{ ptr, [16 x i8] }> <{ ptr @alloc_69687d9466939b2d135b4328a543e1dc, [16 x i8] c"\16\00\00\00\00\00\00\00Q\01\00\00\1C\00\00\00" }>, align 8
@alloc_d33d6eee646541fb53b7423cbbc3faa0 = private unnamed_addr constant <{ ptr, [16 x i8] }> <{ ptr @alloc_69687d9466939b2d135b4328a543e1dc, [16 x i8] c"\16\00\00\00\00\00\00\00Q\01\00\006\00\00\00" }>, align 8
@alloc_53ed245f6d897ecc743186b7c0248b27 = private unnamed_addr constant <{ ptr, [16 x i8] }> <{ ptr @alloc_69687d9466939b2d135b4328a543e1dc, [16 x i8] c"\16\00\00\00\00\00\00\00Q\01\00\00-\00\00\00" }>, align 8
@alloc_afa5836574a779a4776e98ba8efb85e0 = private unnamed_addr constant <{ ptr, [16 x i8] }> <{ ptr @alloc_69687d9466939b2d135b4328a543e1dc, [16 x i8] c"\16\00\00\00\00\00\00\00T\01\00\000\00\00\00" }>, align 8
@alloc_e65d41cea2dae2c4ec6eed45527a309e = private unnamed_addr constant <{ ptr, [16 x i8] }> <{ ptr @alloc_69687d9466939b2d135b4328a543e1dc, [16 x i8] c"\16\00\00\00\00\00\00\00T\01\00\00'\00\00\00" }>, align 8
@alloc_ae3fa604c375122cf7ca26e9d66d3688 = private unnamed_addr constant <{ ptr, [16 x i8] }> <{ ptr @alloc_69687d9466939b2d135b4328a543e1dc, [16 x i8] c"\16\00\00\00\00\00\00\00Y\01\00\00$\00\00\00" }>, align 8
@alloc_ca46a58d553f5388b291abd845cf8753 = private unnamed_addr constant <{ ptr, [16 x i8] }> <{ ptr @alloc_69687d9466939b2d135b4328a543e1dc, [16 x i8] c"\16\00\00\00\00\00\00\00Y\01\00\00:\00\00\00" }>, align 8
@alloc_7867e607b36013f1cc45e4a4c83008b9 = private unnamed_addr constant <{ ptr, [16 x i8] }> <{ ptr @alloc_69687d9466939b2d135b4328a543e1dc, [16 x i8] c"\16\00\00\00\00\00\00\00Y\01\00\001\00\00\00" }>, align 8
@alloc_e9b0acd529ece9b4469a416dd9081b7d = private unnamed_addr constant <{ ptr, [16 x i8] }> <{ ptr @alloc_69687d9466939b2d135b4328a543e1dc, [16 x i8] c"\16\00\00\00\00\00\00\00_\01\00\00\11\00\00\00" }>, align 8
@alloc_a05f0eb065a9c201dc7436b2cec98057 = private unnamed_addr constant <{ ptr, [16 x i8] }> <{ ptr @alloc_69687d9466939b2d135b4328a543e1dc, [16 x i8] c"\16\00\00\00\00\00\00\00]\01\00\00!\00\00\00" }>, align 8
@alloc_50ce989a71a9112e02153f8f520f40bc = private unnamed_addr constant <{ ptr, [16 x i8] }> <{ ptr @alloc_69687d9466939b2d135b4328a543e1dc, [16 x i8] c"\16\00\00\00\00\00\00\00Z\01\00\00\15\00\00\00" }>, align 8
@alloc_a4f54b73baed7f1d4960bc18a2556362 = private unnamed_addr constant <{ ptr, [16 x i8] }> <{ ptr @alloc_69687d9466939b2d135b4328a543e1dc, [16 x i8] c"\16\00\00\00\00\00\00\00U\01\00\00\18\00\00\00" }>, align 8
@alloc_32be7028a19c85a3568a030bb1a5f93a = private unnamed_addr constant <{ ptr, [16 x i8] }> <{ ptr @alloc_69687d9466939b2d135b4328a543e1dc, [16 x i8] c"\16\00\00\00\00\00\00\00U\01\00\00\11\00\00\00" }>, align 8
@alloc_a2c22ccae40e4a8eeb5ea2bf027fef1a = private unnamed_addr constant <{ ptr, [16 x i8] }> <{ ptr @alloc_69687d9466939b2d135b4328a543e1dc, [16 x i8] c"\16\00\00\00\00\00\00\00R\01\00\00\11\00\00\00" }>, align 8
@alloc_44bd1f0733e7b598c771cb0cb2267fd3 = private unnamed_addr constant <{ ptr, [16 x i8] }> <{ ptr @alloc_69687d9466939b2d135b4328a543e1dc, [16 x i8] c"\16\00\00\00\00\00\00\00t\01\00\002\00\00\00" }>, align 8
@alloc_4de6a41e67863be6d729cc9bc859cbb0 = private unnamed_addr constant <{ ptr, [16 x i8] }> <{ ptr @alloc_69687d9466939b2d135b4328a543e1dc, [16 x i8] c"\16\00\00\00\00\00\00\00t\01\00\00)\00\00\00" }>, align 8
@alloc_be499fef5a88e1fabe1108c107887f18 = private unnamed_addr constant <{ ptr, [16 x i8] }> <{ ptr @alloc_69687d9466939b2d135b4328a543e1dc, [16 x i8] c"\16\00\00\00\00\00\00\00u\01\00\00\11\00\00\00" }>, align 8
@alloc_75e571ca0bdb019e376f91788fac87d1 = private unnamed_addr constant <{ ptr, [16 x i8] }> <{ ptr @alloc_69687d9466939b2d135b4328a543e1dc, [16 x i8] c"\16\00\00\00\00\00\00\00y\01\00\00#\00\00\00" }>, align 8
@alloc_47e69e9a4b7a6d370b9a41fa1dfcf318 = private unnamed_addr constant <{ ptr, [16 x i8] }> <{ ptr @alloc_69687d9466939b2d135b4328a543e1dc, [16 x i8] c"\16\00\00\00\00\00\00\00y\01\00\00\1C\00\00\00" }>, align 8
@alloc_364e952c354967477e2ae733d7aca4ba = private unnamed_addr constant <{ ptr, [16 x i8] }> <{ ptr @alloc_69687d9466939b2d135b4328a543e1dc, [16 x i8] c"\16\00\00\00\00\00\00\00y\01\00\006\00\00\00" }>, align 8
@alloc_1d06f74c9caf2931054ba117c9b72fbe = private unnamed_addr constant <{ ptr, [16 x i8] }> <{ ptr @alloc_69687d9466939b2d135b4328a543e1dc, [16 x i8] c"\16\00\00\00\00\00\00\00y\01\00\00-\00\00\00" }>, align 8
@alloc_34d44c7f2a5243fba09de64204f8a6f8 = private unnamed_addr constant <{ ptr, [16 x i8] }> <{ ptr @alloc_69687d9466939b2d135b4328a543e1dc, [16 x i8] c"\16\00\00\00\00\00\00\00|\01\00\000\00\00\00" }>, align 8
@alloc_950b44d31d450232b5fa7e4fa64ee317 = private unnamed_addr constant <{ ptr, [16 x i8] }> <{ ptr @alloc_69687d9466939b2d135b4328a543e1dc, [16 x i8] c"\16\00\00\00\00\00\00\00|\01\00\00'\00\00\00" }>, align 8
@alloc_aca95cbed275e4beff1b1d3961a7caa7 = private unnamed_addr constant <{ ptr, [16 x i8] }> <{ ptr @alloc_69687d9466939b2d135b4328a543e1dc, [16 x i8] c"\16\00\00\00\00\00\00\00\80\01\00\00#\00\00\00" }>, align 8
@alloc_ddeed3ee01b463f05fad64891695bef9 = private unnamed_addr constant <{ ptr, [16 x i8] }> <{ ptr @alloc_69687d9466939b2d135b4328a543e1dc, [16 x i8] c"\16\00\00\00\00\00\00\00\80\01\00\009\00\00\00" }>, align 8
@alloc_2c95268a43320f2bde517d081003143a = private unnamed_addr constant <{ ptr, [16 x i8] }> <{ ptr @alloc_69687d9466939b2d135b4328a543e1dc, [16 x i8] c"\16\00\00\00\00\00\00\00\80\01\00\000\00\00\00" }>, align 8
@alloc_effdac553958a09e3714635addde7b83 = private unnamed_addr constant <{ ptr, [16 x i8] }> <{ ptr @alloc_69687d9466939b2d135b4328a543e1dc, [16 x i8] c"\16\00\00\00\00\00\00\00\86\01\00\00\11\00\00\00" }>, align 8
@alloc_f33fc89e985ad539057b77482ff91da6 = private unnamed_addr constant <{ ptr, [16 x i8] }> <{ ptr @alloc_69687d9466939b2d135b4328a543e1dc, [16 x i8] c"\16\00\00\00\00\00\00\00\84\01\00\00!\00\00\00" }>, align 8
@alloc_e3bf912ca2f16603faafb3a31a257606 = private unnamed_addr constant <{ ptr, [16 x i8] }> <{ ptr @alloc_69687d9466939b2d135b4328a543e1dc, [16 x i8] c"\16\00\00\00\00\00\00\00\81\01\00\00\15\00\00\00" }>, align 8
@alloc_e6a410e58989bf0db36837d02cefd8c3 = private unnamed_addr constant <{ ptr, [16 x i8] }> <{ ptr @alloc_69687d9466939b2d135b4328a543e1dc, [16 x i8] c"\16\00\00\00\00\00\00\00}\01\00\00\18\00\00\00" }>, align 8
@alloc_ff757fd169f81313a69ae86cd6ba983e = private unnamed_addr constant <{ ptr, [16 x i8] }> <{ ptr @alloc_69687d9466939b2d135b4328a543e1dc, [16 x i8] c"\16\00\00\00\00\00\00\00}\01\00\00\11\00\00\00" }>, align 8
@alloc_f0f8dfabfddefc97b3e1ac479b766295 = private unnamed_addr constant <{ ptr, [16 x i8] }> <{ ptr @alloc_69687d9466939b2d135b4328a543e1dc, [16 x i8] c"\16\00\00\00\00\00\00\00z\01\00\00\11\00\00\00" }>, align 8
@alloc_3a02216b19d5ffb1e529628eb81b1d2c = private unnamed_addr constant <{ ptr, [16 x i8] }> <{ ptr @alloc_69687d9466939b2d135b4328a543e1dc, [16 x i8] c"\16\00\00\00\00\00\00\00\BD\01\00\00,\00\00\00" }>, align 8
@alloc_2bbc122d7ac03784698d86b09e843493 = private unnamed_addr constant <{ ptr, [16 x i8] }> <{ ptr @alloc_69687d9466939b2d135b4328a543e1dc, [16 x i8] c"\16\00\00\00\00\00\00\00\BE\01\00\00\0C\00\00\00" }>, align 8
@alloc_d3abd2074ffa373df67aa2f23942080d = private unnamed_addr constant <{ ptr, [16 x i8] }> <{ ptr @alloc_69687d9466939b2d135b4328a543e1dc, [16 x i8] c"\16\00\00\00\00\00\00\00\C2\01\00\00\1D\00\00\00" }>, align 8
@alloc_36ffb01521cc9faad632b1bdf58bd332 = private unnamed_addr constant <{ ptr, [16 x i8] }> <{ ptr @alloc_69687d9466939b2d135b4328a543e1dc, [16 x i8] c"\16\00\00\00\00\00\00\00\C3\01\00\00\19\00\00\00" }>, align 8
@alloc_142675f232e7ec6373e71ac1ef0b3d84 = private unnamed_addr constant <{ ptr, [16 x i8] }> <{ ptr @alloc_69687d9466939b2d135b4328a543e1dc, [16 x i8] c"\16\00\00\00\00\00\00\00\D4\01\00\00,\00\00\00" }>, align 8
@alloc_2f7c612ff86c0d85e3f60da4c1084089 = private unnamed_addr constant <{ ptr, [16 x i8] }> <{ ptr @alloc_69687d9466939b2d135b4328a543e1dc, [16 x i8] c"\16\00\00\00\00\00\00\00\D5\01\00\00\0C\00\00\00" }>, align 8
@alloc_43ee0bfb0bf84c6f78e7f79e9b002143 = private unnamed_addr constant <{ ptr, [16 x i8] }> <{ ptr @alloc_69687d9466939b2d135b4328a543e1dc, [16 x i8] c"\16\00\00\00\00\00\00\00\D9\01\00\00\1D\00\00\00" }>, align 8
@alloc_00d57a5b1ca254068dcac3855fca11ff = private unnamed_addr constant <{ ptr, [16 x i8] }> <{ ptr @alloc_69687d9466939b2d135b4328a543e1dc, [16 x i8] c"\16\00\00\00\00\00\00\00\DA\01\00\00\1A\00\00\00" }>, align 8
@alloc_7e4b05976457d91998f3d079163350eb = private unnamed_addr constant <{ ptr, [16 x i8] }> <{ ptr @alloc_69687d9466939b2d135b4328a543e1dc, [16 x i8] c"\16\00\00\00\00\00\00\00\DA\01\00\00\19\00\00\00" }>, align 8
@alloc_f3ea7f83aed9142a6ca0e38324a44d15 = private unnamed_addr constant <{ ptr, [16 x i8] }> <{ ptr @alloc_69687d9466939b2d135b4328a543e1dc, [16 x i8] c"\16\00\00\00\00\00\00\00\09\02\00\00\0F\00\00\00" }>, align 8
@alloc_2ed535684a1803a5d6cca66ba6a0fa52 = private unnamed_addr constant <{ ptr, [16 x i8] }> <{ ptr @alloc_69687d9466939b2d135b4328a543e1dc, [16 x i8] c"\16\00\00\00\00\00\00\00\0A\02\00\00\22\00\00\00" }>, align 8
@alloc_f8fd465f88f64ed04b2dbac6e8815cad = private unnamed_addr constant <{ ptr, [16 x i8] }> <{ ptr @alloc_69687d9466939b2d135b4328a543e1dc, [16 x i8] c"\16\00\00\00\00\00\00\00\0A\02\00\00\1B\00\00\00" }>, align 8
@alloc_0e892c70acbcc4b1943c3b67e2683cce = private unnamed_addr constant <{ ptr, [16 x i8] }> <{ ptr @alloc_69687d9466939b2d135b4328a543e1dc, [16 x i8] c"\16\00\00\00\00\00\00\00\0B\02\00\00$\00\00\00" }>, align 8
@alloc_ee951ba736a4ffb34d645eab1da64eb5 = private unnamed_addr constant <{ ptr, [16 x i8] }> <{ ptr @alloc_69687d9466939b2d135b4328a543e1dc, [16 x i8] c"\16\00\00\00\00\00\00\00\0B\02\00\00\1D\00\00\00" }>, align 8
@alloc_712d9aa65dcf96d481a5d7d731f7a54d = private unnamed_addr constant <{ ptr, [16 x i8] }> <{ ptr @alloc_69687d9466939b2d135b4328a543e1dc, [16 x i8] c"\16\00\00\00\00\00\00\00\0F\02\00\00\15\00\00\00" }>, align 8
@alloc_32165d1e0f186ea4c7d0e814750c95a9 = private unnamed_addr constant <{ ptr, [16 x i8] }> <{ ptr @alloc_69687d9466939b2d135b4328a543e1dc, [16 x i8] c"\16\00\00\00\00\00\00\00\13\02\00\00(\00\00\00" }>, align 8
@alloc_4e5926410c0ea12a95b05c7160747ce0 = private unnamed_addr constant <{ ptr, [16 x i8] }> <{ ptr @alloc_69687d9466939b2d135b4328a543e1dc, [16 x i8] c"\16\00\00\00\00\00\00\00\13\02\00\00\15\00\00\00" }>, align 8
@alloc_97e45296c8f3bcbeb7bbb3794aab819d = private unnamed_addr constant <{ ptr, [16 x i8] }> <{ ptr @alloc_69687d9466939b2d135b4328a543e1dc, [16 x i8] c"\16\00\00\00\00\00\00\00\15\02\00\00%\00\00\00" }>, align 8
@alloc_236cd098f548dada5233312fda82b23b = private unnamed_addr constant <{ ptr, [16 x i8] }> <{ ptr @alloc_69687d9466939b2d135b4328a543e1dc, [16 x i8] c"\16\00\00\00\00\00\00\00\18\02\00\00\18\00\00\00" }>, align 8
@alloc_4b974bdc9fd7b3b01bef7cccd5f0586f = private unnamed_addr constant <{ ptr, [16 x i8] }> <{ ptr @alloc_69687d9466939b2d135b4328a543e1dc, [16 x i8] c"\16\00\00\00\00\00\00\00\1C\02\00\00\19\00\00\00" }>, align 8
@alloc_a7c0b6292e4755efe2801bd7207dc864 = private unnamed_addr constant <{ ptr, [16 x i8] }> <{ ptr @alloc_69687d9466939b2d135b4328a543e1dc, [16 x i8] c"\16\00\00\00\00\00\00\00\19\02\00\00\19\00\00\00" }>, align 8
@alloc_99b1ed942cec28df9521f14406143025 = private unnamed_addr constant <{ ptr, [16 x i8] }> <{ ptr @alloc_69687d9466939b2d135b4328a543e1dc, [16 x i8] c"\16\00\00\00\00\00\00\001\02\00\00\22\00\00\00" }>, align 8
@alloc_cf3c5782f035495b1c70e52edd655e71 = private unnamed_addr constant <{ ptr, [16 x i8] }> <{ ptr @alloc_69687d9466939b2d135b4328a543e1dc, [16 x i8] c"\16\00\00\00\00\00\00\001\02\00\00\1B\00\00\00" }>, align 8
@alloc_2932c02312ffe9c2568c4f2b92e6515c = private unnamed_addr constant <{ ptr, [16 x i8] }> <{ ptr @alloc_69687d9466939b2d135b4328a543e1dc, [16 x i8] c"\16\00\00\00\00\00\00\002\02\00\00$\00\00\00" }>, align 8
@alloc_eb00bb51cb1a1b300a2877f5ad49d6c6 = private unnamed_addr constant <{ ptr, [16 x i8] }> <{ ptr @alloc_69687d9466939b2d135b4328a543e1dc, [16 x i8] c"\16\00\00\00\00\00\00\002\02\00\00\1D\00\00\00" }>, align 8
@alloc_b30c119accb5d9ee7d3236523071d66b = private unnamed_addr constant <{ ptr, [16 x i8] }> <{ ptr @alloc_69687d9466939b2d135b4328a543e1dc, [16 x i8] c"\16\00\00\00\00\00\00\006\02\00\00\15\00\00\00" }>, align 8
@alloc_33f8291aa3eb803b654ebe7a2370ee6c = private unnamed_addr constant <{ ptr, [16 x i8] }> <{ ptr @alloc_69687d9466939b2d135b4328a543e1dc, [16 x i8] c"\16\00\00\00\00\00\00\00:\02\00\00(\00\00\00" }>, align 8
@alloc_7e0f964e21e2fddf7f6cb559c2478b42 = private unnamed_addr constant <{ ptr, [16 x i8] }> <{ ptr @alloc_69687d9466939b2d135b4328a543e1dc, [16 x i8] c"\16\00\00\00\00\00\00\00:\02\00\00\15\00\00\00" }>, align 8
@alloc_4c85782d4028fe360841300d19f05d0b = private unnamed_addr constant <{ ptr, [16 x i8] }> <{ ptr @alloc_69687d9466939b2d135b4328a543e1dc, [16 x i8] c"\16\00\00\00\00\00\00\00<\02\00\00%\00\00\00" }>, align 8
@alloc_2205f1cad4cf502d2f1fe67301cd8f96 = private unnamed_addr constant <{ ptr, [16 x i8] }> <{ ptr @alloc_69687d9466939b2d135b4328a543e1dc, [16 x i8] c"\16\00\00\00\00\00\00\00?\02\00\00\18\00\00\00" }>, align 8
@alloc_51aa32f81e9687dd65e696eabf13f739 = private unnamed_addr constant <{ ptr, [16 x i8] }> <{ ptr @alloc_69687d9466939b2d135b4328a543e1dc, [16 x i8] c"\16\00\00\00\00\00\00\00C\02\00\00\19\00\00\00" }>, align 8
@alloc_cb3d599aa24c66cbae202c4efb0d8c25 = private unnamed_addr constant <{ ptr, [16 x i8] }> <{ ptr @alloc_69687d9466939b2d135b4328a543e1dc, [16 x i8] c"\16\00\00\00\00\00\00\00@\02\00\00\19\00\00\00" }>, align 8
@alloc_c47a31809ea269a3c2ed837c0a841a6f = private unnamed_addr constant <{ ptr, [16 x i8] }> <{ ptr @alloc_69687d9466939b2d135b4328a543e1dc, [16 x i8] c"\16\00\00\00\00\00\00\00\92\02\00\00\15\00\00\00" }>, align 8
@str.5 = internal unnamed_addr constant [35 x i8] c"attempt to shift left with overflow"
@alloc_6616c8e40ce2010ee6929bae6fc4eaee = private unnamed_addr constant <{ ptr, [16 x i8] }> <{ ptr @alloc_69687d9466939b2d135b4328a543e1dc, [16 x i8] c"\16\00\00\00\00\00\00\00\9B\02\00\00\12\00\00\00" }>, align 8
@alloc_31fa10b760f65df9f6e2faf4311323a9 = private unnamed_addr constant <{ [19 x i8] }> <{ [19 x i8] c"src/arch/all/mod.rs" }>, align 1
@alloc_c90dbe53055e49c04be0004f20e186a4 = private unnamed_addr constant <{ ptr, [16 x i8] }> <{ ptr @alloc_31fa10b760f65df9f6e2faf4311323a9, [16 x i8] c"\13\00\00\00\00\00\00\00\1C\00\00\00\1E\00\00\00" }>, align 8
@alloc_48ca98c7f6968fe869b5138392279c97 = private unnamed_addr constant <{ ptr, [16 x i8] }> <{ ptr @alloc_31fa10b760f65df9f6e2faf4311323a9, [16 x i8] c"\13\00\00\00\00\00\00\00,\00\00\00\1F\00\00\00" }>, align 8
@alloc_75b5ab47b90091b6db28f26c33f1f4db = private unnamed_addr constant <{ ptr, [16 x i8] }> <{ ptr @alloc_31fa10b760f65df9f6e2faf4311323a9, [16 x i8] c"\13\00\00\00\00\00\00\00,\00\00\00\1E\00\00\00" }>, align 8
@alloc_b668c46352d30b8df7edb62494d00c36 = private unnamed_addr constant <{ ptr, [16 x i8] }> <{ ptr @alloc_31fa10b760f65df9f6e2faf4311323a9, [16 x i8] c"\13\00\00\00\00\00\00\00\96\00\00\00\09\00\00\00" }>, align 8
@alloc_91c4d2b6623730224c54ed1cd2160dec = private unnamed_addr constant <{ ptr, [16 x i8] }> <{ ptr @alloc_31fa10b760f65df9f6e2faf4311323a9, [16 x i8] c"\13\00\00\00\00\00\00\00\88\00\00\00\09\00\00\00" }>, align 8
@alloc_e88bb4efdcc781025db841ec8f8ccbac = private unnamed_addr constant <{ [37 x i8] }> <{ [37 x i8] c"vector cannot be bigger than 32 bytes" }>, align 1
@alloc_c52586940ee4c4eeed1e17678be44496 = private unnamed_addr constant <{ ptr, [8 x i8] }> <{ ptr @alloc_e88bb4efdcc781025db841ec8f8ccbac, [8 x i8] c"%\00\00\00\00\00\00\00" }>, align 8
@alloc_b52d0ed3f535307bf58e61e57f979a3b = private unnamed_addr constant <{ [26 x i8] }> <{ [26 x i8] c"src/arch/generic/memchr.rs" }>, align 1
@alloc_2f7223c68291da5be6eee0921d2feee6 = private unnamed_addr constant <{ ptr, [16 x i8] }> <{ ptr @alloc_b52d0ed3f535307bf58e61e57f979a3b, [16 x i8] c"\1A\00\00\00\00\00\00\00\98\00\00\00\09\00\00\00" }>, align 8
@alloc_58c0f43295a0e4e3af70039a8ad8f97c = private unnamed_addr constant <{ [20 x i8] }> <{ [20 x i8] c"haystack has length " }>, align 1
@alloc_6de66bae29769ce50e0c061f2a3ebae2 = private unnamed_addr constant <{ [23 x i8] }> <{ [23 x i8] c", but must be at least " }>, align 1
@alloc_f9d510c4a4795e4867076d572a8bf375 = private unnamed_addr constant <{ ptr, [8 x i8], ptr, [8 x i8] }> <{ ptr @alloc_58c0f43295a0e4e3af70039a8ad8f97c, [8 x i8] c"\14\00\00\00\00\00\00\00", ptr @alloc_6de66bae29769ce50e0c061f2a3ebae2, [8 x i8] c"\17\00\00\00\00\00\00\00" }>, align 8
@alloc_87930ff84f26c4dc0d3a344636709737 = private unnamed_addr constant <{ [8 x i8] }> <{ [8 x i8] c"\10\00\00\00\00\00\00\00" }>, align 8
@alloc_4b5ebd631718a792b3547ae563af9159 = private unnamed_addr constant <{ ptr, [16 x i8] }> <{ ptr @alloc_b52d0ed3f535307bf58e61e57f979a3b, [16 x i8] c"\1A\00\00\00\00\00\00\00\9C\00\00\00\09\00\00\00" }>, align 8
@alloc_b92c6efa7e08e641a87545b572f4c561 = private unnamed_addr constant <{ ptr, [16 x i8] }> <{ ptr @alloc_b52d0ed3f535307bf58e61e57f979a3b, [16 x i8] c"\1A\00\00\00\00\00\00\00\A9\00\00\00!\00\00\00" }>, align 8
@alloc_de85142047c4f8dee3ac57d3ae60a57b = private unnamed_addr constant <{ [59 x i8] }> <{ [59 x i8] c"assertion failed: cur > start && end.sub(V::BYTES) >= start" }>, align 1
@alloc_e8d14ea98855db3f562b4c3099669feb = private unnamed_addr constant <{ ptr, [16 x i8] }> <{ ptr @alloc_b52d0ed3f535307bf58e61e57f979a3b, [16 x i8] c"\1A\00\00\00\00\00\00\00\AA\00\00\00\09\00\00\00" }>, align 8
@alloc_232f0254516138461d7868bc851c3afe = private unnamed_addr constant <{ [46 x i8] }> <{ [46 x i8] c"assertion failed: end.distance(cur) < V::BYTES" }>, align 1
@alloc_578e8010ad6a0e45b40b30337243da73 = private unnamed_addr constant <{ ptr, [16 x i8] }> <{ ptr @alloc_b52d0ed3f535307bf58e61e57f979a3b, [16 x i8] c"\1A\00\00\00\00\00\00\00\E0\00\00\00\0D\00\00\00" }>, align 8
@alloc_674dd62eb00f781f4b6dc7eb4f19e3ae = private unnamed_addr constant <{ ptr, [16 x i8] }> <{ ptr @alloc_b52d0ed3f535307bf58e61e57f979a3b, [16 x i8] c"\1A\00\00\00\00\00\00\00\E1\00\00\00\1B\00\00\00" }>, align 8
@alloc_31e8ceacdf09051e7561e456c2943a20 = private unnamed_addr constant <{ ptr, [16 x i8] }> <{ ptr @alloc_b52d0ed3f535307bf58e61e57f979a3b, [16 x i8] c"\1A\00\00\00\00\00\00\00\E2\00\00\00\0D\00\00\00" }>, align 8
@alloc_75c3f2c379ca6b070c2a5b033b417a9e = private unnamed_addr constant <{ [47 x i8] }> <{ [47 x i8] c"assertion failed: end.distance(cur) >= V::BYTES" }>, align 1
@alloc_a67c1916115149f325168fb18ac4a5f7 = private unnamed_addr constant <{ ptr, [16 x i8] }> <{ ptr @alloc_b52d0ed3f535307bf58e61e57f979a3b, [16 x i8] c"\1A\00\00\00\00\00\00\00\D5\00\00\00\0D\00\00\00" }>, align 8
@alloc_50c82beece98efd3e366148d6d047bdd = private unnamed_addr constant <{ ptr, [16 x i8] }> <{ ptr @alloc_b52d0ed3f535307bf58e61e57f979a3b, [16 x i8] c"\1A\00\00\00\00\00\00\00\AD\00\00\00\11\00\00\00" }>, align 8
@alloc_20b42d8cbb5e9c401c9c2c75d0dd92e0 = private unnamed_addr constant <{ ptr, [16 x i8] }> <{ ptr @alloc_b52d0ed3f535307bf58e61e57f979a3b, [16 x i8] c"\1A\00\00\00\00\00\00\00\B0\00\00\001\00\00\00" }>, align 8
@alloc_6dc5bf8905934e408b1bb250b642eb84 = private unnamed_addr constant <{ ptr, [16 x i8] }> <{ ptr @alloc_b52d0ed3f535307bf58e61e57f979a3b, [16 x i8] c"\1A\00\00\00\00\00\00\00\B1\00\00\001\00\00\00" }>, align 8
@alloc_e0f5ad9a3eb286806e5659b80c8e3b5a = private unnamed_addr constant <{ ptr, [16 x i8] }> <{ ptr @alloc_b52d0ed3f535307bf58e61e57f979a3b, [16 x i8] c"\1A\00\00\00\00\00\00\00\B2\00\00\001\00\00\00" }>, align 8
@alloc_b9568e9ced5b68c33d8e79d16e29b8e6 = private unnamed_addr constant <{ [37 x i8] }> <{ [37 x i8] c"assertion failed: mask.has_non_zero()" }>, align 1
@alloc_2cc5cb1102996b0cab5a3c0f3808d94b = private unnamed_addr constant <{ ptr, [16 x i8] }> <{ ptr @alloc_b52d0ed3f535307bf58e61e57f979a3b, [16 x i8] c"\1A\00\00\00\00\00\00\00\CB\00\00\00\15\00\00\00" }>, align 8
@alloc_7e0946842de744e26e274d4c674c20af = private unnamed_addr constant <{ ptr, [16 x i8] }> <{ ptr @alloc_b52d0ed3f535307bf58e61e57f979a3b, [16 x i8] c"\1A\00\00\00\00\00\00\00\CC\00\00\00)\00\00\00" }>, align 8
@alloc_33ef0283cec15df2db4a88482bc3d2e6 = private unnamed_addr constant <{ ptr, [16 x i8] }> <{ ptr @alloc_b52d0ed3f535307bf58e61e57f979a3b, [16 x i8] c"\1A\00\00\00\00\00\00\00\C7\00\00\00-\00\00\00" }>, align 8
@alloc_7f98b014b6138997cfd396c1dedd5d92 = private unnamed_addr constant <{ ptr, [16 x i8] }> <{ ptr @alloc_b52d0ed3f535307bf58e61e57f979a3b, [16 x i8] c"\1A\00\00\00\00\00\00\00\C2\00\00\00-\00\00\00" }>, align 8
@alloc_6648ecb457e657c388db05f902f29026 = private unnamed_addr constant <{ ptr, [16 x i8] }> <{ ptr @alloc_b52d0ed3f535307bf58e61e57f979a3b, [16 x i8] c"\1A\00\00\00\00\00\00\00\07\01\00\00\09\00\00\00" }>, align 8
@alloc_208d4e0c5c2749fec38c99ebf95dc2c5 = private unnamed_addr constant <{ ptr, [16 x i8] }> <{ ptr @alloc_b52d0ed3f535307bf58e61e57f979a3b, [16 x i8] c"\1A\00\00\00\00\00\00\00\0B\01\00\00\09\00\00\00" }>, align 8
@alloc_eceea2299d776bcc6178dac62ecf546c = private unnamed_addr constant <{ [44 x i8] }> <{ [44 x i8] c"assertion failed: start <= cur && cur <= end" }>, align 1
@alloc_ce8192ee241dbaf0446e246a4c354a57 = private unnamed_addr constant <{ ptr, [16 x i8] }> <{ ptr @alloc_b52d0ed3f535307bf58e61e57f979a3b, [16 x i8] c"\1A\00\00\00\00\00\00\00\16\01\00\00\09\00\00\00" }>, align 8
@alloc_f8bd970983ea04d72ede7609fcf19be8 = private unnamed_addr constant <{ [48 x i8] }> <{ [48 x i8] c"assertion failed: cur.distance(start) < V::BYTES" }>, align 1
@alloc_1cdf33e794cd3feea302c3acfeddfb13 = private unnamed_addr constant <{ ptr, [16 x i8] }> <{ ptr @alloc_b52d0ed3f535307bf58e61e57f979a3b, [16 x i8] c"\1A\00\00\00\00\00\00\00E\01\00\00\0D\00\00\00" }>, align 8
@alloc_12b4db775bbb8d56c3a81d2fbe1c1451 = private unnamed_addr constant <{ [49 x i8] }> <{ [49 x i8] c"assertion failed: cur.distance(start) >= V::BYTES" }>, align 1
@alloc_4a1f9d37e279d0ae463b078128b8539a = private unnamed_addr constant <{ ptr, [16 x i8] }> <{ ptr @alloc_b52d0ed3f535307bf58e61e57f979a3b, [16 x i8] c"\1A\00\00\00\00\00\00\00>\01\00\00\0D\00\00\00" }>, align 8
@alloc_8a43b7f3f32c5813cd8c7d769cf0b8f3 = private unnamed_addr constant <{ ptr, [16 x i8] }> <{ ptr @alloc_b52d0ed3f535307bf58e61e57f979a3b, [16 x i8] c"\1A\00\00\00\00\00\00\00\19\01\00\00\11\00\00\00" }>, align 8
@alloc_d524d8d226ae0842e38f2a0e6605ef78 = private unnamed_addr constant <{ ptr, [16 x i8] }> <{ ptr @alloc_b52d0ed3f535307bf58e61e57f979a3b, [16 x i8] c"\1A\00\00\00\00\00\00\00\1D\01\00\001\00\00\00" }>, align 8
@alloc_0d50dac55165c83e831d76fd1cb78df8 = private unnamed_addr constant <{ ptr, [16 x i8] }> <{ ptr @alloc_b52d0ed3f535307bf58e61e57f979a3b, [16 x i8] c"\1A\00\00\00\00\00\00\00\1E\01\00\001\00\00\00" }>, align 8
@alloc_6f4884c8aee5b305439eb03ac1ad4731 = private unnamed_addr constant <{ ptr, [16 x i8] }> <{ ptr @alloc_b52d0ed3f535307bf58e61e57f979a3b, [16 x i8] c"\1A\00\00\00\00\00\00\00\1F\01\00\001\00\00\00" }>, align 8
@alloc_0ed052a4005e9c2527d57f5820ac8216 = private unnamed_addr constant <{ ptr, [16 x i8] }> <{ ptr @alloc_b52d0ed3f535307bf58e61e57f979a3b, [16 x i8] c"\1A\00\00\00\00\00\00\008\01\00\00\15\00\00\00" }>, align 8
@alloc_f4a2269e0242e685a020f9162d001cbd = private unnamed_addr constant <{ ptr, [16 x i8] }> <{ ptr @alloc_b52d0ed3f535307bf58e61e57f979a3b, [16 x i8] c"\1A\00\00\00\00\00\00\004\01\00\00-\00\00\00" }>, align 8
@alloc_4188a5cab2ad92e4bd2d4566aae06f91 = private unnamed_addr constant <{ ptr, [16 x i8] }> <{ ptr @alloc_b52d0ed3f535307bf58e61e57f979a3b, [16 x i8] c"\1A\00\00\00\00\00\00\00/\01\00\00-\00\00\00" }>, align 8
@alloc_63e98f7f2817b22f14d9adad7a75e0ab = private unnamed_addr constant <{ ptr, [16 x i8] }> <{ ptr @alloc_b52d0ed3f535307bf58e61e57f979a3b, [16 x i8] c"\1A\00\00\00\00\00\00\00*\01\00\00-\00\00\00" }>, align 8
@alloc_066081220597a7675e328e95a9865c12 = private unnamed_addr constant <{ [30 x i8] }> <{ [30 x i8] c"assertion failed: start <= end" }>, align 1
@alloc_076a0bac2324fa565849985f5c7fb961 = private unnamed_addr constant <{ ptr, [16 x i8] }> <{ ptr @alloc_b52d0ed3f535307bf58e61e57f979a3b, [16 x i8] c"\1A\00\00\00\00\00\00\00\81\04\00\00\05\00\00\00" }>, align 8
@alloc_4898b0a175b93691d50739d0b3b81d11 = private unnamed_addr constant <{ ptr, [16 x i8] }> <{ ptr @alloc_b52d0ed3f535307bf58e61e57f979a3b, [16 x i8] c"\1A\00\00\00\00\00\00\00\9B\04\00\00\05\00\00\00" }>, align 8
@alloc_93edcb02aab72ac8ccee5cfc02c0699c = private unnamed_addr constant <{ [39 x i8] }> <{ [39 x i8] c"haystack too small, should be at least " }>, align 1
@alloc_85f5000ef7a1c1584d50d15ab01c7b73 = private unnamed_addr constant <{ [9 x i8] }> <{ [9 x i8] c" but got " }>, align 1
@alloc_656f3864fce8f025137d3f8d5d1729ef = private unnamed_addr constant <{ ptr, [8 x i8], ptr, [8 x i8] }> <{ ptr @alloc_93edcb02aab72ac8ccee5cfc02c0699c, [8 x i8] c"'\00\00\00\00\00\00\00", ptr @alloc_85f5000ef7a1c1584d50d15ab01c7b73, [8 x i8] c"\09\00\00\00\00\00\00\00" }>, align 8
@alloc_9094843fd12e5314d41343064828dc3d = private unnamed_addr constant <{ [30 x i8] }> <{ [30 x i8] c"src/arch/generic/packedpair.rs" }>, align 1
@alloc_34e4d4d726d63589d27ace76431b3583 = private unnamed_addr constant <{ ptr, [16 x i8] }> <{ ptr @alloc_9094843fd12e5314d41343064828dc3d, [16 x i8] c"\1E\00\00\00\00\00\00\00U\00\00\00\09\00\00\00" }>, align 8
@alloc_4f645b91f2e006e8d464f3760b214510 = private unnamed_addr constant <{ [70 x i8] }> <{ [70 x i8] c"remaining bytes should be smaller than the minimum haystack length of " }>, align 1
@alloc_9f670c363c914b4abe726450d5e9bff7 = private unnamed_addr constant <{ [16 x i8] }> <{ [16 x i8] c", but there are " }>, align 1
@alloc_2f6f224657e9050ebf6403eb10a9701a = private unnamed_addr constant <{ [16 x i8] }> <{ [16 x i8] c" bytes remaining" }>, align 1
@alloc_b16d7af91e86170cf446fed253e0171e = private unnamed_addr constant <{ ptr, [8 x i8], ptr, [8 x i8], ptr, [8 x i8] }> <{ ptr @alloc_4f645b91f2e006e8d464f3760b214510, [8 x i8] c"F\00\00\00\00\00\00\00", ptr @alloc_9f670c363c914b4abe726450d5e9bff7, [8 x i8] c"\10\00\00\00\00\00\00\00", ptr @alloc_2f6f224657e9050ebf6403eb10a9701a, [8 x i8] c"\10\00\00\00\00\00\00\00" }>, align 8
@alloc_c820c99a50e4f90057029a8dab33dc0b = private unnamed_addr constant <{ ptr, [16 x i8] }> <{ ptr @alloc_9094843fd12e5314d41343064828dc3d, [16 x i8] c"\1E\00\00\00\00\00\00\00p\00\00\00\0D\00\00\00" }>, align 8
@alloc_d9261359f4ad1a5c514ed38bb0de34fe = private unnamed_addr constant <{ [45 x i8] }> <{ [45 x i8] c"after main loop, cur should have exceeded max" }>, align 1
@alloc_20e519785b70df1db6f847df9f9453a0 = private unnamed_addr constant <{ ptr, [8 x i8] }> <{ ptr @alloc_d9261359f4ad1a5c514ed38bb0de34fe, [8 x i8] c"-\00\00\00\00\00\00\00" }>, align 8
@alloc_f69feed583ac117a6356bf660a519228 = private unnamed_addr constant <{ ptr, [16 x i8] }> <{ ptr @alloc_9094843fd12e5314d41343064828dc3d, [16 x i8] c"\1E\00\00\00\00\00\00\00z\00\00\00\0D\00\00\00" }>, align 8
@alloc_e3861d616b007808426b1e5319785822 = private unnamed_addr constant <{ [9 x i8] }> <{ [9 x i8] c"overlap (" }>, align 1
@alloc_ba37a7896a2f18b781490af30a1ce743 = private unnamed_addr constant <{ [25 x i8] }> <{ [25 x i8] c") must always be non-zero" }>, align 1
@alloc_b8357a9d141865022dea39e35b2cea9e = private unnamed_addr constant <{ ptr, [8 x i8], ptr, [8 x i8] }> <{ ptr @alloc_e3861d616b007808426b1e5319785822, [8 x i8] c"\09\00\00\00\00\00\00\00", ptr @alloc_ba37a7896a2f18b781490af30a1ce743, [8 x i8] c"\19\00\00\00\00\00\00\00" }>, align 8
@alloc_b82195cc7496a5841b2c2ea042bb3fdc = private unnamed_addr constant <{ ptr, [16 x i8] }> <{ ptr @alloc_9094843fd12e5314d41343064828dc3d, [16 x i8] c"\1E\00\00\00\00\00\00\00\7F\00\00\00\0D\00\00\00" }>, align 8
@alloc_608847c31320b6f5fcac1150c6b390c5 = private unnamed_addr constant <{ [39 x i8] }> <{ [39 x i8] c") cannot possibly be >= than a vector (" }>, align 1
@alloc_9e3f62b0e6490cc45676dc85f910c2d0 = private unnamed_addr constant <{ [1 x i8] }> <{ [1 x i8] c")" }>, align 1
@alloc_c0e4fe6d7e67299252ba5581cbccc80e = private unnamed_addr constant <{ ptr, [8 x i8], ptr, [8 x i8], ptr, [8 x i8] }> <{ ptr @alloc_e3861d616b007808426b1e5319785822, [8 x i8] c"\09\00\00\00\00\00\00\00", ptr @alloc_608847c31320b6f5fcac1150c6b390c5, [8 x i8] c"'\00\00\00\00\00\00\00", ptr @alloc_9e3f62b0e6490cc45676dc85f910c2d0, [8 x i8] c"\01\00\00\00\00\00\00\00" }>, align 8
@alloc_092db09c16a9873dc59500525a07a590 = private unnamed_addr constant <{ ptr, [16 x i8] }> <{ ptr @alloc_9094843fd12e5314d41343064828dc3d, [16 x i8] c"\1E\00\00\00\00\00\00\00\84\00\00\00\0D\00\00\00" }>, align 8
@alloc_98929e0a17054cbbf7fa6640ae257fdc = private unnamed_addr constant <{ ptr, [16 x i8] }> <{ ptr @alloc_9094843fd12e5314d41343064828dc3d, [16 x i8] c"\1E\00\00\00\00\00\00\00\AE\00\00\00\09\00\00\00" }>, align 8
@alloc_ea22d3cf1ff3b745aa4435b74754fe64 = private unnamed_addr constant <{ ptr, [16 x i8] }> <{ ptr @alloc_9094843fd12e5314d41343064828dc3d, [16 x i8] c"\1E\00\00\00\00\00\00\009\01\00\00\05\00\00\00" }>, align 8
@alloc_29fec711f972ede4ae4a1a9ccfe4a3ca = private unnamed_addr constant <{ [37 x i8] }> <{ [37 x i8] c"assertion failed: One::is_available()" }>, align 1
@alloc_05ec3f7ef639e91b17e713e4ed012049 = private unnamed_addr constant <{ [26 x i8] }> <{ [26 x i8] c"src/arch/aarch64/memchr.rs" }>, align 1
@alloc_6b3cb7ff67719714a3eaf2d3daf096eb = private unnamed_addr constant <{ ptr, [16 x i8] }> <{ ptr @alloc_05ec3f7ef639e91b17e713e4ed012049, [16 x i8] c"\1A\00\00\00\00\00\00\00.\00\00\00\05\00\00\00" }>, align 8
@alloc_74c2b37d48ade870d72eebdc92b9d3bd = private unnamed_addr constant <{ ptr, [16 x i8] }> <{ ptr @alloc_05ec3f7ef639e91b17e713e4ed012049, [16 x i8] c"\1A\00\00\00\00\00\00\00<\00\00\00\05\00\00\00" }>, align 8
@alloc_86ecadf2d6178e13e7c4300de6e2a3da = private unnamed_addr constant <{ [10 x i8] }> <{ [10 x i8] c"src/ext.rs" }>, align 1
@alloc_b4bf06620f53454bfa0c4d2af5f71008 = private unnamed_addr constant <{ ptr, [16 x i8] }> <{ ptr @alloc_86ecadf2d6178e13e7c4300de6e2a3da, [16 x i8] c"\0A\00\00\00\00\00\00\00\17\00\00\003\00\00\00" }>, align 8
@alloc_1e6e395afbe80a1c26544df7f8c1e058 = private unnamed_addr constant <{ [8 x i8] }> <{ [8 x i8] c"Searcher" }>, align 1
@alloc_2c7d0cbb448b8851a0597c03f52dd5e4 = private unnamed_addr constant <{ [4 x i8] }> <{ [4 x i8] c"call" }>, align 1
@alloc_38227f6eb5dec84a4e290baff99e932f = private unnamed_addr constant <{ [19 x i8] }> <{ [19 x i8] c"<searcher function>" }>, align 1
@alloc_af9dec4d25f53f50a3c381783205726a = private unnamed_addr constant <{ ptr, [8 x i8] }> <{ ptr @alloc_38227f6eb5dec84a4e290baff99e932f, [8 x i8] c"\13\00\00\00\00\00\00\00" }>, align 8
@vtable.6 = private constant <{ ptr, [16 x i8], ptr }> <{ ptr @"_ZN4core3ptr28drop_in_place$LT$$RF$str$GT$17h0209312f1ece60dfE", [16 x i8] c"\10\00\00\00\00\00\00\00\08\00\00\00\00\00\00\00", ptr @"_ZN42_$LT$$RF$T$u20$as$u20$core..fmt..Debug$GT$3fmt17h8caf4178a0bd7377E" }>, align 8, !dbg !14
@alloc_a5d866b1768ad3f826bccdb004a1a8ae = private unnamed_addr constant <{ [4 x i8] }> <{ [4 x i8] c"kind" }>, align 1
@alloc_8b9985d0eac6b058ac17b92337a1c77a = private unnamed_addr constant <{ [21 x i8] }> <{ [21 x i8] c"<searcher kind union>" }>, align 1
@alloc_41e344480c6489bde1a165a6e1efa1f6 = private unnamed_addr constant <{ ptr, [8 x i8] }> <{ ptr @alloc_8b9985d0eac6b058ac17b92337a1c77a, [8 x i8] c"\15\00\00\00\00\00\00\00" }>, align 8
@alloc_031f5dae0c558da3f5cf8343387c5022 = private unnamed_addr constant <{ [9 x i8] }> <{ [9 x i8] c"rabinkarp" }>, align 1
@vtable.7 = private constant <{ ptr, [16 x i8], ptr }> <{ ptr @"_ZN4core3ptr57drop_in_place$LT$memchr..arch..all..rabinkarp..Finder$GT$17ha84343a8696c9f78E", [16 x i8] c"\08\00\00\00\00\00\00\00\04\00\00\00\00\00\00\00", ptr @"_ZN73_$LT$memchr..arch..all..rabinkarp..Finder$u20$as$u20$core..fmt..Debug$GT$3fmt17hf34e0cd66676f9f2E" }>, align 8, !dbg !28
@alloc_cb24f47da9df00df17ed7f2bbe7efef6 = private unnamed_addr constant <{ [9 x i8] }> <{ [9 x i8] c"Prefilter" }>, align 1
@alloc_414bc5b2dbbaaba951a04e61d359a1c9 = private unnamed_addr constant <{ [20 x i8] }> <{ [20 x i8] c"<prefilter function>" }>, align 1
@alloc_7b03dbe3628e1b73c5eeba618877445d = private unnamed_addr constant <{ ptr, [8 x i8] }> <{ ptr @alloc_414bc5b2dbbaaba951a04e61d359a1c9, [8 x i8] c"\14\00\00\00\00\00\00\00" }>, align 8
@alloc_5c7553da0fb6a2ae62043e38c140dcac = private unnamed_addr constant <{ [22 x i8] }> <{ [22 x i8] c"<prefilter kind union>" }>, align 1
@alloc_33ee87ec547ce58013c7d516a829ddd3 = private unnamed_addr constant <{ ptr, [8 x i8] }> <{ ptr @alloc_5c7553da0fb6a2ae62043e38c140dcac, [8 x i8] c"\16\00\00\00\00\00\00\00" }>, align 8
@alloc_a28ebce1a916847972beffc6284c1b92 = private unnamed_addr constant <{ [11 x i8] }> <{ [11 x i8] c"rarest_byte" }>, align 1
@vtable.8 = private constant <{ ptr, [16 x i8], ptr }> <{ ptr @"_ZN4core3ptr23drop_in_place$LT$u8$GT$17h9957043e0cecaccdE", [16 x i8] c"\01\00\00\00\00\00\00\00\01\00\00\00\00\00\00\00", ptr @"_ZN4core3fmt3num49_$LT$impl$u20$core..fmt..Debug$u20$for$u20$u8$GT$3fmt17h8b69e80df24693a2E" }>, align 8, !dbg !48
@alloc_30fe4c0c8426076a5780edf4683c9503 = private unnamed_addr constant <{ [13 x i8] }> <{ [13 x i8] c"rarest_offset" }>, align 1
@alloc_f00a287070cab7f56c330353187a318b = private unnamed_addr constant <{ [22 x i8] }> <{ [22 x i8] c"src/memmem/searcher.rs" }>, align 1
@alloc_8e8d81efb500468abf751be5c211383d = private unnamed_addr constant <{ ptr, [16 x i8] }> <{ ptr @alloc_f00a287070cab7f56c330353187a318b, [16 x i8] c"\16\00\00\00\00\00\00\00\A5\03\00\00\1C\00\00\00" }>, align 8
@alloc_abac1e7d5b5e9886d4941f491e87206d = private unnamed_addr constant <{ [17 x i8] }> <{ [17 x i8] c"src/memmem/mod.rs" }>, align 1
@alloc_e113396b5e3a97241c1c5d7a7a399ad9 = private unnamed_addr constant <{ ptr, [16 x i8] }> <{ ptr @alloc_abac1e7d5b5e9886d4941f491e87206d, [16 x i8] c"\11\00\00\00\00\00\00\00\1A\01\00\00\13\00\00\00" }>, align 8
@alloc_9130748f7a36ec65eed32efd38075c86 = private unnamed_addr constant <{ ptr, [16 x i8] }> <{ ptr @alloc_abac1e7d5b5e9886d4941f491e87206d, [16 x i8] c"\11\00\00\00\00\00\00\00\1B\01\00\00\14\00\00\00" }>, align 8
@alloc_d81cb19ba5b74f8db9ac56e2f84f506a = private unnamed_addr constant <{ ptr, [16 x i8] }> <{ ptr @alloc_abac1e7d5b5e9886d4941f491e87206d, [16 x i8] c"\11\00\00\00\00\00\00\00-\01\00\00(\00\00\00" }>, align 8
@alloc_0b72f1913661ee42e587fc7ef05e323b = private unnamed_addr constant <{ ptr, [16 x i8] }> <{ ptr @alloc_abac1e7d5b5e9886d4941f491e87206d, [16 x i8] c"\11\00\00\00\00\00\00\00f\01\00\006\00\00\00" }>, align 8
@alloc_7d9e86c684923d5ea2315175f6ae9622 = private unnamed_addr constant <{ [24 x i8] }> <{ [24 x i8] c"assertion failed: n < 16" }>, align 1
@alloc_a0556e20abe4bab58667d844197c203f = private unnamed_addr constant <{ [13 x i8] }> <{ [13 x i8] c"src/vector.rs" }>, align 1
@alloc_498d03ee8f39d1db78cc4f6ccd750e19 = private unnamed_addr constant <{ ptr, [16 x i8] }> <{ ptr @alloc_a0556e20abe4bab58667d844197c203f, [16 x i8] c"\0D\00\00\00\00\00\00\00\92\01\00\00\0D\00\00\00" }>, align 8
@alloc_1bc6fbe2afe135fc5d0a4cbfde8b096e = private unnamed_addr constant <{ ptr, [16 x i8] }> <{ ptr @alloc_a0556e20abe4bab58667d844197c203f, [16 x i8] c"\0D\00\00\00\00\00\00\00\93\01\00\00\1D\00\00\00" }>, align 8
@alloc_388b28c96d732e9164bbc21c06941da2 = private unnamed_addr constant <{ ptr, [16 x i8] }> <{ ptr @alloc_a0556e20abe4bab58667d844197c203f, [16 x i8] c"\0D\00\00\00\00\00\00\00\93\01\00\00\1B\00\00\00" }>, align 8
@alloc_e16e753ad86f01831deecc26b13c5e29 = private unnamed_addr constant <{ ptr, [16 x i8] }> <{ ptr @alloc_a0556e20abe4bab58667d844197c203f, [16 x i8] c"\0D\00\00\00\00\00\00\00\AC\01\00\00#\00\00\00" }>, align 8
@alloc_6176775c2c32ebde707644d093cd68cc = private unnamed_addr constant <{ ptr, [16 x i8] }> <{ ptr @alloc_a0556e20abe4bab58667d844197c203f, [16 x i8] c"\0D\00\00\00\00\00\00\00\CE\01\00\00\0D\00\00\00" }>, align 8
@alloc_5f2e93710195efd386fdccc9eb0e6708 = private unnamed_addr constant <{ [6 x i8] }> <{ [6 x i8] c"Finder" }>, align 1
@alloc_eedb37f55fc0c5b4506ddcc7c0df9d7b = private unnamed_addr constant <{ [4 x i8] }> <{ [4 x i8] c"hash" }>, align 1
@vtable.9 = private constant <{ ptr, [16 x i8], ptr }> <{ ptr @"_ZN4core3ptr55drop_in_place$LT$memchr..arch..all..rabinkarp..Hash$GT$17ha7940607d0571244E", [16 x i8] c"\04\00\00\00\00\00\00\00\04\00\00\00\00\00\00\00", ptr @"_ZN71_$LT$memchr..arch..all..rabinkarp..Hash$u20$as$u20$core..fmt..Debug$GT$3fmt17h3433db67b9d82834E" }>, align 8, !dbg !56
@alloc_4fcab055ecf5ff2e4984e33ddd088f96 = private unnamed_addr constant <{ [9 x i8] }> <{ [9 x i8] c"hash_2pow" }>, align 1
@vtable.a = private constant <{ ptr, [16 x i8], ptr }> <{ ptr @"_ZN4core3ptr28drop_in_place$LT$$RF$u32$GT$17hf7e18d228c628f86E", [16 x i8] c"\08\00\00\00\00\00\00\00\08\00\00\00\00\00\00\00", ptr @"_ZN42_$LT$$RF$T$u20$as$u20$core..fmt..Debug$GT$3fmt17h0c9218795c07289eE" }>, align 8, !dbg !64
@alloc_e3275806614af7f67279108bf596bd4f = private unnamed_addr constant <{ [4 x i8] }> <{ [4 x i8] c"Hash" }>, align 1

; <core::ops::range::Range<usize> as core::slice::index::SliceIndex<[T]>>::get_unchecked
; Function Attrs: inlinehint uwtable
define { ptr, i64 } @"_ZN106_$LT$core..ops..range..Range$LT$usize$GT$$u20$as$u20$core..slice..index..SliceIndex$LT$$u5b$T$u5d$$GT$$GT$13get_unchecked17hff08ad1e861405deE"(i64 %self.0, i64 %self.1, ptr %slice.0, i64 %slice.1) unnamed_addr #0 !dbg !119 {
start:
  %data_pointer.dbg.spill = alloca ptr, align 8
  %data.dbg.spill = alloca ptr, align 8
  %self.dbg.spill1 = alloca ptr, align 8
  %new_len.dbg.spill = alloca i64, align 8
  %count.dbg.spill = alloca i64, align 8
  %slice.dbg.spill = alloca { ptr, i64 }, align 8
  %self.dbg.spill = alloca %"core::ops::range::Range<usize>", align 8
  %_18 = alloca %"core::ptr::metadata::PtrComponents<[u8]>", align 8
  %_17 = alloca %"core::ptr::metadata::PtrRepr<[u8]>", align 8
  %_15 = alloca %"core::ptr::metadata::PtrRepr<[u8]>", align 8
  store i64 %self.0, ptr %self.dbg.spill, align 8
  %0 = getelementptr inbounds i8, ptr %self.dbg.spill, i64 8
  store i64 %self.1, ptr %0, align 8
  call void @llvm.dbg.declare(metadata ptr %self.dbg.spill, metadata !139, metadata !DIExpression()), !dbg !145
  store ptr %slice.0, ptr %slice.dbg.spill, align 8
  %1 = getelementptr inbounds i8, ptr %slice.dbg.spill, i64 8
  store i64 %slice.1, ptr %1, align 8
  call void @llvm.dbg.declare(metadata ptr %slice.dbg.spill, metadata !140, metadata !DIExpression()), !dbg !146
  call void @llvm.dbg.declare(metadata ptr %slice.dbg.spill, metadata !147, metadata !DIExpression()), !dbg !157
  call void @llvm.dbg.declare(metadata ptr %slice.dbg.spill, metadata !159, metadata !DIExpression()), !dbg !165
  call void @llvm.dbg.declare(metadata ptr %slice.dbg.spill, metadata !167, metadata !DIExpression()), !dbg !174
  br label %bb1, !dbg !176

bb1:                                              ; preds = %start
  %_4 = icmp uge i64 %self.1, %self.0, !dbg !177
  br i1 %_4, label %bb2, label %bb5, !dbg !177

bb5:                                              ; preds = %bb1
  br label %bb6, !dbg !178

bb2:                                              ; preds = %bb1
  store ptr %slice.0, ptr %_15, align 8, !dbg !181
  %2 = getelementptr inbounds i8, ptr %_15, i64 8, !dbg !181
  store i64 %slice.1, ptr %2, align 8, !dbg !181
  %3 = getelementptr inbounds i8, ptr %_15, i64 8, !dbg !181
  %_8 = load i64, ptr %3, align 8, !dbg !181, !noundef !13
  %_7 = icmp ule i64 %self.1, %_8, !dbg !182
  br i1 %_7, label %bb3, label %bb4, !dbg !182

bb6:                                              ; preds = %bb4, %bb5
; call core::panicking::panic_nounwind
  call void @_ZN4core9panicking14panic_nounwind17h50c31e15afde233eE(ptr align 1 @alloc_0dc6db72fcead760fba2799443fc0f82, i64 64) #11, !dbg !176
  unreachable, !dbg !176

bb4:                                              ; preds = %bb2
  br label %bb6, !dbg !178

bb3:                                              ; preds = %bb2
  br label %bb7, !dbg !176

bb7:                                              ; preds = %bb3
  store i64 %self.0, ptr %count.dbg.spill, align 8, !dbg !183
  call void @llvm.dbg.declare(metadata ptr %count.dbg.spill, metadata !184, metadata !DIExpression()), !dbg !192
  %new_len = sub nuw i64 %self.1, %self.0, !dbg !194
  store i64 %new_len, ptr %new_len.dbg.spill, align 8, !dbg !194
  call void @llvm.dbg.declare(metadata ptr %new_len.dbg.spill, metadata !141, metadata !DIExpression()), !dbg !195
  call void @llvm.dbg.declare(metadata ptr %new_len.dbg.spill, metadata !196, metadata !DIExpression()), !dbg !204
  call void @llvm.dbg.declare(metadata ptr %new_len.dbg.spill, metadata !206, metadata !DIExpression()), !dbg !213
  store ptr %slice.0, ptr %self.dbg.spill1, align 8, !dbg !215
  call void @llvm.dbg.declare(metadata ptr %self.dbg.spill1, metadata !191, metadata !DIExpression()), !dbg !216
  %data = getelementptr inbounds i8, ptr %slice.0, i64 %self.0, !dbg !217
  store ptr %data, ptr %data.dbg.spill, align 8, !dbg !217
  call void @llvm.dbg.declare(metadata ptr %data.dbg.spill, metadata !203, metadata !DIExpression()), !dbg !218
  call void @llvm.dbg.declare(metadata ptr %data.dbg.spill, metadata !219, metadata !DIExpression()), !dbg !227
  store ptr %data, ptr %data_pointer.dbg.spill, align 8, !dbg !229
  call void @llvm.dbg.declare(metadata ptr %data_pointer.dbg.spill, metadata !212, metadata !DIExpression()), !dbg !230
  store ptr %data, ptr %_18, align 8, !dbg !231
  %4 = getelementptr inbounds i8, ptr %_18, i64 8, !dbg !231
  store i64 %new_len, ptr %4, align 8, !dbg !231
  %5 = load ptr, ptr %_18, align 8, !dbg !232, !noundef !13
  %6 = getelementptr inbounds i8, ptr %_18, i64 8, !dbg !232
  %7 = load i64, ptr %6, align 8, !dbg !232, !noundef !13
  store ptr %5, ptr %_17, align 8, !dbg !232
  %8 = getelementptr inbounds i8, ptr %_17, i64 8, !dbg !232
  store i64 %7, ptr %8, align 8, !dbg !232
  %_0.0 = load ptr, ptr %_17, align 8, !dbg !232, !noundef !13
  %9 = getelementptr inbounds i8, ptr %_17, i64 8, !dbg !232
  %_0.1 = load i64, ptr %9, align 8, !dbg !232, !noundef !13
  %10 = insertvalue { ptr, i64 } poison, ptr %_0.0, 0, !dbg !233
  %11 = insertvalue { ptr, i64 } %10, i64 %_0.1, 1, !dbg !233
  ret { ptr, i64 } %11, !dbg !233
}

; <core::ops::range::Range<usize> as core::slice::index::SliceIndex<[T]>>::get
; Function Attrs: inlinehint uwtable
define { ptr, i64 } @"_ZN106_$LT$core..ops..range..Range$LT$usize$GT$$u20$as$u20$core..slice..index..SliceIndex$LT$$u5b$T$u5d$$GT$$GT$3get17h25bb826ab9dd36d4E"(i64 %self.0, i64 %self.1, ptr align 1 %slice.0, i64 %slice.1) unnamed_addr #0 !dbg !234 {
start:
  %slice.dbg.spill = alloca { ptr, i64 }, align 8
  %self.dbg.spill = alloca %"core::ops::range::Range<usize>", align 8
  %_0 = alloca %"core::option::Option<&[u8]>", align 8
  store i64 %self.0, ptr %self.dbg.spill, align 8
  %0 = getelementptr inbounds i8, ptr %self.dbg.spill, i64 8
  store i64 %self.1, ptr %0, align 8
  call void @llvm.dbg.declare(metadata ptr %self.dbg.spill, metadata !257, metadata !DIExpression()), !dbg !259
  store ptr %slice.0, ptr %slice.dbg.spill, align 8
  %1 = getelementptr inbounds i8, ptr %slice.dbg.spill, i64 8
  store i64 %slice.1, ptr %1, align 8
  call void @llvm.dbg.declare(metadata ptr %slice.dbg.spill, metadata !258, metadata !DIExpression()), !dbg !260
  %_3 = icmp ugt i64 %self.0, %self.1, !dbg !261
  br i1 %_3, label %bb1, label %bb2, !dbg !261

bb2:                                              ; preds = %start
  %_6 = icmp ugt i64 %self.1, %slice.1, !dbg !262
  br i1 %_6, label %bb3, label %bb5, !dbg !262

bb1:                                              ; preds = %start
  br label %bb4, !dbg !263

bb5:                                              ; preds = %bb2
; call <core::ops::range::Range<usize> as core::slice::index::SliceIndex<[T]>>::get_unchecked
  %2 = call { ptr, i64 } @"_ZN106_$LT$core..ops..range..Range$LT$usize$GT$$u20$as$u20$core..slice..index..SliceIndex$LT$$u5b$T$u5d$$GT$$GT$13get_unchecked17hff08ad1e861405deE"(i64 %self.0, i64 %self.1, ptr %slice.0, i64 %slice.1), !dbg !264
  %_9.0 = extractvalue { ptr, i64 } %2, 0, !dbg !264
  %_9.1 = extractvalue { ptr, i64 } %2, 1, !dbg !264
  store ptr %_9.0, ptr %_0, align 8, !dbg !265
  %3 = getelementptr inbounds i8, ptr %_0, i64 8, !dbg !265
  store i64 %_9.1, ptr %3, align 8, !dbg !265
  br label %bb7, !dbg !266

bb3:                                              ; preds = %bb2
  br label %bb4, !dbg !263

bb7:                                              ; preds = %bb4, %bb5
  %4 = load ptr, ptr %_0, align 8, !dbg !267, !align !268, !noundef !13
  %5 = getelementptr inbounds i8, ptr %_0, i64 8, !dbg !267
  %6 = load i64, ptr %5, align 8, !dbg !267
  %7 = insertvalue { ptr, i64 } poison, ptr %4, 0, !dbg !267
  %8 = insertvalue { ptr, i64 } %7, i64 %6, 1, !dbg !267
  ret { ptr, i64 } %8, !dbg !267

bb4:                                              ; preds = %bb1, %bb3
  %9 = load ptr, ptr @0, align 8, !dbg !269, !align !268, !noundef !13
  %10 = load i64, ptr getelementptr inbounds (i8, ptr @0, i64 8), align 8, !dbg !269
  store ptr %9, ptr %_0, align 8, !dbg !269
  %11 = getelementptr inbounds i8, ptr %_0, i64 8, !dbg !269
  store i64 %10, ptr %11, align 8, !dbg !269
  br label %bb7, !dbg !266
}

; <core::ops::range::RangeFrom<usize> as core::slice::index::SliceIndex<[T]>>::get
; Function Attrs: inlinehint uwtable
define { ptr, i64 } @"_ZN110_$LT$core..ops..range..RangeFrom$LT$usize$GT$$u20$as$u20$core..slice..index..SliceIndex$LT$$u5b$T$u5d$$GT$$GT$3get17hf3f0402e8acbe929E"(i64 %self, ptr align 1 %slice.0, i64 %slice.1) unnamed_addr #0 !dbg !270 {
start:
  %slice.dbg.spill = alloca { ptr, i64 }, align 8
  %self.dbg.spill = alloca i64, align 8
  %_3 = alloca %"core::ops::range::Range<usize>", align 8
  store i64 %self, ptr %self.dbg.spill, align 8
  call void @llvm.dbg.declare(metadata ptr %self.dbg.spill, metadata !278, metadata !DIExpression()), !dbg !280
  store ptr %slice.0, ptr %slice.dbg.spill, align 8
  %0 = getelementptr inbounds i8, ptr %slice.dbg.spill, i64 8
  store i64 %slice.1, ptr %0, align 8
  call void @llvm.dbg.declare(metadata ptr %slice.dbg.spill, metadata !279, metadata !DIExpression()), !dbg !281
  store i64 %self, ptr %_3, align 8, !dbg !282
  %1 = getelementptr inbounds i8, ptr %_3, i64 8, !dbg !282
  store i64 %slice.1, ptr %1, align 8, !dbg !282
  %2 = load i64, ptr %_3, align 8, !dbg !282, !noundef !13
  %3 = getelementptr inbounds i8, ptr %_3, i64 8, !dbg !282
  %4 = load i64, ptr %3, align 8, !dbg !282, !noundef !13
; call <core::ops::range::Range<usize> as core::slice::index::SliceIndex<[T]>>::get
  %5 = call { ptr, i64 } @"_ZN106_$LT$core..ops..range..Range$LT$usize$GT$$u20$as$u20$core..slice..index..SliceIndex$LT$$u5b$T$u5d$$GT$$GT$3get17h25bb826ab9dd36d4E"(i64 %2, i64 %4, ptr align 1 %slice.0, i64 %slice.1), !dbg !282
  %_0.0 = extractvalue { ptr, i64 } %5, 0, !dbg !282
  %_0.1 = extractvalue { ptr, i64 } %5, 1, !dbg !282
  %6 = insertvalue { ptr, i64 } poison, ptr %_0.0, 0, !dbg !283
  %7 = insertvalue { ptr, i64 } %6, i64 %_0.1, 1, !dbg !283
  ret { ptr, i64 } %7, !dbg !283
}

; <core::ops::range::RangeFrom<usize> as core::slice::index::SliceIndex<[T]>>::index
; Function Attrs: inlinehint uwtable
define { ptr, i64 } @"_ZN110_$LT$core..ops..range..RangeFrom$LT$usize$GT$$u20$as$u20$core..slice..index..SliceIndex$LT$$u5b$T$u5d$$GT$$GT$5index17h12738f787065c205E"(i64 %self, ptr align 1 %slice.0, i64 %slice.1, ptr align 8 %0) unnamed_addr #0 !dbg !284 {
start:
  %self.dbg.spill1 = alloca i64, align 8
  %slice.dbg.spill = alloca { ptr, i64 }, align 8
  %self.dbg.spill = alloca i64, align 8
  %_12 = alloca %"core::ptr::metadata::PtrRepr<[u8]>", align 8
  %_10 = alloca %"core::ops::range::Range<usize>", align 8
  store i64 %self, ptr %self.dbg.spill, align 8
  call void @llvm.dbg.declare(metadata ptr %self.dbg.spill, metadata !296, metadata !DIExpression()), !dbg !298
  store ptr %slice.0, ptr %slice.dbg.spill, align 8
  %1 = getelementptr inbounds i8, ptr %slice.dbg.spill, i64 8
  store i64 %slice.1, ptr %1, align 8
  call void @llvm.dbg.declare(metadata ptr %slice.dbg.spill, metadata !297, metadata !DIExpression()), !dbg !299
  call void @llvm.dbg.declare(metadata ptr %slice.dbg.spill, metadata !300, metadata !DIExpression()), !dbg !307
  call void @llvm.dbg.declare(metadata ptr %slice.dbg.spill, metadata !309, metadata !DIExpression()), !dbg !313
  call void @llvm.dbg.declare(metadata ptr %slice.dbg.spill, metadata !315, metadata !DIExpression()), !dbg !319
  store i64 %self, ptr %self.dbg.spill1, align 8, !dbg !321
  call void @llvm.dbg.declare(metadata ptr %self.dbg.spill1, metadata !306, metadata !DIExpression()), !dbg !322
  %_3 = icmp ugt i64 %self, %slice.1, !dbg !321
  br i1 %_3, label %bb1, label %bb2, !dbg !321

bb2:                                              ; preds = %start
  store ptr %slice.0, ptr %_12, align 8, !dbg !323
  %2 = getelementptr inbounds i8, ptr %_12, i64 8, !dbg !323
  store i64 %slice.1, ptr %2, align 8, !dbg !323
  %3 = getelementptr inbounds i8, ptr %_12, i64 8, !dbg !323
  %_11 = load i64, ptr %3, align 8, !dbg !323, !noundef !13
  store i64 %self, ptr %_10, align 8, !dbg !324
  %4 = getelementptr inbounds i8, ptr %_10, i64 8, !dbg !324
  store i64 %_11, ptr %4, align 8, !dbg !324
  %5 = load i64, ptr %_10, align 8, !dbg !324, !noundef !13
  %6 = getelementptr inbounds i8, ptr %_10, i64 8, !dbg !324
  %7 = load i64, ptr %6, align 8, !dbg !324, !noundef !13
; call <core::ops::range::Range<usize> as core::slice::index::SliceIndex<[T]>>::get_unchecked
  %8 = call { ptr, i64 } @"_ZN106_$LT$core..ops..range..Range$LT$usize$GT$$u20$as$u20$core..slice..index..SliceIndex$LT$$u5b$T$u5d$$GT$$GT$13get_unchecked17hff08ad1e861405deE"(i64 %5, i64 %7, ptr %slice.0, i64 %slice.1), !dbg !324
  %_8.0 = extractvalue { ptr, i64 } %8, 0, !dbg !324
  %_8.1 = extractvalue { ptr, i64 } %8, 1, !dbg !324
  %9 = insertvalue { ptr, i64 } poison, ptr %_8.0, 0, !dbg !325
  %10 = insertvalue { ptr, i64 } %9, i64 %_8.1, 1, !dbg !325
  ret { ptr, i64 } %10, !dbg !325

bb1:                                              ; preds = %start
; call core::slice::index::slice_start_index_len_fail
  call void @_ZN4core5slice5index26slice_start_index_len_fail17hdf66d65d95069d8dE(i64 %self, i64 %slice.1, ptr align 8 %0) #12, !dbg !326
  unreachable, !dbg !326
}

; <&T as core::fmt::Debug>::fmt
; Function Attrs: uwtable
define zeroext i1 @"_ZN42_$LT$$RF$T$u20$as$u20$core..fmt..Debug$GT$3fmt17h0c9218795c07289eE"(ptr align 8 %self, ptr align 8 %f) unnamed_addr #1 !dbg !327 {
start:
  %f.dbg.spill = alloca ptr, align 8
  %self.dbg.spill = alloca ptr, align 8
  store ptr %self, ptr %self.dbg.spill, align 8
  call void @llvm.dbg.declare(metadata ptr %self.dbg.spill, metadata !385, metadata !DIExpression()), !dbg !389
  store ptr %f, ptr %f.dbg.spill, align 8
  call void @llvm.dbg.declare(metadata ptr %f.dbg.spill, metadata !386, metadata !DIExpression()), !dbg !390
  %_3 = load ptr, ptr %self, align 8, !dbg !391, !nonnull !13, !align !392, !noundef !13
; call core::fmt::num::<impl core::fmt::Debug for u32>::fmt
  %_0 = call zeroext i1 @"_ZN4core3fmt3num50_$LT$impl$u20$core..fmt..Debug$u20$for$u20$u32$GT$3fmt17h82e719ac08b9cf9cE"(ptr align 4 %_3, ptr align 8 %f), !dbg !393
  ret i1 %_0, !dbg !394
}

; <&T as core::fmt::Debug>::fmt
; Function Attrs: uwtable
define zeroext i1 @"_ZN42_$LT$$RF$T$u20$as$u20$core..fmt..Debug$GT$3fmt17h1df4a28bab986b8eE"(ptr align 8 %self, ptr align 8 %f) unnamed_addr #1 !dbg !395 {
start:
  %f.dbg.spill = alloca ptr, align 8
  %self.dbg.spill = alloca ptr, align 8
  store ptr %self, ptr %self.dbg.spill, align 8
  call void @llvm.dbg.declare(metadata ptr %self.dbg.spill, metadata !400, metadata !DIExpression()), !dbg !402
  store ptr %f, ptr %f.dbg.spill, align 8
  call void @llvm.dbg.declare(metadata ptr %f.dbg.spill, metadata !401, metadata !DIExpression()), !dbg !403
  %_3 = load ptr, ptr %self, align 8, !dbg !404, !nonnull !13, !align !405, !noundef !13
; call core::fmt::num::<impl core::fmt::Debug for usize>::fmt
  %_0 = call zeroext i1 @"_ZN4core3fmt3num52_$LT$impl$u20$core..fmt..Debug$u20$for$u20$usize$GT$3fmt17hfe0f2d73406d81b6E"(ptr align 8 %_3, ptr align 8 %f), !dbg !406
  ret i1 %_0, !dbg !407
}

; <&T as core::fmt::Debug>::fmt
; Function Attrs: uwtable
define zeroext i1 @"_ZN42_$LT$$RF$T$u20$as$u20$core..fmt..Debug$GT$3fmt17h8caf4178a0bd7377E"(ptr align 8 %self, ptr align 8 %f) unnamed_addr #1 !dbg !408 {
start:
  %f.dbg.spill = alloca ptr, align 8
  %self.dbg.spill = alloca ptr, align 8
  store ptr %self, ptr %self.dbg.spill, align 8
  call void @llvm.dbg.declare(metadata ptr %self.dbg.spill, metadata !413, metadata !DIExpression()), !dbg !415
  store ptr %f, ptr %f.dbg.spill, align 8
  call void @llvm.dbg.declare(metadata ptr %f.dbg.spill, metadata !414, metadata !DIExpression()), !dbg !416
  %_3.0 = load ptr, ptr %self, align 8, !dbg !417, !nonnull !13, !align !268, !noundef !13
  %0 = getelementptr inbounds i8, ptr %self, i64 8, !dbg !417
  %_3.1 = load i64, ptr %0, align 8, !dbg !417, !noundef !13
; call <str as core::fmt::Debug>::fmt
  %_0 = call zeroext i1 @"_ZN40_$LT$str$u20$as$u20$core..fmt..Debug$GT$3fmt17h346a3efe49000f0dE"(ptr align 1 %_3.0, i64 %_3.1, ptr align 8 %f), !dbg !418
  ret i1 %_0, !dbg !419
}

; <usize as core::iter::range::Step>::backward_unchecked
; Function Attrs: inlinehint uwtable
define internal i64 @"_ZN49_$LT$usize$u20$as$u20$core..iter..range..Step$GT$18backward_unchecked17h7884a0754fdd9440E"(i64 %start1, i64 %n) unnamed_addr #0 !dbg !420 {
start:
  %n.dbg.spill = alloca i64, align 8
  %start.dbg.spill = alloca i64, align 8
  store i64 %start1, ptr %start.dbg.spill, align 8
  call void @llvm.dbg.declare(metadata ptr %start.dbg.spill, metadata !428, metadata !DIExpression()), !dbg !430
  call void @llvm.dbg.declare(metadata ptr %start.dbg.spill, metadata !431, metadata !DIExpression()), !dbg !441
  store i64 %n, ptr %n.dbg.spill, align 8
  call void @llvm.dbg.declare(metadata ptr %n.dbg.spill, metadata !429, metadata !DIExpression()), !dbg !443
  call void @llvm.dbg.declare(metadata ptr %n.dbg.spill, metadata !440, metadata !DIExpression()), !dbg !441
  %_0 = sub nuw i64 %start1, %n, !dbg !441
  ret i64 %_0, !dbg !444
}

; core::intrinsics::is_nonoverlapping
; Function Attrs: inlinehint uwtable
define internal zeroext i1 @_ZN4core10intrinsics17is_nonoverlapping17h5e03c3ca12d3a041E(ptr %src, ptr %dst, i64 %size, i64 %count) unnamed_addr #0 !dbg !445 {
start:
  %size.dbg.spill3 = alloca i64, align 8
  %0 = alloca i8, align 1
  %a.dbg.spill1 = alloca i64, align 8
  %b.dbg.spill = alloca i8, align 1
  %a.dbg.spill = alloca i64, align 8
  %dst_usize.dbg.spill = alloca i64, align 8
  %src_usize.dbg.spill = alloca i64, align 8
  %count.dbg.spill = alloca i64, align 8
  %size.dbg.spill = alloca i64, align 8
  %dst.dbg.spill = alloca ptr, align 8
  %src.dbg.spill = alloca ptr, align 8
  %diff = alloca i64, align 8
  %_9 = alloca %"core::option::Option<usize>", align 8
  store ptr %src, ptr %src.dbg.spill, align 8
  call void @llvm.dbg.declare(metadata ptr %src.dbg.spill, metadata !452, metadata !DIExpression()), !dbg !464
  call void @llvm.dbg.declare(metadata ptr %src.dbg.spill, metadata !465, metadata !DIExpression()), !dbg !474
  call void @llvm.dbg.declare(metadata ptr %src.dbg.spill, metadata !476, metadata !DIExpression()), !dbg !485
  store ptr %dst, ptr %dst.dbg.spill, align 8
  call void @llvm.dbg.declare(metadata ptr %dst.dbg.spill, metadata !453, metadata !DIExpression()), !dbg !487
  call void @llvm.dbg.declare(metadata ptr %dst.dbg.spill, metadata !471, metadata !DIExpression()), !dbg !488
  call void @llvm.dbg.declare(metadata ptr %dst.dbg.spill, metadata !482, metadata !DIExpression()), !dbg !490
  store i64 %size, ptr %size.dbg.spill, align 8
  call void @llvm.dbg.declare(metadata ptr %size.dbg.spill, metadata !454, metadata !DIExpression()), !dbg !492
  call void @llvm.dbg.declare(metadata ptr %size.dbg.spill, metadata !493, metadata !DIExpression()), !dbg !505
  call void @llvm.dbg.declare(metadata ptr %size.dbg.spill, metadata !507, metadata !DIExpression()), !dbg !523
  store i64 %count, ptr %count.dbg.spill, align 8
  call void @llvm.dbg.declare(metadata ptr %count.dbg.spill, metadata !455, metadata !DIExpression()), !dbg !525
  call void @llvm.dbg.declare(metadata ptr %count.dbg.spill, metadata !500, metadata !DIExpression()), !dbg !505
  call void @llvm.dbg.declare(metadata ptr %count.dbg.spill, metadata !518, metadata !DIExpression()), !dbg !523
  call void @llvm.dbg.declare(metadata ptr %diff, metadata !462, metadata !DIExpression()), !dbg !526
  %src_usize = ptrtoint ptr %src to i64, !dbg !527
  store i64 %src_usize, ptr %src_usize.dbg.spill, align 8, !dbg !527
  call void @llvm.dbg.declare(metadata ptr %src_usize.dbg.spill, metadata !456, metadata !DIExpression()), !dbg !528
  call void @llvm.dbg.declare(metadata ptr %src_usize.dbg.spill, metadata !529, metadata !DIExpression()), !dbg !535
  %dst_usize = ptrtoint ptr %dst to i64, !dbg !537
  store i64 %dst_usize, ptr %dst_usize.dbg.spill, align 8, !dbg !537
  call void @llvm.dbg.declare(metadata ptr %dst_usize.dbg.spill, metadata !458, metadata !DIExpression()), !dbg !538
  call void @llvm.dbg.declare(metadata ptr %dst_usize.dbg.spill, metadata !534, metadata !DIExpression()), !dbg !535
  %1 = call { i64, i1 } @llvm.umul.with.overflow.i64(i64 %size, i64 %count), !dbg !523
  %_15.0 = extractvalue { i64, i1 } %1, 0, !dbg !523
  %_15.1 = extractvalue { i64, i1 } %1, 1, !dbg !523
  store i64 %_15.0, ptr %a.dbg.spill, align 8, !dbg !523
  call void @llvm.dbg.declare(metadata ptr %a.dbg.spill, metadata !519, metadata !DIExpression()), !dbg !539
  %2 = zext i1 %_15.1 to i8, !dbg !523
  store i8 %2, ptr %b.dbg.spill, align 1, !dbg !523
  call void @llvm.dbg.declare(metadata ptr %b.dbg.spill, metadata !504, metadata !DIExpression()), !dbg !540
  call void @llvm.dbg.declare(metadata ptr %b.dbg.spill, metadata !522, metadata !DIExpression()), !dbg !539
  store i64 %_15.0, ptr %a.dbg.spill1, align 8, !dbg !539
  call void @llvm.dbg.declare(metadata ptr %a.dbg.spill1, metadata !501, metadata !DIExpression()), !dbg !540
  %3 = call i1 @llvm.expect.i1(i1 %_15.1, i1 false), !dbg !540
  %4 = zext i1 %3 to i8, !dbg !540
  store i8 %4, ptr %0, align 1, !dbg !540
  %5 = load i8, ptr %0, align 1, !dbg !540, !range !541, !noundef !13
  %_12 = trunc i8 %5 to i1, !dbg !540
  br i1 %_12, label %bb2, label %bb3, !dbg !540

bb3:                                              ; preds = %start
  %6 = getelementptr inbounds i8, ptr %_9, i64 8, !dbg !540
  store i64 %_15.0, ptr %6, align 8, !dbg !540
  store i64 1, ptr %_9, align 8, !dbg !540
  %7 = getelementptr inbounds i8, ptr %_9, i64 8, !dbg !542
  %size2 = load i64, ptr %7, align 8, !dbg !542, !noundef !13
  store i64 %size2, ptr %size.dbg.spill3, align 8, !dbg !542
  call void @llvm.dbg.declare(metadata ptr %size.dbg.spill3, metadata !460, metadata !DIExpression()), !dbg !543
  %_22 = icmp ult i64 %src_usize, %dst_usize, !dbg !535
  br i1 %_22, label %bb4, label %bb5, !dbg !535

bb2:                                              ; preds = %start
; call core::panicking::panic_nounwind
  call void @_ZN4core9panicking14panic_nounwind17h50c31e15afde233eE(ptr align 1 @alloc_763310d78c99c2c1ad3f8a9821e942f3, i64 61) #11, !dbg !544
  unreachable, !dbg !544

bb5:                                              ; preds = %bb3
  %8 = sub i64 %src_usize, %dst_usize, !dbg !535
  store i64 %8, ptr %diff, align 8, !dbg !535
  br label %bb6, !dbg !535

bb4:                                              ; preds = %bb3
  %9 = sub i64 %dst_usize, %src_usize, !dbg !535
  store i64 %9, ptr %diff, align 8, !dbg !535
  br label %bb6, !dbg !535

bb6:                                              ; preds = %bb4, %bb5
  %_11 = load i64, ptr %diff, align 8, !dbg !545, !noundef !13
  %_0 = icmp uge i64 %_11, %size2, !dbg !545
  ret i1 %_0, !dbg !546
}

; core::intrinsics::copy_nonoverlapping::precondition_check
; Function Attrs: inlinehint nounwind uwtable
define internal void @_ZN4core10intrinsics19copy_nonoverlapping18precondition_check17hb7962d37966a16a1E(ptr %src, ptr %dst, i64 %size, i64 %align, i64 %count) unnamed_addr #2 personality ptr @rust_eh_personality !dbg !547 {
start:
  %count.dbg.spill = alloca i64, align 8
  %align.dbg.spill = alloca i64, align 8
  %size.dbg.spill = alloca i64, align 8
  %dst.dbg.spill = alloca ptr, align 8
  %src.dbg.spill = alloca ptr, align 8
  store ptr %src, ptr %src.dbg.spill, align 8
  call void @llvm.dbg.declare(metadata ptr %src.dbg.spill, metadata !553, metadata !DIExpression()), !dbg !558
  store ptr %dst, ptr %dst.dbg.spill, align 8
  call void @llvm.dbg.declare(metadata ptr %dst.dbg.spill, metadata !554, metadata !DIExpression()), !dbg !558
  store i64 %size, ptr %size.dbg.spill, align 8
  call void @llvm.dbg.declare(metadata ptr %size.dbg.spill, metadata !555, metadata !DIExpression()), !dbg !558
  store i64 %align, ptr %align.dbg.spill, align 8
  call void @llvm.dbg.declare(metadata ptr %align.dbg.spill, metadata !556, metadata !DIExpression()), !dbg !558
  store i64 %count, ptr %count.dbg.spill, align 8
  call void @llvm.dbg.declare(metadata ptr %count.dbg.spill, metadata !557, metadata !DIExpression()), !dbg !558
; invoke core::intrinsics::is_aligned_and_not_null
  %_6 = invoke zeroext i1 @_ZN4core10intrinsics23is_aligned_and_not_null17h0a7ece9093038c50E(ptr %src, i64 %align)
          to label %bb1 unwind label %terminate, !dbg !559

terminate:                                        ; preds = %bb4, %bb2, %start
  %0 = landingpad { ptr, i32 }
          filter [0 x ptr] zeroinitializer
  %1 = extractvalue { ptr, i32 } %0, 0
  %2 = extractvalue { ptr, i32 } %0, 1
; call core::panicking::panic_cannot_unwind
  call void @_ZN4core9panicking19panic_cannot_unwind17h3626040c0976c0c3E() #13, !dbg !560
  unreachable, !dbg !560

bb1:                                              ; preds = %start
  br i1 %_6, label %bb2, label %bb7, !dbg !559

bb7:                                              ; preds = %bb5, %bb3, %bb1
; call core::panicking::panic_nounwind
  call void @_ZN4core9panicking14panic_nounwind17h50c31e15afde233eE(ptr align 1 @alloc_8df0580a595a87d56789d20c7318e185, i64 166) #11, !dbg !561
  unreachable, !dbg !561

bb2:                                              ; preds = %bb1
; invoke core::intrinsics::is_aligned_and_not_null
  %_7 = invoke zeroext i1 @_ZN4core10intrinsics23is_aligned_and_not_null17h0a7ece9093038c50E(ptr %dst, i64 %align)
          to label %bb3 unwind label %terminate, !dbg !562

bb3:                                              ; preds = %bb2
  br i1 %_7, label %bb4, label %bb7, !dbg !562

bb4:                                              ; preds = %bb3
; invoke core::intrinsics::is_nonoverlapping
  %_9 = invoke zeroext i1 @_ZN4core10intrinsics17is_nonoverlapping17h5e03c3ca12d3a041E(ptr %src, ptr %dst, i64 %size, i64 %count)
          to label %bb5 unwind label %terminate, !dbg !563

bb5:                                              ; preds = %bb4
  br i1 %_9, label %bb6, label %bb7, !dbg !563

bb6:                                              ; preds = %bb5
  ret void, !dbg !564
}

; core::intrinsics::is_aligned_and_not_null
; Function Attrs: inlinehint uwtable
define internal zeroext i1 @_ZN4core10intrinsics23is_aligned_and_not_null17h0a7ece9093038c50E(ptr %ptr, i64 %align) unnamed_addr #0 !dbg !565 {
start:
  %pieces.dbg.spill = alloca { ptr, i64 }, align 8
  %0 = alloca i64, align 8
  %ptr.dbg.spill1 = alloca ptr, align 8
  %align.dbg.spill = alloca i64, align 8
  %ptr.dbg.spill = alloca ptr, align 8
  %_6 = alloca %"core::fmt::Arguments<'_>", align 8
  %_0 = alloca i8, align 1
  store ptr %ptr, ptr %ptr.dbg.spill, align 8
  call void @llvm.dbg.declare(metadata ptr %ptr.dbg.spill, metadata !569, metadata !DIExpression()), !dbg !571
  call void @llvm.dbg.declare(metadata ptr %ptr.dbg.spill, metadata !572, metadata !DIExpression()), !dbg !578
  call void @llvm.dbg.declare(metadata ptr %ptr.dbg.spill, metadata !580, metadata !DIExpression()), !dbg !585
  call void @llvm.dbg.declare(metadata ptr %ptr.dbg.spill, metadata !587, metadata !DIExpression()), !dbg !593
  call void @llvm.dbg.declare(metadata ptr %ptr.dbg.spill, metadata !595, metadata !DIExpression()), !dbg !601
  call void @llvm.dbg.declare(metadata ptr %ptr.dbg.spill, metadata !603, metadata !DIExpression()), !dbg !607
  call void @llvm.dbg.declare(metadata ptr %ptr.dbg.spill, metadata !591, metadata !DIExpression()), !dbg !609
  store i64 %align, ptr %align.dbg.spill, align 8
  call void @llvm.dbg.declare(metadata ptr %align.dbg.spill, metadata !570, metadata !DIExpression()), !dbg !611
  call void @llvm.dbg.declare(metadata ptr %align.dbg.spill, metadata !584, metadata !DIExpression()), !dbg !612
  call void @llvm.dbg.declare(metadata ptr %align.dbg.spill, metadata !613, metadata !DIExpression()), !dbg !620
  call void @llvm.dbg.declare(metadata ptr %align.dbg.spill, metadata !622, metadata !DIExpression()), !dbg !629
  call void @llvm.dbg.declare(metadata ptr %align.dbg.spill, metadata !600, metadata !DIExpression()), !dbg !631
  store ptr %ptr, ptr %ptr.dbg.spill1, align 8, !dbg !632
  call void @llvm.dbg.declare(metadata ptr %ptr.dbg.spill1, metadata !633, metadata !DIExpression()), !dbg !640
  call void @llvm.dbg.declare(metadata ptr %ptr.dbg.spill1, metadata !642, metadata !DIExpression()), !dbg !648
  call void @llvm.dbg.declare(metadata ptr %ptr.dbg.spill1, metadata !650, metadata !DIExpression()), !dbg !654
  %_4 = ptrtoint ptr %ptr to i64, !dbg !656
  %1 = icmp eq i64 %_4, 0, !dbg !657
  br i1 %1, label %bb1, label %bb2, !dbg !657

bb1:                                              ; preds = %start
  store i8 0, ptr %_0, align 1, !dbg !658
  br label %bb3, !dbg !658

bb2:                                              ; preds = %start
  %2 = call i64 @llvm.ctpop.i64(i64 %align), !dbg !629
  store i64 %2, ptr %0, align 8, !dbg !629
  %_9 = load i64, ptr %0, align 8, !dbg !629, !noundef !13
  %_8 = trunc i64 %_9 to i32, !dbg !629
  %3 = icmp eq i32 %_8, 1, !dbg !659
  br i1 %3, label %bb4, label %bb5, !dbg !659

bb3:                                              ; preds = %bb4, %bb1
  %4 = load i8, ptr %_0, align 1, !dbg !660, !range !541, !noundef !13
  %5 = trunc i8 %4 to i1, !dbg !660
  ret i1 %5, !dbg !660

bb4:                                              ; preds = %bb2
  %_13 = sub i64 %align, 1, !dbg !661
  %_12 = and i64 %_4, %_13, !dbg !662
  %6 = icmp eq i64 %_12, 0, !dbg !662
  %7 = zext i1 %6 to i8, !dbg !662
  store i8 %7, ptr %_0, align 1, !dbg !662
  br label %bb3, !dbg !658

bb5:                                              ; preds = %bb2
  store ptr @alloc_041983ee8170efdaaf95ba67fd072d26, ptr %pieces.dbg.spill, align 8, !dbg !663
  %8 = getelementptr inbounds i8, ptr %pieces.dbg.spill, i64 8, !dbg !663
  store i64 1, ptr %8, align 8, !dbg !663
  call void @llvm.dbg.declare(metadata ptr %pieces.dbg.spill, metadata !664, metadata !DIExpression()), !dbg !737
  store ptr @alloc_041983ee8170efdaaf95ba67fd072d26, ptr %_6, align 8, !dbg !741
  %9 = getelementptr inbounds i8, ptr %_6, i64 8, !dbg !741
  store i64 1, ptr %9, align 8, !dbg !741
  %10 = load ptr, ptr @0, align 8, !dbg !741, !align !405, !noundef !13
  %11 = load i64, ptr getelementptr inbounds (i8, ptr @0, i64 8), align 8, !dbg !741
  %12 = getelementptr inbounds i8, ptr %_6, i64 32, !dbg !741
  store ptr %10, ptr %12, align 8, !dbg !741
  %13 = getelementptr inbounds i8, ptr %12, i64 8, !dbg !741
  store i64 %11, ptr %13, align 8, !dbg !741
  %14 = getelementptr inbounds i8, ptr %_6, i64 16, !dbg !741
  store ptr @alloc_513570631223a12912d85da2bec3b15a, ptr %14, align 8, !dbg !741
  %15 = getelementptr inbounds i8, ptr %14, i64 8, !dbg !741
  store i64 0, ptr %15, align 8, !dbg !741
; call core::panicking::panic_fmt
  call void @_ZN4core9panicking9panic_fmt17ha6d62ade15192290E(ptr align 8 %_6, ptr align 8 @alloc_33f991fa5bbac1da9d8a778b0f014caf) #12, !dbg !742
  unreachable, !dbg !742
}

; core::intrinsics::unlikely
; Function Attrs: nounwind uwtable
define internal zeroext i1 @_ZN4core10intrinsics8unlikely17hae88458227f6c9fcE(i1 zeroext %b) unnamed_addr #3 !dbg !743 {
start:
  %b.dbg.spill = alloca i8, align 1
  %0 = zext i1 %b to i8
  store i8 %0, ptr %b.dbg.spill, align 1
  call void @llvm.dbg.declare(metadata ptr %b.dbg.spill, metadata !747, metadata !DIExpression()), !dbg !748
  ret i1 %b, !dbg !749
}

; core::cmp::Ord::max
; Function Attrs: inlinehint uwtable
define i64 @_ZN4core3cmp3Ord3max17h8e127c440351cde2E(i64 %self, i64 %other) unnamed_addr #0 !dbg !750 {
start:
  %other.dbg.spill = alloca i64, align 8
  %self.dbg.spill = alloca i64, align 8
  store i64 %self, ptr %self.dbg.spill, align 8
  call void @llvm.dbg.declare(metadata ptr %self.dbg.spill, metadata !754, metadata !DIExpression()), !dbg !758
  store i64 %other, ptr %other.dbg.spill, align 8
  call void @llvm.dbg.declare(metadata ptr %other.dbg.spill, metadata !755, metadata !DIExpression()), !dbg !759
; call core::cmp::max_by
  %_0 = call i64 @_ZN4core3cmp6max_by17h7b7abd866c8e3d14E(i64 %self, i64 %other), !dbg !760
  ret i64 %_0, !dbg !761
}

; core::cmp::Ord::min
; Function Attrs: inlinehint uwtable
define i64 @_ZN4core3cmp3Ord3min17h0fab8498db5267e8E(i64 %self, i64 %other) unnamed_addr #0 !dbg !762 {
start:
  %other.dbg.spill = alloca i64, align 8
  %self.dbg.spill = alloca i64, align 8
  store i64 %self, ptr %self.dbg.spill, align 8
  call void @llvm.dbg.declare(metadata ptr %self.dbg.spill, metadata !764, metadata !DIExpression()), !dbg !766
  store i64 %other, ptr %other.dbg.spill, align 8
  call void @llvm.dbg.declare(metadata ptr %other.dbg.spill, metadata !765, metadata !DIExpression()), !dbg !767
; call core::cmp::min_by
  %_0 = call i64 @_ZN4core3cmp6min_by17h6f8c268952d48d9fE(i64 %self, i64 %other), !dbg !768
  ret i64 %_0, !dbg !769
}

; core::cmp::max
; Function Attrs: inlinehint uwtable
define i64 @_ZN4core3cmp3max17h04593196d320ed5cE(i64 %v1, i64 %v2) unnamed_addr #0 !dbg !770 {
start:
  %v2.dbg.spill = alloca i64, align 8
  %v1.dbg.spill = alloca i64, align 8
  store i64 %v1, ptr %v1.dbg.spill, align 8
  call void @llvm.dbg.declare(metadata ptr %v1.dbg.spill, metadata !772, metadata !DIExpression()), !dbg !774
  store i64 %v2, ptr %v2.dbg.spill, align 8
  call void @llvm.dbg.declare(metadata ptr %v2.dbg.spill, metadata !773, metadata !DIExpression()), !dbg !775
; call core::cmp::Ord::max
  %_0 = call i64 @_ZN4core3cmp3Ord3max17h8e127c440351cde2E(i64 %v1, i64 %v2), !dbg !776
  ret i64 %_0, !dbg !777
}

; core::cmp::min
; Function Attrs: inlinehint uwtable
define i64 @_ZN4core3cmp3min17hc56dd149048d9f7fE(i64 %v1, i64 %v2) unnamed_addr #0 !dbg !778 {
start:
  %v2.dbg.spill = alloca i64, align 8
  %v1.dbg.spill = alloca i64, align 8
  store i64 %v1, ptr %v1.dbg.spill, align 8
  call void @llvm.dbg.declare(metadata ptr %v1.dbg.spill, metadata !780, metadata !DIExpression()), !dbg !782
  store i64 %v2, ptr %v2.dbg.spill, align 8
  call void @llvm.dbg.declare(metadata ptr %v2.dbg.spill, metadata !781, metadata !DIExpression()), !dbg !783
; call core::cmp::Ord::min
  %_0 = call i64 @_ZN4core3cmp3Ord3min17h0fab8498db5267e8E(i64 %v1, i64 %v2), !dbg !784
  ret i64 %_0, !dbg !785
}

; core::cmp::impls::<impl core::cmp::Ord for usize>::cmp
; Function Attrs: inlinehint uwtable
define internal i8 @"_ZN4core3cmp5impls50_$LT$impl$u20$core..cmp..Ord$u20$for$u20$usize$GT$3cmp17hbec2f485bf5eb370E"(ptr align 8 %self, ptr align 8 %other) unnamed_addr #0 !dbg !786 {
start:
  %other.dbg.spill = alloca ptr, align 8
  %self.dbg.spill = alloca ptr, align 8
  %_0 = alloca i8, align 1
  store ptr %self, ptr %self.dbg.spill, align 8
  call void @llvm.dbg.declare(metadata ptr %self.dbg.spill, metadata !792, metadata !DIExpression()), !dbg !794
  store ptr %other, ptr %other.dbg.spill, align 8
  call void @llvm.dbg.declare(metadata ptr %other.dbg.spill, metadata !793, metadata !DIExpression()), !dbg !795
  %_4 = load i64, ptr %self, align 8, !dbg !796, !noundef !13
  %_5 = load i64, ptr %other, align 8, !dbg !797, !noundef !13
  %_3 = icmp ult i64 %_4, %_5, !dbg !796
  br i1 %_3, label %bb1, label %bb2, !dbg !796

bb2:                                              ; preds = %start
  %_6 = icmp eq i64 %_4, %_5, !dbg !798
  br i1 %_6, label %bb3, label %bb4, !dbg !798

bb1:                                              ; preds = %start
  store i8 -1, ptr %_0, align 1, !dbg !799
  br label %bb6, !dbg !800

bb4:                                              ; preds = %bb2
  store i8 1, ptr %_0, align 1, !dbg !801
  br label %bb5, !dbg !802

bb3:                                              ; preds = %bb2
  store i8 0, ptr %_0, align 1, !dbg !803
  br label %bb5, !dbg !802

bb5:                                              ; preds = %bb3, %bb4
  br label %bb6, !dbg !800

bb6:                                              ; preds = %bb1, %bb5
  %0 = load i8, ptr %_0, align 1, !dbg !804, !range !805, !noundef !13
  ret i8 %0, !dbg !804
}

; core::cmp::max_by
; Function Attrs: inlinehint uwtable
define i64 @_ZN4core3cmp6max_by17h7b7abd866c8e3d14E(i64 %0, i64 %1) unnamed_addr #0 personality ptr @rust_eh_personality !dbg !806 {
start:
  %2 = alloca { ptr, i32, [1 x i32] }, align 8
  %compare.dbg.spill = alloca {}, align 1
  %_9 = alloca i8, align 1
  %_5 = alloca { ptr, ptr }, align 8
  %_4 = alloca i8, align 1
  %_0 = alloca i64, align 8
  %v2 = alloca i64, align 8
  %v1 = alloca i64, align 8
  store i64 %0, ptr %v1, align 8
  store i64 %1, ptr %v2, align 8
  call void @llvm.dbg.declare(metadata ptr %v1, metadata !811, metadata !DIExpression()), !dbg !816
  call void @llvm.dbg.declare(metadata ptr %v2, metadata !812, metadata !DIExpression()), !dbg !817
  call void @llvm.dbg.declare(metadata ptr %compare.dbg.spill, metadata !813, metadata !DIExpression()), !dbg !818
  store i8 1, ptr %_9, align 1, !dbg !819
  store ptr %v1, ptr %_5, align 8, !dbg !819
  %3 = getelementptr inbounds i8, ptr %_5, i64 8, !dbg !819
  store ptr %v2, ptr %3, align 8, !dbg !819
  %4 = load ptr, ptr %_5, align 8, !dbg !819, !nonnull !13, !align !405, !noundef !13
  %5 = getelementptr inbounds i8, ptr %_5, i64 8, !dbg !819
  %6 = load ptr, ptr %5, align 8, !dbg !819, !nonnull !13, !align !405, !noundef !13
; invoke core::ops::function::FnOnce::call_once
  %7 = invoke i8 @_ZN4core3ops8function6FnOnce9call_once17he2793d453ac57190E(ptr align 8 %4, ptr align 8 %6)
          to label %bb1 unwind label %cleanup, !dbg !819, !range !805

bb6:                                              ; preds = %cleanup
  br label %bb10, !dbg !820

cleanup:                                          ; preds = %start
  %8 = landingpad { ptr, i32 }
          cleanup
  %9 = extractvalue { ptr, i32 } %8, 0
  %10 = extractvalue { ptr, i32 } %8, 1
  store ptr %9, ptr %2, align 8
  %11 = getelementptr inbounds i8, ptr %2, i64 8
  store i32 %10, ptr %11, align 8
  br label %bb6

bb1:                                              ; preds = %start
  store i8 %7, ptr %_4, align 1, !dbg !819
  %_8 = load i8, ptr %_4, align 1, !dbg !819, !range !805, !noundef !13
  switch i8 %_8, label %bb2 [
    i8 -1, label %bb4
    i8 0, label %bb4
    i8 1, label %bb3
  ], !dbg !821

bb2:                                              ; preds = %bb1
  unreachable, !dbg !819

bb4:                                              ; preds = %bb1, %bb1
  %12 = load i64, ptr %v2, align 8, !dbg !822, !noundef !13
  store i64 %12, ptr %_0, align 8, !dbg !822
  %13 = load i8, ptr %_9, align 1, !dbg !820, !range !541, !noundef !13
  %14 = trunc i8 %13 to i1, !dbg !820
  br i1 %14, label %bb8, label %bb5, !dbg !820

bb3:                                              ; preds = %bb1
  store i8 0, ptr %_9, align 1, !dbg !823
  %15 = load i64, ptr %v1, align 8, !dbg !823, !noundef !13
  store i64 %15, ptr %_0, align 8, !dbg !823
  br label %bb5, !dbg !820

bb5:                                              ; preds = %bb3, %bb8, %bb4
  %16 = load i64, ptr %_0, align 8, !dbg !824, !noundef !13
  ret i64 %16, !dbg !824

bb8:                                              ; preds = %bb4
  br label %bb5, !dbg !820

bb10:                                             ; preds = %bb6
  %17 = load i8, ptr %_9, align 1, !dbg !820, !range !541, !noundef !13
  %18 = trunc i8 %17 to i1, !dbg !820
  br i1 %18, label %bb9, label %bb7, !dbg !820

bb7:                                              ; preds = %bb9, %bb10
  %19 = load ptr, ptr %2, align 8, !dbg !825, !noundef !13
  %20 = getelementptr inbounds i8, ptr %2, i64 8, !dbg !825
  %21 = load i32, ptr %20, align 8, !dbg !825, !noundef !13
  %22 = insertvalue { ptr, i32 } poison, ptr %19, 0, !dbg !825
  %23 = insertvalue { ptr, i32 } %22, i32 %21, 1, !dbg !825
  resume { ptr, i32 } %23, !dbg !825

bb9:                                              ; preds = %bb10
  br label %bb7, !dbg !820
}

; core::cmp::min_by
; Function Attrs: inlinehint uwtable
define i64 @_ZN4core3cmp6min_by17h6f8c268952d48d9fE(i64 %0, i64 %1) unnamed_addr #0 personality ptr @rust_eh_personality !dbg !826 {
start:
  %2 = alloca { ptr, i32, [1 x i32] }, align 8
  %compare.dbg.spill = alloca {}, align 1
  %_10 = alloca i8, align 1
  %_5 = alloca { ptr, ptr }, align 8
  %_4 = alloca i8, align 1
  %_0 = alloca i64, align 8
  %v2 = alloca i64, align 8
  %v1 = alloca i64, align 8
  store i64 %0, ptr %v1, align 8
  store i64 %1, ptr %v2, align 8
  call void @llvm.dbg.declare(metadata ptr %v1, metadata !828, metadata !DIExpression()), !dbg !831
  call void @llvm.dbg.declare(metadata ptr %v2, metadata !829, metadata !DIExpression()), !dbg !832
  call void @llvm.dbg.declare(metadata ptr %compare.dbg.spill, metadata !830, metadata !DIExpression()), !dbg !833
  store i8 1, ptr %_10, align 1, !dbg !834
  store ptr %v1, ptr %_5, align 8, !dbg !834
  %3 = getelementptr inbounds i8, ptr %_5, i64 8, !dbg !834
  store ptr %v2, ptr %3, align 8, !dbg !834
  %4 = load ptr, ptr %_5, align 8, !dbg !834, !nonnull !13, !align !405, !noundef !13
  %5 = getelementptr inbounds i8, ptr %_5, i64 8, !dbg !834
  %6 = load ptr, ptr %5, align 8, !dbg !834, !nonnull !13, !align !405, !noundef !13
; invoke core::ops::function::FnOnce::call_once
  %7 = invoke i8 @_ZN4core3ops8function6FnOnce9call_once17he2793d453ac57190E(ptr align 8 %4, ptr align 8 %6)
          to label %bb1 unwind label %cleanup, !dbg !834, !range !805

bb7:                                              ; preds = %cleanup
  br label %bb12, !dbg !835

cleanup:                                          ; preds = %start
  %8 = landingpad { ptr, i32 }
          cleanup
  %9 = extractvalue { ptr, i32 } %8, 0
  %10 = extractvalue { ptr, i32 } %8, 1
  store ptr %9, ptr %2, align 8
  %11 = getelementptr inbounds i8, ptr %2, i64 8
  store i32 %10, ptr %11, align 8
  br label %bb7

bb1:                                              ; preds = %start
  store i8 %7, ptr %_4, align 1, !dbg !834
  %_8 = load i8, ptr %_4, align 1, !dbg !834, !range !805, !noundef !13
  switch i8 %_8, label %bb2 [
    i8 -1, label %bb4
    i8 0, label %bb4
    i8 1, label %bb3
  ], !dbg !836

bb2:                                              ; preds = %bb1
  unreachable, !dbg !834

bb4:                                              ; preds = %bb1, %bb1
  store i8 0, ptr %_10, align 1, !dbg !837
  %12 = load i64, ptr %v1, align 8, !dbg !837, !noundef !13
  store i64 %12, ptr %_0, align 8, !dbg !837
  br label %bb9, !dbg !835

bb3:                                              ; preds = %bb1
  %13 = load i64, ptr %v2, align 8, !dbg !838, !noundef !13
  store i64 %13, ptr %_0, align 8, !dbg !838
  br label %bb5, !dbg !835

bb9:                                              ; preds = %bb4
  br label %bb6, !dbg !835

bb6:                                              ; preds = %bb10, %bb5, %bb9
  %14 = load i64, ptr %_0, align 8, !dbg !839, !noundef !13
  ret i64 %14, !dbg !839

bb5:                                              ; preds = %bb3
  %15 = load i8, ptr %_10, align 1, !dbg !835, !range !541, !noundef !13
  %16 = trunc i8 %15 to i1, !dbg !835
  br i1 %16, label %bb10, label %bb6, !dbg !835

bb10:                                             ; preds = %bb5
  br label %bb6, !dbg !835

bb12:                                             ; preds = %bb7
  %17 = load i8, ptr %_10, align 1, !dbg !835, !range !541, !noundef !13
  %18 = trunc i8 %17 to i1, !dbg !835
  br i1 %18, label %bb11, label %bb8, !dbg !835

bb8:                                              ; preds = %bb11, %bb12
  %19 = load ptr, ptr %2, align 8, !dbg !840, !noundef !13
  %20 = getelementptr inbounds i8, ptr %2, i64 8, !dbg !840
  %21 = load i32, ptr %20, align 8, !dbg !840, !noundef !13
  %22 = insertvalue { ptr, i32 } poison, ptr %19, 0, !dbg !840
  %23 = insertvalue { ptr, i32 } %22, i32 %21, 1, !dbg !840
  resume { ptr, i32 } %23, !dbg !840

bb11:                                             ; preds = %bb12
  br label %bb8, !dbg !835
}

; core::fmt::num::<impl core::fmt::Debug for u8>::fmt
; Function Attrs: inlinehint uwtable
define internal zeroext i1 @"_ZN4core3fmt3num49_$LT$impl$u20$core..fmt..Debug$u20$for$u20$u8$GT$3fmt17h8b69e80df24693a2E"(ptr align 1 %self, ptr align 8 %f) unnamed_addr #0 !dbg !841 {
start:
  %f.dbg.spill = alloca ptr, align 8
  %self.dbg.spill = alloca ptr, align 8
  %_0 = alloca i8, align 1
  store ptr %self, ptr %self.dbg.spill, align 8
  call void @llvm.dbg.declare(metadata ptr %self.dbg.spill, metadata !849, metadata !DIExpression()), !dbg !851
  store ptr %f, ptr %f.dbg.spill, align 8
  call void @llvm.dbg.declare(metadata ptr %f.dbg.spill, metadata !850, metadata !DIExpression()), !dbg !852
  call void @llvm.dbg.declare(metadata ptr %f.dbg.spill, metadata !853, metadata !DIExpression()), !dbg !861
  call void @llvm.dbg.declare(metadata ptr %f.dbg.spill, metadata !863, metadata !DIExpression()), !dbg !868
  %0 = getelementptr inbounds i8, ptr %f, i64 52, !dbg !870
  %_4 = load i32, ptr %0, align 4, !dbg !870, !noundef !13
  %_3 = and i32 %_4, 16, !dbg !870
  %1 = icmp eq i32 %_3, 0, !dbg !871
  br i1 %1, label %bb2, label %bb1, !dbg !871

bb2:                                              ; preds = %start
  %2 = getelementptr inbounds i8, ptr %f, i64 52, !dbg !872
  %_6 = load i32, ptr %2, align 4, !dbg !872, !noundef !13
  %_5 = and i32 %_6, 32, !dbg !872
  %3 = icmp eq i32 %_5, 0, !dbg !873
  br i1 %3, label %bb4, label %bb3, !dbg !873

bb1:                                              ; preds = %start
; call core::fmt::num::<impl core::fmt::LowerHex for u8>::fmt
  %4 = call zeroext i1 @"_ZN4core3fmt3num52_$LT$impl$u20$core..fmt..LowerHex$u20$for$u20$u8$GT$3fmt17h77b8dff7d9b2fef6E"(ptr align 1 %self, ptr align 8 %f), !dbg !874
  %5 = zext i1 %4 to i8, !dbg !874
  store i8 %5, ptr %_0, align 1, !dbg !874
  br label %bb6, !dbg !874

bb4:                                              ; preds = %bb2
; call core::fmt::num::imp::<impl core::fmt::Display for u8>::fmt
  %6 = call zeroext i1 @"_ZN4core3fmt3num3imp51_$LT$impl$u20$core..fmt..Display$u20$for$u20$u8$GT$3fmt17hc64a1a25867a8a62E"(ptr align 1 %self, ptr align 8 %f), !dbg !875
  %7 = zext i1 %6 to i8, !dbg !875
  store i8 %7, ptr %_0, align 1, !dbg !875
  br label %bb5, !dbg !875

bb3:                                              ; preds = %bb2
; call core::fmt::num::<impl core::fmt::UpperHex for u8>::fmt
  %8 = call zeroext i1 @"_ZN4core3fmt3num52_$LT$impl$u20$core..fmt..UpperHex$u20$for$u20$u8$GT$3fmt17he2800ab9254fbf0fE"(ptr align 1 %self, ptr align 8 %f), !dbg !876
  %9 = zext i1 %8 to i8, !dbg !876
  store i8 %9, ptr %_0, align 1, !dbg !876
  br label %bb5, !dbg !876

bb5:                                              ; preds = %bb3, %bb4
  br label %bb6, !dbg !877

bb6:                                              ; preds = %bb1, %bb5
  %10 = load i8, ptr %_0, align 1, !dbg !878, !range !541, !noundef !13
  %11 = trunc i8 %10 to i1, !dbg !878
  ret i1 %11, !dbg !878
}

; core::fmt::num::<impl core::fmt::Debug for u32>::fmt
; Function Attrs: inlinehint uwtable
define internal zeroext i1 @"_ZN4core3fmt3num50_$LT$impl$u20$core..fmt..Debug$u20$for$u20$u32$GT$3fmt17h82e719ac08b9cf9cE"(ptr align 4 %self, ptr align 8 %f) unnamed_addr #0 !dbg !879 {
start:
  %f.dbg.spill = alloca ptr, align 8
  %self.dbg.spill = alloca ptr, align 8
  %_0 = alloca i8, align 1
  store ptr %self, ptr %self.dbg.spill, align 8
  call void @llvm.dbg.declare(metadata ptr %self.dbg.spill, metadata !884, metadata !DIExpression()), !dbg !886
  store ptr %f, ptr %f.dbg.spill, align 8
  call void @llvm.dbg.declare(metadata ptr %f.dbg.spill, metadata !885, metadata !DIExpression()), !dbg !887
  call void @llvm.dbg.declare(metadata ptr %f.dbg.spill, metadata !888, metadata !DIExpression()), !dbg !892
  call void @llvm.dbg.declare(metadata ptr %f.dbg.spill, metadata !894, metadata !DIExpression()), !dbg !898
  %0 = getelementptr inbounds i8, ptr %f, i64 52, !dbg !900
  %_4 = load i32, ptr %0, align 4, !dbg !900, !noundef !13
  %_3 = and i32 %_4, 16, !dbg !900
  %1 = icmp eq i32 %_3, 0, !dbg !901
  br i1 %1, label %bb2, label %bb1, !dbg !901

bb2:                                              ; preds = %start
  %2 = getelementptr inbounds i8, ptr %f, i64 52, !dbg !902
  %_6 = load i32, ptr %2, align 4, !dbg !902, !noundef !13
  %_5 = and i32 %_6, 32, !dbg !902
  %3 = icmp eq i32 %_5, 0, !dbg !903
  br i1 %3, label %bb4, label %bb3, !dbg !903

bb1:                                              ; preds = %start
; call core::fmt::num::<impl core::fmt::LowerHex for u32>::fmt
  %4 = call zeroext i1 @"_ZN4core3fmt3num53_$LT$impl$u20$core..fmt..LowerHex$u20$for$u20$u32$GT$3fmt17ha3b5b38a97412d8eE"(ptr align 4 %self, ptr align 8 %f), !dbg !904
  %5 = zext i1 %4 to i8, !dbg !904
  store i8 %5, ptr %_0, align 1, !dbg !904
  br label %bb6, !dbg !904

bb4:                                              ; preds = %bb2
; call core::fmt::num::imp::<impl core::fmt::Display for u32>::fmt
  %6 = call zeroext i1 @"_ZN4core3fmt3num3imp52_$LT$impl$u20$core..fmt..Display$u20$for$u20$u32$GT$3fmt17h7c7bf1810db09055E"(ptr align 4 %self, ptr align 8 %f), !dbg !905
  %7 = zext i1 %6 to i8, !dbg !905
  store i8 %7, ptr %_0, align 1, !dbg !905
  br label %bb5, !dbg !905

bb3:                                              ; preds = %bb2
; call core::fmt::num::<impl core::fmt::UpperHex for u32>::fmt
  %8 = call zeroext i1 @"_ZN4core3fmt3num53_$LT$impl$u20$core..fmt..UpperHex$u20$for$u20$u32$GT$3fmt17h5583263ed211f658E"(ptr align 4 %self, ptr align 8 %f), !dbg !906
  %9 = zext i1 %8 to i8, !dbg !906
  store i8 %9, ptr %_0, align 1, !dbg !906
  br label %bb5, !dbg !906

bb5:                                              ; preds = %bb3, %bb4
  br label %bb6, !dbg !907

bb6:                                              ; preds = %bb1, %bb5
  %10 = load i8, ptr %_0, align 1, !dbg !908, !range !541, !noundef !13
  %11 = trunc i8 %10 to i1, !dbg !908
  ret i1 %11, !dbg !908
}

; core::fmt::num::<impl core::fmt::Debug for usize>::fmt
; Function Attrs: inlinehint uwtable
define internal zeroext i1 @"_ZN4core3fmt3num52_$LT$impl$u20$core..fmt..Debug$u20$for$u20$usize$GT$3fmt17hfe0f2d73406d81b6E"(ptr align 8 %self, ptr align 8 %f) unnamed_addr #0 !dbg !909 {
start:
  %f.dbg.spill = alloca ptr, align 8
  %self.dbg.spill = alloca ptr, align 8
  %_0 = alloca i8, align 1
  store ptr %self, ptr %self.dbg.spill, align 8
  call void @llvm.dbg.declare(metadata ptr %self.dbg.spill, metadata !914, metadata !DIExpression()), !dbg !916
  store ptr %f, ptr %f.dbg.spill, align 8
  call void @llvm.dbg.declare(metadata ptr %f.dbg.spill, metadata !915, metadata !DIExpression()), !dbg !917
  call void @llvm.dbg.declare(metadata ptr %f.dbg.spill, metadata !918, metadata !DIExpression()), !dbg !922
  call void @llvm.dbg.declare(metadata ptr %f.dbg.spill, metadata !924, metadata !DIExpression()), !dbg !928
  %0 = getelementptr inbounds i8, ptr %f, i64 52, !dbg !930
  %_4 = load i32, ptr %0, align 4, !dbg !930, !noundef !13
  %_3 = and i32 %_4, 16, !dbg !930
  %1 = icmp eq i32 %_3, 0, !dbg !931
  br i1 %1, label %bb2, label %bb1, !dbg !931

bb2:                                              ; preds = %start
  %2 = getelementptr inbounds i8, ptr %f, i64 52, !dbg !932
  %_6 = load i32, ptr %2, align 4, !dbg !932, !noundef !13
  %_5 = and i32 %_6, 32, !dbg !932
  %3 = icmp eq i32 %_5, 0, !dbg !933
  br i1 %3, label %bb4, label %bb3, !dbg !933

bb1:                                              ; preds = %start
; call core::fmt::num::<impl core::fmt::LowerHex for usize>::fmt
  %4 = call zeroext i1 @"_ZN4core3fmt3num55_$LT$impl$u20$core..fmt..LowerHex$u20$for$u20$usize$GT$3fmt17h47ab34c38f234db6E"(ptr align 8 %self, ptr align 8 %f), !dbg !934
  %5 = zext i1 %4 to i8, !dbg !934
  store i8 %5, ptr %_0, align 1, !dbg !934
  br label %bb6, !dbg !934

bb4:                                              ; preds = %bb2
; call core::fmt::num::imp::<impl core::fmt::Display for usize>::fmt
  %6 = call zeroext i1 @"_ZN4core3fmt3num3imp54_$LT$impl$u20$core..fmt..Display$u20$for$u20$usize$GT$3fmt17h5159b867faf653c2E"(ptr align 8 %self, ptr align 8 %f), !dbg !935
  %7 = zext i1 %6 to i8, !dbg !935
  store i8 %7, ptr %_0, align 1, !dbg !935
  br label %bb5, !dbg !935

bb3:                                              ; preds = %bb2
; call core::fmt::num::<impl core::fmt::UpperHex for usize>::fmt
  %8 = call zeroext i1 @"_ZN4core3fmt3num55_$LT$impl$u20$core..fmt..UpperHex$u20$for$u20$usize$GT$3fmt17h95d968ee1c330b2cE"(ptr align 8 %self, ptr align 8 %f), !dbg !936
  %9 = zext i1 %8 to i8, !dbg !936
  store i8 %9, ptr %_0, align 1, !dbg !936
  br label %bb5, !dbg !936

bb5:                                              ; preds = %bb3, %bb4
  br label %bb6, !dbg !937

bb6:                                              ; preds = %bb1, %bb5
  %10 = load i8, ptr %_0, align 1, !dbg !938, !range !541, !noundef !13
  %11 = trunc i8 %10 to i1, !dbg !938
  ret i1 %11, !dbg !938
}

; core::fmt::Arguments::new_v1
; Function Attrs: inlinehint uwtable
define internal void @_ZN4core3fmt9Arguments6new_v117h1e57436438d1a8f6E(ptr sret(%"core::fmt::Arguments<'_>") align 8 %_0, ptr align 8 %pieces.0, i64 %pieces.1, ptr align 8 %args.0, i64 %args.1) unnamed_addr #0 !dbg !939 {
start:
  %pieces.dbg.spill1 = alloca { ptr, i64 }, align 8
  %args.dbg.spill = alloca { ptr, i64 }, align 8
  %pieces.dbg.spill = alloca { ptr, i64 }, align 8
  %_9 = alloca %"core::fmt::Arguments<'_>", align 8
  store ptr %pieces.0, ptr %pieces.dbg.spill, align 8
  %0 = getelementptr inbounds i8, ptr %pieces.dbg.spill, i64 8
  store i64 %pieces.1, ptr %0, align 8
  call void @llvm.dbg.declare(metadata ptr %pieces.dbg.spill, metadata !944, metadata !DIExpression()), !dbg !946
  store ptr %args.0, ptr %args.dbg.spill, align 8
  %1 = getelementptr inbounds i8, ptr %args.dbg.spill, i64 8
  store i64 %args.1, ptr %1, align 8
  call void @llvm.dbg.declare(metadata ptr %args.dbg.spill, metadata !945, metadata !DIExpression()), !dbg !947
  %_3 = icmp ult i64 %pieces.1, %args.1, !dbg !948
  br i1 %_3, label %bb3, label %bb1, !dbg !948

bb1:                                              ; preds = %start
  %_7 = add i64 %args.1, 1, !dbg !949
  %_6 = icmp ugt i64 %pieces.1, %_7, !dbg !950
  br i1 %_6, label %bb2, label %bb4, !dbg !950

bb3:                                              ; preds = %bb2, %start
  store ptr @alloc_af99043bc04c419363a7f04d23183506, ptr %pieces.dbg.spill1, align 8, !dbg !951
  %2 = getelementptr inbounds i8, ptr %pieces.dbg.spill1, i64 8, !dbg !951
  store i64 1, ptr %2, align 8, !dbg !951
  call void @llvm.dbg.declare(metadata ptr %pieces.dbg.spill1, metadata !952, metadata !DIExpression()), !dbg !956
  store ptr @alloc_af99043bc04c419363a7f04d23183506, ptr %_9, align 8, !dbg !959
  %3 = getelementptr inbounds i8, ptr %_9, i64 8, !dbg !959
  store i64 1, ptr %3, align 8, !dbg !959
  %4 = load ptr, ptr @0, align 8, !dbg !959, !align !405, !noundef !13
  %5 = load i64, ptr getelementptr inbounds (i8, ptr @0, i64 8), align 8, !dbg !959
  %6 = getelementptr inbounds i8, ptr %_9, i64 32, !dbg !959
  store ptr %4, ptr %6, align 8, !dbg !959
  %7 = getelementptr inbounds i8, ptr %6, i64 8, !dbg !959
  store i64 %5, ptr %7, align 8, !dbg !959
  %8 = getelementptr inbounds i8, ptr %_9, i64 16, !dbg !959
  store ptr @alloc_513570631223a12912d85da2bec3b15a, ptr %8, align 8, !dbg !959
  %9 = getelementptr inbounds i8, ptr %8, i64 8, !dbg !959
  store i64 0, ptr %9, align 8, !dbg !959
; call core::panicking::panic_fmt
  call void @_ZN4core9panicking9panic_fmt17ha6d62ade15192290E(ptr align 8 %_9, ptr align 8 @alloc_4ba2c5ddff77a51f3765b0dd5f2851cc) #12, !dbg !960
  unreachable, !dbg !960

bb4:                                              ; preds = %bb1
  store ptr %pieces.0, ptr %_0, align 8, !dbg !961
  %10 = getelementptr inbounds i8, ptr %_0, i64 8, !dbg !961
  store i64 %pieces.1, ptr %10, align 8, !dbg !961
  %11 = load ptr, ptr @0, align 8, !dbg !961, !align !405, !noundef !13
  %12 = load i64, ptr getelementptr inbounds (i8, ptr @0, i64 8), align 8, !dbg !961
  %13 = getelementptr inbounds i8, ptr %_0, i64 32, !dbg !961
  store ptr %11, ptr %13, align 8, !dbg !961
  %14 = getelementptr inbounds i8, ptr %13, i64 8, !dbg !961
  store i64 %12, ptr %14, align 8, !dbg !961
  %15 = getelementptr inbounds i8, ptr %_0, i64 16, !dbg !961
  store ptr %args.0, ptr %15, align 8, !dbg !961
  %16 = getelementptr inbounds i8, ptr %15, i64 8, !dbg !961
  store i64 %args.1, ptr %16, align 8, !dbg !961
  ret void, !dbg !962

bb2:                                              ; preds = %bb1
  br label %bb3, !dbg !963
}

; core::fmt::Arguments::new_const
; Function Attrs: inlinehint uwtable
define internal void @_ZN4core3fmt9Arguments9new_const17h063cf851fbdbf409E(ptr sret(%"core::fmt::Arguments<'_>") align 8 %_0, ptr align 8 %pieces.0, i64 %pieces.1) unnamed_addr #0 !dbg !964 {
start:
  %pieces.dbg.spill = alloca { ptr, i64 }, align 8
  %_5 = alloca %"core::fmt::Arguments<'_>", align 8
  store ptr %pieces.0, ptr %pieces.dbg.spill, align 8
  %0 = getelementptr inbounds i8, ptr %pieces.dbg.spill, i64 8
  store i64 %pieces.1, ptr %0, align 8
  call void @llvm.dbg.declare(metadata ptr %pieces.dbg.spill, metadata !966, metadata !DIExpression()), !dbg !967
  %_2 = icmp ugt i64 %pieces.1, 1, !dbg !968
  br i1 %_2, label %bb1, label %bb3, !dbg !968

bb3:                                              ; preds = %start
  store ptr %pieces.0, ptr %_0, align 8, !dbg !969
  %1 = getelementptr inbounds i8, ptr %_0, i64 8, !dbg !969
  store i64 %pieces.1, ptr %1, align 8, !dbg !969
  %2 = load ptr, ptr @0, align 8, !dbg !969, !align !405, !noundef !13
  %3 = load i64, ptr getelementptr inbounds (i8, ptr @0, i64 8), align 8, !dbg !969
  %4 = getelementptr inbounds i8, ptr %_0, i64 32, !dbg !969
  store ptr %2, ptr %4, align 8, !dbg !969
  %5 = getelementptr inbounds i8, ptr %4, i64 8, !dbg !969
  store i64 %3, ptr %5, align 8, !dbg !969
  %6 = getelementptr inbounds i8, ptr %_0, i64 16, !dbg !969
  store ptr @alloc_513570631223a12912d85da2bec3b15a, ptr %6, align 8, !dbg !969
  %7 = getelementptr inbounds i8, ptr %6, i64 8, !dbg !969
  store i64 0, ptr %7, align 8, !dbg !969
  ret void, !dbg !970

bb1:                                              ; preds = %start
; call core::fmt::Arguments::new_const
  call void @_ZN4core3fmt9Arguments9new_const17h063cf851fbdbf409E(ptr sret(%"core::fmt::Arguments<'_>") align 8 %_5, ptr align 8 @alloc_af99043bc04c419363a7f04d23183506, i64 1), !dbg !971
; call core::panicking::panic_fmt
  call void @_ZN4core9panicking9panic_fmt17ha6d62ade15192290E(ptr align 8 %_5, ptr align 8 @alloc_3d28b95801fd55932918b2920be93f48) #12, !dbg !971
  unreachable, !dbg !971
}

; core::num::<impl usize>::checked_add
; Function Attrs: inlinehint uwtable
define internal { i64, i64 } @"_ZN4core3num23_$LT$impl$u20$usize$GT$11checked_add17h39a5eb0457c249e1E"(i64 %self, i64 %rhs) unnamed_addr #0 !dbg !972 {
start:
  %0 = alloca i8, align 1
  %a.dbg.spill1 = alloca i64, align 8
  %b.dbg.spill = alloca i8, align 1
  %a.dbg.spill = alloca i64, align 8
  %rhs.dbg.spill = alloca i64, align 8
  %self.dbg.spill = alloca i64, align 8
  %_0 = alloca %"core::option::Option<usize>", align 8
  store i64 %self, ptr %self.dbg.spill, align 8
  call void @llvm.dbg.declare(metadata ptr %self.dbg.spill, metadata !974, metadata !DIExpression()), !dbg !979
  call void @llvm.dbg.declare(metadata ptr %self.dbg.spill, metadata !980, metadata !DIExpression()), !dbg !988
  store i64 %rhs, ptr %rhs.dbg.spill, align 8
  call void @llvm.dbg.declare(metadata ptr %rhs.dbg.spill, metadata !975, metadata !DIExpression()), !dbg !990
  call void @llvm.dbg.declare(metadata ptr %rhs.dbg.spill, metadata !984, metadata !DIExpression()), !dbg !991
  %1 = call { i64, i1 } @llvm.uadd.with.overflow.i64(i64 %self, i64 %rhs), !dbg !992
  %_6.0 = extractvalue { i64, i1 } %1, 0, !dbg !992
  %_6.1 = extractvalue { i64, i1 } %1, 1, !dbg !992
  store i64 %_6.0, ptr %a.dbg.spill, align 8, !dbg !993
  call void @llvm.dbg.declare(metadata ptr %a.dbg.spill, metadata !985, metadata !DIExpression()), !dbg !994
  %2 = zext i1 %_6.1 to i8, !dbg !995
  store i8 %2, ptr %b.dbg.spill, align 1, !dbg !995
  call void @llvm.dbg.declare(metadata ptr %b.dbg.spill, metadata !978, metadata !DIExpression()), !dbg !996
  call void @llvm.dbg.declare(metadata ptr %b.dbg.spill, metadata !987, metadata !DIExpression()), !dbg !997
  store i64 %_6.0, ptr %a.dbg.spill1, align 8, !dbg !998
  call void @llvm.dbg.declare(metadata ptr %a.dbg.spill1, metadata !976, metadata !DIExpression()), !dbg !999
  %3 = call i1 @llvm.expect.i1(i1 %_6.1, i1 false), !dbg !1000
  %4 = zext i1 %3 to i8, !dbg !1000
  store i8 %4, ptr %0, align 1, !dbg !1000
  %5 = load i8, ptr %0, align 1, !dbg !1000, !range !541, !noundef !13
  %_3 = trunc i8 %5 to i1, !dbg !1000
  br i1 %_3, label %bb2, label %bb3, !dbg !1000

bb3:                                              ; preds = %start
  %6 = getelementptr inbounds i8, ptr %_0, i64 8, !dbg !1001
  store i64 %_6.0, ptr %6, align 8, !dbg !1001
  store i64 1, ptr %_0, align 8, !dbg !1001
  br label %bb4, !dbg !1002

bb2:                                              ; preds = %start
  %7 = load i64, ptr @0, align 8, !dbg !1003, !range !1004, !noundef !13
  %8 = load i64, ptr getelementptr inbounds (i8, ptr @0, i64 8), align 8, !dbg !1003
  store i64 %7, ptr %_0, align 8, !dbg !1003
  %9 = getelementptr inbounds i8, ptr %_0, i64 8, !dbg !1003
  store i64 %8, ptr %9, align 8, !dbg !1003
  br label %bb4, !dbg !1002

bb4:                                              ; preds = %bb2, %bb3
  %10 = load i64, ptr %_0, align 8, !dbg !1005, !range !1004, !noundef !13
  %11 = getelementptr inbounds i8, ptr %_0, i64 8, !dbg !1005
  %12 = load i64, ptr %11, align 8, !dbg !1005
  %13 = insertvalue { i64, i64 } poison, i64 %10, 0, !dbg !1005
  %14 = insertvalue { i64, i64 } %13, i64 %12, 1, !dbg !1005
  ret { i64, i64 } %14, !dbg !1005
}

; core::num::<impl usize>::checked_sub
; Function Attrs: inlinehint uwtable
define internal { i64, i64 } @"_ZN4core3num23_$LT$impl$u20$usize$GT$11checked_sub17h21b7cb81648ae7a5E"(i64 %self, i64 %rhs) unnamed_addr #0 !dbg !1006 {
start:
  %0 = alloca i8, align 1
  %a.dbg.spill1 = alloca i64, align 8
  %b.dbg.spill = alloca i8, align 1
  %a.dbg.spill = alloca i64, align 8
  %rhs.dbg.spill = alloca i64, align 8
  %self.dbg.spill = alloca i64, align 8
  %_0 = alloca %"core::option::Option<usize>", align 8
  store i64 %self, ptr %self.dbg.spill, align 8
  call void @llvm.dbg.declare(metadata ptr %self.dbg.spill, metadata !1008, metadata !DIExpression()), !dbg !1013
  call void @llvm.dbg.declare(metadata ptr %self.dbg.spill, metadata !1014, metadata !DIExpression()), !dbg !1022
  store i64 %rhs, ptr %rhs.dbg.spill, align 8
  call void @llvm.dbg.declare(metadata ptr %rhs.dbg.spill, metadata !1009, metadata !DIExpression()), !dbg !1024
  call void @llvm.dbg.declare(metadata ptr %rhs.dbg.spill, metadata !1018, metadata !DIExpression()), !dbg !1025
  %_6.0 = sub i64 %self, %rhs, !dbg !1026
  %_6.1 = icmp ult i64 %self, %rhs, !dbg !1026
  store i64 %_6.0, ptr %a.dbg.spill, align 8, !dbg !1027
  call void @llvm.dbg.declare(metadata ptr %a.dbg.spill, metadata !1019, metadata !DIExpression()), !dbg !1028
  %1 = zext i1 %_6.1 to i8, !dbg !1029
  store i8 %1, ptr %b.dbg.spill, align 1, !dbg !1029
  call void @llvm.dbg.declare(metadata ptr %b.dbg.spill, metadata !1012, metadata !DIExpression()), !dbg !1030
  call void @llvm.dbg.declare(metadata ptr %b.dbg.spill, metadata !1021, metadata !DIExpression()), !dbg !1031
  store i64 %_6.0, ptr %a.dbg.spill1, align 8, !dbg !1032
  call void @llvm.dbg.declare(metadata ptr %a.dbg.spill1, metadata !1010, metadata !DIExpression()), !dbg !1033
  %2 = call i1 @llvm.expect.i1(i1 %_6.1, i1 false), !dbg !1034
  %3 = zext i1 %2 to i8, !dbg !1034
  store i8 %3, ptr %0, align 1, !dbg !1034
  %4 = load i8, ptr %0, align 1, !dbg !1034, !range !541, !noundef !13
  %_3 = trunc i8 %4 to i1, !dbg !1034
  br i1 %_3, label %bb2, label %bb3, !dbg !1034

bb3:                                              ; preds = %start
  %5 = getelementptr inbounds i8, ptr %_0, i64 8, !dbg !1035
  store i64 %_6.0, ptr %5, align 8, !dbg !1035
  store i64 1, ptr %_0, align 8, !dbg !1035
  br label %bb4, !dbg !1036

bb2:                                              ; preds = %start
  %6 = load i64, ptr @0, align 8, !dbg !1037, !range !1004, !noundef !13
  %7 = load i64, ptr getelementptr inbounds (i8, ptr @0, i64 8), align 8, !dbg !1037
  store i64 %6, ptr %_0, align 8, !dbg !1037
  %8 = getelementptr inbounds i8, ptr %_0, i64 8, !dbg !1037
  store i64 %7, ptr %8, align 8, !dbg !1037
  br label %bb4, !dbg !1036

bb4:                                              ; preds = %bb2, %bb3
  %9 = load i64, ptr %_0, align 8, !dbg !1038, !range !1004, !noundef !13
  %10 = getelementptr inbounds i8, ptr %_0, i64 8, !dbg !1038
  %11 = load i64, ptr %10, align 8, !dbg !1038
  %12 = insertvalue { i64, i64 } poison, i64 %9, 0, !dbg !1038
  %13 = insertvalue { i64, i64 } %12, i64 %11, 1, !dbg !1038
  ret { i64, i64 } %13, !dbg !1038
}

; core::ops::function::Fn::call
; Function Attrs: inlinehint uwtable
define internal i64 @_ZN4core3ops8function2Fn4call17h69686f290488500dE(ptr align 1 %_1, i64 %0) unnamed_addr #0 !dbg !1039 {
start:
  %self.dbg.spill.i1.i = alloca i64, align 8
  %1 = alloca i64, align 8
  %self.dbg.spill.i.i = alloca i64, align 8
  %self.dbg.spill.i = alloca i64, align 8
  %_1.dbg.spill = alloca ptr, align 8
  %_2 = alloca i64, align 8
  store i64 %0, ptr %_2, align 8
  store ptr %_1, ptr %_1.dbg.spill, align 8
  call void @llvm.dbg.declare(metadata ptr %_1.dbg.spill, metadata !1055, metadata !DIExpression()), !dbg !1063
  call void @llvm.dbg.declare(metadata ptr %_2, metadata !1056, metadata !DIExpression()), !dbg !1063
  %2 = load i64, ptr %_2, align 8, !dbg !1063, !noundef !13
  store i64 %2, ptr %self.dbg.spill.i, align 8
  call void @llvm.dbg.declare(metadata ptr %self.dbg.spill.i, metadata !1064, metadata !DIExpression()), !dbg !1069
  store i64 %2, ptr %self.dbg.spill.i1.i, align 8
  call void @llvm.dbg.declare(metadata ptr %self.dbg.spill.i1.i, metadata !1071, metadata !DIExpression()), !dbg !1077
  store i64 %2, ptr %self.dbg.spill.i.i, align 8
  call void @llvm.dbg.declare(metadata ptr %self.dbg.spill.i.i, metadata !1079, metadata !DIExpression()), !dbg !1085
  %3 = call i64 @llvm.cttz.i64(i64 %2, i1 false), !dbg !1087
  store i64 %3, ptr %1, align 8, !dbg !1087
  %_2.i.i = load i64, ptr %1, align 8, !dbg !1087, !noundef !13
  %_0.i.i = trunc i64 %_2.i.i to i32, !dbg !1087
  %_2.i = lshr i32 %_0.i.i, 2, !dbg !1088
  %_0.i = zext i32 %_2.i to i64, !dbg !1088
  ret i64 %_0.i, !dbg !1063
}

; core::ops::function::Fn::call
; Function Attrs: inlinehint uwtable
define internal i64 @_ZN4core3ops8function2Fn4call17h9e16f0b0135df84bE(ptr align 1 %_1, i64 %0) unnamed_addr #0 !dbg !1089 {
start:
  %self.dbg.spill.i2.i = alloca i64, align 8
  %1 = alloca i64, align 8
  %self.dbg.spill.i.i = alloca i64, align 8
  %self.dbg.spill.i = alloca i64, align 8
  %_1.dbg.spill = alloca ptr, align 8
  %_2 = alloca i64, align 8
  store i64 %0, ptr %_2, align 8
  store ptr %_1, ptr %_1.dbg.spill, align 8
  call void @llvm.dbg.declare(metadata ptr %_1.dbg.spill, metadata !1091, metadata !DIExpression()), !dbg !1093
  call void @llvm.dbg.declare(metadata ptr %_2, metadata !1092, metadata !DIExpression()), !dbg !1093
  %2 = load i64, ptr %_2, align 8, !dbg !1093, !noundef !13
  store i64 %2, ptr %self.dbg.spill.i, align 8
  call void @llvm.dbg.declare(metadata ptr %self.dbg.spill.i, metadata !1094, metadata !DIExpression()), !dbg !1097
  store i64 %2, ptr %self.dbg.spill.i2.i, align 8
  call void @llvm.dbg.declare(metadata ptr %self.dbg.spill.i2.i, metadata !1071, metadata !DIExpression()), !dbg !1099
  store i64 %2, ptr %self.dbg.spill.i.i, align 8
  call void @llvm.dbg.declare(metadata ptr %self.dbg.spill.i.i, metadata !1101, metadata !DIExpression()), !dbg !1104
  %3 = call i64 @llvm.ctlz.i64(i64 %2, i1 false), !dbg !1106
  store i64 %3, ptr %1, align 8, !dbg !1106
  %_2.i.i = load i64, ptr %1, align 8, !dbg !1106, !noundef !13
  %_0.i.i = trunc i64 %_2.i.i to i32, !dbg !1106
  %_4.i = lshr i32 %_0.i.i, 2, !dbg !1107
  %_3.i = zext i32 %_4.i to i64, !dbg !1107
  %_9.0.i = sub i64 16, %_3.i, !dbg !1108
  %_9.1.i = icmp ult i64 16, %_3.i, !dbg !1108
  %4 = call i1 @llvm.expect.i1(i1 %_9.1.i, i1 false), !dbg !1108
  br i1 %4, label %panic.i, label %bb4.i, !dbg !1108

bb4.i:                                            ; preds = %start
  %_10.0.i = sub i64 %_9.0.i, 1, !dbg !1108
  %_10.1.i = icmp ult i64 %_9.0.i, 1, !dbg !1108
  %5 = call i1 @llvm.expect.i1(i1 %_10.1.i, i1 false), !dbg !1108
  br i1 %5, label %panic1.i, label %"_ZN86_$LT$memchr..vector..aarch64neon..NeonMoveMask$u20$as$u20$memchr..vector..MoveMask$GT$11last_offset17hb65cbb19077e9666E.exit", !dbg !1108

panic.i:                                          ; preds = %start
; call core::panicking::panic
  call void @_ZN4core9panicking5panic17h5884aad3a9044857E(ptr align 1 @str.2, i64 33, ptr align 8 @alloc_6176775c2c32ebde707644d093cd68cc) #12, !dbg !1108
  unreachable, !dbg !1108

panic1.i:                                         ; preds = %bb4.i
; call core::panicking::panic
  call void @_ZN4core9panicking5panic17h5884aad3a9044857E(ptr align 1 @str.2, i64 33, ptr align 8 @alloc_6176775c2c32ebde707644d093cd68cc) #12, !dbg !1108
  unreachable, !dbg !1108

"_ZN86_$LT$memchr..vector..aarch64neon..NeonMoveMask$u20$as$u20$memchr..vector..MoveMask$GT$11last_offset17hb65cbb19077e9666E.exit": ; preds = %bb4.i
  ret i64 %_10.0.i, !dbg !1093
}

; core::ops::function::FnOnce::call_once
; Function Attrs: inlinehint uwtable
define internal i8 @_ZN4core3ops8function6FnOnce9call_once17he2793d453ac57190E(ptr align 8 %0, ptr align 8 %1) unnamed_addr #0 !dbg !1109 {
start:
  %_1.dbg.spill = alloca {}, align 1
  %_2 = alloca { ptr, ptr }, align 8
  store ptr %0, ptr %_2, align 8
  %2 = getelementptr inbounds i8, ptr %_2, i64 8
  store ptr %1, ptr %2, align 8
  call void @llvm.dbg.declare(metadata ptr %_1.dbg.spill, metadata !1114, metadata !DIExpression()), !dbg !1123
  call void @llvm.dbg.declare(metadata ptr %_2, metadata !1115, metadata !DIExpression()), !dbg !1123
  %3 = load ptr, ptr %_2, align 8, !dbg !1123, !nonnull !13, !align !405, !noundef !13
  %4 = getelementptr inbounds i8, ptr %_2, i64 8, !dbg !1123
  %5 = load ptr, ptr %4, align 8, !dbg !1123, !nonnull !13, !align !405, !noundef !13
; call core::cmp::impls::<impl core::cmp::Ord for usize>::cmp
  %_0 = call i8 @"_ZN4core3cmp5impls50_$LT$impl$u20$core..cmp..Ord$u20$for$u20$usize$GT$3cmp17hbec2f485bf5eb370E"(ptr align 8 %3, ptr align 8 %5), !dbg !1123, !range !805
  ret i8 %_0, !dbg !1123
}

; core::ptr::read_unaligned
; Function Attrs: inlinehint uwtable
define i32 @_ZN4core3ptr14read_unaligned17hb3785d3e346022faE(ptr %src) unnamed_addr #0 !dbg !1124 {
start:
  %slot.dbg.spill = alloca i32, align 4
  %self.dbg.spill2 = alloca i32, align 4
  %count.dbg.spill = alloca i64, align 8
  %dst.dbg.spill = alloca ptr, align 8
  %self.dbg.spill = alloca ptr, align 8
  %src.dbg.spill1 = alloca ptr, align 8
  %src.dbg.spill = alloca ptr, align 8
  %tmp = alloca i32, align 4
  store ptr %src, ptr %src.dbg.spill, align 8
  call void @llvm.dbg.declare(metadata ptr %src.dbg.spill, metadata !1129, metadata !DIExpression()), !dbg !1142
  call void @llvm.dbg.declare(metadata ptr %tmp, metadata !1130, metadata !DIExpression()), !dbg !1143
  store ptr %src, ptr %src.dbg.spill1, align 8, !dbg !1144
  call void @llvm.dbg.declare(metadata ptr %src.dbg.spill1, metadata !1145, metadata !DIExpression()), !dbg !1154
  store ptr %tmp, ptr %self.dbg.spill, align 8, !dbg !1156
  call void @llvm.dbg.declare(metadata ptr %self.dbg.spill, metadata !1157, metadata !DIExpression()), !dbg !1167
  store ptr %tmp, ptr %dst.dbg.spill, align 8, !dbg !1156
  call void @llvm.dbg.declare(metadata ptr %dst.dbg.spill, metadata !1152, metadata !DIExpression()), !dbg !1169
  store i64 4, ptr %count.dbg.spill, align 8, !dbg !1170
  call void @llvm.dbg.declare(metadata ptr %count.dbg.spill, metadata !1153, metadata !DIExpression()), !dbg !1177
  br label %bb1, !dbg !1178

bb1:                                              ; preds = %start
; call core::intrinsics::copy_nonoverlapping::precondition_check
  call void @_ZN4core10intrinsics19copy_nonoverlapping18precondition_check17hb7962d37966a16a1E(ptr %src, ptr %tmp, i64 1, i64 1, i64 4) #14, !dbg !1178
  br label %bb2, !dbg !1178

bb2:                                              ; preds = %bb1
  call void @llvm.memcpy.p0.p0.i64(ptr align 1 %tmp, ptr align 1 %src, i64 4, i1 false), !dbg !1179
  %self = load i32, ptr %tmp, align 4, !dbg !1180
  store i32 %self, ptr %self.dbg.spill2, align 4, !dbg !1180
  call void @llvm.dbg.declare(metadata ptr %self.dbg.spill2, metadata !1181, metadata !DIExpression()), !dbg !1188
  store i32 %self, ptr %slot.dbg.spill, align 4, !dbg !1190
  call void @llvm.dbg.declare(metadata ptr %slot.dbg.spill, metadata !1191, metadata !DIExpression()), !dbg !1199
  ret i32 %self, !dbg !1201
}

; core::ptr::read_unaligned
; Function Attrs: inlinehint uwtable
define i16 @_ZN4core3ptr14read_unaligned17hc4b971a462cb5ddaE(ptr %src) unnamed_addr #0 !dbg !1202 {
start:
  %slot.dbg.spill = alloca i16, align 2
  %self.dbg.spill2 = alloca i16, align 2
  %count.dbg.spill = alloca i64, align 8
  %dst.dbg.spill = alloca ptr, align 8
  %self.dbg.spill = alloca ptr, align 8
  %src.dbg.spill1 = alloca ptr, align 8
  %src.dbg.spill = alloca ptr, align 8
  %tmp = alloca i16, align 2
  store ptr %src, ptr %src.dbg.spill, align 8
  call void @llvm.dbg.declare(metadata ptr %src.dbg.spill, metadata !1208, metadata !DIExpression()), !dbg !1220
  call void @llvm.dbg.declare(metadata ptr %tmp, metadata !1209, metadata !DIExpression()), !dbg !1221
  store ptr %src, ptr %src.dbg.spill1, align 8, !dbg !1222
  call void @llvm.dbg.declare(metadata ptr %src.dbg.spill1, metadata !1223, metadata !DIExpression()), !dbg !1229
  store ptr %tmp, ptr %self.dbg.spill, align 8, !dbg !1231
  call void @llvm.dbg.declare(metadata ptr %self.dbg.spill, metadata !1232, metadata !DIExpression()), !dbg !1241
  store ptr %tmp, ptr %dst.dbg.spill, align 8, !dbg !1231
  call void @llvm.dbg.declare(metadata ptr %dst.dbg.spill, metadata !1227, metadata !DIExpression()), !dbg !1243
  store i64 2, ptr %count.dbg.spill, align 8, !dbg !1244
  call void @llvm.dbg.declare(metadata ptr %count.dbg.spill, metadata !1228, metadata !DIExpression()), !dbg !1248
  br label %bb1, !dbg !1249

bb1:                                              ; preds = %start
; call core::intrinsics::copy_nonoverlapping::precondition_check
  call void @_ZN4core10intrinsics19copy_nonoverlapping18precondition_check17hb7962d37966a16a1E(ptr %src, ptr %tmp, i64 1, i64 1, i64 2) #14, !dbg !1249
  br label %bb2, !dbg !1249

bb2:                                              ; preds = %bb1
  call void @llvm.memcpy.p0.p0.i64(ptr align 1 %tmp, ptr align 1 %src, i64 2, i1 false), !dbg !1250
  %self = load i16, ptr %tmp, align 2, !dbg !1251
  store i16 %self, ptr %self.dbg.spill2, align 2, !dbg !1251
  call void @llvm.dbg.declare(metadata ptr %self.dbg.spill2, metadata !1252, metadata !DIExpression()), !dbg !1259
  store i16 %self, ptr %slot.dbg.spill, align 2, !dbg !1261
  call void @llvm.dbg.declare(metadata ptr %slot.dbg.spill, metadata !1262, metadata !DIExpression()), !dbg !1269
  ret i16 %self, !dbg !1271
}

; core::ptr::read_unaligned
; Function Attrs: inlinehint uwtable
define void @_ZN4core3ptr14read_unaligned17hce55aec571741c1eE(ptr sret(<16 x i8>) align 16 %_0, ptr %src) unnamed_addr #0 !dbg !1272 {
start:
  %slot.dbg.spill = alloca <16 x i8>, align 16
  %self.dbg.spill2 = alloca <16 x i8>, align 16
  %count.dbg.spill = alloca i64, align 8
  %dst.dbg.spill = alloca ptr, align 8
  %self.dbg.spill = alloca ptr, align 8
  %src.dbg.spill1 = alloca ptr, align 8
  %src.dbg.spill = alloca ptr, align 8
  %tmp = alloca <16 x i8>, align 16
  store ptr %src, ptr %src.dbg.spill, align 8
  call void @llvm.dbg.declare(metadata ptr %src.dbg.spill, metadata !1298, metadata !DIExpression()), !dbg !1310
  call void @llvm.dbg.declare(metadata ptr %tmp, metadata !1299, metadata !DIExpression()), !dbg !1311
  store ptr %src, ptr %src.dbg.spill1, align 8, !dbg !1312
  call void @llvm.dbg.declare(metadata ptr %src.dbg.spill1, metadata !1313, metadata !DIExpression()), !dbg !1319
  store ptr %tmp, ptr %self.dbg.spill, align 8, !dbg !1321
  call void @llvm.dbg.declare(metadata ptr %self.dbg.spill, metadata !1322, metadata !DIExpression()), !dbg !1331
  store ptr %tmp, ptr %dst.dbg.spill, align 8, !dbg !1321
  call void @llvm.dbg.declare(metadata ptr %dst.dbg.spill, metadata !1317, metadata !DIExpression()), !dbg !1333
  store i64 16, ptr %count.dbg.spill, align 8, !dbg !1334
  call void @llvm.dbg.declare(metadata ptr %count.dbg.spill, metadata !1318, metadata !DIExpression()), !dbg !1338
  br label %bb1, !dbg !1339

bb1:                                              ; preds = %start
; call core::intrinsics::copy_nonoverlapping::precondition_check
  call void @_ZN4core10intrinsics19copy_nonoverlapping18precondition_check17hb7962d37966a16a1E(ptr %src, ptr %tmp, i64 1, i64 1, i64 16) #14, !dbg !1339
  br label %bb2, !dbg !1339

bb2:                                              ; preds = %bb1
  call void @llvm.memcpy.p0.p0.i64(ptr align 1 %tmp, ptr align 1 %src, i64 16, i1 false), !dbg !1340
  %self = load <16 x i8>, ptr %tmp, align 16, !dbg !1341
  store <16 x i8> %self, ptr %self.dbg.spill2, align 16, !dbg !1341
  call void @llvm.dbg.declare(metadata ptr %self.dbg.spill2, metadata !1342, metadata !DIExpression()), !dbg !1349
  store <16 x i8> %self, ptr %slot.dbg.spill, align 16, !dbg !1351
  call void @llvm.dbg.declare(metadata ptr %slot.dbg.spill, metadata !1352, metadata !DIExpression()), !dbg !1359
  store <16 x i8> %self, ptr %_0, align 16, !dbg !1361
  ret void, !dbg !1362
}

; core::ptr::read_unaligned
; Function Attrs: inlinehint uwtable
define i64 @_ZN4core3ptr14read_unaligned17he060609332cec41bE(ptr %src) unnamed_addr #0 !dbg !1363 {
start:
  %slot.dbg.spill = alloca i64, align 8
  %self.dbg.spill2 = alloca i64, align 8
  %count.dbg.spill = alloca i64, align 8
  %dst.dbg.spill = alloca ptr, align 8
  %self.dbg.spill = alloca ptr, align 8
  %src.dbg.spill1 = alloca ptr, align 8
  %src.dbg.spill = alloca ptr, align 8
  %tmp = alloca i64, align 8
  store ptr %src, ptr %src.dbg.spill, align 8
  call void @llvm.dbg.declare(metadata ptr %src.dbg.spill, metadata !1368, metadata !DIExpression()), !dbg !1378
  call void @llvm.dbg.declare(metadata ptr %tmp, metadata !1369, metadata !DIExpression()), !dbg !1379
  store ptr %src, ptr %src.dbg.spill1, align 8, !dbg !1380
  call void @llvm.dbg.declare(metadata ptr %src.dbg.spill1, metadata !1381, metadata !DIExpression()), !dbg !1387
  store ptr %tmp, ptr %self.dbg.spill, align 8, !dbg !1389
  call void @llvm.dbg.declare(metadata ptr %self.dbg.spill, metadata !1390, metadata !DIExpression()), !dbg !1399
  store ptr %tmp, ptr %dst.dbg.spill, align 8, !dbg !1389
  call void @llvm.dbg.declare(metadata ptr %dst.dbg.spill, metadata !1385, metadata !DIExpression()), !dbg !1401
  store i64 8, ptr %count.dbg.spill, align 8, !dbg !1402
  call void @llvm.dbg.declare(metadata ptr %count.dbg.spill, metadata !1386, metadata !DIExpression()), !dbg !1406
  br label %bb1, !dbg !1407

bb1:                                              ; preds = %start
; call core::intrinsics::copy_nonoverlapping::precondition_check
  call void @_ZN4core10intrinsics19copy_nonoverlapping18precondition_check17hb7962d37966a16a1E(ptr %src, ptr %tmp, i64 1, i64 1, i64 8) #14, !dbg !1407
  br label %bb2, !dbg !1407

bb2:                                              ; preds = %bb1
  call void @llvm.memcpy.p0.p0.i64(ptr align 1 %tmp, ptr align 1 %src, i64 8, i1 false), !dbg !1408
  %self = load i64, ptr %tmp, align 8, !dbg !1409
  store i64 %self, ptr %self.dbg.spill2, align 8, !dbg !1409
  call void @llvm.dbg.declare(metadata ptr %self.dbg.spill2, metadata !1410, metadata !DIExpression()), !dbg !1417
  store i64 %self, ptr %slot.dbg.spill, align 8, !dbg !1419
  call void @llvm.dbg.declare(metadata ptr %slot.dbg.spill, metadata !1420, metadata !DIExpression()), !dbg !1427
  ret i64 %self, !dbg !1429
}

; core::ptr::drop_in_place<u8>
; Function Attrs: inlinehint uwtable
define internal void @"_ZN4core3ptr23drop_in_place$LT$u8$GT$17h9957043e0cecaccdE"(ptr align 1 %_1) unnamed_addr #0 !dbg !1430 {
start:
  %_1.dbg.spill = alloca ptr, align 8
  store ptr %_1, ptr %_1.dbg.spill, align 8
  call void @llvm.dbg.declare(metadata ptr %_1.dbg.spill, metadata !1434, metadata !DIExpression()), !dbg !1435
  ret void, !dbg !1435
}

; core::ptr::drop_in_place<&str>
; Function Attrs: inlinehint uwtable
define internal void @"_ZN4core3ptr28drop_in_place$LT$$RF$str$GT$17h0209312f1ece60dfE"(ptr align 8 %_1) unnamed_addr #0 !dbg !1436 {
start:
  %_1.dbg.spill = alloca ptr, align 8
  store ptr %_1, ptr %_1.dbg.spill, align 8
  call void @llvm.dbg.declare(metadata ptr %_1.dbg.spill, metadata !1441, metadata !DIExpression()), !dbg !1444
  ret void, !dbg !1444
}

; core::ptr::drop_in_place<&u32>
; Function Attrs: inlinehint uwtable
define internal void @"_ZN4core3ptr28drop_in_place$LT$$RF$u32$GT$17hf7e18d228c628f86E"(ptr align 8 %_1) unnamed_addr #0 !dbg !1445 {
start:
  %_1.dbg.spill = alloca ptr, align 8
  store ptr %_1, ptr %_1.dbg.spill, align 8
  call void @llvm.dbg.declare(metadata ptr %_1.dbg.spill, metadata !1450, metadata !DIExpression()), !dbg !1453
  ret void, !dbg !1453
}

; core::ptr::drop_in_place<&usize>
; Function Attrs: inlinehint uwtable
define internal void @"_ZN4core3ptr30drop_in_place$LT$$RF$usize$GT$17h88c00010659db5deE"(ptr align 8 %_1) unnamed_addr #0 !dbg !1454 {
start:
  %_1.dbg.spill = alloca ptr, align 8
  store ptr %_1, ptr %_1.dbg.spill, align 8
  call void @llvm.dbg.declare(metadata ptr %_1.dbg.spill, metadata !1459, metadata !DIExpression()), !dbg !1462
  ret void, !dbg !1462
}

; core::ptr::drop_in_place<memchr::arch::all::rabinkarp::Hash>
; Function Attrs: inlinehint uwtable
define internal void @"_ZN4core3ptr55drop_in_place$LT$memchr..arch..all..rabinkarp..Hash$GT$17ha7940607d0571244E"(ptr align 4 %_1) unnamed_addr #0 !dbg !1463 {
start:
  %_1.dbg.spill = alloca ptr, align 8
  store ptr %_1, ptr %_1.dbg.spill, align 8
  call void @llvm.dbg.declare(metadata ptr %_1.dbg.spill, metadata !1468, metadata !DIExpression()), !dbg !1471
  ret void, !dbg !1471
}

; core::ptr::drop_in_place<memchr::arch::all::rabinkarp::Finder>
; Function Attrs: inlinehint uwtable
define internal void @"_ZN4core3ptr57drop_in_place$LT$memchr..arch..all..rabinkarp..Finder$GT$17ha84343a8696c9f78E"(ptr align 4 %_1) unnamed_addr #0 !dbg !1472 {
start:
  %_1.dbg.spill = alloca ptr, align 8
  store ptr %_1, ptr %_1.dbg.spill, align 8
  call void @llvm.dbg.declare(metadata ptr %_1.dbg.spill, metadata !1477, metadata !DIExpression()), !dbg !1480
  ret void, !dbg !1480
}

; core::ptr::const_ptr::<impl *const T>::offset_from
; Function Attrs: inlinehint uwtable
define i64 @"_ZN4core3ptr9const_ptr33_$LT$impl$u20$$BP$const$u20$T$GT$11offset_from17h0b196f0ffc1c261dE"(ptr %self, ptr %origin) unnamed_addr #0 !dbg !1481 {
start:
  %0 = alloca i64, align 8
  %pointee_size.dbg.spill = alloca i64, align 8
  %origin.dbg.spill = alloca ptr, align 8
  %self.dbg.spill = alloca ptr, align 8
  store ptr %self, ptr %self.dbg.spill, align 8
  call void @llvm.dbg.declare(metadata ptr %self.dbg.spill, metadata !1486, metadata !DIExpression()), !dbg !1490
  store ptr %origin, ptr %origin.dbg.spill, align 8
  call void @llvm.dbg.declare(metadata ptr %origin.dbg.spill, metadata !1487, metadata !DIExpression()), !dbg !1491
  store i64 1, ptr %pointee_size.dbg.spill, align 8, !dbg !1492
  call void @llvm.dbg.declare(metadata ptr %pointee_size.dbg.spill, metadata !1488, metadata !DIExpression()), !dbg !1496
  br label %bb1, !dbg !1497

bb1:                                              ; preds = %start
  br label %bb2, !dbg !1498

bb2:                                              ; preds = %bb1
  %1 = ptrtoint ptr %self to i64, !dbg !1499
  %2 = ptrtoint ptr %origin to i64, !dbg !1499
  %3 = sub i64 %1, %2, !dbg !1499
  %4 = sdiv exact i64 %3, 1, !dbg !1499
  store i64 %4, ptr %0, align 8, !dbg !1499
  %_0 = load i64, ptr %0, align 8, !dbg !1499, !noundef !13
  ret i64 %_0, !dbg !1500

bb3:                                              ; No predecessors!
; call core::panicking::panic
  call void @_ZN4core9panicking5panic17h5884aad3a9044857E(ptr align 1 @alloc_ec595fc0e82ef92fc59bd74f68296eae, i64 73, ptr align 8 @alloc_a0e61a1e27d0492d8a5ee70454b95870) #12, !dbg !1501
  unreachable, !dbg !1501
}

; core::ptr::const_ptr::<impl *const T>::read_unaligned
; Function Attrs: inlinehint uwtable
define i32 @"_ZN4core3ptr9const_ptr33_$LT$impl$u20$$BP$const$u20$T$GT$14read_unaligned17h6af44b074471a40dE"(ptr %self) unnamed_addr #0 !dbg !1502 {
start:
  %self.dbg.spill = alloca ptr, align 8
  store ptr %self, ptr %self.dbg.spill, align 8
  call void @llvm.dbg.declare(metadata ptr %self.dbg.spill, metadata !1504, metadata !DIExpression()), !dbg !1505
; call core::ptr::read_unaligned
  %_0 = call i32 @_ZN4core3ptr14read_unaligned17hb3785d3e346022faE(ptr %self), !dbg !1506
  ret i32 %_0, !dbg !1507
}

; core::ptr::const_ptr::<impl *const T>::read_unaligned
; Function Attrs: inlinehint uwtable
define i64 @"_ZN4core3ptr9const_ptr33_$LT$impl$u20$$BP$const$u20$T$GT$14read_unaligned17h808757ae47edb394E"(ptr %self) unnamed_addr #0 !dbg !1508 {
start:
  %self.dbg.spill = alloca ptr, align 8
  store ptr %self, ptr %self.dbg.spill, align 8
  call void @llvm.dbg.declare(metadata ptr %self.dbg.spill, metadata !1510, metadata !DIExpression()), !dbg !1511
; call core::ptr::read_unaligned
  %_0 = call i64 @_ZN4core3ptr14read_unaligned17he060609332cec41bE(ptr %self), !dbg !1512
  ret i64 %_0, !dbg !1513
}

; core::ptr::const_ptr::<impl *const T>::read_unaligned
; Function Attrs: inlinehint uwtable
define i16 @"_ZN4core3ptr9const_ptr33_$LT$impl$u20$$BP$const$u20$T$GT$14read_unaligned17h9c5b9e4d42c910b6E"(ptr %self) unnamed_addr #0 !dbg !1514 {
start:
  %self.dbg.spill = alloca ptr, align 8
  store ptr %self, ptr %self.dbg.spill, align 8
  call void @llvm.dbg.declare(metadata ptr %self.dbg.spill, metadata !1516, metadata !DIExpression()), !dbg !1517
; call core::ptr::read_unaligned
  %_0 = call i16 @_ZN4core3ptr14read_unaligned17hc4b971a462cb5ddaE(ptr %self), !dbg !1518
  ret i16 %_0, !dbg !1519
}

; core::ptr::const_ptr::<impl *const T>::read
; Function Attrs: inlinehint uwtable
define i8 @"_ZN4core3ptr9const_ptr33_$LT$impl$u20$$BP$const$u20$T$GT$4read17h34f943f1f1f9d3c7E"(ptr %self) unnamed_addr #0 !dbg !1520 {
start:
  %self.dbg.spill = alloca ptr, align 8
  store ptr %self, ptr %self.dbg.spill, align 8
  call void @llvm.dbg.declare(metadata ptr %self.dbg.spill, metadata !1524, metadata !DIExpression()), !dbg !1525
  call void @llvm.dbg.declare(metadata ptr %self.dbg.spill, metadata !1526, metadata !DIExpression()), !dbg !1530
  %_0 = load i8, ptr %self, align 1, !dbg !1532, !noundef !13
  ret i8 %_0, !dbg !1533
}

; core::ptr::const_ptr::<impl *const T>::read
; Function Attrs: inlinehint uwtable
define i64 @"_ZN4core3ptr9const_ptr33_$LT$impl$u20$$BP$const$u20$T$GT$4read17he0afa69e42a07265E"(ptr %self) unnamed_addr #0 !dbg !1534 {
start:
  %self.dbg.spill = alloca ptr, align 8
  store ptr %self, ptr %self.dbg.spill, align 8
  call void @llvm.dbg.declare(metadata ptr %self.dbg.spill, metadata !1536, metadata !DIExpression()), !dbg !1537
  call void @llvm.dbg.declare(metadata ptr %self.dbg.spill, metadata !1538, metadata !DIExpression()), !dbg !1542
  %_0 = load i64, ptr %self, align 8, !dbg !1544, !noundef !13
  ret i64 %_0, !dbg !1545
}

; core::hint::unreachable_unchecked::precondition_check
; Function Attrs: inlinehint nounwind uwtable
define internal void @_ZN4core4hint21unreachable_unchecked18precondition_check17h9c3005c1bafa8e5eE() unnamed_addr #2 !dbg !1546 {
start:
; call core::panicking::panic_nounwind
  call void @_ZN4core9panicking14panic_nounwind17h50c31e15afde233eE(ptr align 1 @alloc_1eb6f53a157dccb32488e066ad957e6d, i64 82) #11, !dbg !1551
  unreachable, !dbg !1551
}

; core::iter::range::<impl core::iter::traits::double_ended::DoubleEndedIterator for core::ops::range::Range<A>>::next_back
; Function Attrs: inlinehint uwtable
define { i64, i64 } @"_ZN4core4iter5range116_$LT$impl$u20$core..iter..traits..double_ended..DoubleEndedIterator$u20$for$u20$core..ops..range..Range$LT$A$GT$$GT$9next_back17h8156c6861769ced9E"(ptr align 8 %self) unnamed_addr #0 !dbg !1552 {
start:
  %self.dbg.spill = alloca ptr, align 8
  store ptr %self, ptr %self.dbg.spill, align 8
  call void @llvm.dbg.declare(metadata ptr %self.dbg.spill, metadata !1558, metadata !DIExpression()), !dbg !1561
; call <core::ops::range::Range<T> as core::iter::range::RangeIteratorImpl>::spec_next_back
  %0 = call { i64, i64 } @"_ZN89_$LT$core..ops..range..Range$LT$T$GT$$u20$as$u20$core..iter..range..RangeIteratorImpl$GT$14spec_next_back17h17cdedcc5f8edccbE"(ptr align 8 %self), !dbg !1562
  %_0.0 = extractvalue { i64, i64 } %0, 0, !dbg !1562
  %_0.1 = extractvalue { i64, i64 } %0, 1, !dbg !1562
  %1 = insertvalue { i64, i64 } poison, i64 %_0.0, 0, !dbg !1563
  %2 = insertvalue { i64, i64 } %1, i64 %_0.1, 1, !dbg !1563
  ret { i64, i64 } %2, !dbg !1563
}

; core::iter::traits::iterator::Iterator::rev
; Function Attrs: inlinehint uwtable
define { i64, i64 } @_ZN4core4iter6traits8iterator8Iterator3rev17h352d53c6449211ebE(i64 %self.0, i64 %self.1) unnamed_addr #0 !dbg !1564 {
start:
  %self.dbg.spill = alloca %"core::ops::range::Range<usize>", align 8
  %_0 = alloca %"core::iter::adapters::rev::Rev<core::ops::range::Range<usize>>", align 8
  store i64 %self.0, ptr %self.dbg.spill, align 8
  %0 = getelementptr inbounds i8, ptr %self.dbg.spill, i64 8
  store i64 %self.1, ptr %0, align 8
  call void @llvm.dbg.declare(metadata ptr %self.dbg.spill, metadata !1579, metadata !DIExpression()), !dbg !1582
  call void @llvm.dbg.declare(metadata ptr %self.dbg.spill, metadata !1583, metadata !DIExpression()), !dbg !1589
  store i64 %self.0, ptr %_0, align 8, !dbg !1591
  %1 = getelementptr inbounds i8, ptr %_0, i64 8, !dbg !1591
  store i64 %self.1, ptr %1, align 8, !dbg !1591
  %2 = load i64, ptr %_0, align 8, !dbg !1592, !noundef !13
  %3 = getelementptr inbounds i8, ptr %_0, i64 8, !dbg !1592
  %4 = load i64, ptr %3, align 8, !dbg !1592, !noundef !13
  %5 = insertvalue { i64, i64 } poison, i64 %2, 0, !dbg !1592
  %6 = insertvalue { i64, i64 } %5, i64 %4, 1, !dbg !1592
  ret { i64, i64 } %6, !dbg !1592
}

; core::slice::<impl [T]>::split_at_unchecked
; Function Attrs: inlinehint uwtable
define void @"_ZN4core5slice29_$LT$impl$u20$$u5b$T$u5d$$GT$18split_at_unchecked17hf8f6374fbe37cf6bE"(ptr sret({ { ptr, i64 }, { ptr, i64 } }) align 8 %_0, ptr align 1 %self.0, i64 %self.1, i64 %mid) unnamed_addr #0 !dbg !1593 {
start:
  %data_pointer.dbg.spill = alloca ptr, align 8
  %ptr.dbg.spill = alloca ptr, align 8
  %len.dbg.spill = alloca i64, align 8
  %mid.dbg.spill = alloca i64, align 8
  %self.dbg.spill = alloca { ptr, i64 }, align 8
  %_30 = alloca %"core::ptr::metadata::PtrComponents<[u8]>", align 8
  %_29 = alloca %"core::ptr::metadata::PtrRepr<[u8]>", align 8
  %_22 = alloca %"core::ptr::metadata::PtrComponents<[u8]>", align 8
  %_21 = alloca %"core::ptr::metadata::PtrRepr<[u8]>", align 8
  %data_pointer = alloca ptr, align 8
  %_19 = alloca { ptr, i64 }, align 8
  %_18 = alloca i64, align 8
  %_17 = alloca i64, align 8
  %_16 = alloca ptr, align 8
  %len1 = alloca i64, align 8
  %count = alloca i64, align 8
  %data = alloca ptr, align 8
  %len = alloca i64, align 8
  %_8 = alloca { ptr, i64 }, align 8
  store ptr %self.0, ptr %self.dbg.spill, align 8
  %0 = getelementptr inbounds i8, ptr %self.dbg.spill, i64 8
  store i64 %self.1, ptr %0, align 8
  call void @llvm.dbg.declare(metadata ptr %self.dbg.spill, metadata !1603, metadata !DIExpression()), !dbg !1609
  call void @llvm.dbg.declare(metadata ptr %self.dbg.spill, metadata !1610, metadata !DIExpression()), !dbg !1616
  store i64 %mid, ptr %mid.dbg.spill, align 8
  call void @llvm.dbg.declare(metadata ptr %mid.dbg.spill, metadata !1604, metadata !DIExpression()), !dbg !1618
  call void @llvm.dbg.declare(metadata ptr %len, metadata !1619, metadata !DIExpression()), !dbg !1631
  call void @llvm.dbg.declare(metadata ptr %len, metadata !1633, metadata !DIExpression()), !dbg !1641
  call void @llvm.dbg.declare(metadata ptr %len, metadata !1643, metadata !DIExpression()), !dbg !1651
  call void @llvm.dbg.declare(metadata ptr %data, metadata !1628, metadata !DIExpression()), !dbg !1653
  call void @llvm.dbg.declare(metadata ptr %data, metadata !1638, metadata !DIExpression()), !dbg !1655
  call void @llvm.dbg.declare(metadata ptr %data, metadata !1657, metadata !DIExpression()), !dbg !1663
  call void @llvm.dbg.declare(metadata ptr %count, metadata !1665, metadata !DIExpression()), !dbg !1670
  call void @llvm.dbg.declare(metadata ptr %len1, metadata !1630, metadata !DIExpression()), !dbg !1672
  call void @llvm.dbg.declare(metadata ptr %len1, metadata !1640, metadata !DIExpression()), !dbg !1673
  call void @llvm.dbg.declare(metadata ptr %len1, metadata !1650, metadata !DIExpression()), !dbg !1674
  call void @llvm.dbg.declare(metadata ptr %data_pointer, metadata !1647, metadata !DIExpression()), !dbg !1676
  store i64 %self.1, ptr %len.dbg.spill, align 8, !dbg !1677
  call void @llvm.dbg.declare(metadata ptr %len.dbg.spill, metadata !1605, metadata !DIExpression()), !dbg !1678
  store ptr %self.0, ptr %ptr.dbg.spill, align 8, !dbg !1679
  call void @llvm.dbg.declare(metadata ptr %ptr.dbg.spill, metadata !1607, metadata !DIExpression()), !dbg !1680
  call void @llvm.dbg.declare(metadata ptr %ptr.dbg.spill, metadata !1627, metadata !DIExpression()), !dbg !1681
  call void @llvm.dbg.declare(metadata ptr %ptr.dbg.spill, metadata !1637, metadata !DIExpression()), !dbg !1682
  call void @llvm.dbg.declare(metadata ptr %ptr.dbg.spill, metadata !1661, metadata !DIExpression()), !dbg !1683
  call void @llvm.dbg.declare(metadata ptr %ptr.dbg.spill, metadata !1669, metadata !DIExpression()), !dbg !1685
  br label %bb1, !dbg !1686

bb1:                                              ; preds = %start
  %_6 = icmp ule i64 %mid, %self.1, !dbg !1687
  br i1 %_6, label %bb2, label %bb3, !dbg !1687

bb4:                                              ; No predecessors!
  store i64 %mid, ptr %len, align 8, !dbg !1688
  br label %bb5, !dbg !1689

bb5:                                              ; preds = %bb4
  store ptr %self.0, ptr %_16, align 8, !dbg !1690
  store i64 1, ptr %_17, align 8, !dbg !1691
  store i64 1, ptr %_18, align 8, !dbg !1695
  %1 = load ptr, ptr %_16, align 8, !dbg !1689, !noundef !13
  %2 = load i64, ptr %_17, align 8, !dbg !1689, !noundef !13
  %3 = load i64, ptr %_18, align 8, !dbg !1689, !noundef !13
; call core::slice::raw::from_raw_parts::precondition_check
  call void @_ZN4core5slice3raw14from_raw_parts18precondition_check17hb3de2c2b5f8d6f4eE(ptr %1, i64 %2, i64 %3, i64 %mid) #14, !dbg !1689
  store ptr %self.0, ptr %data_pointer, align 8, !dbg !1699
  %4 = load ptr, ptr %data_pointer, align 8, !dbg !1700, !noundef !13
  store ptr %4, ptr %_22, align 8, !dbg !1700
  %5 = getelementptr inbounds i8, ptr %_22, i64 8, !dbg !1700
  store i64 %mid, ptr %5, align 8, !dbg !1700
  %6 = load ptr, ptr %_22, align 8, !dbg !1701, !noundef !13
  %7 = getelementptr inbounds i8, ptr %_22, i64 8, !dbg !1701
  %8 = load i64, ptr %7, align 8, !dbg !1701, !noundef !13
  store ptr %6, ptr %_21, align 8, !dbg !1701
  %9 = getelementptr inbounds i8, ptr %_21, i64 8, !dbg !1701
  store i64 %8, ptr %9, align 8, !dbg !1701
  %10 = load ptr, ptr %_21, align 8, !dbg !1701, !noundef !13
  %11 = getelementptr inbounds i8, ptr %_21, i64 8, !dbg !1701
  %12 = load i64, ptr %11, align 8, !dbg !1701, !noundef !13
  store ptr %10, ptr %_19, align 8, !dbg !1701
  %13 = getelementptr inbounds i8, ptr %_19, i64 8, !dbg !1701
  store i64 %12, ptr %13, align 8, !dbg !1701
  %14 = load ptr, ptr %_19, align 8, !dbg !1632, !noundef !13
  %15 = getelementptr inbounds i8, ptr %_19, i64 8, !dbg !1632
  %16 = load i64, ptr %15, align 8, !dbg !1632, !noundef !13
  store ptr %14, ptr %_8, align 8, !dbg !1632
  %17 = getelementptr inbounds i8, ptr %_8, i64 8, !dbg !1632
  store i64 %16, ptr %17, align 8, !dbg !1632
  store i64 %mid, ptr %count, align 8, !dbg !1702
  %18 = getelementptr inbounds i8, ptr %self.0, i64 %mid, !dbg !1703
  store ptr %18, ptr %data, align 8, !dbg !1703
  %19 = sub i64 %self.1, %mid, !dbg !1704
  store i64 %19, ptr %len1, align 8, !dbg !1704
  br label %bb7, !dbg !1705

bb6:                                              ; No predecessors!
  store ptr %self.0, ptr %data_pointer, align 8, !dbg !1699
  %20 = load ptr, ptr %data_pointer, align 8, !dbg !1700, !noundef !13
  store ptr %20, ptr %_22, align 8, !dbg !1700
  %21 = getelementptr inbounds i8, ptr %_22, i64 8, !dbg !1700
  store i64 %mid, ptr %21, align 8, !dbg !1700
  %22 = load ptr, ptr %_22, align 8, !dbg !1701, !noundef !13
  %23 = getelementptr inbounds i8, ptr %_22, i64 8, !dbg !1701
  %24 = load i64, ptr %23, align 8, !dbg !1701, !noundef !13
  store ptr %22, ptr %_21, align 8, !dbg !1701
  %25 = getelementptr inbounds i8, ptr %_21, i64 8, !dbg !1701
  store i64 %24, ptr %25, align 8, !dbg !1701
  %26 = load ptr, ptr %_21, align 8, !dbg !1701, !noundef !13
  %27 = getelementptr inbounds i8, ptr %_21, i64 8, !dbg !1701
  %28 = load i64, ptr %27, align 8, !dbg !1701, !noundef !13
  store ptr %26, ptr %_19, align 8, !dbg !1701
  %29 = getelementptr inbounds i8, ptr %_19, i64 8, !dbg !1701
  store i64 %28, ptr %29, align 8, !dbg !1701
  %30 = load ptr, ptr %_19, align 8, !dbg !1632, !noundef !13
  %31 = getelementptr inbounds i8, ptr %_19, i64 8, !dbg !1632
  %32 = load i64, ptr %31, align 8, !dbg !1632, !noundef !13
  store ptr %30, ptr %_8, align 8, !dbg !1632
  %33 = getelementptr inbounds i8, ptr %_8, i64 8, !dbg !1632
  store i64 %32, ptr %33, align 8, !dbg !1632
  store i64 %mid, ptr %count, align 8, !dbg !1702
  %34 = getelementptr inbounds i8, ptr %self.0, i64 %mid, !dbg !1703
  store ptr %34, ptr %data, align 8, !dbg !1703
  %35 = sub i64 %self.1, %mid, !dbg !1704
  store i64 %35, ptr %len1, align 8, !dbg !1704
  br label %bb7, !dbg !1705

bb7:                                              ; preds = %bb2, %bb5, %bb6
  %_24 = load ptr, ptr %data, align 8, !dbg !1706, !noundef !13
  %36 = load i64, ptr %len1, align 8, !dbg !1705, !noundef !13
; call core::slice::raw::from_raw_parts::precondition_check
  call void @_ZN4core5slice3raw14from_raw_parts18precondition_check17hb3de2c2b5f8d6f4eE(ptr %_24, i64 1, i64 1, i64 %36) #14, !dbg !1705
  br label %bb8, !dbg !1705

bb3:                                              ; preds = %bb1
; call core::panicking::panic_nounwind
  call void @_ZN4core9panicking14panic_nounwind17h50c31e15afde233eE(ptr align 1 @alloc_584baff3633a9fd987857f744de1d20e, i64 67) #11, !dbg !1686
  unreachable, !dbg !1686

bb2:                                              ; preds = %bb1
  store i64 %mid, ptr %len, align 8, !dbg !1688
  store ptr %self.0, ptr %_16, align 8, !dbg !1690
  store i64 1, ptr %_17, align 8, !dbg !1691
  store i64 1, ptr %_18, align 8, !dbg !1695
  %37 = load ptr, ptr %_16, align 8, !dbg !1689, !noundef !13
  %38 = load i64, ptr %_17, align 8, !dbg !1689, !noundef !13
  %39 = load i64, ptr %_18, align 8, !dbg !1689, !noundef !13
; call core::slice::raw::from_raw_parts::precondition_check
  call void @_ZN4core5slice3raw14from_raw_parts18precondition_check17hb3de2c2b5f8d6f4eE(ptr %37, i64 %38, i64 %39, i64 %mid) #14, !dbg !1689
  store ptr %self.0, ptr %data_pointer, align 8, !dbg !1699
  %40 = load ptr, ptr %data_pointer, align 8, !dbg !1700, !noundef !13
  store ptr %40, ptr %_22, align 8, !dbg !1700
  %41 = getelementptr inbounds i8, ptr %_22, i64 8, !dbg !1700
  store i64 %mid, ptr %41, align 8, !dbg !1700
  %42 = load ptr, ptr %_22, align 8, !dbg !1701, !noundef !13
  %43 = getelementptr inbounds i8, ptr %_22, i64 8, !dbg !1701
  %44 = load i64, ptr %43, align 8, !dbg !1701, !noundef !13
  store ptr %42, ptr %_21, align 8, !dbg !1701
  %45 = getelementptr inbounds i8, ptr %_21, i64 8, !dbg !1701
  store i64 %44, ptr %45, align 8, !dbg !1701
  %46 = load ptr, ptr %_21, align 8, !dbg !1701, !noundef !13
  %47 = getelementptr inbounds i8, ptr %_21, i64 8, !dbg !1701
  %48 = load i64, ptr %47, align 8, !dbg !1701, !noundef !13
  store ptr %46, ptr %_19, align 8, !dbg !1701
  %49 = getelementptr inbounds i8, ptr %_19, i64 8, !dbg !1701
  store i64 %48, ptr %49, align 8, !dbg !1701
  %50 = load ptr, ptr %_19, align 8, !dbg !1632, !noundef !13
  %51 = getelementptr inbounds i8, ptr %_19, i64 8, !dbg !1632
  %52 = load i64, ptr %51, align 8, !dbg !1632, !noundef !13
  store ptr %50, ptr %_8, align 8, !dbg !1632
  %53 = getelementptr inbounds i8, ptr %_8, i64 8, !dbg !1632
  store i64 %52, ptr %53, align 8, !dbg !1632
  store i64 %mid, ptr %count, align 8, !dbg !1702
  %54 = getelementptr inbounds i8, ptr %self.0, i64 %mid, !dbg !1703
  store ptr %54, ptr %data, align 8, !dbg !1703
  %55 = sub i64 %self.1, %mid, !dbg !1704
  store i64 %55, ptr %len1, align 8, !dbg !1704
  br label %bb7, !dbg !1705

bb8:                                              ; preds = %bb7
  %data_pointer2 = load ptr, ptr %data, align 8, !dbg !1707, !noundef !13
  store ptr %data_pointer2, ptr %data_pointer.dbg.spill, align 8, !dbg !1707
  call void @llvm.dbg.declare(metadata ptr %data_pointer.dbg.spill, metadata !1648, metadata !DIExpression()), !dbg !1708
  store ptr %data_pointer2, ptr %_30, align 8, !dbg !1709
  %56 = load i64, ptr %len1, align 8, !dbg !1709, !noundef !13
  %57 = getelementptr inbounds i8, ptr %_30, i64 8, !dbg !1709
  store i64 %56, ptr %57, align 8, !dbg !1709
  %58 = load ptr, ptr %_30, align 8, !dbg !1710, !noundef !13
  %59 = getelementptr inbounds i8, ptr %_30, i64 8, !dbg !1710
  %60 = load i64, ptr %59, align 8, !dbg !1710, !noundef !13
  store ptr %58, ptr %_29, align 8, !dbg !1710
  %61 = getelementptr inbounds i8, ptr %_29, i64 8, !dbg !1710
  store i64 %60, ptr %61, align 8, !dbg !1710
  %_27.0 = load ptr, ptr %_29, align 8, !dbg !1710, !noundef !13
  %62 = getelementptr inbounds i8, ptr %_29, i64 8, !dbg !1710
  %_27.1 = load i64, ptr %62, align 8, !dbg !1710, !noundef !13
  %63 = load ptr, ptr %_8, align 8, !dbg !1711, !nonnull !13, !align !268, !noundef !13
  %64 = getelementptr inbounds i8, ptr %_8, i64 8, !dbg !1711
  %65 = load i64, ptr %64, align 8, !dbg !1711, !noundef !13
  store ptr %63, ptr %_0, align 8, !dbg !1711
  %66 = getelementptr inbounds i8, ptr %_0, i64 8, !dbg !1711
  store i64 %65, ptr %66, align 8, !dbg !1711
  %67 = getelementptr inbounds i8, ptr %_0, i64 16, !dbg !1711
  store ptr %_27.0, ptr %67, align 8, !dbg !1711
  %68 = getelementptr inbounds i8, ptr %67, i64 8, !dbg !1711
  store i64 %_27.1, ptr %68, align 8, !dbg !1711
  ret void, !dbg !1712
}

; core::slice::<impl [T]>::get
; Function Attrs: inlinehint uwtable
define align 1 ptr @"_ZN4core5slice29_$LT$impl$u20$$u5b$T$u5d$$GT$3get17h6afacc75b1cf6d8aE"(ptr align 1 %self.0, i64 %self.1, i64 %index) unnamed_addr #0 !dbg !1713 {
start:
  %index.dbg.spill = alloca i64, align 8
  %self.dbg.spill = alloca { ptr, i64 }, align 8
  store ptr %self.0, ptr %self.dbg.spill, align 8
  %0 = getelementptr inbounds i8, ptr %self.dbg.spill, i64 8
  store i64 %self.1, ptr %0, align 8
  call void @llvm.dbg.declare(metadata ptr %self.dbg.spill, metadata !1730, metadata !DIExpression()), !dbg !1734
  store i64 %index, ptr %index.dbg.spill, align 8
  call void @llvm.dbg.declare(metadata ptr %index.dbg.spill, metadata !1731, metadata !DIExpression()), !dbg !1735
; call <usize as core::slice::index::SliceIndex<[T]>>::get
  %_0 = call align 1 ptr @"_ZN75_$LT$usize$u20$as$u20$core..slice..index..SliceIndex$LT$$u5b$T$u5d$$GT$$GT$3get17ha0d173f951920e06E"(i64 %index, ptr align 1 %self.0, i64 %self.1), !dbg !1736
  ret ptr %_0, !dbg !1737
}

; core::slice::<impl [T]>::get
; Function Attrs: inlinehint uwtable
define { ptr, i64 } @"_ZN4core5slice29_$LT$impl$u20$$u5b$T$u5d$$GT$3get17h8caa834659f5c49cE"(ptr align 1 %self.0, i64 %self.1, i64 %index) unnamed_addr #0 !dbg !1738 {
start:
  %index.dbg.spill = alloca i64, align 8
  %self.dbg.spill = alloca { ptr, i64 }, align 8
  store ptr %self.0, ptr %self.dbg.spill, align 8
  %0 = getelementptr inbounds i8, ptr %self.dbg.spill, i64 8
  store i64 %self.1, ptr %0, align 8
  call void @llvm.dbg.declare(metadata ptr %self.dbg.spill, metadata !1742, metadata !DIExpression()), !dbg !1746
  store i64 %index, ptr %index.dbg.spill, align 8
  call void @llvm.dbg.declare(metadata ptr %index.dbg.spill, metadata !1743, metadata !DIExpression()), !dbg !1747
; call <core::ops::range::RangeFrom<usize> as core::slice::index::SliceIndex<[T]>>::get
  %1 = call { ptr, i64 } @"_ZN110_$LT$core..ops..range..RangeFrom$LT$usize$GT$$u20$as$u20$core..slice..index..SliceIndex$LT$$u5b$T$u5d$$GT$$GT$3get17hf3f0402e8acbe929E"(i64 %index, ptr align 1 %self.0, i64 %self.1), !dbg !1748
  %_0.0 = extractvalue { ptr, i64 } %1, 0, !dbg !1748
  %_0.1 = extractvalue { ptr, i64 } %1, 1, !dbg !1748
  %2 = insertvalue { ptr, i64 } poison, ptr %_0.0, 0, !dbg !1749
  %3 = insertvalue { ptr, i64 } %2, i64 %_0.1, 1, !dbg !1749
  ret { ptr, i64 } %3, !dbg !1749
}

; core::slice::<impl [T]>::split_at
; Function Attrs: inlinehint uwtable
define void @"_ZN4core5slice29_$LT$impl$u20$$u5b$T$u5d$$GT$8split_at17he1a3c2c6a2c7f4b1E"(ptr sret({ { ptr, i64 }, { ptr, i64 } }) align 8 %pair, ptr align 1 %self.0, i64 %self.1, i64 %mid, ptr align 8 %0) unnamed_addr #0 !dbg !1750 {
start:
  %pieces.dbg.spill = alloca { ptr, i64 }, align 8
  %mid.dbg.spill = alloca i64, align 8
  %self.dbg.spill = alloca { ptr, i64 }, align 8
  %_9 = alloca { { ptr, i64 }, { ptr, i64 } }, align 8
  %_5 = alloca %"core::fmt::Arguments<'_>", align 8
  %_3 = alloca %"core::option::Option<(&[u8], &[u8])>", align 8
  call void @llvm.dbg.declare(metadata ptr %pair, metadata !1756, metadata !DIExpression()), !dbg !1758
  store ptr %self.0, ptr %self.dbg.spill, align 8
  %1 = getelementptr inbounds i8, ptr %self.dbg.spill, i64 8
  store i64 %self.1, ptr %1, align 8
  call void @llvm.dbg.declare(metadata ptr %self.dbg.spill, metadata !1754, metadata !DIExpression()), !dbg !1759
  call void @llvm.dbg.declare(metadata ptr %self.dbg.spill, metadata !1760, metadata !DIExpression()), !dbg !1780
  store i64 %mid, ptr %mid.dbg.spill, align 8
  call void @llvm.dbg.declare(metadata ptr %mid.dbg.spill, metadata !1755, metadata !DIExpression()), !dbg !1782
  call void @llvm.dbg.declare(metadata ptr %mid.dbg.spill, metadata !1779, metadata !DIExpression()), !dbg !1783
  %_7 = icmp ule i64 %mid, %self.1, !dbg !1784
  br i1 %_7, label %bb1, label %bb3, !dbg !1784

bb3:                                              ; preds = %start
  store ptr @alloc_2b3e40161faa82f936e1f97ea2aea002, ptr %pieces.dbg.spill, align 8, !dbg !1785
  %2 = getelementptr inbounds i8, ptr %pieces.dbg.spill, i64 8, !dbg !1785
  store i64 1, ptr %2, align 8, !dbg !1785
  call void @llvm.dbg.declare(metadata ptr %pieces.dbg.spill, metadata !1786, metadata !DIExpression()), !dbg !1790
  store ptr @alloc_2b3e40161faa82f936e1f97ea2aea002, ptr %_5, align 8, !dbg !1793
  %3 = getelementptr inbounds i8, ptr %_5, i64 8, !dbg !1793
  store i64 1, ptr %3, align 8, !dbg !1793
  %4 = load ptr, ptr @0, align 8, !dbg !1793, !align !405, !noundef !13
  %5 = load i64, ptr getelementptr inbounds (i8, ptr @0, i64 8), align 8, !dbg !1793
  %6 = getelementptr inbounds i8, ptr %_5, i64 32, !dbg !1793
  store ptr %4, ptr %6, align 8, !dbg !1793
  %7 = getelementptr inbounds i8, ptr %6, i64 8, !dbg !1793
  store i64 %5, ptr %7, align 8, !dbg !1793
  %8 = getelementptr inbounds i8, ptr %_5, i64 16, !dbg !1793
  store ptr @alloc_513570631223a12912d85da2bec3b15a, ptr %8, align 8, !dbg !1793
  %9 = getelementptr inbounds i8, ptr %8, i64 8, !dbg !1793
  store i64 0, ptr %9, align 8, !dbg !1793
; call core::panicking::panic_fmt
  call void @_ZN4core9panicking9panic_fmt17ha6d62ade15192290E(ptr align 8 %_5, ptr align 8 %0) #12, !dbg !1794
  unreachable, !dbg !1794

bb1:                                              ; preds = %start
; call core::slice::<impl [T]>::split_at_unchecked
  call void @"_ZN4core5slice29_$LT$impl$u20$$u5b$T$u5d$$GT$18split_at_unchecked17hf8f6374fbe37cf6bE"(ptr sret({ { ptr, i64 }, { ptr, i64 } }) align 8 %_9, ptr align 1 %self.0, i64 %self.1, i64 %mid), !dbg !1795
  call void @llvm.memcpy.p0.p0.i64(ptr align 8 %_3, ptr align 8 %_9, i64 32, i1 false), !dbg !1796
  call void @llvm.memcpy.p0.p0.i64(ptr align 8 %pair, ptr align 8 %_3, i64 32, i1 false), !dbg !1797
  ret void, !dbg !1798
}

; core::slice::raw::from_raw_parts::precondition_check
; Function Attrs: inlinehint nounwind uwtable
define internal void @_ZN4core5slice3raw14from_raw_parts18precondition_check17hb3de2c2b5f8d6f4eE(ptr %data, i64 %size, i64 %align, i64 %len) unnamed_addr #2 personality ptr @rust_eh_personality !dbg !1799 {
start:
  %len.dbg.spill = alloca i64, align 8
  %align.dbg.spill = alloca i64, align 8
  %size.dbg.spill = alloca i64, align 8
  %data.dbg.spill = alloca ptr, align 8
  %max_len = alloca i64, align 8
  store ptr %data, ptr %data.dbg.spill, align 8
  call void @llvm.dbg.declare(metadata ptr %data.dbg.spill, metadata !1804, metadata !DIExpression()), !dbg !1808
  store i64 %size, ptr %size.dbg.spill, align 8
  call void @llvm.dbg.declare(metadata ptr %size.dbg.spill, metadata !1805, metadata !DIExpression()), !dbg !1808
  call void @llvm.dbg.declare(metadata ptr %size.dbg.spill, metadata !1809, metadata !DIExpression()), !dbg !1818
  store i64 %align, ptr %align.dbg.spill, align 8
  call void @llvm.dbg.declare(metadata ptr %align.dbg.spill, metadata !1806, metadata !DIExpression()), !dbg !1808
  store i64 %len, ptr %len.dbg.spill, align 8
  call void @llvm.dbg.declare(metadata ptr %len.dbg.spill, metadata !1807, metadata !DIExpression()), !dbg !1808
  call void @llvm.dbg.declare(metadata ptr %len.dbg.spill, metadata !1815, metadata !DIExpression()), !dbg !1821
  call void @llvm.dbg.declare(metadata ptr %max_len, metadata !1816, metadata !DIExpression()), !dbg !1822
; invoke core::intrinsics::is_aligned_and_not_null
  %_5 = invoke zeroext i1 @_ZN4core10intrinsics23is_aligned_and_not_null17h0a7ece9093038c50E(ptr %data, i64 %align)
          to label %bb1 unwind label %terminate, !dbg !1823

terminate:                                        ; preds = %panic, %start
  %0 = landingpad { ptr, i32 }
          filter [0 x ptr] zeroinitializer
  %1 = extractvalue { ptr, i32 } %0, 0
  %2 = extractvalue { ptr, i32 } %0, 1
; call core::panicking::panic_cannot_unwind
  call void @_ZN4core9panicking19panic_cannot_unwind17h3626040c0976c0c3E() #13, !dbg !1824
  unreachable, !dbg !1824

bb1:                                              ; preds = %start
  br i1 %_5, label %bb2, label %bb5, !dbg !1823

bb5:                                              ; preds = %bb1
  br label %bb6, !dbg !1825

bb2:                                              ; preds = %bb1
  %_10 = icmp eq i64 %size, 0, !dbg !1827
  %3 = icmp eq i64 %size, 0, !dbg !1827
  br i1 %3, label %bb7, label %bb8, !dbg !1827

bb6:                                              ; preds = %bb4, %bb5
; call core::panicking::panic_nounwind
  call void @_ZN4core9panicking14panic_nounwind17h50c31e15afde233eE(ptr align 1 @alloc_11195730e5236cfdc15ea13be1c301f9, i64 162) #11, !dbg !1828
  unreachable, !dbg !1828

bb7:                                              ; preds = %bb2
  store i64 -1, ptr %max_len, align 8, !dbg !1829
  br label %bb10, !dbg !1830

bb8:                                              ; preds = %bb2
  %4 = call i1 @llvm.expect.i1(i1 %_10, i1 false), !dbg !1831
  br i1 %4, label %panic, label %bb9, !dbg !1831

bb10:                                             ; preds = %bb9, %bb7
  %_11 = load i64, ptr %max_len, align 8, !dbg !1832, !noundef !13
  %_7 = icmp ule i64 %len, %_11, !dbg !1833
  br i1 %_7, label %bb3, label %bb4, !dbg !1819

bb9:                                              ; preds = %bb8
  %5 = udiv i64 9223372036854775807, %size, !dbg !1831
  store i64 %5, ptr %max_len, align 8, !dbg !1831
  br label %bb10, !dbg !1830

panic:                                            ; preds = %bb8
; invoke core::panicking::panic
  invoke void @_ZN4core9panicking5panic17h5884aad3a9044857E(ptr align 1 @str.0, i64 25, ptr align 8 @alloc_3ddfd615a577a80e66751be046ca7362) #12
          to label %unreachable unwind label %terminate, !dbg !1831

unreachable:                                      ; preds = %panic
  unreachable

bb4:                                              ; preds = %bb10
  br label %bb6, !dbg !1825

bb3:                                              ; preds = %bb10
  ret void, !dbg !1834
}

; core::slice::iter::<impl core::iter::traits::collect::IntoIterator for &[T]>::into_iter
; Function Attrs: uwtable
define { ptr, ptr } @"_ZN4core5slice4iter87_$LT$impl$u20$core..iter..traits..collect..IntoIterator$u20$for$u20$$RF$$u5b$T$u5d$$GT$9into_iter17hc74147b09627c6a8E"(ptr align 1 %self.0, i64 %self.1) unnamed_addr #1 !dbg !1835 {
start:
  %self.dbg.spill1 = alloca ptr, align 8
  %len.dbg.spill = alloca i64, align 8
  %self.dbg.spill = alloca { ptr, i64 }, align 8
  %end_or_len = alloca ptr, align 8
  %self = alloca %"core::ptr::non_null::NonNull<[u8]>", align 8
  %ptr = alloca ptr, align 8
  %_0 = alloca %"core::slice::iter::Iter<'_, u8>", align 8
  store ptr %self.0, ptr %self.dbg.spill, align 8
  %0 = getelementptr inbounds i8, ptr %self.dbg.spill, i64 8
  store i64 %self.1, ptr %0, align 8
  call void @llvm.dbg.declare(metadata ptr %self.dbg.spill, metadata !1853, metadata !DIExpression()), !dbg !1854
  call void @llvm.dbg.declare(metadata ptr %self.dbg.spill, metadata !1855, metadata !DIExpression()), !dbg !1859
  call void @llvm.dbg.declare(metadata ptr %self.dbg.spill, metadata !1861, metadata !DIExpression()), !dbg !1872
  call void @llvm.dbg.declare(metadata ptr %self.dbg.spill, metadata !1874, metadata !DIExpression()), !dbg !1885
  call void @llvm.dbg.declare(metadata ptr %ptr, metadata !1868, metadata !DIExpression()), !dbg !1887
  call void @llvm.dbg.declare(metadata ptr %ptr, metadata !1888, metadata !DIExpression()), !dbg !1895
  call void @llvm.dbg.declare(metadata ptr %self, metadata !1897, metadata !DIExpression()), !dbg !1906
  call void @llvm.dbg.declare(metadata ptr %self, metadata !1908, metadata !DIExpression()), !dbg !1919
  call void @llvm.dbg.declare(metadata ptr %end_or_len, metadata !1870, metadata !DIExpression()), !dbg !1921
  store i64 %self.1, ptr %len.dbg.spill, align 8, !dbg !1922
  call void @llvm.dbg.declare(metadata ptr %len.dbg.spill, metadata !1866, metadata !DIExpression()), !dbg !1923
  call void @llvm.dbg.declare(metadata ptr %len.dbg.spill, metadata !1924, metadata !DIExpression()), !dbg !1930
  call void @llvm.dbg.declare(metadata ptr %len.dbg.spill, metadata !1932, metadata !DIExpression()), !dbg !1942
  store ptr %self.0, ptr %self, align 8, !dbg !1944
  %1 = getelementptr inbounds i8, ptr %self, i64 8, !dbg !1944
  store i64 %self.1, ptr %1, align 8, !dbg !1944
  store ptr %self.0, ptr %ptr, align 8, !dbg !1945
  br label %bb2, !dbg !1946

bb2:                                              ; preds = %start
  store ptr %self.0, ptr %self.dbg.spill1, align 8, !dbg !1947
  call void @llvm.dbg.declare(metadata ptr %self.dbg.spill1, metadata !1941, metadata !DIExpression()), !dbg !1948
  %_7 = getelementptr inbounds i8, ptr %self.0, i64 %self.1, !dbg !1949
  store ptr %_7, ptr %end_or_len, align 8, !dbg !1950
  br label %bb3, !dbg !1951

bb3:                                              ; preds = %bb1, %bb2
  %_9 = load ptr, ptr %end_or_len, align 8, !dbg !1952, !noundef !13
  %2 = load ptr, ptr %ptr, align 8, !dbg !1953, !nonnull !13, !noundef !13
  store ptr %2, ptr %_0, align 8, !dbg !1953
  %3 = getelementptr inbounds i8, ptr %_0, i64 8, !dbg !1953
  store ptr %_9, ptr %3, align 8, !dbg !1953
  %4 = load ptr, ptr %_0, align 8, !dbg !1954, !nonnull !13, !noundef !13
  %5 = getelementptr inbounds i8, ptr %_0, i64 8, !dbg !1954
  %6 = load ptr, ptr %5, align 8, !dbg !1954, !noundef !13
  %7 = insertvalue { ptr, ptr } poison, ptr %4, 0, !dbg !1954
  %8 = insertvalue { ptr, ptr } %7, ptr %6, 1, !dbg !1954
  ret { ptr, ptr } %8, !dbg !1954

bb1:                                              ; No predecessors!
  %9 = inttoptr i64 %self.1 to ptr, !dbg !1955
  store ptr %9, ptr %end_or_len, align 8, !dbg !1955
  br label %bb3, !dbg !1951
}

; core::option::Option<T>::map
; Function Attrs: inlinehint uwtable
define { i64, i64 } @"_ZN4core6option15Option$LT$T$GT$3map17h7db7988a2817083dE"(i64 %0, i64 %1, ptr align 16 %f) unnamed_addr #0 !dbg !1956 {
start:
  %x.dbg.spill = alloca i64, align 8
  %f.dbg.spill = alloca ptr, align 8
  %_7 = alloca i64, align 8
  %_0 = alloca %"core::option::Option<usize>", align 8
  %self = alloca %"core::option::Option<usize>", align 8
  store i64 %0, ptr %self, align 8
  %2 = getelementptr inbounds i8, ptr %self, i64 8
  store i64 %1, ptr %2, align 8
  call void @llvm.dbg.declare(metadata ptr %self, metadata !2010, metadata !DIExpression()), !dbg !2014
  store ptr %f, ptr %f.dbg.spill, align 8
  call void @llvm.dbg.declare(metadata ptr %f.dbg.spill, metadata !2011, metadata !DIExpression()), !dbg !2015
  %_3 = load i64, ptr %self, align 8, !dbg !2016, !range !1004, !noundef !13
  %3 = icmp eq i64 %_3, 0, !dbg !2017
  br i1 %3, label %bb2, label %bb3, !dbg !2017

bb2:                                              ; preds = %start
  store i64 0, ptr %_0, align 8, !dbg !2018
  br label %bb5, !dbg !2019

bb3:                                              ; preds = %start
  %4 = getelementptr inbounds i8, ptr %self, i64 8, !dbg !2020
  %x = load i64, ptr %4, align 8, !dbg !2020, !noundef !13
  store i64 %x, ptr %x.dbg.spill, align 8, !dbg !2020
  call void @llvm.dbg.declare(metadata ptr %x.dbg.spill, metadata !2012, metadata !DIExpression()), !dbg !2021
  store i64 %x, ptr %_7, align 8, !dbg !2022
  %5 = load i64, ptr %_7, align 8, !dbg !2022, !noundef !13
; call memchr::memmem::searcher::Prefilter::find_simple::{{closure}}
  %_5 = call i64 @"_ZN6memchr6memmem8searcher9Prefilter11find_simple28_$u7b$$u7b$closure$u7d$$u7d$17h1e8d7dedfafcd176E"(ptr align 16 %f, i64 %5), !dbg !2022
  %6 = getelementptr inbounds i8, ptr %_0, i64 8, !dbg !2023
  store i64 %_5, ptr %6, align 8, !dbg !2023
  store i64 1, ptr %_0, align 8, !dbg !2023
  br label %bb5, !dbg !2024

bb5:                                              ; preds = %bb3, %bb2
  %7 = load i64, ptr %_0, align 8, !dbg !2025, !range !1004, !noundef !13
  %8 = getelementptr inbounds i8, ptr %_0, i64 8, !dbg !2025
  %9 = load i64, ptr %8, align 8, !dbg !2025
  %10 = insertvalue { i64, i64 } poison, i64 %7, 0, !dbg !2025
  %11 = insertvalue { i64, i64 } %10, i64 %9, 1, !dbg !2025
  ret { i64, i64 } %11, !dbg !2025

bb1:                                              ; No predecessors!
  unreachable, !dbg !2016
}

; core::option::Option<T>::as_mut
; Function Attrs: inlinehint uwtable
define align 8 ptr @"_ZN4core6option15Option$LT$T$GT$6as_mut17h6fbc04069ea48f24E"(ptr align 8 %self) unnamed_addr #0 !dbg !2026 {
start:
  %x.dbg.spill = alloca ptr, align 8
  %self.dbg.spill = alloca ptr, align 8
  %_0 = alloca ptr, align 8
  store ptr %self, ptr %self.dbg.spill, align 8
  call void @llvm.dbg.declare(metadata ptr %self.dbg.spill, metadata !2068, metadata !DIExpression()), !dbg !2071
  %0 = load ptr, ptr %self, align 8, !dbg !2072, !noundef !13
  %1 = ptrtoint ptr %0 to i64, !dbg !2072
  %2 = icmp eq i64 %1, 0, !dbg !2072
  %_2 = select i1 %2, i64 0, i64 1, !dbg !2072
  %3 = icmp eq i64 %_2, 0, !dbg !2073
  br i1 %3, label %bb2, label %bb3, !dbg !2073

bb2:                                              ; preds = %start
  store ptr null, ptr %_0, align 8, !dbg !2074
  br label %bb4, !dbg !2074

bb3:                                              ; preds = %start
  store ptr %self, ptr %x.dbg.spill, align 8, !dbg !2075
  call void @llvm.dbg.declare(metadata ptr %x.dbg.spill, metadata !2069, metadata !DIExpression()), !dbg !2076
  store ptr %self, ptr %_0, align 8, !dbg !2077
  br label %bb4, !dbg !2078

bb4:                                              ; preds = %bb3, %bb2
  %4 = load ptr, ptr %_0, align 8, !dbg !2079, !align !405, !noundef !13
  ret ptr %4, !dbg !2079

bb1:                                              ; No predecessors!
  unreachable, !dbg !2072
}

; core::option::Option<T>::map_or
; Function Attrs: inlinehint uwtable
define zeroext i1 @"_ZN4core6option15Option$LT$T$GT$6map_or17h91f78a4eb643734dE"(ptr align 1 %0, i1 zeroext %default, ptr align 1 %f) unnamed_addr #0 personality ptr @rust_eh_personality !dbg !2080 {
start:
  %1 = alloca { ptr, i32, [1 x i32] }, align 8
  %t.dbg.spill = alloca ptr, align 8
  %f.dbg.spill = alloca ptr, align 8
  %default.dbg.spill = alloca i8, align 1
  %_8 = alloca i8, align 1
  %_7 = alloca ptr, align 8
  %_0 = alloca i8, align 1
  %self = alloca ptr, align 8
  store ptr %0, ptr %self, align 8
  call void @llvm.dbg.declare(metadata ptr %self, metadata !2094, metadata !DIExpression()), !dbg !2099
  %2 = zext i1 %default to i8
  store i8 %2, ptr %default.dbg.spill, align 1
  call void @llvm.dbg.declare(metadata ptr %default.dbg.spill, metadata !2095, metadata !DIExpression()), !dbg !2100
  store ptr %f, ptr %f.dbg.spill, align 8
  call void @llvm.dbg.declare(metadata ptr %f.dbg.spill, metadata !2096, metadata !DIExpression()), !dbg !2101
  store i8 1, ptr %_8, align 1, !dbg !2102
  %3 = load ptr, ptr %self, align 8, !dbg !2102, !noundef !13
  %4 = ptrtoint ptr %3 to i64, !dbg !2102
  %5 = icmp eq i64 %4, 0, !dbg !2102
  %_4 = select i1 %5, i64 0, i64 1, !dbg !2102
  %6 = icmp eq i64 %_4, 0, !dbg !2103
  br i1 %6, label %bb2, label %bb3, !dbg !2103

bb2:                                              ; preds = %start
  store i8 0, ptr %_8, align 1, !dbg !2104
  %7 = zext i1 %default to i8, !dbg !2104
  store i8 %7, ptr %_0, align 1, !dbg !2104
  br label %bb5, !dbg !2105

bb3:                                              ; preds = %start
  %t = load ptr, ptr %self, align 8, !dbg !2106, !nonnull !13, !align !268, !noundef !13
  store ptr %t, ptr %t.dbg.spill, align 8, !dbg !2106
  call void @llvm.dbg.declare(metadata ptr %t.dbg.spill, metadata !2097, metadata !DIExpression()), !dbg !2107
  store ptr %t, ptr %_7, align 8, !dbg !2108
  %8 = load ptr, ptr %_7, align 8, !dbg !2108, !nonnull !13, !align !268, !noundef !13
; invoke memchr::arch::all::packedpair::Finder::find_prefilter::{{closure}}
  %9 = invoke zeroext i1 @"_ZN6memchr4arch3all10packedpair6Finder14find_prefilter28_$u7b$$u7b$closure$u7d$$u7d$17hb22dfb294435ec76E"(ptr align 1 %f, ptr align 1 %8)
          to label %bb4 unwind label %cleanup, !dbg !2108

bb5:                                              ; preds = %bb7, %bb4, %bb2
  %10 = load i8, ptr %_0, align 1, !dbg !2109, !range !541, !noundef !13
  %11 = trunc i8 %10 to i1, !dbg !2109
  ret i1 %11, !dbg !2109

bb9:                                              ; preds = %cleanup
  %12 = load i8, ptr %_8, align 1, !dbg !2105, !range !541, !noundef !13
  %13 = trunc i8 %12 to i1, !dbg !2105
  br i1 %13, label %bb8, label %bb6, !dbg !2105

cleanup:                                          ; preds = %bb3
  %14 = landingpad { ptr, i32 }
          cleanup
  %15 = extractvalue { ptr, i32 } %14, 0
  %16 = extractvalue { ptr, i32 } %14, 1
  store ptr %15, ptr %1, align 8
  %17 = getelementptr inbounds i8, ptr %1, i64 8
  store i32 %16, ptr %17, align 8
  br label %bb9

bb4:                                              ; preds = %bb3
  %18 = zext i1 %9 to i8, !dbg !2108
  store i8 %18, ptr %_0, align 1, !dbg !2108
  %19 = load i8, ptr %_8, align 1, !dbg !2105, !range !541, !noundef !13
  %20 = trunc i8 %19 to i1, !dbg !2105
  br i1 %20, label %bb7, label %bb5, !dbg !2105

bb7:                                              ; preds = %bb4
  br label %bb5, !dbg !2105

bb6:                                              ; preds = %bb8, %bb9
  %21 = load ptr, ptr %1, align 8, !dbg !2110, !noundef !13
  %22 = getelementptr inbounds i8, ptr %1, i64 8, !dbg !2110
  %23 = load i32, ptr %22, align 8, !dbg !2110, !noundef !13
  %24 = insertvalue { ptr, i32 } poison, ptr %21, 0, !dbg !2110
  %25 = insertvalue { ptr, i32 } %24, i32 %23, 1, !dbg !2110
  resume { ptr, i32 } %25, !dbg !2110

bb8:                                              ; preds = %bb9
  br label %bb6, !dbg !2105

bb1:                                              ; No predecessors!
  unreachable, !dbg !2102
}

; core::option::Option<T>::unwrap_or
; Function Attrs: inlinehint uwtable
define i64 @"_ZN4core6option15Option$LT$T$GT$9unwrap_or17h82976dfec38dfd3bE"(i64 %0, i64 %1, i64 %default) unnamed_addr #0 !dbg !2111 {
start:
  %x.dbg.spill = alloca i64, align 8
  %default.dbg.spill = alloca i64, align 8
  %_0 = alloca i64, align 8
  %self = alloca %"core::option::Option<usize>", align 8
  store i64 %0, ptr %self, align 8
  %2 = getelementptr inbounds i8, ptr %self, i64 8
  store i64 %1, ptr %2, align 8
  call void @llvm.dbg.declare(metadata ptr %self, metadata !2116, metadata !DIExpression()), !dbg !2120
  store i64 %default, ptr %default.dbg.spill, align 8
  call void @llvm.dbg.declare(metadata ptr %default.dbg.spill, metadata !2117, metadata !DIExpression()), !dbg !2121
  %_3 = load i64, ptr %self, align 8, !dbg !2122, !range !1004, !noundef !13
  %3 = icmp eq i64 %_3, 0, !dbg !2123
  br i1 %3, label %bb2, label %bb3, !dbg !2123

bb2:                                              ; preds = %start
  store i64 %default, ptr %_0, align 8, !dbg !2124
  br label %bb4, !dbg !2124

bb3:                                              ; preds = %start
  %4 = getelementptr inbounds i8, ptr %self, i64 8, !dbg !2125
  %x = load i64, ptr %4, align 8, !dbg !2125, !noundef !13
  store i64 %x, ptr %x.dbg.spill, align 8, !dbg !2125
  call void @llvm.dbg.declare(metadata ptr %x.dbg.spill, metadata !2118, metadata !DIExpression()), !dbg !2126
  store i64 %x, ptr %_0, align 8, !dbg !2127
  br label %bb4, !dbg !2128

bb4:                                              ; preds = %bb3, %bb2
  %5 = load i64, ptr %_0, align 8, !dbg !2129, !noundef !13
  ret i64 %5, !dbg !2129

bb1:                                              ; No predecessors!
  unreachable, !dbg !2122
}

; core::result::Result<T,E>::unwrap_unchecked
; Function Attrs: inlinehint uwtable
define i64 @"_ZN4core6result19Result$LT$T$C$E$GT$16unwrap_unchecked17hd7f9dea5b5b3f553E"(i64 %0, i64 %1, ptr align 8 %2) unnamed_addr #0 !dbg !2130 {
start:
  %t.dbg.spill = alloca i64, align 8
  %self = alloca %"core::result::Result<usize, core::num::error::TryFromIntError>", align 8
  store i64 %0, ptr %self, align 8
  %3 = getelementptr inbounds i8, ptr %self, i64 8
  store i64 %1, ptr %3, align 8
  call void @llvm.dbg.declare(metadata ptr %self, metadata !2155, metadata !DIExpression()), !dbg !2158
  %_3 = load i64, ptr %self, align 8, !dbg !2159, !range !1004, !noundef !13
  %4 = icmp eq i64 %_3, 0, !dbg !2160
  br i1 %4, label %bb3, label %bb2, !dbg !2160

bb3:                                              ; preds = %start
  %5 = getelementptr inbounds i8, ptr %self, i64 8, !dbg !2161
  %t = load i64, ptr %5, align 8, !dbg !2161, !noundef !13
  store i64 %t, ptr %t.dbg.spill, align 8, !dbg !2161
  call void @llvm.dbg.declare(metadata ptr %t.dbg.spill, metadata !2156, metadata !DIExpression()), !dbg !2162
  %_4 = load i64, ptr %self, align 8, !dbg !2163, !range !1004, !noundef !13
  %6 = icmp eq i64 %_4, 0, !dbg !2163
  br i1 %6, label %bb4, label %bb5, !dbg !2163

bb2:                                              ; preds = %start
; call core::hint::unreachable_unchecked::precondition_check
  call void @_ZN4core4hint21unreachable_unchecked18precondition_check17h9c3005c1bafa8e5eE() #14, !dbg !2164
  br label %bb1, !dbg !2164

bb4:                                              ; preds = %bb5, %bb3
  ret i64 %t, !dbg !2169

bb5:                                              ; preds = %bb3
  br label %bb4, !dbg !2163

bb1:                                              ; preds = %bb2
  unreachable, !dbg !2159
}

; core::convert::num::ptr_try_from_impls::<impl core::convert::TryFrom<usize> for u32>::try_from
; Function Attrs: inlinehint uwtable
define internal { i32, i32 } @"_ZN4core7convert3num18ptr_try_from_impls69_$LT$impl$u20$core..convert..TryFrom$LT$usize$GT$$u20$for$u20$u32$GT$8try_from17h6c44aaa5f19c0f36E"(i64 %u) unnamed_addr #0 !dbg !2170 {
start:
  %u.dbg.spill = alloca i64, align 8
  %_0 = alloca %"core::result::Result<u32, core::num::error::TryFromIntError>", align 4
  store i64 %u, ptr %u.dbg.spill, align 8
  call void @llvm.dbg.declare(metadata ptr %u.dbg.spill, metadata !2193, metadata !DIExpression()), !dbg !2194
  %_2 = icmp ugt i64 %u, 4294967295, !dbg !2195
  br i1 %_2, label %bb1, label %bb2, !dbg !2195

bb2:                                              ; preds = %start
  %_3 = trunc i64 %u to i32, !dbg !2196
  %0 = getelementptr inbounds i8, ptr %_0, i64 4, !dbg !2197
  store i32 %_3, ptr %0, align 4, !dbg !2197
  store i32 0, ptr %_0, align 4, !dbg !2197
  br label %bb3, !dbg !2198

bb1:                                              ; preds = %start
  %1 = load i32, ptr @1, align 4, !dbg !2199, !range !2200, !noundef !13
  %2 = load i32, ptr getelementptr inbounds (i8, ptr @1, i64 4), align 4, !dbg !2199
  store i32 %1, ptr %_0, align 4, !dbg !2199
  %3 = getelementptr inbounds i8, ptr %_0, i64 4, !dbg !2199
  store i32 %2, ptr %3, align 4, !dbg !2199
  br label %bb3, !dbg !2198

bb3:                                              ; preds = %bb1, %bb2
  %4 = load i32, ptr %_0, align 4, !dbg !2201, !range !2200, !noundef !13
  %5 = getelementptr inbounds i8, ptr %_0, i64 4, !dbg !2201
  %6 = load i32, ptr %5, align 4, !dbg !2201
  %7 = insertvalue { i32, i32 } poison, i32 %4, 0, !dbg !2201
  %8 = insertvalue { i32, i32 } %7, i32 %6, 1, !dbg !2201
  ret { i32, i32 } %8, !dbg !2201
}

; core::convert::num::<impl core::convert::TryFrom<isize> for usize>::try_from
; Function Attrs: inlinehint uwtable
define internal { i64, i64 } @"_ZN4core7convert3num71_$LT$impl$u20$core..convert..TryFrom$LT$isize$GT$$u20$for$u20$usize$GT$8try_from17h3cc1ad28b7c5cd16E"(i64 %u) unnamed_addr #0 !dbg !2202 {
start:
  %u.dbg.spill = alloca i64, align 8
  %_0 = alloca %"core::result::Result<usize, core::num::error::TryFromIntError>", align 8
  store i64 %u, ptr %u.dbg.spill, align 8
  call void @llvm.dbg.declare(metadata ptr %u.dbg.spill, metadata !2207, metadata !DIExpression()), !dbg !2208
  %_2 = icmp sge i64 %u, 0, !dbg !2209
  br i1 %_2, label %bb1, label %bb2, !dbg !2209

bb2:                                              ; preds = %start
  %0 = load i64, ptr @2, align 8, !dbg !2210, !range !1004, !noundef !13
  %1 = load i64, ptr getelementptr inbounds (i8, ptr @2, i64 8), align 8, !dbg !2210
  store i64 %0, ptr %_0, align 8, !dbg !2210
  %2 = getelementptr inbounds i8, ptr %_0, i64 8, !dbg !2210
  store i64 %1, ptr %2, align 8, !dbg !2210
  br label %bb3, !dbg !2211

bb1:                                              ; preds = %start
  %3 = getelementptr inbounds i8, ptr %_0, i64 8, !dbg !2212
  store i64 %u, ptr %3, align 8, !dbg !2212
  store i64 0, ptr %_0, align 8, !dbg !2212
  br label %bb3, !dbg !2211

bb3:                                              ; preds = %bb1, %bb2
  %4 = load i64, ptr %_0, align 8, !dbg !2213, !range !1004, !noundef !13
  %5 = getelementptr inbounds i8, ptr %_0, i64 8, !dbg !2213
  %6 = load i64, ptr %5, align 8, !dbg !2213
  %7 = insertvalue { i64, i64 } poison, i64 %4, 0, !dbg !2213
  %8 = insertvalue { i64, i64 } %7, i64 %6, 1, !dbg !2213
  ret { i64, i64 } %8, !dbg !2213
}

; core::core_arch::arm_shared::neon::vdupq_n_u8
; Function Attrs: inlinehint uwtable
define internal void @_ZN4core9core_arch10arm_shared4neon10vdupq_n_u817hba061cd73d714e01E(ptr sret(<16 x i8>) align 16 %_0, i8 %value) unnamed_addr #4 !dbg !2214 {
start:
  %value.dbg.spill = alloca i8, align 1
  store i8 %value, ptr %value.dbg.spill, align 1
  call void @llvm.dbg.declare(metadata ptr %value.dbg.spill, metadata !2219, metadata !DIExpression()), !dbg !2220
  store i8 %value, ptr %_0, align 16, !dbg !2221
  %0 = getelementptr inbounds i8, ptr %_0, i64 1, !dbg !2221
  store i8 %value, ptr %0, align 1, !dbg !2221
  %1 = getelementptr inbounds i8, ptr %_0, i64 2, !dbg !2221
  store i8 %value, ptr %1, align 2, !dbg !2221
  %2 = getelementptr inbounds i8, ptr %_0, i64 3, !dbg !2221
  store i8 %value, ptr %2, align 1, !dbg !2221
  %3 = getelementptr inbounds i8, ptr %_0, i64 4, !dbg !2221
  store i8 %value, ptr %3, align 4, !dbg !2221
  %4 = getelementptr inbounds i8, ptr %_0, i64 5, !dbg !2221
  store i8 %value, ptr %4, align 1, !dbg !2221
  %5 = getelementptr inbounds i8, ptr %_0, i64 6, !dbg !2221
  store i8 %value, ptr %5, align 2, !dbg !2221
  %6 = getelementptr inbounds i8, ptr %_0, i64 7, !dbg !2221
  store i8 %value, ptr %6, align 1, !dbg !2221
  %7 = getelementptr inbounds i8, ptr %_0, i64 8, !dbg !2221
  store i8 %value, ptr %7, align 8, !dbg !2221
  %8 = getelementptr inbounds i8, ptr %_0, i64 9, !dbg !2221
  store i8 %value, ptr %8, align 1, !dbg !2221
  %9 = getelementptr inbounds i8, ptr %_0, i64 10, !dbg !2221
  store i8 %value, ptr %9, align 2, !dbg !2221
  %10 = getelementptr inbounds i8, ptr %_0, i64 11, !dbg !2221
  store i8 %value, ptr %10, align 1, !dbg !2221
  %11 = getelementptr inbounds i8, ptr %_0, i64 12, !dbg !2221
  store i8 %value, ptr %11, align 4, !dbg !2221
  %12 = getelementptr inbounds i8, ptr %_0, i64 13, !dbg !2221
  store i8 %value, ptr %12, align 1, !dbg !2221
  %13 = getelementptr inbounds i8, ptr %_0, i64 14, !dbg !2221
  store i8 %value, ptr %13, align 2, !dbg !2221
  %14 = getelementptr inbounds i8, ptr %_0, i64 15, !dbg !2221
  store i8 %value, ptr %14, align 1, !dbg !2221
  ret void, !dbg !2222
}

; core::core_arch::arm_shared::neon::vget_lane_u64
; Function Attrs: inlinehint uwtable
define i64 @_ZN4core9core_arch10arm_shared4neon13vget_lane_u6417h277fdf861956efb9E(ptr align 8 %v) unnamed_addr #4 !dbg !2223 {
start:
  %0 = alloca i64, align 8, !dbg !2231
  call void @llvm.dbg.declare(metadata ptr %v, metadata !2230, metadata !DIExpression()), !dbg !2231
  %1 = load <1 x i64>, ptr %v, align 8, !dbg !2232
  %2 = extractelement <1 x i64> %1, i32 0, !dbg !2232
  store i64 %2, ptr %0, align 8, !dbg !2232
  %_0 = load i64, ptr %0, align 8, !dbg !2232, !noundef !13
  ret i64 %_0, !dbg !2233
}

; core::core_arch::arm_shared::neon::vgetq_lane_u64
; Function Attrs: inlinehint uwtable
define i64 @_ZN4core9core_arch10arm_shared4neon14vgetq_lane_u6417h3ede5446cea388baE(ptr align 16 %v) unnamed_addr #4 !dbg !2234 {
start:
  %0 = alloca i64, align 8, !dbg !2243
  call void @llvm.dbg.declare(metadata ptr %v, metadata !2242, metadata !DIExpression()), !dbg !2243
  %1 = load <2 x i64>, ptr %v, align 16, !dbg !2244
  %2 = extractelement <2 x i64> %1, i32 0, !dbg !2244
  store i64 %2, ptr %0, align 8, !dbg !2244
  %_0 = load i64, ptr %0, align 8, !dbg !2244, !noundef !13
  ret i64 %_0, !dbg !2245
}

; core::core_arch::arm_shared::neon::generated::vshrn_n_u16
; Function Attrs: inlinehint uwtable
define void @_ZN4core9core_arch10arm_shared4neon9generated11vshrn_n_u1617h23f76722ec811028E(ptr sret(<8 x i8>) align 8 %_0, ptr align 16 %a) unnamed_addr #4 !dbg !2246 {
start:
  %0 = alloca <8 x i16>, align 16
  %value.dbg.spill = alloca i16, align 2
  %_3 = alloca <8 x i16>, align 16
  call void @llvm.dbg.declare(metadata ptr %a, metadata !2272, metadata !DIExpression()), !dbg !2273
  store i16 4, ptr %value.dbg.spill, align 2, !dbg !2274
  call void @llvm.dbg.declare(metadata ptr %value.dbg.spill, metadata !2275, metadata !DIExpression()), !dbg !2281
  store i16 4, ptr %_3, align 16, !dbg !2283
  %1 = getelementptr inbounds i8, ptr %_3, i64 2, !dbg !2283
  store i16 4, ptr %1, align 2, !dbg !2283
  %2 = getelementptr inbounds i8, ptr %_3, i64 4, !dbg !2283
  store i16 4, ptr %2, align 4, !dbg !2283
  %3 = getelementptr inbounds i8, ptr %_3, i64 6, !dbg !2283
  store i16 4, ptr %3, align 2, !dbg !2283
  %4 = getelementptr inbounds i8, ptr %_3, i64 8, !dbg !2283
  store i16 4, ptr %4, align 8, !dbg !2283
  %5 = getelementptr inbounds i8, ptr %_3, i64 10, !dbg !2283
  store i16 4, ptr %5, align 2, !dbg !2283
  %6 = getelementptr inbounds i8, ptr %_3, i64 12, !dbg !2283
  store i16 4, ptr %6, align 4, !dbg !2283
  %7 = getelementptr inbounds i8, ptr %_3, i64 14, !dbg !2283
  store i16 4, ptr %7, align 2, !dbg !2283
  %8 = load <8 x i16>, ptr %a, align 16, !dbg !2284
  %9 = load <8 x i16>, ptr %_3, align 16, !dbg !2284
  %10 = lshr <8 x i16> %8, %9, !dbg !2284
  store <8 x i16> %10, ptr %0, align 16, !dbg !2284
  %_2 = load <8 x i16>, ptr %0, align 16, !dbg !2284
  %11 = trunc <8 x i16> %_2 to <8 x i8>, !dbg !2285
  store <8 x i8> %11, ptr %_0, align 8, !dbg !2285
  ret void, !dbg !2286
}

; core::core_arch::arm_shared::neon::generated::vreinterpret_u64_u8
; Function Attrs: inlinehint uwtable
define internal void @_ZN4core9core_arch10arm_shared4neon9generated19vreinterpret_u64_u817h947d1a6cc2fa472bE(ptr sret(<1 x i64>) align 8 %_0, ptr align 8 %a) unnamed_addr #4 !dbg !2287 {
start:
  call void @llvm.dbg.declare(metadata ptr %a, metadata !2291, metadata !DIExpression()), !dbg !2292
  %0 = load <8 x i8>, ptr %a, align 8, !dbg !2293
  store <8 x i8> %0, ptr %_0, align 8, !dbg !2293
  ret void, !dbg !2294
}

; core::core_arch::arm_shared::neon::generated::vreinterpretq_u16_u8
; Function Attrs: inlinehint uwtable
define internal void @_ZN4core9core_arch10arm_shared4neon9generated20vreinterpretq_u16_u817hd2b68ce21cf33840E(ptr sret(<8 x i16>) align 16 %_0, ptr align 16 %a) unnamed_addr #4 !dbg !2295 {
start:
  call void @llvm.dbg.declare(metadata ptr %a, metadata !2299, metadata !DIExpression()), !dbg !2300
  %0 = load <16 x i8>, ptr %a, align 16, !dbg !2301
  store <16 x i8> %0, ptr %_0, align 16, !dbg !2301
  ret void, !dbg !2302
}

; core::core_arch::arm_shared::neon::generated::vreinterpretq_u64_u8
; Function Attrs: inlinehint uwtable
define internal void @_ZN4core9core_arch10arm_shared4neon9generated20vreinterpretq_u64_u817hc8dbb0287f1780b0E(ptr sret(<2 x i64>) align 16 %_0, ptr align 16 %a) unnamed_addr #4 !dbg !2303 {
start:
  call void @llvm.dbg.declare(metadata ptr %a, metadata !2307, metadata !DIExpression()), !dbg !2308
  %0 = load <16 x i8>, ptr %a, align 16, !dbg !2309
  store <16 x i8> %0, ptr %_0, align 16, !dbg !2309
  ret void, !dbg !2310
}

; core::core_arch::arm_shared::neon::generated::vandq_u8
; Function Attrs: inlinehint uwtable
define internal void @_ZN4core9core_arch10arm_shared4neon9generated8vandq_u817hdb2e895e1cbea28aE(ptr sret(<16 x i8>) align 16 %_0, ptr align 16 %a, ptr align 16 %b) unnamed_addr #4 !dbg !2311 {
start:
  call void @llvm.dbg.declare(metadata ptr %a, metadata !2315, metadata !DIExpression()), !dbg !2317
  call void @llvm.dbg.declare(metadata ptr %b, metadata !2316, metadata !DIExpression()), !dbg !2318
  %0 = load <16 x i8>, ptr %a, align 16, !dbg !2319
  %1 = load <16 x i8>, ptr %b, align 16, !dbg !2319
  %2 = and <16 x i8> %0, %1, !dbg !2319
  store <16 x i8> %2, ptr %_0, align 16, !dbg !2319
  ret void, !dbg !2320
}

; core::core_arch::arm_shared::neon::generated::vceqq_u8
; Function Attrs: inlinehint uwtable
define internal void @_ZN4core9core_arch10arm_shared4neon9generated8vceqq_u817hac321211cac17e95E(ptr sret(<16 x i8>) align 16 %_0, ptr align 16 %a, ptr align 16 %b) unnamed_addr #4 !dbg !2321 {
start:
  call void @llvm.dbg.declare(metadata ptr %a, metadata !2323, metadata !DIExpression()), !dbg !2325
  call void @llvm.dbg.declare(metadata ptr %b, metadata !2324, metadata !DIExpression()), !dbg !2326
  %0 = load <16 x i8>, ptr %a, align 16, !dbg !2327
  %1 = load <16 x i8>, ptr %b, align 16, !dbg !2327
  %2 = icmp eq <16 x i8> %0, %1, !dbg !2327
  %3 = sext <16 x i1> %2 to <16 x i8>, !dbg !2327
  store <16 x i8> %3, ptr %_0, align 16, !dbg !2327
  ret void, !dbg !2328
}

; core::core_arch::arm_shared::neon::generated::vorrq_u8
; Function Attrs: inlinehint uwtable
define internal void @_ZN4core9core_arch10arm_shared4neon9generated8vorrq_u817h10696a791bf9cd49E(ptr sret(<16 x i8>) align 16 %_0, ptr align 16 %a, ptr align 16 %b) unnamed_addr #4 !dbg !2329 {
start:
  call void @llvm.dbg.declare(metadata ptr %a, metadata !2331, metadata !DIExpression()), !dbg !2333
  call void @llvm.dbg.declare(metadata ptr %b, metadata !2332, metadata !DIExpression()), !dbg !2334
  %0 = load <16 x i8>, ptr %a, align 16, !dbg !2335
  %1 = load <16 x i8>, ptr %b, align 16, !dbg !2335
  %2 = or <16 x i8> %0, %1, !dbg !2335
  store <16 x i8> %2, ptr %_0, align 16, !dbg !2335
  ret void, !dbg !2336
}

; core::core_arch::aarch64::neon::vld1q_u8
; Function Attrs: inlinehint uwtable
define internal void @_ZN4core9core_arch7aarch644neon8vld1q_u817h89f38727c62e0b03E(ptr sret(<16 x i8>) align 16 %_0, ptr %ptr) unnamed_addr #4 !dbg !2337 {
start:
  %self.dbg.spill.i = alloca ptr, align 8
  %ptr.dbg.spill = alloca ptr, align 8
  store ptr %ptr, ptr %ptr.dbg.spill, align 8
  call void @llvm.dbg.declare(metadata ptr %ptr.dbg.spill, metadata !2344, metadata !DIExpression()), !dbg !2345
  store ptr %ptr, ptr %self.dbg.spill.i, align 8
  call void @llvm.dbg.declare(metadata ptr %self.dbg.spill.i, metadata !2346, metadata !DIExpression()), !dbg !2353
; call core::ptr::read_unaligned
  call void @_ZN4core3ptr14read_unaligned17hce55aec571741c1eE(ptr sret(<16 x i8>) align 16 %_0, ptr %ptr), !dbg !2355
  ret void, !dbg !2356
}

; core::core_arch::aarch64::neon::vpmaxq_u8
; Function Attrs: inlinehint uwtable
define internal void @_ZN4core9core_arch7aarch644neon9vpmaxq_u817hfedb261a76e3ab12E(ptr sret(<16 x i8>) align 16 %_0, ptr align 16 %a, ptr align 16 %b) unnamed_addr #4 !dbg !2357 {
start:
  call void @llvm.dbg.declare(metadata ptr %a, metadata !2359, metadata !DIExpression()), !dbg !2361
  call void @llvm.dbg.declare(metadata ptr %b, metadata !2360, metadata !DIExpression()), !dbg !2362
  %0 = load <16 x i8>, ptr %a, align 16, !dbg !2363
  %1 = load <16 x i8>, ptr %b, align 16, !dbg !2363
  %2 = call <16 x i8> @llvm.aarch64.neon.umaxp.v16i8(<16 x i8> %0, <16 x i8> %1) #14, !dbg !2363
  store <16 x i8> %2, ptr %_0, align 16, !dbg !2363
  ret void, !dbg !2364
}

; core::panicking::assert_failed
; Function Attrs: cold noinline noreturn uwtable
define void @_ZN4core9panicking13assert_failed17h6fb6b8f089becac3E(i8 %kind, ptr align 8 %0, ptr align 8 %1, ptr align 8 %args, ptr align 8 %2) unnamed_addr #5 !dbg !2365 {
start:
  %kind.dbg.spill = alloca i8, align 1
  %right = alloca ptr, align 8
  %left = alloca ptr, align 8
  store ptr %0, ptr %left, align 8
  store ptr %1, ptr %right, align 8
  store i8 %kind, ptr %kind.dbg.spill, align 1
  call void @llvm.dbg.declare(metadata ptr %kind.dbg.spill, metadata !2383, metadata !DIExpression()), !dbg !2388
  call void @llvm.dbg.declare(metadata ptr %left, metadata !2384, metadata !DIExpression()), !dbg !2389
  call void @llvm.dbg.declare(metadata ptr %right, metadata !2385, metadata !DIExpression()), !dbg !2390
  call void @llvm.dbg.declare(metadata ptr %args, metadata !2386, metadata !DIExpression()), !dbg !2391
; call core::panicking::assert_failed_inner
  call void @_ZN4core9panicking19assert_failed_inner17h4b5032158eb685cdE(i8 %kind, ptr align 1 %left, ptr align 8 @vtable.1, ptr align 1 %right, ptr align 8 @vtable.1, ptr align 8 %args, ptr align 8 %2) #12, !dbg !2392
  unreachable, !dbg !2392
}

; <&T as core::convert::AsRef<U>>::as_ref
; Function Attrs: inlinehint uwtable
define { ptr, i64 } @"_ZN55_$LT$$RF$T$u20$as$u20$core..convert..AsRef$LT$U$GT$$GT$6as_ref17hb852bb024e360e7aE"(ptr align 8 %self) unnamed_addr #0 !dbg !2393 {
start:
  %self.dbg.spill.i = alloca { ptr, i64 }, align 8
  %self.dbg.spill = alloca ptr, align 8
  store ptr %self, ptr %self.dbg.spill, align 8
  call void @llvm.dbg.declare(metadata ptr %self.dbg.spill, metadata !2400, metadata !DIExpression()), !dbg !2401
  %_2.0 = load ptr, ptr %self, align 8, !dbg !2402, !nonnull !13, !align !268, !noundef !13
  %0 = getelementptr inbounds i8, ptr %self, i64 8, !dbg !2402
  %_2.1 = load i64, ptr %0, align 8, !dbg !2402, !noundef !13
  store ptr %_2.0, ptr %self.dbg.spill.i, align 8
  %1 = getelementptr inbounds i8, ptr %self.dbg.spill.i, i64 8
  store i64 %_2.1, ptr %1, align 8
  call void @llvm.dbg.declare(metadata ptr %self.dbg.spill.i, metadata !2403, metadata !DIExpression()), !dbg !2409
  %2 = insertvalue { ptr, i64 } poison, ptr %_2.0, 0, !dbg !2411
  %3 = insertvalue { ptr, i64 } %2, i64 %_2.1, 1, !dbg !2411
  %_0.0 = extractvalue { ptr, i64 } %3, 0, !dbg !2412
  %_0.1 = extractvalue { ptr, i64 } %3, 1, !dbg !2412
  %4 = insertvalue { ptr, i64 } poison, ptr %_0.0, 0, !dbg !2413
  %5 = insertvalue { ptr, i64 } %4, i64 %_0.1, 1, !dbg !2413
  ret { ptr, i64 } %5, !dbg !2413
}

; <I as core::iter::traits::collect::IntoIterator>::into_iter
; Function Attrs: inlinehint uwtable
define { i64, i64 } @"_ZN63_$LT$I$u20$as$u20$core..iter..traits..collect..IntoIterator$GT$9into_iter17h350bf7f5a1f8b235E"(i64 %self.0, i64 %self.1) unnamed_addr #0 !dbg !2414 {
start:
  %self.dbg.spill = alloca %"core::iter::adapters::rev::Rev<core::ops::range::Range<usize>>", align 8
  store i64 %self.0, ptr %self.dbg.spill, align 8
  %0 = getelementptr inbounds i8, ptr %self.dbg.spill, i64 8
  store i64 %self.1, ptr %0, align 8
  call void @llvm.dbg.declare(metadata ptr %self.dbg.spill, metadata !2421, metadata !DIExpression()), !dbg !2424
  %1 = insertvalue { i64, i64 } poison, i64 %self.0, 0, !dbg !2425
  %2 = insertvalue { i64, i64 } %1, i64 %self.1, 1, !dbg !2425
  ret { i64, i64 } %2, !dbg !2425
}

; <core::option::Option<T> as core::ops::try_trait::Try>::branch
; Function Attrs: inlinehint uwtable
define { i64, i64 } @"_ZN75_$LT$core..option..Option$LT$T$GT$$u20$as$u20$core..ops..try_trait..Try$GT$6branch17h157c47f03d44a6b9E"(i64 %0, i64 %1) unnamed_addr #0 !dbg !2426 {
start:
  %v.dbg.spill = alloca i64, align 8
  %_0 = alloca %"core::ops::control_flow::ControlFlow<core::option::Option<core::convert::Infallible>, usize>", align 8
  %self = alloca %"core::option::Option<usize>", align 8
  store i64 %0, ptr %self, align 8
  %2 = getelementptr inbounds i8, ptr %self, i64 8
  store i64 %1, ptr %2, align 8
  call void @llvm.dbg.declare(metadata ptr %self, metadata !2463, metadata !DIExpression()), !dbg !2466
  %_2 = load i64, ptr %self, align 8, !dbg !2467, !range !1004, !noundef !13
  %3 = icmp eq i64 %_2, 0, !dbg !2468
  br i1 %3, label %bb2, label %bb3, !dbg !2468

bb2:                                              ; preds = %start
  store i64 1, ptr %_0, align 8, !dbg !2469
  br label %bb4, !dbg !2470

bb3:                                              ; preds = %start
  %4 = getelementptr inbounds i8, ptr %self, i64 8, !dbg !2471
  %v = load i64, ptr %4, align 8, !dbg !2471, !noundef !13
  store i64 %v, ptr %v.dbg.spill, align 8, !dbg !2471
  call void @llvm.dbg.declare(metadata ptr %v.dbg.spill, metadata !2464, metadata !DIExpression()), !dbg !2472
  %5 = getelementptr inbounds i8, ptr %_0, i64 8, !dbg !2473
  store i64 %v, ptr %5, align 8, !dbg !2473
  store i64 0, ptr %_0, align 8, !dbg !2473
  br label %bb4, !dbg !2474

bb4:                                              ; preds = %bb3, %bb2
  %6 = load i64, ptr %_0, align 8, !dbg !2475, !range !1004, !noundef !13
  %7 = getelementptr inbounds i8, ptr %_0, i64 8, !dbg !2475
  %8 = load i64, ptr %7, align 8, !dbg !2475
  %9 = insertvalue { i64, i64 } poison, i64 %6, 0, !dbg !2475
  %10 = insertvalue { i64, i64 } %9, i64 %8, 1, !dbg !2475
  ret { i64, i64 } %10, !dbg !2475

bb1:                                              ; No predecessors!
  unreachable, !dbg !2467
}

; <core::option::Option<T> as core::ops::try_trait::Try>::branch
; Function Attrs: inlinehint uwtable
define { i64, ptr } @"_ZN75_$LT$core..option..Option$LT$T$GT$$u20$as$u20$core..ops..try_trait..Try$GT$6branch17h7e6de9fd4073792aE"(i64 %0, ptr %1) unnamed_addr #0 !dbg !2476 {
start:
  %v.dbg.spill = alloca ptr, align 8
  %_0 = alloca %"core::ops::control_flow::ControlFlow<core::option::Option<core::convert::Infallible>, *const u8>", align 8
  %self = alloca %"core::option::Option<*const u8>", align 8
  store i64 %0, ptr %self, align 8
  %2 = getelementptr inbounds i8, ptr %self, i64 8
  store ptr %1, ptr %2, align 8
  call void @llvm.dbg.declare(metadata ptr %self, metadata !2508, metadata !DIExpression()), !dbg !2511
  %_2 = load i64, ptr %self, align 8, !dbg !2512, !range !1004, !noundef !13
  %3 = icmp eq i64 %_2, 0, !dbg !2513
  br i1 %3, label %bb2, label %bb3, !dbg !2513

bb2:                                              ; preds = %start
  store i64 1, ptr %_0, align 8, !dbg !2514
  br label %bb4, !dbg !2515

bb3:                                              ; preds = %start
  %4 = getelementptr inbounds i8, ptr %self, i64 8, !dbg !2516
  %v = load ptr, ptr %4, align 8, !dbg !2516, !noundef !13
  store ptr %v, ptr %v.dbg.spill, align 8, !dbg !2516
  call void @llvm.dbg.declare(metadata ptr %v.dbg.spill, metadata !2509, metadata !DIExpression()), !dbg !2517
  %5 = getelementptr inbounds i8, ptr %_0, i64 8, !dbg !2518
  store ptr %v, ptr %5, align 8, !dbg !2518
  store i64 0, ptr %_0, align 8, !dbg !2518
  br label %bb4, !dbg !2519

bb4:                                              ; preds = %bb3, %bb2
  %6 = load i64, ptr %_0, align 8, !dbg !2520, !range !1004, !noundef !13
  %7 = getelementptr inbounds i8, ptr %_0, i64 8, !dbg !2520
  %8 = load ptr, ptr %7, align 8, !dbg !2520
  %9 = insertvalue { i64, ptr } poison, i64 %6, 0, !dbg !2520
  %10 = insertvalue { i64, ptr } %9, ptr %8, 1, !dbg !2520
  ret { i64, ptr } %10, !dbg !2520

bb1:                                              ; No predecessors!
  unreachable, !dbg !2512
}

; <core::option::Option<T> as core::ops::try_trait::Try>::branch
; Function Attrs: inlinehint uwtable
define { ptr, i64 } @"_ZN75_$LT$core..option..Option$LT$T$GT$$u20$as$u20$core..ops..try_trait..Try$GT$6branch17h90245b31a704c1fbE"(ptr align 1 %0, i64 %1) unnamed_addr #0 !dbg !2521 {
start:
  %v.dbg.spill = alloca { ptr, i64 }, align 8
  %_0 = alloca %"core::ops::control_flow::ControlFlow<core::option::Option<core::convert::Infallible>, &[u8]>", align 8
  %self = alloca %"core::option::Option<&[u8]>", align 8
  store ptr %0, ptr %self, align 8
  %2 = getelementptr inbounds i8, ptr %self, i64 8
  store i64 %1, ptr %2, align 8
  call void @llvm.dbg.declare(metadata ptr %self, metadata !2540, metadata !DIExpression()), !dbg !2543
  %3 = load ptr, ptr %self, align 8, !dbg !2544, !noundef !13
  %4 = ptrtoint ptr %3 to i64, !dbg !2544
  %5 = icmp eq i64 %4, 0, !dbg !2544
  %_2 = select i1 %5, i64 0, i64 1, !dbg !2544
  %6 = icmp eq i64 %_2, 0, !dbg !2545
  br i1 %6, label %bb2, label %bb3, !dbg !2545

bb2:                                              ; preds = %start
  store ptr null, ptr %_0, align 8, !dbg !2546
  br label %bb4, !dbg !2547

bb3:                                              ; preds = %start
  %v.0 = load ptr, ptr %self, align 8, !dbg !2548, !nonnull !13, !align !268, !noundef !13
  %7 = getelementptr inbounds i8, ptr %self, i64 8, !dbg !2548
  %v.1 = load i64, ptr %7, align 8, !dbg !2548, !noundef !13
  store ptr %v.0, ptr %v.dbg.spill, align 8, !dbg !2548
  %8 = getelementptr inbounds i8, ptr %v.dbg.spill, i64 8, !dbg !2548
  store i64 %v.1, ptr %8, align 8, !dbg !2548
  call void @llvm.dbg.declare(metadata ptr %v.dbg.spill, metadata !2541, metadata !DIExpression()), !dbg !2549
  store ptr %v.0, ptr %_0, align 8, !dbg !2550
  %9 = getelementptr inbounds i8, ptr %_0, i64 8, !dbg !2550
  store i64 %v.1, ptr %9, align 8, !dbg !2550
  br label %bb4, !dbg !2551

bb4:                                              ; preds = %bb3, %bb2
  %10 = load ptr, ptr %_0, align 8, !dbg !2552, !align !268, !noundef !13
  %11 = getelementptr inbounds i8, ptr %_0, i64 8, !dbg !2552
  %12 = load i64, ptr %11, align 8, !dbg !2552
  %13 = insertvalue { ptr, i64 } poison, ptr %10, 0, !dbg !2552
  %14 = insertvalue { ptr, i64 } %13, i64 %12, 1, !dbg !2552
  ret { ptr, i64 } %14, !dbg !2552

bb1:                                              ; No predecessors!
  unreachable, !dbg !2544
}

; <usize as core::slice::index::SliceIndex<[T]>>::get
; Function Attrs: inlinehint uwtable
define align 1 ptr @"_ZN75_$LT$usize$u20$as$u20$core..slice..index..SliceIndex$LT$$u5b$T$u5d$$GT$$GT$3get17ha0d173f951920e06E"(i64 %self, ptr align 1 %slice.0, i64 %slice.1) unnamed_addr #0 !dbg !2553 {
start:
  %self.dbg.spill1 = alloca ptr, align 8
  %slice.dbg.spill = alloca { ptr, i64 }, align 8
  %self.dbg.spill = alloca i64, align 8
  %_16 = alloca %"core::ptr::metadata::PtrRepr<[u8]>", align 8
  %_15 = alloca %"core::ptr::metadata::PtrRepr<[u8]>", align 8
  %_0 = alloca ptr, align 8
  store i64 %self, ptr %self.dbg.spill, align 8
  call void @llvm.dbg.declare(metadata ptr %self.dbg.spill, metadata !2558, metadata !DIExpression()), !dbg !2560
  call void @llvm.dbg.declare(metadata ptr %self.dbg.spill, metadata !2561, metadata !DIExpression()), !dbg !2568
  call void @llvm.dbg.declare(metadata ptr %self.dbg.spill, metadata !2570, metadata !DIExpression()), !dbg !2575
  store ptr %slice.0, ptr %slice.dbg.spill, align 8
  %0 = getelementptr inbounds i8, ptr %slice.dbg.spill, i64 8
  store i64 %slice.1, ptr %0, align 8
  call void @llvm.dbg.declare(metadata ptr %slice.dbg.spill, metadata !2559, metadata !DIExpression()), !dbg !2577
  call void @llvm.dbg.declare(metadata ptr %slice.dbg.spill, metadata !2567, metadata !DIExpression()), !dbg !2578
  call void @llvm.dbg.declare(metadata ptr %slice.dbg.spill, metadata !2579, metadata !DIExpression()), !dbg !2585
  call void @llvm.dbg.declare(metadata ptr %slice.dbg.spill, metadata !2587, metadata !DIExpression()), !dbg !2593
  call void @llvm.dbg.declare(metadata ptr %slice.dbg.spill, metadata !2583, metadata !DIExpression()), !dbg !2595
  call void @llvm.dbg.declare(metadata ptr %slice.dbg.spill, metadata !2591, metadata !DIExpression()), !dbg !2597
  call void @llvm.dbg.declare(metadata ptr %slice.dbg.spill, metadata !2599, metadata !DIExpression()), !dbg !2603
  %_3 = icmp ult i64 %self, %slice.1, !dbg !2605
  br i1 %_3, label %bb1, label %bb2, !dbg !2605

bb2:                                              ; preds = %start
  store ptr null, ptr %_0, align 8, !dbg !2606
  br label %bb3, !dbg !2607

bb1:                                              ; preds = %start
  br label %bb4, !dbg !2608

bb3:                                              ; preds = %bb7, %bb2
  %1 = load ptr, ptr %_0, align 8, !dbg !2609, !align !268, !noundef !13
  ret ptr %1, !dbg !2609

bb4:                                              ; preds = %bb1
  store ptr %slice.0, ptr %_15, align 8, !dbg !2610
  %2 = getelementptr inbounds i8, ptr %_15, i64 8, !dbg !2610
  store i64 %slice.1, ptr %2, align 8, !dbg !2610
  %3 = getelementptr inbounds i8, ptr %_15, i64 8, !dbg !2610
  %_10 = load i64, ptr %3, align 8, !dbg !2610, !noundef !13
  %_9 = icmp ult i64 %self, %_10, !dbg !2611
  br i1 %_9, label %bb5, label %bb6, !dbg !2611

bb6:                                              ; preds = %bb4
; call core::panicking::panic_nounwind
  call void @_ZN4core9panicking14panic_nounwind17h50c31e15afde233eE(ptr align 1 @alloc_8572d294b7d4b9d2125dc5191e02725c, i64 64) #11, !dbg !2608
  unreachable, !dbg !2608

bb5:                                              ; preds = %bb4
  br label %bb7, !dbg !2608

bb7:                                              ; preds = %bb5
  store ptr %slice.0, ptr %_16, align 8, !dbg !2612
  %4 = getelementptr inbounds i8, ptr %_16, i64 8, !dbg !2612
  store i64 %slice.1, ptr %4, align 8, !dbg !2612
  %5 = getelementptr inbounds i8, ptr %_16, i64 8, !dbg !2612
  %_13 = load i64, ptr %5, align 8, !dbg !2612, !noundef !13
  %_12 = icmp ult i64 %self, %_13, !dbg !2613
  store ptr %slice.0, ptr %self.dbg.spill1, align 8, !dbg !2614
  call void @llvm.dbg.declare(metadata ptr %self.dbg.spill1, metadata !2574, metadata !DIExpression()), !dbg !2615
  %_6 = getelementptr inbounds i8, ptr %slice.0, i64 %self, !dbg !2616
  store ptr %_6, ptr %_0, align 8, !dbg !2617
  br label %bb3, !dbg !2607
}

; <core::option::Option<T> as core::ops::try_trait::FromResidual>::from_residual
; Function Attrs: inlinehint uwtable
define { i64, i64 } @"_ZN84_$LT$core..option..Option$LT$T$GT$$u20$as$u20$core..ops..try_trait..FromResidual$GT$13from_residual17hd84c5f1a14b59ff1E"() unnamed_addr #0 !dbg !2618 {
start:
  %_1.dbg.spill = alloca %"core::option::Option<core::convert::Infallible>::None", align 1
  %_0 = alloca %"core::option::Option<usize>", align 8
  %residual.dbg.spill = alloca %"core::option::Option<core::convert::Infallible>::None", align 1
  call void @llvm.dbg.declare(metadata ptr %residual.dbg.spill, metadata !2623, metadata !DIExpression()), !dbg !2625
  call void @llvm.dbg.declare(metadata ptr %_1.dbg.spill, metadata !2624, metadata !DIExpression()), !dbg !2625
  store i64 0, ptr %_0, align 8, !dbg !2626
  %0 = load i64, ptr %_0, align 8, !dbg !2627, !range !1004, !noundef !13
  %1 = getelementptr inbounds i8, ptr %_0, i64 8, !dbg !2627
  %2 = load i64, ptr %1, align 8, !dbg !2627
  %3 = insertvalue { i64, i64 } poison, i64 %0, 0, !dbg !2627
  %4 = insertvalue { i64, i64 } %3, i64 %2, 1, !dbg !2627
  ret { i64, i64 } %4, !dbg !2627
}

; <core::ops::range::Range<T> as core::iter::range::RangeIteratorImpl>::spec_next_back
; Function Attrs: inlinehint uwtable
define { i64, i64 } @"_ZN89_$LT$core..ops..range..Range$LT$T$GT$$u20$as$u20$core..iter..range..RangeIteratorImpl$GT$14spec_next_back17h17cdedcc5f8edccbE"(ptr align 8 %self) unnamed_addr #0 !dbg !2628 {
start:
  %other.dbg.spill.i = alloca ptr, align 8
  %self.dbg.spill.i = alloca ptr, align 8
  %self.dbg.spill = alloca ptr, align 8
  %_0 = alloca %"core::option::Option<usize>", align 8
  store ptr %self, ptr %self.dbg.spill, align 8
  call void @llvm.dbg.declare(metadata ptr %self.dbg.spill, metadata !2631, metadata !DIExpression()), !dbg !2632
  %_4 = getelementptr inbounds i8, ptr %self, i64 8, !dbg !2633
  store ptr %self, ptr %self.dbg.spill.i, align 8
  call void @llvm.dbg.declare(metadata ptr %self.dbg.spill.i, metadata !2634, metadata !DIExpression()), !dbg !2641
  store ptr %_4, ptr %other.dbg.spill.i, align 8
  call void @llvm.dbg.declare(metadata ptr %other.dbg.spill.i, metadata !2640, metadata !DIExpression()), !dbg !2643
  %_3.i = load i64, ptr %self, align 8, !dbg !2644, !noundef !13
  %_4.i = load i64, ptr %_4, align 8, !dbg !2645, !noundef !13
  %_0.i = icmp ult i64 %_3.i, %_4.i, !dbg !2644
  br i1 %_0.i, label %bb2, label %bb4, !dbg !2646

bb4:                                              ; preds = %start
  store i64 0, ptr %_0, align 8, !dbg !2647
  br label %bb5, !dbg !2648

bb2:                                              ; preds = %start
  %0 = getelementptr inbounds i8, ptr %self, i64 8, !dbg !2649
  %_6 = load i64, ptr %0, align 8, !dbg !2649, !noundef !13
; call <usize as core::iter::range::Step>::backward_unchecked
  %_5 = call i64 @"_ZN49_$LT$usize$u20$as$u20$core..iter..range..Step$GT$18backward_unchecked17h7884a0754fdd9440E"(i64 %_6, i64 1), !dbg !2650
  %1 = getelementptr inbounds i8, ptr %self, i64 8, !dbg !2651
  store i64 %_5, ptr %1, align 8, !dbg !2651
  %2 = getelementptr inbounds i8, ptr %self, i64 8, !dbg !2652
  %_7 = load i64, ptr %2, align 8, !dbg !2652, !noundef !13
  %3 = getelementptr inbounds i8, ptr %_0, i64 8, !dbg !2653
  store i64 %_7, ptr %3, align 8, !dbg !2653
  store i64 1, ptr %_0, align 8, !dbg !2653
  br label %bb5, !dbg !2648

bb5:                                              ; preds = %bb2, %bb4
  %4 = load i64, ptr %_0, align 8, !dbg !2654, !range !1004, !noundef !13
  %5 = getelementptr inbounds i8, ptr %_0, i64 8, !dbg !2654
  %6 = load i64, ptr %5, align 8, !dbg !2654
  %7 = insertvalue { i64, i64 } poison, i64 %4, 0, !dbg !2654
  %8 = insertvalue { i64, i64 } %7, i64 %6, 1, !dbg !2654
  ret { i64, i64 } %8, !dbg !2654
}

; <core::slice::iter::Iter<T> as core::iter::traits::iterator::Iterator>::next
; Function Attrs: inlinehint uwtable
define align 1 ptr @"_ZN91_$LT$core..slice..iter..Iter$LT$T$GT$$u20$as$u20$core..iter..traits..iterator..Iterator$GT$4next17ha146a0d6201899c4E"(ptr align 8 %self) unnamed_addr #0 !dbg !2655 {
start:
  %self.dbg.spill22 = alloca ptr, align 8
  %self.dbg.spill21 = alloca ptr, align 8
  %self.dbg.spill19 = alloca ptr, align 8
  %self.dbg.spill18 = alloca i64, align 8
  %len.dbg.spill16 = alloca ptr, align 8
  %self.dbg.spill15 = alloca ptr, align 8
  %self.dbg.spill13 = alloca ptr, align 8
  %_end.dbg.spill = alloca ptr, align 8
  %self.dbg.spill11 = alloca ptr, align 8
  %len.dbg.spill = alloca i64, align 8
  %self.dbg.spill9 = alloca ptr, align 8
  %self.dbg.spill7 = alloca ptr, align 8
  %self.dbg.spill5 = alloca ptr, align 8
  %other.dbg.spill = alloca ptr, align 8
  %self.dbg.spill3 = alloca ptr, align 8
  %self.dbg.spill2 = alloca ptr, align 8
  %self.dbg.spill = alloca ptr, align 8
  %_28 = alloca ptr, align 8
  %old = alloca ptr, align 8
  %end = alloca ptr, align 8
  %_2 = alloca i8, align 1
  %_0 = alloca ptr, align 8
  %count.dbg.spill = alloca i64, align 8
  %rhs.dbg.spill = alloca i64, align 8
  %offset.dbg.spill = alloca i64, align 8
  store i64 1, ptr %offset.dbg.spill, align 8, !dbg !2667
  call void @llvm.dbg.declare(metadata ptr %offset.dbg.spill, metadata !2675, metadata !DIExpression()), !dbg !2667
  store i64 1, ptr %rhs.dbg.spill, align 8, !dbg !2684
  call void @llvm.dbg.declare(metadata ptr %rhs.dbg.spill, metadata !2690, metadata !DIExpression()), !dbg !2684
  store i64 1, ptr %count.dbg.spill, align 8, !dbg !2692
  call void @llvm.dbg.declare(metadata ptr %count.dbg.spill, metadata !2700, metadata !DIExpression()), !dbg !2692
  store ptr %self, ptr %self.dbg.spill, align 8, !dbg !2692
  call void @llvm.dbg.declare(metadata ptr %self.dbg.spill, metadata !2662, metadata !DIExpression()), !dbg !2702
  call void @llvm.dbg.declare(metadata ptr %self.dbg.spill, metadata !2674, metadata !DIExpression()), !dbg !2703
  call void @llvm.dbg.declare(metadata ptr %end, metadata !2665, metadata !DIExpression()), !dbg !2704
  call void @llvm.dbg.declare(metadata ptr %old, metadata !2676, metadata !DIExpression()), !dbg !2705
  br label %bb2, !dbg !2706

bb2:                                              ; preds = %start
  %self1 = getelementptr inbounds i8, ptr %self, i64 8, !dbg !2706
  store ptr %self1, ptr %self.dbg.spill2, align 8, !dbg !2706
  call void @llvm.dbg.declare(metadata ptr %self.dbg.spill2, metadata !2707, metadata !DIExpression()), !dbg !2717
  %0 = load ptr, ptr %self1, align 8, !dbg !2706, !nonnull !13, !noundef !13
  store ptr %0, ptr %end, align 8, !dbg !2706
  store ptr %self, ptr %self.dbg.spill3, align 8, !dbg !2704
  call void @llvm.dbg.declare(metadata ptr %self.dbg.spill3, metadata !2719, metadata !DIExpression()), !dbg !2728
  store ptr %end, ptr %other.dbg.spill, align 8, !dbg !2704
  call void @llvm.dbg.declare(metadata ptr %other.dbg.spill, metadata !2727, metadata !DIExpression()), !dbg !2730
  %self4 = load ptr, ptr %self, align 8, !dbg !2731, !nonnull !13, !noundef !13
  store ptr %self4, ptr %self.dbg.spill5, align 8, !dbg !2731
  call void @llvm.dbg.declare(metadata ptr %self.dbg.spill5, metadata !2732, metadata !DIExpression()), !dbg !2740
  %self6 = load ptr, ptr %end, align 8, !dbg !2742, !nonnull !13, !noundef !13
  store ptr %self6, ptr %self.dbg.spill7, align 8, !dbg !2742
  call void @llvm.dbg.declare(metadata ptr %self.dbg.spill7, metadata !2736, metadata !DIExpression()), !dbg !2743
  %1 = icmp eq ptr %self4, %self6, !dbg !2731
  %2 = zext i1 %1 to i8, !dbg !2731
  store i8 %2, ptr %_2, align 1, !dbg !2731
  br label %bb3, !dbg !2706

bb3:                                              ; preds = %bb1, %bb2
  %3 = load i8, ptr %_2, align 1, !dbg !2706, !range !541, !noundef !13
  %4 = trunc i8 %3 to i1, !dbg !2706
  br i1 %4, label %bb4, label %bb5, !dbg !2706

bb1:                                              ; No predecessors!
  %5 = getelementptr inbounds i8, ptr %self, i64 8, !dbg !2706
  %self8 = load ptr, ptr %5, align 8, !dbg !2706, !noundef !13
  store ptr %self8, ptr %self.dbg.spill9, align 8, !dbg !2706
  call void @llvm.dbg.declare(metadata ptr %self.dbg.spill9, metadata !2745, metadata !DIExpression()), !dbg !2749
  call void @llvm.dbg.declare(metadata ptr %self.dbg.spill9, metadata !2751, metadata !DIExpression()), !dbg !2755
  %len = ptrtoint ptr %self8 to i64, !dbg !2757
  store i64 %len, ptr %len.dbg.spill, align 8, !dbg !2757
  call void @llvm.dbg.declare(metadata ptr %len.dbg.spill, metadata !2663, metadata !DIExpression()), !dbg !2758
  %6 = icmp eq i64 %len, 0, !dbg !2758
  %7 = zext i1 %6 to i8, !dbg !2758
  store i8 %7, ptr %_2, align 1, !dbg !2758
  br label %bb3, !dbg !2706

bb5:                                              ; preds = %bb3
  %8 = load ptr, ptr %self, align 8, !dbg !2759, !nonnull !13, !noundef !13
  store ptr %8, ptr %old, align 8, !dbg !2759
  br label %bb8, !dbg !2760

bb4:                                              ; preds = %bb3
  store ptr null, ptr %_0, align 8, !dbg !2761
  br label %bb6, !dbg !2762

bb8:                                              ; preds = %bb5
  %self10 = getelementptr inbounds i8, ptr %self, i64 8, !dbg !2760
  store ptr %self10, ptr %self.dbg.spill11, align 8, !dbg !2760
  call void @llvm.dbg.declare(metadata ptr %self.dbg.spill11, metadata !2763, metadata !DIExpression()), !dbg !2770
  store ptr %self10, ptr %_end.dbg.spill, align 8, !dbg !2772
  call void @llvm.dbg.declare(metadata ptr %_end.dbg.spill, metadata !2680, metadata !DIExpression()), !dbg !2773
  %self12 = load ptr, ptr %self, align 8, !dbg !2774, !nonnull !13, !noundef !13
  store ptr %self12, ptr %self.dbg.spill13, align 8, !dbg !2774
  call void @llvm.dbg.declare(metadata ptr %self.dbg.spill13, metadata !2699, metadata !DIExpression()), !dbg !2775
  %_30 = getelementptr inbounds i8, ptr %self12, i64 1, !dbg !2776
  store ptr %_30, ptr %_28, align 8, !dbg !2777
  %9 = load ptr, ptr %_28, align 8, !dbg !2778, !nonnull !13, !noundef !13
  store ptr %9, ptr %self, align 8, !dbg !2778
  br label %bb9, !dbg !2760

bb9:                                              ; preds = %bb7, %bb8
  store ptr %old, ptr %self.dbg.spill19, align 8, !dbg !2779
  call void @llvm.dbg.declare(metadata ptr %self.dbg.spill19, metadata !2780, metadata !DIExpression()), !dbg !2787
  %self20 = load ptr, ptr %old, align 8, !dbg !2789, !nonnull !13, !noundef !13
  store ptr %self20, ptr %self.dbg.spill21, align 8, !dbg !2789
  call void @llvm.dbg.declare(metadata ptr %self.dbg.spill21, metadata !2738, metadata !DIExpression()), !dbg !2790
  store ptr %self20, ptr %self.dbg.spill22, align 8, !dbg !2792
  call void @llvm.dbg.declare(metadata ptr %self.dbg.spill22, metadata !2793, metadata !DIExpression()), !dbg !2799
  store ptr %self20, ptr %_0, align 8, !dbg !2801
  br label %bb6, !dbg !2762

bb7:                                              ; No predecessors!
  %self14 = getelementptr inbounds i8, ptr %self, i64 8, !dbg !2760
  store ptr %self14, ptr %self.dbg.spill15, align 8, !dbg !2760
  call void @llvm.dbg.declare(metadata ptr %self.dbg.spill15, metadata !2802, metadata !DIExpression()), !dbg !2809
  store ptr %self14, ptr %len.dbg.spill16, align 8, !dbg !2811
  call void @llvm.dbg.declare(metadata ptr %len.dbg.spill16, metadata !2678, metadata !DIExpression()), !dbg !2812
  %self17 = load i64, ptr %self14, align 8, !dbg !2813, !noundef !13
  store i64 %self17, ptr %self.dbg.spill18, align 8, !dbg !2813
  call void @llvm.dbg.declare(metadata ptr %self.dbg.spill18, metadata !2689, metadata !DIExpression()), !dbg !2684
  %_24 = sub nuw i64 %self17, 1, !dbg !2684
  store i64 %_24, ptr %self14, align 8, !dbg !2814
  br label %bb9, !dbg !2760

bb6:                                              ; preds = %bb4, %bb9
  %10 = load ptr, ptr %_0, align 8, !dbg !2815, !align !268, !noundef !13
  ret ptr %10, !dbg !2815
}

; <core::iter::adapters::rev::Rev<I> as core::iter::traits::iterator::Iterator>::next
; Function Attrs: inlinehint uwtable
define { i64, i64 } @"_ZN98_$LT$core..iter..adapters..rev..Rev$LT$I$GT$$u20$as$u20$core..iter..traits..iterator..Iterator$GT$4next17h536afa3bf7399085E"(ptr align 8 %self) unnamed_addr #0 !dbg !2816 {
start:
  %self.dbg.spill = alloca ptr, align 8
  store ptr %self, ptr %self.dbg.spill, align 8
  call void @llvm.dbg.declare(metadata ptr %self.dbg.spill, metadata !2822, metadata !DIExpression()), !dbg !2825
; call core::iter::range::<impl core::iter::traits::double_ended::DoubleEndedIterator for core::ops::range::Range<A>>::next_back
  %0 = call { i64, i64 } @"_ZN4core4iter5range116_$LT$impl$u20$core..iter..traits..double_ended..DoubleEndedIterator$u20$for$u20$core..ops..range..Range$LT$A$GT$$GT$9next_back17h8156c6861769ced9E"(ptr align 8 %self), !dbg !2826
  %_0.0 = extractvalue { i64, i64 } %0, 0, !dbg !2826
  %_0.1 = extractvalue { i64, i64 } %0, 1, !dbg !2826
  %1 = insertvalue { i64, i64 } poison, i64 %_0.0, 0, !dbg !2827
  %2 = insertvalue { i64, i64 } %1, i64 %_0.1, 1, !dbg !2827
  ret { i64, i64 } %2, !dbg !2827
}

; memchr::arch::all::memchr::One::new
; Function Attrs: inlinehint uwtable
define internal { i64, i8 } @_ZN6memchr4arch3all6memchr3One3new17hb66c27c1ab42d472E(i8 %needle) unnamed_addr #0 !dbg !2828 {
start:
  %b.dbg.spill.i = alloca i8, align 1
  %needle.dbg.spill = alloca i8, align 1
  %_0 = alloca %"arch::all::memchr::One", align 8
  store i8 %needle, ptr %needle.dbg.spill, align 1
  call void @llvm.dbg.declare(metadata ptr %needle.dbg.spill, metadata !2839, metadata !DIExpression()), !dbg !2840
  store i8 %needle, ptr %b.dbg.spill.i, align 1
  call void @llvm.dbg.declare(metadata ptr %b.dbg.spill.i, metadata !2841, metadata !DIExpression()), !dbg !2846
  %_2.i = zext i8 %needle to i64, !dbg !2848
  %0 = call { i64, i1 } @llvm.umul.with.overflow.i64(i64 %_2.i, i64 72340172838076673), !dbg !2848
  %_5.0.i = extractvalue { i64, i1 } %0, 0, !dbg !2848
  %_5.1.i = extractvalue { i64, i1 } %0, 1, !dbg !2848
  %1 = call i1 @llvm.expect.i1(i1 %_5.1.i, i1 false), !dbg !2848
  br i1 %1, label %panic.i, label %_ZN6memchr4arch3all6memchr5splat17h4aeb0cb6b366d53cE.exit, !dbg !2848

panic.i:                                          ; preds = %start
; call core::panicking::panic
  call void @_ZN4core9panicking5panic17h5884aad3a9044857E(ptr align 1 @str.3, i64 33, ptr align 8 @alloc_87ded04d224f1779bf0d95ca0b2acd1e) #12, !dbg !2848
  unreachable, !dbg !2848

_ZN6memchr4arch3all6memchr5splat17h4aeb0cb6b366d53cE.exit: ; preds = %start
  %2 = getelementptr inbounds i8, ptr %_0, i64 8, !dbg !2849
  store i8 %needle, ptr %2, align 8, !dbg !2849
  store i64 %_5.0.i, ptr %_0, align 8, !dbg !2849
  %3 = load i64, ptr %_0, align 8, !dbg !2850, !noundef !13
  %4 = getelementptr inbounds i8, ptr %_0, i64 8, !dbg !2850
  %5 = load i8, ptr %4, align 8, !dbg !2850, !noundef !13
  %6 = insertvalue { i64, i8 } poison, i64 %3, 0, !dbg !2850
  %7 = insertvalue { i64, i8 } %6, i8 %5, 1, !dbg !2850
  ret { i64, i8 } %7, !dbg !2850
}

; memchr::arch::all::memchr::One::find
; Function Attrs: inlinehint uwtable
define internal { i64, i64 } @_ZN6memchr4arch3all6memchr3One4find17h77c7a6603c5bf75aE(ptr align 8 %self, ptr align 1 %haystack.0, i64 %haystack.1) unnamed_addr #0 personality ptr @rust_eh_personality !dbg !2851 {
start:
  %self.dbg.spill.i2.i = alloca { ptr, i64 }, align 8
  %count.dbg.spill.i.i = alloca i64, align 8
  %self.dbg.spill.i.i = alloca ptr, align 8
  %found.dbg.spill.i = alloca ptr, align 8
  %end.dbg.spill.i = alloca ptr, align 8
  %start.dbg.spill.i = alloca ptr, align 8
  %0 = alloca { ptr, i32, [1 x i32] }, align 8
  %haystack.dbg.spill.i = alloca { ptr, i64 }, align 8
  %_9.i = alloca { ptr, ptr }, align 8
  %_6.i = alloca %"core::ops::control_flow::ControlFlow<core::option::Option<core::convert::Infallible>, *const u8>", align 8
  %_0.i = alloca %"core::option::Option<usize>", align 8
  %find_raw.i = alloca ptr, align 8
  %haystack.dbg.spill = alloca { ptr, i64 }, align 8
  %self.dbg.spill = alloca ptr, align 8
  %_3 = alloca ptr, align 8
  store ptr %self, ptr %self.dbg.spill, align 8
  call void @llvm.dbg.declare(metadata ptr %self.dbg.spill, metadata !2857, metadata !DIExpression()), !dbg !2859
  store ptr %haystack.0, ptr %haystack.dbg.spill, align 8
  %1 = getelementptr inbounds i8, ptr %haystack.dbg.spill, i64 8
  store i64 %haystack.1, ptr %1, align 8
  call void @llvm.dbg.declare(metadata ptr %haystack.dbg.spill, metadata !2858, metadata !DIExpression()), !dbg !2860
  store ptr %self, ptr %_3, align 8, !dbg !2861
  %2 = load ptr, ptr %_3, align 8, !dbg !2862, !nonnull !13, !align !405, !noundef !13
  call void @llvm.dbg.declare(metadata ptr undef, metadata !2863, metadata !DIExpression()), !dbg !2888
  store ptr %2, ptr %find_raw.i, align 8, !dbg !2888
  store ptr %haystack.0, ptr %haystack.dbg.spill.i, align 8, !dbg !2888
  %3 = getelementptr inbounds i8, ptr %haystack.dbg.spill.i, i64 8, !dbg !2888
  store i64 %haystack.1, ptr %3, align 8, !dbg !2888
  call void @llvm.dbg.declare(metadata ptr %haystack.dbg.spill.i, metadata !2878, metadata !DIExpression()), !dbg !2890
  call void @llvm.dbg.declare(metadata ptr %find_raw.i, metadata !2879, metadata !DIExpression()), !dbg !2891
  store ptr %haystack.0, ptr %self.dbg.spill.i2.i, align 8
  %4 = getelementptr inbounds i8, ptr %self.dbg.spill.i2.i, i64 8
  store i64 %haystack.1, ptr %4, align 8
  call void @llvm.dbg.declare(metadata ptr %self.dbg.spill.i2.i, metadata !2892, metadata !DIExpression()), !dbg !2895
  store ptr %haystack.0, ptr %start.dbg.spill.i, align 8, !dbg !2897
  call void @llvm.dbg.declare(metadata ptr %start.dbg.spill.i, metadata !2880, metadata !DIExpression()), !dbg !2898
  store ptr %haystack.0, ptr %self.dbg.spill.i.i, align 8
  call void @llvm.dbg.declare(metadata ptr %self.dbg.spill.i.i, metadata !2899, metadata !DIExpression()), !dbg !2903
  store i64 %haystack.1, ptr %count.dbg.spill.i.i, align 8
  call void @llvm.dbg.declare(metadata ptr %count.dbg.spill.i.i, metadata !2902, metadata !DIExpression()), !dbg !2905
  %_0.i.i = getelementptr inbounds i8, ptr %haystack.0, i64 %haystack.1, !dbg !2906
  store ptr %_0.i.i, ptr %end.dbg.spill.i, align 8, !dbg !2907
  call void @llvm.dbg.declare(metadata ptr %end.dbg.spill.i, metadata !2881, metadata !DIExpression()), !dbg !2908
  store ptr %haystack.0, ptr %_9.i, align 8, !dbg !2909
  %5 = getelementptr inbounds i8, ptr %_9.i, i64 8, !dbg !2909
  store ptr %_0.i.i, ptr %5, align 8, !dbg !2909
  %6 = load ptr, ptr %_9.i, align 8, !dbg !2909, !noundef !13
  %7 = getelementptr inbounds i8, ptr %_9.i, i64 8, !dbg !2909
  %8 = load ptr, ptr %7, align 8, !dbg !2909, !noundef !13
; invoke memchr::arch::all::memchr::One::find::{{closure}}
  %9 = invoke { i64, ptr } @"_ZN6memchr4arch3all6memchr3One4find28_$u7b$$u7b$closure$u7d$$u7d$17ha81f53513603fe29E"(ptr align 8 %find_raw.i, ptr %6, ptr %8)
          to label %bb3.i unwind label %cleanup.i, !dbg !2909

cleanup.i:                                        ; preds = %bb7.i, %bb6.i, %bb3.i, %start
  %10 = landingpad { ptr, i32 }
          cleanup
  %11 = extractvalue { ptr, i32 } %10, 0
  %12 = extractvalue { ptr, i32 } %10, 1
  store ptr %11, ptr %0, align 8
  %13 = getelementptr inbounds i8, ptr %0, i64 8
  store i32 %12, ptr %13, align 8
  %14 = load ptr, ptr %0, align 8, !dbg !2910, !noundef !13
  %15 = getelementptr inbounds i8, ptr %0, i64 8, !dbg !2910
  %16 = load i32, ptr %15, align 8, !dbg !2910, !noundef !13
  %17 = insertvalue { ptr, i32 } poison, ptr %14, 0, !dbg !2910
  %18 = insertvalue { ptr, i32 } %17, i32 %16, 1, !dbg !2910
  resume { ptr, i32 } %18, !dbg !2910

bb3.i:                                            ; preds = %start
  %_7.0.i = extractvalue { i64, ptr } %9, 0, !dbg !2909
  %_7.1.i = extractvalue { i64, ptr } %9, 1, !dbg !2909
; invoke <core::option::Option<T> as core::ops::try_trait::Try>::branch
  %19 = invoke { i64, ptr } @"_ZN75_$LT$core..option..Option$LT$T$GT$$u20$as$u20$core..ops..try_trait..Try$GT$6branch17h7e6de9fd4073792aE"(i64 %_7.0.i, ptr %_7.1.i)
          to label %bb4.i unwind label %cleanup.i, !dbg !2909

bb4.i:                                            ; preds = %bb3.i
  %20 = extractvalue { i64, ptr } %19, 0, !dbg !2909
  %21 = extractvalue { i64, ptr } %19, 1, !dbg !2909
  store i64 %20, ptr %_6.i, align 8, !dbg !2909
  %22 = getelementptr inbounds i8, ptr %_6.i, i64 8, !dbg !2909
  store ptr %21, ptr %22, align 8, !dbg !2909
  %_10.i = load i64, ptr %_6.i, align 8, !dbg !2909, !range !1004, !noundef !13
  %23 = icmp eq i64 %_10.i, 0, !dbg !2909
  br i1 %23, label %bb6.i, label %bb7.i, !dbg !2909

bb6.i:                                            ; preds = %bb4.i
  %24 = getelementptr inbounds i8, ptr %_6.i, i64 8, !dbg !2909
  %found.i = load ptr, ptr %24, align 8, !dbg !2909, !noundef !13
  store ptr %found.i, ptr %found.dbg.spill.i, align 8, !dbg !2909
  call void @llvm.dbg.declare(metadata ptr %found.dbg.spill.i, metadata !2882, metadata !DIExpression()), !dbg !2911
  call void @llvm.dbg.declare(metadata ptr %found.dbg.spill.i, metadata !2884, metadata !DIExpression()), !dbg !2912
; invoke <*const T as memchr::ext::Pointer>::distance
  %_12.i = invoke i64 @"_ZN56_$LT$$BP$const$u20$T$u20$as$u20$memchr..ext..Pointer$GT$8distance17hde720b40bbcaed31E"(ptr %found.i, ptr %haystack.0)
          to label %bb9.i unwind label %cleanup.i, !dbg !2913

bb7.i:                                            ; preds = %bb4.i
; invoke <core::option::Option<T> as core::ops::try_trait::FromResidual>::from_residual
  %25 = invoke { i64, i64 } @"_ZN84_$LT$core..option..Option$LT$T$GT$$u20$as$u20$core..ops..try_trait..FromResidual$GT$13from_residual17hd84c5f1a14b59ff1E"()
          to label %bb8.i unwind label %cleanup.i, !dbg !2914

bb9.i:                                            ; preds = %bb6.i
  %26 = getelementptr inbounds i8, ptr %_0.i, i64 8, !dbg !2915
  store i64 %_12.i, ptr %26, align 8, !dbg !2915
  store i64 1, ptr %_0.i, align 8, !dbg !2915
  br label %_ZN6memchr4arch7generic6memchr21search_slice_with_raw17h74cc23a686fc5414E.exit, !dbg !2916

bb8.i:                                            ; preds = %bb7.i
  %27 = extractvalue { i64, i64 } %25, 0, !dbg !2914
  %28 = extractvalue { i64, i64 } %25, 1, !dbg !2914
  store i64 %27, ptr %_0.i, align 8, !dbg !2914
  %29 = getelementptr inbounds i8, ptr %_0.i, i64 8, !dbg !2914
  store i64 %28, ptr %29, align 8, !dbg !2914
  br label %_ZN6memchr4arch7generic6memchr21search_slice_with_raw17h74cc23a686fc5414E.exit, !dbg !2916

_ZN6memchr4arch7generic6memchr21search_slice_with_raw17h74cc23a686fc5414E.exit: ; preds = %bb9.i, %bb8.i
  %30 = load i64, ptr %_0.i, align 8, !dbg !2917, !range !1004, !noundef !13
  %31 = getelementptr inbounds i8, ptr %_0.i, i64 8, !dbg !2917
  %32 = load i64, ptr %31, align 8, !dbg !2917
  %33 = insertvalue { i64, i64 } poison, i64 %30, 0, !dbg !2917
  %34 = insertvalue { i64, i64 } %33, i64 %32, 1, !dbg !2917
  %_0.0 = extractvalue { i64, i64 } %34, 0, !dbg !2862
  %_0.1 = extractvalue { i64, i64 } %34, 1, !dbg !2862
  %35 = insertvalue { i64, i64 } poison, i64 %_0.0, 0, !dbg !2918
  %36 = insertvalue { i64, i64 } %35, i64 %_0.1, 1, !dbg !2918
  ret { i64, i64 } %36, !dbg !2918
}

; memchr::arch::all::memchr::One::find::{{closure}}
; Function Attrs: inlinehint uwtable
define { i64, ptr } @"_ZN6memchr4arch3all6memchr3One4find28_$u7b$$u7b$closure$u7d$$u7d$17ha81f53513603fe29E"(ptr align 8 %_1, ptr %s, ptr %e) unnamed_addr #0 !dbg !2919 {
start:
  %e.dbg.spill = alloca ptr, align 8
  %s.dbg.spill = alloca ptr, align 8
  %_1.dbg.spill = alloca ptr, align 8
  store ptr %_1, ptr %_1.dbg.spill, align 8
  call void @llvm.dbg.declare(metadata ptr %_1.dbg.spill, metadata !2926, metadata !DIExpression(DW_OP_deref, DW_OP_deref)), !dbg !2927
  store ptr %s, ptr %s.dbg.spill, align 8
  call void @llvm.dbg.declare(metadata ptr %s.dbg.spill, metadata !2924, metadata !DIExpression()), !dbg !2928
  store ptr %e, ptr %e.dbg.spill, align 8
  call void @llvm.dbg.declare(metadata ptr %e.dbg.spill, metadata !2925, metadata !DIExpression()), !dbg !2929
  %_4 = load ptr, ptr %_1, align 8, !dbg !2930, !nonnull !13, !align !405, !noundef !13
; call memchr::arch::all::memchr::One::find_raw
  %0 = call { i64, ptr } @_ZN6memchr4arch3all6memchr3One8find_raw17hc0c18c99e0a2ea24E(ptr align 8 %_4, ptr %s, ptr %e), !dbg !2930
  %_0.0 = extractvalue { i64, ptr } %0, 0, !dbg !2930
  %_0.1 = extractvalue { i64, ptr } %0, 1, !dbg !2930
  %1 = insertvalue { i64, ptr } poison, i64 %_0.0, 0, !dbg !2931
  %2 = insertvalue { i64, ptr } %1, ptr %_0.1, 1, !dbg !2931
  ret { i64, ptr } %2, !dbg !2931
}

; memchr::arch::all::memchr::One::find_raw
; Function Attrs: inlinehint uwtable
define internal { i64, ptr } @_ZN6memchr4arch3all6memchr3One8find_raw17hc0c18c99e0a2ea24E(ptr align 8 %self, ptr %start1, ptr %end) unnamed_addr #0 personality ptr @rust_eh_personality !dbg !2932 {
start:
  %count.dbg.spill.i.i106 = alloca i64, align 8
  %self.dbg.spill.i.i107 = alloca ptr, align 8
  %0 = alloca { ptr, i32, [1 x i32] }, align 8
  %end.dbg.spill.i108 = alloca ptr, align 8
  %start.dbg.spill.i109 = alloca ptr, align 8
  %_12.i110 = alloca i8, align 1
  %ptr.i111 = alloca ptr, align 8
  %_0.i112 = alloca %"core::option::Option<*const u8>", align 8
  %confirm.i113 = alloca ptr, align 8
  %count.dbg.spill.i.i79 = alloca i64, align 8
  %self.dbg.spill.i.i80 = alloca ptr, align 8
  %1 = alloca { ptr, i32, [1 x i32] }, align 8
  %end.dbg.spill.i81 = alloca ptr, align 8
  %start.dbg.spill.i82 = alloca ptr, align 8
  %_12.i83 = alloca i8, align 1
  %ptr.i84 = alloca ptr, align 8
  %_0.i85 = alloca %"core::option::Option<*const u8>", align 8
  %confirm.i86 = alloca ptr, align 8
  %count.dbg.spill.i.i52 = alloca i64, align 8
  %self.dbg.spill.i.i53 = alloca ptr, align 8
  %2 = alloca { ptr, i32, [1 x i32] }, align 8
  %end.dbg.spill.i54 = alloca ptr, align 8
  %start.dbg.spill.i55 = alloca ptr, align 8
  %_12.i56 = alloca i8, align 1
  %ptr.i57 = alloca ptr, align 8
  %_0.i58 = alloca %"core::option::Option<*const u8>", align 8
  %confirm.i59 = alloca ptr, align 8
  %count.dbg.spill.i.i = alloca i64, align 8
  %self.dbg.spill.i.i48 = alloca ptr, align 8
  %3 = alloca { ptr, i32, [1 x i32] }, align 8
  %end.dbg.spill.i = alloca ptr, align 8
  %start.dbg.spill.i = alloca ptr, align 8
  %_12.i = alloca i8, align 1
  %ptr.i = alloca ptr, align 8
  %_0.i49 = alloca %"core::option::Option<*const u8>", align 8
  %confirm.i = alloca ptr, align 8
  %rhs.dbg.spill.i.i40 = alloca i64, align 8
  %self.dbg.spill.i.i41 = alloca i64, align 8
  %x.dbg.spill.i42 = alloca i64, align 8
  %rhs.dbg.spill.i.i32 = alloca i64, align 8
  %self.dbg.spill.i.i33 = alloca i64, align 8
  %x.dbg.spill.i34 = alloca i64, align 8
  %rhs.dbg.spill.i.i = alloca i64, align 8
  %self.dbg.spill.i.i = alloca i64, align 8
  %x.dbg.spill.i = alloca i64, align 8
  %chunk.dbg.spill.i25 = alloca i64, align 8
  %self.dbg.spill.i26 = alloca ptr, align 8
  %chunk.dbg.spill.i20 = alloca i64, align 8
  %self.dbg.spill.i21 = alloca ptr, align 8
  %chunk.dbg.spill.i = alloca i64, align 8
  %self.dbg.spill.i18 = alloca ptr, align 8
  %self.dbg.spill.i17 = alloca ptr, align 8
  %self.dbg.spill.i16 = alloca ptr, align 8
  %self.dbg.spill.i15 = alloca ptr, align 8
  %count.dbg.spill2.i11 = alloca i64, align 8
  %count.dbg.spill.i12 = alloca i64, align 8
  %self.dbg.spill.i13 = alloca ptr, align 8
  %_0.i14 = alloca ptr, align 8
  %count.dbg.spill2.i = alloca i64, align 8
  %count.dbg.spill.i8 = alloca i64, align 8
  %self.dbg.spill.i9 = alloca ptr, align 8
  %_0.i10 = alloca ptr, align 8
  %count.dbg.spill.i5 = alloca i64, align 8
  %self.dbg.spill.i6 = alloca ptr, align 8
  %count.dbg.spill.i2 = alloca i64, align 8
  %self.dbg.spill.i3 = alloca ptr, align 8
  %count.dbg.spill.i = alloca i64, align 8
  %self.dbg.spill.i = alloca ptr, align 8
  %b.dbg.spill = alloca i64, align 8
  %a.dbg.spill = alloca i64, align 8
  %right_val.dbg.spill = alloca ptr, align 8
  %left_val.dbg.spill = alloca ptr, align 8
  %chunk.dbg.spill = alloca i64, align 8
  %len.dbg.spill = alloca i64, align 8
  %end.dbg.spill = alloca ptr, align 8
  %start.dbg.spill = alloca ptr, align 8
  %self.dbg.spill = alloca ptr, align 8
  %_43 = alloca %"core::option::Option<core::fmt::Arguments<'_>>", align 8
  %kind = alloca i8, align 1
  %_32 = alloca i64, align 8
  %_30 = alloca { ptr, ptr }, align 8
  %cur = alloca ptr, align 8
  %confirm = alloca ptr, align 8
  %_0 = alloca %"core::option::Option<*const u8>", align 8
  store ptr %self, ptr %self.dbg.spill, align 8
  call void @llvm.dbg.declare(metadata ptr %self.dbg.spill, metadata !2937, metadata !DIExpression()), !dbg !2964
  store ptr %start1, ptr %start.dbg.spill, align 8
  call void @llvm.dbg.declare(metadata ptr %start.dbg.spill, metadata !2938, metadata !DIExpression()), !dbg !2965
  store ptr %end, ptr %end.dbg.spill, align 8
  call void @llvm.dbg.declare(metadata ptr %end.dbg.spill, metadata !2939, metadata !DIExpression()), !dbg !2966
  call void @llvm.dbg.declare(metadata ptr %confirm, metadata !2940, metadata !DIExpression()), !dbg !2967
  call void @llvm.dbg.declare(metadata ptr %cur, metadata !2950, metadata !DIExpression()), !dbg !2968
  call void @llvm.dbg.declare(metadata ptr %kind, metadata !2957, metadata !DIExpression()), !dbg !2969
  %_4 = icmp uge ptr %start1, %end, !dbg !2970
  br i1 %_4, label %bb1, label %bb2, !dbg !2970

bb2:                                              ; preds = %start
  store ptr %self, ptr %confirm, align 8, !dbg !2971
; call <*const T as memchr::ext::Pointer>::distance
  %len = call i64 @"_ZN56_$LT$$BP$const$u20$T$u20$as$u20$memchr..ext..Pointer$GT$8distance17hde720b40bbcaed31E"(ptr %end, ptr %start1), !dbg !2972
  store i64 %len, ptr %len.dbg.spill, align 8, !dbg !2972
  call void @llvm.dbg.declare(metadata ptr %len.dbg.spill, metadata !2946, metadata !DIExpression()), !dbg !2973
  %_7 = icmp ult i64 %len, 8, !dbg !2974
  br i1 %_7, label %bb4, label %bb5, !dbg !2974

bb1:                                              ; preds = %start
  store i64 0, ptr %_0, align 8, !dbg !2975
  br label %bb41, !dbg !2976

bb5:                                              ; preds = %bb2
  store ptr %start1, ptr %self.dbg.spill.i17, align 8
  call void @llvm.dbg.declare(metadata ptr %self.dbg.spill.i17, metadata !2978, metadata !DIExpression()), !dbg !2984
; call core::ptr::const_ptr::<impl *const T>::read_unaligned
  %chunk = call i64 @"_ZN4core3ptr9const_ptr33_$LT$impl$u20$$BP$const$u20$T$GT$14read_unaligned17h808757ae47edb394E"(ptr %start1), !dbg !2986
  store i64 %chunk, ptr %chunk.dbg.spill, align 8, !dbg !2986
  call void @llvm.dbg.declare(metadata ptr %chunk.dbg.spill, metadata !2948, metadata !DIExpression()), !dbg !2987
  store ptr %self, ptr %self.dbg.spill.i26, align 8
  call void @llvm.dbg.declare(metadata ptr %self.dbg.spill.i26, metadata !2988, metadata !DIExpression()), !dbg !2995
  store i64 %chunk, ptr %chunk.dbg.spill.i25, align 8
  call void @llvm.dbg.declare(metadata ptr %chunk.dbg.spill.i25, metadata !2994, metadata !DIExpression()), !dbg !2997
  %_4.i27 = load i64, ptr %self, align 8, !dbg !2998, !noundef !13
  %_3.i28 = xor i64 %_4.i27, %chunk, !dbg !2998
  store i64 %_3.i28, ptr %x.dbg.spill.i, align 8
  call void @llvm.dbg.declare(metadata ptr %x.dbg.spill.i, metadata !2999, metadata !DIExpression()), !dbg !3002
  store i64 %_3.i28, ptr %self.dbg.spill.i.i, align 8
  call void @llvm.dbg.declare(metadata ptr %self.dbg.spill.i.i, metadata !3004, metadata !DIExpression()), !dbg !3008
  store i64 72340172838076673, ptr %rhs.dbg.spill.i.i, align 8
  call void @llvm.dbg.declare(metadata ptr %rhs.dbg.spill.i.i, metadata !3007, metadata !DIExpression()), !dbg !3010
  %_0.i.i = sub i64 %_3.i28, 72340172838076673, !dbg !3011
  %_5.i = xor i64 %_3.i28, -1, !dbg !3012
  %_3.i30 = and i64 %_0.i.i, %_5.i, !dbg !3013
  %_2.i = and i64 %_3.i30, -9187201950435737472, !dbg !3014
  %_0.i31 = icmp ne i64 %_2.i, 0, !dbg !3014
  br i1 %_0.i31, label %bb9, label %bb10, !dbg !3015

bb4:                                              ; preds = %bb2
  %4 = load ptr, ptr %confirm, align 8, !dbg !3016, !nonnull !13, !align !405, !noundef !13
  store ptr %4, ptr %confirm.i, align 8
  store ptr %start1, ptr %start.dbg.spill.i, align 8
  call void @llvm.dbg.declare(metadata ptr %start.dbg.spill.i, metadata !3017, metadata !DIExpression()), !dbg !3028
  store ptr %end, ptr %end.dbg.spill.i, align 8
  call void @llvm.dbg.declare(metadata ptr %end.dbg.spill.i, metadata !3022, metadata !DIExpression()), !dbg !3030
  call void @llvm.dbg.declare(metadata ptr %confirm.i, metadata !3023, metadata !DIExpression()), !dbg !3031
  call void @llvm.dbg.declare(metadata ptr %ptr.i, metadata !3024, metadata !DIExpression()), !dbg !3032
  %_5.i50 = icmp ule ptr %start1, %end, !dbg !3033
  br i1 %_5.i50, label %bb3.i, label %bb2.i, !dbg !3033

bb2.i:                                            ; preds = %bb4
; invoke core::panicking::panic
  invoke void @_ZN4core9panicking5panic17h5884aad3a9044857E(ptr align 1 @alloc_066081220597a7675e328e95a9865c12, i64 30, ptr align 8 @alloc_076a0bac2324fa565849985f5c7fb961) #12
          to label %unreachable.i unwind label %cleanup.i.loopexit.split-lp, !dbg !3034

bb3.i:                                            ; preds = %bb4
  store ptr %start1, ptr %ptr.i, align 8, !dbg !3035
  br label %bb4.i, !dbg !3036

cleanup.i.loopexit:                               ; preds = %bb5.i
  %lpad.loopexit = landingpad { ptr, i32 }
          cleanup
  br label %cleanup.i

cleanup.i.loopexit.split-lp:                      ; preds = %bb2.i
  %lpad.loopexit.split-lp = landingpad { ptr, i32 }
          cleanup
  br label %cleanup.i

cleanup.i:                                        ; preds = %cleanup.i.loopexit.split-lp, %cleanup.i.loopexit
  %lpad.phi = phi { ptr, i32 } [ %lpad.loopexit, %cleanup.i.loopexit ], [ %lpad.loopexit.split-lp, %cleanup.i.loopexit.split-lp ]
  %5 = extractvalue { ptr, i32 } %lpad.phi, 0
  %6 = extractvalue { ptr, i32 } %lpad.phi, 1
  store ptr %5, ptr %3, align 8
  %7 = getelementptr inbounds i8, ptr %3, i64 8
  store i32 %6, ptr %7, align 8
  %8 = load ptr, ptr %3, align 8, !dbg !3037, !noundef !13
  %9 = getelementptr inbounds i8, ptr %3, i64 8, !dbg !3037
  %10 = load i32, ptr %9, align 8, !dbg !3037, !noundef !13
  %11 = insertvalue { ptr, i32 } poison, ptr %8, 0, !dbg !3037
  %12 = insertvalue { ptr, i32 } %11, i32 %10, 1, !dbg !3037
  resume { ptr, i32 } %12, !dbg !3037

unreachable.i:                                    ; preds = %bb2.i
  unreachable

bb4.i:                                            ; preds = %bb8.i, %bb3.i
  %_9.i = load ptr, ptr %ptr.i, align 8, !dbg !3038, !noundef !13
  %_8.i = icmp ult ptr %_9.i, %end, !dbg !3038
  br i1 %_8.i, label %bb5.i, label %bb10.i, !dbg !3038

bb10.i:                                           ; preds = %bb4.i
  store i64 0, ptr %_0.i49, align 8, !dbg !3039
  br label %_ZN6memchr4arch7generic6memchr16fwd_byte_by_byte17h1bd4e57d462610aaE.exit, !dbg !3040

bb5.i:                                            ; preds = %bb4.i
  %13 = load ptr, ptr %ptr.i, align 8, !dbg !3041, !noundef !13
  %_13.i = load i8, ptr %13, align 1, !dbg !3041, !noundef !13
  store i8 %_13.i, ptr %_12.i, align 1, !dbg !3042
  %14 = load i8, ptr %_12.i, align 1, !dbg !3042, !noundef !13
; invoke memchr::arch::all::memchr::One::find_raw::{{closure}}
