; ModuleID = '3xfzxamj8urjw6ij'
source_filename = "3xfzxamj8urjw6ij"
target datalayout = "e-m:o-i64:64-i128:128-n32:64-S128"
target triple = "arm64-apple-macosx11.0.0"

%"core::option::Option<(u8, u8)>" = type { i8, [2 x i8] }
%"core::ops::control_flow::ControlFlow<(), core::convert::Infallible>::Break" = type { {} }
%"core::option::Option<(usize, char)>" = type { [2 x i32], i32, [1 x i32] }
%"core::option::Option<core::convert::Infallible>::None" = type {}
%"core::iter::adapters::zip::Zip<core::str::iter::Bytes<'_>, core::str::iter::Bytes<'_>>" = type { %"core::str::iter::Bytes<'_>", %"core::str::iter::Bytes<'_>", i64, i64, i64 }
%"core::str::iter::Bytes<'_>" = type { %"core::iter::adapters::copied::Copied<core::slice::iter::Iter<'_, u8>>" }
%"core::iter::adapters::copied::Copied<core::slice::iter::Iter<'_, u8>>" = type { %"core::slice::iter::Iter<'_, u8>" }
%"core::slice::iter::Iter<'_, u8>" = type { ptr, ptr, %"core::marker::PhantomData<&u8>" }
%"core::marker::PhantomData<&u8>" = type {}
%"core::fmt::Arguments<'_>" = type { { ptr, i64 }, { ptr, i64 }, %"core::option::Option<&[core::fmt::rt::Placeholder]>" }
%"core::option::Option<&[core::fmt::rt::Placeholder]>" = type { ptr, [1 x i64] }
%"core::option::Option<u32>" = type { i32, [1 x i32] }
%"core::ptr::non_null::NonNull<[u8]>" = type { { ptr, i64 } }
%"core::str::iter::Chars<'_>" = type { %"core::slice::iter::Iter<'_, u8>" }
%"core::result::Result<usize, core::num::error::ParseIntError>" = type { i8, [15 x i8] }
%"core::result::Result<f64, core::num::dec2flt::ParseFloatError>" = type { i8, [15 x i8] }
%"core::result::Result<f32, core::num::dec2flt::ParseFloatError>" = type { i8, [7 x i8] }
%"core::ptr::metadata::PtrComponents<[u8]>" = type { ptr, i64 }
%"core::ptr::metadata::PtrRepr<[u8]>" = type { [2 x i64] }
%"core::ops::range::Range<usize>" = type { i64, i64 }
%"core::option::Option<&str>" = type { ptr, [1 x i64] }
%"{closure@src/lib.rs:212:41: 212:49}" = type {}
%"{closure@core::iter::traits::iterator::Iterator::all::check<(u8, u8), {closure@src/lib.rs:212:41: 212:49}>::{closure#0}}" = type { %"{closure@src/lib.rs:212:41: 212:49}" }
%"core::iter::adapters::enumerate::Enumerate<core::str::iter::Chars<'_>>" = type { %"core::str::iter::Chars<'_>", i64 }
%"core::option::Option<usize>" = type { i64, [1 x i64] }
%"core::result::Result<f64, ParseFloatError>" = type { i8, [15 x i8] }
%"core::result::Result<f32, ParseFloatError>" = type { i8, [7 x i8] }
%"{closure@<core::str::iter::Chars<'_> as core::iter::traits::iterator::Iterator>::next::{closure#0}}" = type {}
%"core::option::Option<(char, &str)>" = type { i32, [5 x i32] }
%"core::option::Option<(char, usize)>" = type { i32, [3 x i32] }

@alloc_a5869cf5c211a4021ad47df57f69cf0d = private unnamed_addr constant <{ [91 x i8] }> <{ [91 x i8] c"/rustc/46b180ec2452d388c5d9c14009442e2e0beb01d7/library/core/src/iter/adapters/enumerate.rs" }>, align 1
@alloc_e644bbe572686fdbe11c9dbdc434ddd2 = private unnamed_addr constant <{ ptr, [16 x i8] }> <{ ptr @alloc_a5869cf5c211a4021ad47df57f69cf0d, [16 x i8] c"[\00\00\00\00\00\00\001\00\00\00\09\00\00\00" }>, align 8
@str.0 = internal unnamed_addr constant [28 x i8] c"attempt to add with overflow"
@alloc_fad0cd83b7d1858a846a172eb260e593 = private unnamed_addr constant <{ [42 x i8] }> <{ [42 x i8] c"is_aligned_to: align is not a power-of-two" }>, align 1
@alloc_041983ee8170efdaaf95ba67fd072d26 = private unnamed_addr constant <{ ptr, [8 x i8] }> <{ ptr @alloc_fad0cd83b7d1858a846a172eb260e593, [8 x i8] c"*\00\00\00\00\00\00\00" }>, align 8
@alloc_513570631223a12912d85da2bec3b15a = private unnamed_addr constant <{}> zeroinitializer, align 8
@0 = private unnamed_addr constant <{ [8 x i8], [8 x i8] }> <{ [8 x i8] zeroinitializer, [8 x i8] undef }>, align 8
@alloc_f1802761b0cba8787ff63a6853b741ad = private unnamed_addr constant <{ [81 x i8] }> <{ [81 x i8] c"/rustc/46b180ec2452d388c5d9c14009442e2e0beb01d7/library/core/src/ptr/const_ptr.rs" }>, align 1
@alloc_33f991fa5bbac1da9d8a778b0f014caf = private unnamed_addr constant <{ ptr, [16 x i8] }> <{ ptr @alloc_f1802761b0cba8787ff63a6853b741ad, [16 x i8] c"Q\00\00\00\00\00\00\00T\06\00\00\0D\00\00\00" }>, align 8
@alloc_ec595fc0e82ef92fc59bd74f68296eae = private unnamed_addr constant <{ [73 x i8] }> <{ [73 x i8] c"assertion failed: 0 < pointee_size && pointee_size <= isize::MAX as usize" }>, align 1
@alloc_4e3a3aaf48410eaea90c90938dabe76a = private unnamed_addr constant <{ ptr, [16 x i8] }> <{ ptr @alloc_f1802761b0cba8787ff63a6853b741ad, [16 x i8] c"Q\00\00\00\00\00\00\00:\03\00\00\09\00\00\00" }>, align 8
@alloc_7efb3a7632b3620f628ce83a521b4d9b = private unnamed_addr constant <{ [71 x i8] }> <{ [71 x i8] c"unsafe precondition(s) violated: ptr::sub_ptr requires `self >= origin`" }>, align 1
@1 = private unnamed_addr constant <{ [4 x i8], [4 x i8] }> <{ [4 x i8] zeroinitializer, [4 x i8] undef }>, align 4
@alloc_b51e084ad98792f1063530f5eecbcef0 = private unnamed_addr constant <{ [69 x i8] }> <{ [69 x i8] c"str::get_unchecked requires that the range is within the string slice" }>, align 1
@alloc_38d865ee598848532cbd764e0d6298fc = private unnamed_addr constant <{ [57 x i8] }> <{ [57 x i8] c"unsafe precondition(s) violated: invalid value for `char`" }>, align 1
@alloc_12a74e5cad85d95769738a68ddcbedbf = private unnamed_addr constant <{ [40 x i8] }> <{ [40 x i8] c"to_digit: radix is too high (maximum 36)" }>, align 1
@alloc_04bc4679429b8d302f58b2e3b25a87e5 = private unnamed_addr constant <{ ptr, [8 x i8] }> <{ ptr @alloc_12a74e5cad85d95769738a68ddcbedbf, [8 x i8] c"(\00\00\00\00\00\00\00" }>, align 8
@alloc_8b4d80671dc915cc8e9a508581e1d9c7 = private unnamed_addr constant <{ [80 x i8] }> <{ [80 x i8] c"/rustc/46b180ec2452d388c5d9c14009442e2e0beb01d7/library/core/src/char/methods.rs" }>, align 1
@alloc_1fd5ad6a13fcd2cff57ea0b870f5c0bd = private unnamed_addr constant <{ ptr, [16 x i8] }> <{ ptr @alloc_8b4d80671dc915cc8e9a508581e1d9c7, [16 x i8] c"P\00\00\00\00\00\00\00\7F\01\00\00\0D\00\00\00" }>, align 8
@alloc_1eb6f53a157dccb32488e066ad957e6d = private unnamed_addr constant <{ [82 x i8] }> <{ [82 x i8] c"unsafe precondition(s) violated: hint::unreachable_unchecked must never be reached" }>, align 1
@alloc_914b2c69d7eca30497b9feaf15ac92f1 = private unnamed_addr constant <{ [1 x i8] }> zeroinitializer, align 1
@alloc_81f9ea5ad36a4fd02db0f8c6040ce6ce = private unnamed_addr constant <{ [78 x i8] }> <{ [78 x i8] c"/rustc/46b180ec2452d388c5d9c14009442e2e0beb01d7/library/core/src/intrinsics.rs" }>, align 1
@alloc_3ddfd615a577a80e66751be046ca7362 = private unnamed_addr constant <{ ptr, [16 x i8] }> <{ ptr @alloc_81f9ea5ad36a4fd02db0f8c6040ce6ce, [16 x i8] c"N\00\00\00\00\00\00\00\E6\0A\00\006\00\00\00" }>, align 8
@str.1 = internal unnamed_addr constant [25 x i8] c"attempt to divide by zero"
@alloc_11195730e5236cfdc15ea13be1c301f9 = private unnamed_addr constant <{ [162 x i8] }> <{ [162 x i8] c"unsafe precondition(s) violated: slice::from_raw_parts requires the pointer to be aligned and non-null, and the total size of the slice not to exceed `isize::MAX`" }>, align 1
@alloc_8572d294b7d4b9d2125dc5191e02725c = private unnamed_addr constant <{ [64 x i8] }> <{ [64 x i8] c"slice::get_unchecked requires that the index is within the slice" }>, align 1
@alloc_695cc11a0f9d538100b5cffa936218ad = private unnamed_addr constant <{ [12 x i8] }> <{ [12 x i8] c"src/float.rs" }>, align 1
@alloc_9b101f089775dd27207f14dd59a3d85e = private unnamed_addr constant <{ ptr, [16 x i8] }> <{ ptr @alloc_695cc11a0f9d538100b5cffa936218ad, [16 x i8] c"\0C\00\00\00\00\00\00\00\EC\07\00\00\11\00\00\00" }>, align 8
@alloc_912f6a9565033a07dc52003ec600fe58 = private unnamed_addr constant <{ ptr, [16 x i8] }> <{ ptr @alloc_695cc11a0f9d538100b5cffa936218ad, [16 x i8] c"\0C\00\00\00\00\00\00\00\EC\07\00\00\05\00\00\00" }>, align 8
@str.2 = internal unnamed_addr constant [33 x i8] c"attempt to subtract with overflow"
@alloc_dbd8a743cd5c4fd9d9ae5ab6224bd476 = private unnamed_addr constant <{ ptr, [16 x i8] }> <{ ptr @alloc_695cc11a0f9d538100b5cffa936218ad, [16 x i8] c"\0C\00\00\00\00\00\00\00\FA\07\00\00\11\00\00\00" }>, align 8
@alloc_be27ad36952da62162d24501a0362817 = private unnamed_addr constant <{ ptr, [16 x i8] }> <{ ptr @alloc_695cc11a0f9d538100b5cffa936218ad, [16 x i8] c"\0C\00\00\00\00\00\00\00\FA\07\00\00\05\00\00\00" }>, align 8
@alloc_5a9fc3a985c53716860b99bd30ab67d1 = private unnamed_addr constant <{ [36 x i8] }> <{ [36 x i8] c"cannot parse float from empty string" }>, align 1
@alloc_daada04787e8fdd3808aeb6c6c60d6f6 = private unnamed_addr constant <{ [21 x i8] }> <{ [21 x i8] c"invalid float literal" }>, align 1
@alloc_6c433d3c07b7c6453f8a17b49b46c496 = private unnamed_addr constant <{ [3 x i8] }> <{ [3 x i8] c"inf" }>, align 1
@alloc_1d4707983f2c2629bdbf9266146dc075 = private unnamed_addr constant <{ [8 x i8] }> <{ [8 x i8] c"infinity" }>, align 1
@alloc_159a91930e1f3f513911a864c7d9fa72 = private unnamed_addr constant <{ [4 x i8] }> <{ [4 x i8] c"-inf" }>, align 1
@alloc_8c906af7646fe10360573dc34c12f689 = private unnamed_addr constant <{ [9 x i8] }> <{ [9 x i8] c"-infinity" }>, align 1
@alloc_bbe173742141154fcf253606867854d9 = private unnamed_addr constant <{ [3 x i8] }> <{ [3 x i8] c"nan" }>, align 1
@alloc_09041e75dc84c4f90838ba63407d8bea = private unnamed_addr constant <{ [4 x i8] }> <{ [4 x i8] c"-nan" }>, align 1
@alloc_f5ffd2fd1476bab43ad89fb40c72d0c5 = private unnamed_addr constant <{ [10 x i8] }> <{ [10 x i8] c"src/lib.rs" }>, align 1
@alloc_e9da7d8a5f3b4a985a1998fb900aef5f = private unnamed_addr constant <{ ptr, [16 x i8] }> <{ ptr @alloc_f5ffd2fd1476bab43ad89fb40c72d0c5, [16 x i8] c"\0A\00\00\00\00\00\00\00\88\01\00\00\01\00\00\00" }>, align 8

; <core::iter::adapters::zip::Zip<A,B> as core::iter::traits::iterator::Iterator>::next
; Function Attrs: inlinehint uwtable
define i24 @"_ZN102_$LT$core..iter..adapters..zip..Zip$LT$A$C$B$GT$$u20$as$u20$core..iter..traits..iterator..Iterator$GT$4next17h0b677a5a0b1a8d51E"(ptr align 8 %self) unnamed_addr #0 !dbg !40 {
start:
  %0 = alloca i24, align 4
  %self.dbg.spill = alloca ptr, align 8
  %_0 = alloca %"core::option::Option<(u8, u8)>", align 1
  store ptr %self, ptr %self.dbg.spill, align 8
  call void @llvm.dbg.declare(metadata ptr %self.dbg.spill, metadata !111, metadata !DIExpression()), !dbg !112
; call <core::iter::adapters::zip::Zip<A,B> as core::iter::adapters::zip::ZipImpl<A,B>>::next
  %1 = call i24 @"_ZN111_$LT$core..iter..adapters..zip..Zip$LT$A$C$B$GT$$u20$as$u20$core..iter..adapters..zip..ZipImpl$LT$A$C$B$GT$$GT$4next17h434662e694ec0247E"(ptr align 8 %self), !dbg !113
  store i24 %1, ptr %0, align 4, !dbg !113
  call void @llvm.memcpy.p0.p0.i64(ptr align 1 %_0, ptr align 4 %0, i64 3, i1 false), !dbg !113
  %2 = load i24, ptr %_0, align 1, !dbg !114
  ret i24 %2, !dbg !114
}

; <core::ops::control_flow::ControlFlow<B,C> as core::ops::try_trait::FromResidual>::from_residual
; Function Attrs: inlinehint uwtable
define zeroext i1 @"_ZN104_$LT$core..ops..control_flow..ControlFlow$LT$B$C$C$GT$$u20$as$u20$core..ops..try_trait..FromResidual$GT$13from_residual17hb94bf56f01f39e2aE"() unnamed_addr #0 !dbg !115 {
start:
  %b.dbg.spill = alloca {}, align 1
  %residual.dbg.spill = alloca %"core::ops::control_flow::ControlFlow<(), core::convert::Infallible>::Break", align 1
  %_0 = alloca i8, align 1
  call void @llvm.dbg.declare(metadata ptr %residual.dbg.spill, metadata !158, metadata !DIExpression()), !dbg !161
  call void @llvm.dbg.declare(metadata ptr %b.dbg.spill, metadata !159, metadata !DIExpression()), !dbg !162
  store i8 1, ptr %_0, align 1, !dbg !163
  %0 = load i8, ptr %_0, align 1, !dbg !164, !range !165, !noundef !55
  %1 = trunc i8 %0 to i1, !dbg !164
  ret i1 %1, !dbg !164
}

; <core::iter::adapters::enumerate::Enumerate<I> as core::iter::traits::iterator::Iterator>::next
; Function Attrs: inlinehint uwtable
define { i64, i32 } @"_ZN110_$LT$core..iter..adapters..enumerate..Enumerate$LT$I$GT$$u20$as$u20$core..iter..traits..iterator..Iterator$GT$4next17hae9f188189e2f261E"(ptr align 8 %self) unnamed_addr #0 personality ptr @rust_eh_personality !dbg !166 {
start:
  %0 = alloca { ptr, i32, [1 x i32] }, align 8
  %i.dbg.spill = alloca i64, align 8
  %a.dbg.spill = alloca i32, align 4
  %val.dbg.spill = alloca i32, align 4
  %v.dbg.spill = alloca i32, align 4
  %self.dbg.spill = alloca ptr, align 8
  %_9 = alloca { i64, i32, [1 x i32] }, align 8
  %self2 = alloca i32, align 4
  %_3 = alloca i32, align 4
  %_0 = alloca %"core::option::Option<(usize, char)>", align 8
  %residual.dbg.spill1 = alloca %"core::option::Option<core::convert::Infallible>::None", align 1
  %residual.dbg.spill = alloca %"core::option::Option<core::convert::Infallible>::None", align 1
  call void @llvm.dbg.declare(metadata ptr %residual.dbg.spill, metadata !205, metadata !DIExpression()), !dbg !223
  call void @llvm.dbg.declare(metadata ptr %residual.dbg.spill1, metadata !224, metadata !DIExpression()), !dbg !232
  store ptr %self, ptr %self.dbg.spill, align 8, !dbg !232
  call void @llvm.dbg.declare(metadata ptr %self.dbg.spill, metadata !202, metadata !DIExpression()), !dbg !234
  call void @llvm.dbg.declare(metadata ptr %self2, metadata !235, metadata !DIExpression()), !dbg !273
; call <core::str::iter::Chars as core::iter::traits::iterator::Iterator>::next
  %1 = call i32 @"_ZN81_$LT$core..str..iter..Chars$u20$as$u20$core..iter..traits..iterator..Iterator$GT$4next17h0f95308b8f9dd8b5E"(ptr align 8 %self), !dbg !274, !range !275
  store i32 %1, ptr %self2, align 4, !dbg !274
  %2 = load i32, ptr %self2, align 4, !dbg !276, !range !275, !noundef !55
  %3 = icmp eq i32 %2, 1114112, !dbg !276
  %_11 = select i1 %3, i64 0, i64 1, !dbg !276
  %4 = icmp eq i64 %_11, 0, !dbg !277
  br i1 %4, label %bb7, label %bb8, !dbg !277

bb7:                                              ; preds = %start
  %5 = getelementptr inbounds i8, ptr %_0, i64 8, !dbg !278
  store i32 1114112, ptr %5, align 8, !dbg !278
  br label %bb4, !dbg !279

bb8:                                              ; preds = %start
  %v = load i32, ptr %self2, align 4, !dbg !280, !range !281, !noundef !55
  store i32 %v, ptr %v.dbg.spill, align 4, !dbg !280
  call void @llvm.dbg.declare(metadata ptr %v.dbg.spill, metadata !271, metadata !DIExpression()), !dbg !282
  store i32 %v, ptr %_3, align 4, !dbg !283
  %val = load i32, ptr %_3, align 4, !dbg !274, !range !281, !noundef !55
  store i32 %val, ptr %val.dbg.spill, align 4, !dbg !274
  call void @llvm.dbg.declare(metadata ptr %val.dbg.spill, metadata !219, metadata !DIExpression()), !dbg !284
  store i32 %val, ptr %a.dbg.spill, align 4, !dbg !284
  call void @llvm.dbg.declare(metadata ptr %a.dbg.spill, metadata !203, metadata !DIExpression()), !dbg !285
  %6 = getelementptr inbounds i8, ptr %self, i64 16, !dbg !286
  %i = load i64, ptr %6, align 8, !dbg !286, !noundef !55
  store i64 %i, ptr %i.dbg.spill, align 8, !dbg !286
  call void @llvm.dbg.declare(metadata ptr %i.dbg.spill, metadata !221, metadata !DIExpression()), !dbg !287
  %7 = getelementptr inbounds i8, ptr %self, i64 16, !dbg !288
  %8 = load i64, ptr %7, align 8, !dbg !288, !noundef !55
  %9 = call { i64, i1 } @llvm.uadd.with.overflow.i64(i64 %8, i64 1), !dbg !288
  %_8.0 = extractvalue { i64, i1 } %9, 0, !dbg !288
  %_8.1 = extractvalue { i64, i1 } %9, 1, !dbg !288
  %10 = call i1 @llvm.expect.i1(i1 %_8.1, i1 false), !dbg !288
  br i1 %10, label %panic, label %bb3, !dbg !288

bb4:                                              ; preds = %bb3, %bb7
  %11 = load i64, ptr %_0, align 8, !dbg !279
  %12 = getelementptr inbounds i8, ptr %_0, i64 8, !dbg !279
  %13 = load i32, ptr %12, align 8, !dbg !279, !range !275, !noundef !55
  %14 = insertvalue { i64, i32 } poison, i64 %11, 0, !dbg !279
  %15 = insertvalue { i64, i32 } %14, i32 %13, 1, !dbg !279
  ret { i64, i32 } %15, !dbg !279

bb3:                                              ; preds = %bb8
  %16 = getelementptr inbounds i8, ptr %self, i64 16, !dbg !288
  store i64 %_8.0, ptr %16, align 8, !dbg !288
  store i64 %i, ptr %_9, align 8, !dbg !289
  %17 = getelementptr inbounds i8, ptr %_9, i64 8, !dbg !289
  store i32 %val, ptr %17, align 8, !dbg !289
  %18 = load i64, ptr %_9, align 8, !dbg !290, !noundef !55
  %19 = getelementptr inbounds i8, ptr %_9, i64 8, !dbg !290
  %20 = load i32, ptr %19, align 8, !dbg !290, !range !281, !noundef !55
  store i64 %18, ptr %_0, align 8, !dbg !290
  %21 = getelementptr inbounds i8, ptr %_0, i64 8, !dbg !290
  store i32 %20, ptr %21, align 8, !dbg !290
  br label %bb4, !dbg !279

panic:                                            ; preds = %bb8
; invoke core::panicking::panic
  invoke void @_ZN4core9panicking5panic17h5884aad3a9044857E(ptr align 1 @str.0, i64 28, ptr align 8 @alloc_e644bbe572686fdbe11c9dbdc434ddd2) #9
          to label %unreachable unwind label %cleanup, !dbg !288

bb5:                                              ; preds = %cleanup
  %22 = load ptr, ptr %0, align 8, !dbg !291, !noundef !55
  %23 = getelementptr inbounds i8, ptr %0, i64 8, !dbg !291
  %24 = load i32, ptr %23, align 8, !dbg !291, !noundef !55
  %25 = insertvalue { ptr, i32 } poison, ptr %22, 0, !dbg !291
  %26 = insertvalue { ptr, i32 } %25, i32 %24, 1, !dbg !291
  resume { ptr, i32 } %26, !dbg !291

cleanup:                                          ; preds = %panic
  %27 = landingpad { ptr, i32 }
          cleanup
  %28 = extractvalue { ptr, i32 } %27, 0
  %29 = extractvalue { ptr, i32 } %27, 1
  store ptr %28, ptr %0, align 8
  %30 = getelementptr inbounds i8, ptr %0, i64 8
  store i32 %29, ptr %30, align 8
  br label %bb5

unreachable:                                      ; preds = %panic
  unreachable

bb2:                                              ; No predecessors!
  unreachable, !dbg !274
}

; <core::iter::adapters::zip::Zip<A,B> as core::iter::adapters::zip::ZipImpl<A,B>>::new
; Function Attrs: uwtable
define void @"_ZN111_$LT$core..iter..adapters..zip..Zip$LT$A$C$B$GT$$u20$as$u20$core..iter..adapters..zip..ZipImpl$LT$A$C$B$GT$$GT$3new17hbbca03c2cda451ccE"(ptr sret(%"core::iter::adapters::zip::Zip<core::str::iter::Bytes<'_>, core::str::iter::Bytes<'_>>") align 8 %_0, ptr %0, ptr %1, ptr %2, ptr %3) unnamed_addr #1 personality ptr @rust_eh_personality !dbg !292 {
start:
  %len.dbg.spill = alloca i64, align 8
  %v2.dbg.spill = alloca i64, align 8
  %a_len.dbg.spill = alloca i64, align 8
  %4 = alloca { ptr, i32, [1 x i32] }, align 8
  %b = alloca %"core::str::iter::Bytes<'_>", align 8
  %a = alloca %"core::str::iter::Bytes<'_>", align 8
  store ptr %0, ptr %a, align 8
  %5 = getelementptr inbounds i8, ptr %a, i64 8
  store ptr %1, ptr %5, align 8
  store ptr %2, ptr %b, align 8
  %6 = getelementptr inbounds i8, ptr %b, i64 8
  store ptr %3, ptr %6, align 8
  call void @llvm.dbg.declare(metadata ptr %a, metadata !297, metadata !DIExpression()), !dbg !303
  call void @llvm.dbg.declare(metadata ptr %b, metadata !298, metadata !DIExpression()), !dbg !304
; invoke core::iter::adapters::zip::TrustedRandomAccessNoCoerce::size
  %a_len = invoke i64 @_ZN4core4iter8adapters3zip27TrustedRandomAccessNoCoerce4size17h91030a21e39fd8b0E(ptr align 8 %a)
          to label %bb1 unwind label %cleanup, !dbg !305

bb3:                                              ; preds = %cleanup
  %7 = load ptr, ptr %4, align 8, !dbg !306, !noundef !55
  %8 = getelementptr inbounds i8, ptr %4, i64 8, !dbg !306
  %9 = load i32, ptr %8, align 8, !dbg !306, !noundef !55
  %10 = insertvalue { ptr, i32 } poison, ptr %7, 0, !dbg !306
  %11 = insertvalue { ptr, i32 } %10, i32 %9, 1, !dbg !306
  resume { ptr, i32 } %11, !dbg !306

cleanup:                                          ; preds = %bb2, %bb1, %start
  %12 = landingpad { ptr, i32 }
          cleanup
  %13 = extractvalue { ptr, i32 } %12, 0
  %14 = extractvalue { ptr, i32 } %12, 1
  store ptr %13, ptr %4, align 8
  %15 = getelementptr inbounds i8, ptr %4, i64 8
  store i32 %14, ptr %15, align 8
  br label %bb3

bb1:                                              ; preds = %start
  store i64 %a_len, ptr %a_len.dbg.spill, align 8, !dbg !305
  call void @llvm.dbg.declare(metadata ptr %a_len.dbg.spill, metadata !299, metadata !DIExpression()), !dbg !307
  call void @llvm.dbg.declare(metadata ptr %a_len.dbg.spill, metadata !308, metadata !DIExpression()), !dbg !318
  call void @llvm.dbg.declare(metadata ptr %a_len.dbg.spill, metadata !320, metadata !DIExpression()), !dbg !328
; invoke core::iter::adapters::zip::TrustedRandomAccessNoCoerce::size
  %v2 = invoke i64 @_ZN4core4iter8adapters3zip27TrustedRandomAccessNoCoerce4size17h91030a21e39fd8b0E(ptr align 8 %b)
          to label %bb2 unwind label %cleanup, !dbg !330

bb2:                                              ; preds = %bb1
  store i64 %v2, ptr %v2.dbg.spill, align 8, !dbg !330
  call void @llvm.dbg.declare(metadata ptr %v2.dbg.spill, metadata !315, metadata !DIExpression()), !dbg !331
  call void @llvm.dbg.declare(metadata ptr %v2.dbg.spill, metadata !325, metadata !DIExpression()), !dbg !332
; invoke core::cmp::min_by
  %len = invoke i64 @_ZN4core3cmp6min_by17hd26b8d3802266ffeE(i64 %a_len, i64 %v2)
          to label %bb6 unwind label %cleanup, !dbg !333

bb6:                                              ; preds = %bb2
  store i64 %len, ptr %len.dbg.spill, align 8, !dbg !333
  call void @llvm.dbg.declare(metadata ptr %len.dbg.spill, metadata !301, metadata !DIExpression()), !dbg !334
  %_8.0 = load ptr, ptr %a, align 8, !dbg !335, !nonnull !55, !noundef !55
  %16 = getelementptr inbounds i8, ptr %a, i64 8, !dbg !335
  %_8.1 = load ptr, ptr %16, align 8, !dbg !335, !noundef !55
  %_9.0 = load ptr, ptr %b, align 8, !dbg !336, !nonnull !55, !noundef !55
  %17 = getelementptr inbounds i8, ptr %b, i64 8, !dbg !336
  %_9.1 = load ptr, ptr %17, align 8, !dbg !336, !noundef !55
  store ptr %_8.0, ptr %_0, align 8, !dbg !337
  %18 = getelementptr inbounds i8, ptr %_0, i64 8, !dbg !337
  store ptr %_8.1, ptr %18, align 8, !dbg !337
  %19 = getelementptr inbounds i8, ptr %_0, i64 16, !dbg !337
  store ptr %_9.0, ptr %19, align 8, !dbg !337
  %20 = getelementptr inbounds i8, ptr %19, i64 8, !dbg !337
  store ptr %_9.1, ptr %20, align 8, !dbg !337
  %21 = getelementptr inbounds i8, ptr %_0, i64 32, !dbg !337
  store i64 0, ptr %21, align 8, !dbg !337
  %22 = getelementptr inbounds i8, ptr %_0, i64 40, !dbg !337
  store i64 %len, ptr %22, align 8, !dbg !337
  %23 = getelementptr inbounds i8, ptr %_0, i64 48, !dbg !337
  store i64 %a_len, ptr %23, align 8, !dbg !337
  ret void, !dbg !338
}

; <core::iter::adapters::zip::Zip<A,B> as core::iter::adapters::zip::ZipImpl<A,B>>::next
; Function Attrs: inlinehint uwtable
define i24 @"_ZN111_$LT$core..iter..adapters..zip..Zip$LT$A$C$B$GT$$u20$as$u20$core..iter..adapters..zip..ZipImpl$LT$A$C$B$GT$$GT$4next17h434662e694ec0247E"(ptr align 8 %self) unnamed_addr #0 personality ptr @rust_eh_personality !dbg !339 {
start:
  %0 = alloca { ptr, i32, [1 x i32] }, align 8
  %i.dbg.spill2 = alloca i64, align 8
  %i.dbg.spill = alloca i64, align 8
  %self.dbg.spill = alloca ptr, align 8
  %_6 = alloca { i8, i8 }, align 1
  %_0 = alloca %"core::option::Option<(u8, u8)>", align 1
  store ptr %self, ptr %self.dbg.spill, align 8
  call void @llvm.dbg.declare(metadata ptr %self.dbg.spill, metadata !341, metadata !DIExpression()), !dbg !346
  %1 = getelementptr inbounds i8, ptr %self, i64 32, !dbg !347
  %_3 = load i64, ptr %1, align 8, !dbg !347, !noundef !55
  %2 = getelementptr inbounds i8, ptr %self, i64 40, !dbg !348
  %_4 = load i64, ptr %2, align 8, !dbg !348, !noundef !55
  %_2 = icmp ult i64 %_3, %_4, !dbg !347
  br i1 %_2, label %bb1, label %bb4, !dbg !347

bb4:                                              ; preds = %start
  br label %bb10, !dbg !349

bb1:                                              ; preds = %start
  %3 = getelementptr inbounds i8, ptr %self, i64 32, !dbg !350
  %i1 = load i64, ptr %3, align 8, !dbg !350, !noundef !55
  store i64 %i1, ptr %i.dbg.spill2, align 8, !dbg !350
  call void @llvm.dbg.declare(metadata ptr %i.dbg.spill2, metadata !342, metadata !DIExpression()), !dbg !351
  %4 = getelementptr inbounds i8, ptr %self, i64 32, !dbg !352
  %5 = getelementptr inbounds i8, ptr %self, i64 32, !dbg !352
  %6 = load i64, ptr %5, align 8, !dbg !352, !noundef !55
  %7 = add i64 %6, 1, !dbg !352
  store i64 %7, ptr %4, align 8, !dbg !352
; call <core::str::iter::Bytes as core::iter::traits::iterator::Iterator>::__iterator_get_unchecked
  %_7 = call i8 @"_ZN81_$LT$core..str..iter..Bytes$u20$as$u20$core..iter..traits..iterator..Iterator$GT$24__iterator_get_unchecked17h28b42102d73b116fE"(ptr align 8 %self, i64 %i1), !dbg !353
  %_10 = getelementptr inbounds i8, ptr %self, i64 16, !dbg !354
; invoke <core::str::iter::Bytes as core::iter::traits::iterator::Iterator>::__iterator_get_unchecked
  %_9 = invoke i8 @"_ZN81_$LT$core..str..iter..Bytes$u20$as$u20$core..iter..traits..iterator..Iterator$GT$24__iterator_get_unchecked17h28b42102d73b116fE"(ptr align 8 %_10, i64 %i1)
          to label %bb3 unwind label %cleanup, !dbg !354

bb10:                                             ; preds = %bb9, %bb4
  store i8 0, ptr %_0, align 1, !dbg !355
  br label %bb11, !dbg !356

bb5:                                              ; No predecessors!
  %8 = getelementptr inbounds i8, ptr %self, i64 32, !dbg !357
  %_13 = load i64, ptr %8, align 8, !dbg !357, !noundef !55
  %9 = getelementptr inbounds i8, ptr %self, i64 48, !dbg !358
  %_14 = load i64, ptr %9, align 8, !dbg !358, !noundef !55
  %_12 = icmp ult i64 %_13, %_14, !dbg !357
  br i1 %_12, label %bb6, label %bb9, !dbg !357

bb9:                                              ; preds = %bb5
  br label %bb10, !dbg !359

bb6:                                              ; preds = %bb5
  %10 = getelementptr inbounds i8, ptr %self, i64 32, !dbg !362
  %i = load i64, ptr %10, align 8, !dbg !362, !noundef !55
  store i64 %i, ptr %i.dbg.spill, align 8, !dbg !362
  call void @llvm.dbg.declare(metadata ptr %i.dbg.spill, metadata !344, metadata !DIExpression()), !dbg !363
  %11 = getelementptr inbounds i8, ptr %self, i64 32, !dbg !364
  %12 = getelementptr inbounds i8, ptr %self, i64 32, !dbg !364
  %13 = load i64, ptr %12, align 8, !dbg !364, !noundef !55
  %14 = add i64 %13, 1, !dbg !364
  store i64 %14, ptr %11, align 8, !dbg !364
  %15 = getelementptr inbounds i8, ptr %self, i64 40, !dbg !365
  %16 = getelementptr inbounds i8, ptr %self, i64 40, !dbg !365
  %17 = load i64, ptr %16, align 8, !dbg !365, !noundef !55
  %18 = add i64 %17, 1, !dbg !365
  store i64 %18, ptr %15, align 8, !dbg !365
; call <core::str::iter::Bytes as core::iter::traits::iterator::Iterator>::__iterator_get_unchecked
  %_16 = call i8 @"_ZN81_$LT$core..str..iter..Bytes$u20$as$u20$core..iter..traits..iterator..Iterator$GT$24__iterator_get_unchecked17h28b42102d73b116fE"(ptr align 8 %self, i64 %i), !dbg !366
  store i8 0, ptr %_0, align 1, !dbg !367
  br label %bb11, !dbg !356

bb11:                                             ; preds = %bb6, %bb10
  br label %bb12, !dbg !368

bb12:                                             ; preds = %bb3, %bb11
  %19 = load i24, ptr %_0, align 1, !dbg !369
  ret i24 %19, !dbg !369

bb13:                                             ; preds = %cleanup
  %20 = load ptr, ptr %0, align 8, !dbg !370, !noundef !55
  %21 = getelementptr inbounds i8, ptr %0, i64 8, !dbg !370
  %22 = load i32, ptr %21, align 8, !dbg !370, !noundef !55
  %23 = insertvalue { ptr, i32 } poison, ptr %20, 0, !dbg !370
  %24 = insertvalue { ptr, i32 } %23, i32 %22, 1, !dbg !370
  resume { ptr, i32 } %24, !dbg !370

cleanup:                                          ; preds = %bb1
  %25 = landingpad { ptr, i32 }
          cleanup
  %26 = extractvalue { ptr, i32 } %25, 0
  %27 = extractvalue { ptr, i32 } %25, 1
  store ptr %26, ptr %0, align 8
  %28 = getelementptr inbounds i8, ptr %0, i64 8
  store i32 %27, ptr %28, align 8
  br label %bb13

bb3:                                              ; preds = %bb1
  store i8 %_7, ptr %_6, align 1, !dbg !371
  %29 = getelementptr inbounds i8, ptr %_6, i64 1, !dbg !371
  store i8 %_9, ptr %29, align 1, !dbg !371
  %30 = load i8, ptr %_6, align 1, !dbg !372, !noundef !55
  %31 = getelementptr inbounds i8, ptr %_6, i64 1, !dbg !372
  %32 = load i8, ptr %31, align 1, !dbg !372, !noundef !55
  %33 = getelementptr inbounds i8, ptr %_0, i64 1, !dbg !372
  store i8 %30, ptr %33, align 1, !dbg !372
  %34 = getelementptr inbounds i8, ptr %33, i64 1, !dbg !372
  store i8 %32, ptr %34, align 1, !dbg !372
  store i8 1, ptr %_0, align 1, !dbg !372
  br label %bb12, !dbg !368
}

; std::f32::<impl f32>::powi
; Function Attrs: inlinehint uwtable
define internal float @"_ZN3std3f3221_$LT$impl$u20$f32$GT$4powi17hb08a9a2a806977e7E"(float %self, i32 %n) unnamed_addr #0 !dbg !373 {
start:
  %0 = alloca float, align 4
  %n.dbg.spill = alloca i32, align 4
  %self.dbg.spill = alloca float, align 4
  store float %self, ptr %self.dbg.spill, align 4
  call void @llvm.dbg.declare(metadata ptr %self.dbg.spill, metadata !383, metadata !DIExpression()), !dbg !385
  store i32 %n, ptr %n.dbg.spill, align 4
  call void @llvm.dbg.declare(metadata ptr %n.dbg.spill, metadata !384, metadata !DIExpression()), !dbg !386
  %1 = call float @llvm.powi.f32.i32(float %self, i32 %n), !dbg !387
  store float %1, ptr %0, align 4, !dbg !387
  %_0 = load float, ptr %0, align 4, !dbg !387, !noundef !55
  ret float %_0, !dbg !388
}

; std::f64::<impl f64>::powi
; Function Attrs: inlinehint uwtable
define internal double @"_ZN3std3f6421_$LT$impl$u20$f64$GT$4powi17h7668c5f4711c0321E"(double %self, i32 %n) unnamed_addr #0 !dbg !389 {
start:
  %0 = alloca double, align 8
  %n.dbg.spill = alloca i32, align 4
  %self.dbg.spill = alloca double, align 8
  store double %self, ptr %self.dbg.spill, align 8
  call void @llvm.dbg.declare(metadata ptr %self.dbg.spill, metadata !397, metadata !DIExpression()), !dbg !399
  store i32 %n, ptr %n.dbg.spill, align 4
  call void @llvm.dbg.declare(metadata ptr %n.dbg.spill, metadata !398, metadata !DIExpression()), !dbg !400
  %1 = call double @llvm.powi.f64.i32(double %self, i32 %n), !dbg !401
  store double %1, ptr %0, align 8, !dbg !401
  %_0 = load double, ptr %0, align 8, !dbg !401, !noundef !55
  ret double %_0, !dbg !402
}

; core::intrinsics::is_aligned_and_not_null
; Function Attrs: inlinehint uwtable
define internal zeroext i1 @_ZN4core10intrinsics23is_aligned_and_not_null17ha90fbe8bd986bd26E(ptr %ptr, i64 %align) unnamed_addr #0 !dbg !403 {
start:
  %pieces.dbg.spill = alloca { ptr, i64 }, align 8
  %0 = alloca i64, align 8
  %ptr.dbg.spill1 = alloca ptr, align 8
  %align.dbg.spill = alloca i64, align 8
  %ptr.dbg.spill = alloca ptr, align 8
  %_6 = alloca %"core::fmt::Arguments<'_>", align 8
  %_0 = alloca i8, align 1
  store ptr %ptr, ptr %ptr.dbg.spill, align 8
  call void @llvm.dbg.declare(metadata ptr %ptr.dbg.spill, metadata !411, metadata !DIExpression()), !dbg !413
  call void @llvm.dbg.declare(metadata ptr %ptr.dbg.spill, metadata !414, metadata !DIExpression()), !dbg !425
  call void @llvm.dbg.declare(metadata ptr %ptr.dbg.spill, metadata !427, metadata !DIExpression()), !dbg !432
  call void @llvm.dbg.declare(metadata ptr %ptr.dbg.spill, metadata !434, metadata !DIExpression()), !dbg !444
  call void @llvm.dbg.declare(metadata ptr %ptr.dbg.spill, metadata !446, metadata !DIExpression()), !dbg !452
  call void @llvm.dbg.declare(metadata ptr %ptr.dbg.spill, metadata !454, metadata !DIExpression()), !dbg !460
  call void @llvm.dbg.declare(metadata ptr %ptr.dbg.spill, metadata !440, metadata !DIExpression()), !dbg !462
  store i64 %align, ptr %align.dbg.spill, align 8
  call void @llvm.dbg.declare(metadata ptr %align.dbg.spill, metadata !412, metadata !DIExpression()), !dbg !464
  call void @llvm.dbg.declare(metadata ptr %align.dbg.spill, metadata !431, metadata !DIExpression()), !dbg !465
  call void @llvm.dbg.declare(metadata ptr %align.dbg.spill, metadata !466, metadata !DIExpression()), !dbg !476
  call void @llvm.dbg.declare(metadata ptr %align.dbg.spill, metadata !478, metadata !DIExpression()), !dbg !485
  call void @llvm.dbg.declare(metadata ptr %align.dbg.spill, metadata !451, metadata !DIExpression()), !dbg !487
  store ptr %ptr, ptr %ptr.dbg.spill1, align 8, !dbg !488
  call void @llvm.dbg.declare(metadata ptr %ptr.dbg.spill1, metadata !489, metadata !DIExpression()), !dbg !496
  call void @llvm.dbg.declare(metadata ptr %ptr.dbg.spill1, metadata !498, metadata !DIExpression()), !dbg !504
  call void @llvm.dbg.declare(metadata ptr %ptr.dbg.spill1, metadata !506, metadata !DIExpression()), !dbg !513
  %_4 = ptrtoint ptr %ptr to i64, !dbg !515
  %1 = icmp eq i64 %_4, 0, !dbg !516
  br i1 %1, label %bb1, label %bb2, !dbg !516

bb1:                                              ; preds = %start
  store i8 0, ptr %_0, align 1, !dbg !517
  br label %bb3, !dbg !517

bb2:                                              ; preds = %start
  %2 = call i64 @llvm.ctpop.i64(i64 %align), !dbg !485
  store i64 %2, ptr %0, align 8, !dbg !485
  %_9 = load i64, ptr %0, align 8, !dbg !485, !noundef !55
  %_8 = trunc i64 %_9 to i32, !dbg !485
  %3 = icmp eq i32 %_8, 1, !dbg !518
  br i1 %3, label %bb4, label %bb5, !dbg !518

bb3:                                              ; preds = %bb4, %bb1
  %4 = load i8, ptr %_0, align 1, !dbg !519, !range !165, !noundef !55
  %5 = trunc i8 %4 to i1, !dbg !519
  ret i1 %5, !dbg !519

bb4:                                              ; preds = %bb2
  %_13 = sub i64 %align, 1, !dbg !520
  %_12 = and i64 %_4, %_13, !dbg !521
  %6 = icmp eq i64 %_12, 0, !dbg !521
  %7 = zext i1 %6 to i8, !dbg !521
  store i8 %7, ptr %_0, align 1, !dbg !521
  br label %bb3, !dbg !517

bb5:                                              ; preds = %bb2
  store ptr @alloc_041983ee8170efdaaf95ba67fd072d26, ptr %pieces.dbg.spill, align 8, !dbg !522
  %8 = getelementptr inbounds i8, ptr %pieces.dbg.spill, i64 8, !dbg !522
  store i64 1, ptr %8, align 8, !dbg !522
  call void @llvm.dbg.declare(metadata ptr %pieces.dbg.spill, metadata !523, metadata !DIExpression()), !dbg !650
  store ptr @alloc_041983ee8170efdaaf95ba67fd072d26, ptr %_6, align 8, !dbg !654
  %9 = getelementptr inbounds i8, ptr %_6, i64 8, !dbg !654
  store i64 1, ptr %9, align 8, !dbg !654
  %10 = load ptr, ptr @0, align 8, !dbg !654, !align !655, !noundef !55
  %11 = load i64, ptr getelementptr inbounds (i8, ptr @0, i64 8), align 8, !dbg !654
  %12 = getelementptr inbounds i8, ptr %_6, i64 32, !dbg !654
  store ptr %10, ptr %12, align 8, !dbg !654
  %13 = getelementptr inbounds i8, ptr %12, i64 8, !dbg !654
  store i64 %11, ptr %13, align 8, !dbg !654
  %14 = getelementptr inbounds i8, ptr %_6, i64 16, !dbg !654
  store ptr @alloc_513570631223a12912d85da2bec3b15a, ptr %14, align 8, !dbg !654
  %15 = getelementptr inbounds i8, ptr %14, i64 8, !dbg !654
  store i64 0, ptr %15, align 8, !dbg !654
; call core::panicking::panic_fmt
  call void @_ZN4core9panicking9panic_fmt17ha6d62ade15192290E(ptr align 8 %_6, ptr align 8 @alloc_33f991fa5bbac1da9d8a778b0f014caf) #9, !dbg !656
  unreachable, !dbg !656
}

; core::cmp::impls::<impl core::cmp::Ord for usize>::cmp
; Function Attrs: inlinehint uwtable
define internal i8 @"_ZN4core3cmp5impls50_$LT$impl$u20$core..cmp..Ord$u20$for$u20$usize$GT$3cmp17hddf23daad1745cb4E"(ptr align 8 %self, ptr align 8 %other) unnamed_addr #0 !dbg !657 {
start:
  %other.dbg.spill = alloca ptr, align 8
  %self.dbg.spill = alloca ptr, align 8
  %_0 = alloca i8, align 1
  store ptr %self, ptr %self.dbg.spill, align 8
  call void @llvm.dbg.declare(metadata ptr %self.dbg.spill, metadata !664, metadata !DIExpression()), !dbg !666
  store ptr %other, ptr %other.dbg.spill, align 8
  call void @llvm.dbg.declare(metadata ptr %other.dbg.spill, metadata !665, metadata !DIExpression()), !dbg !667
  %_4 = load i64, ptr %self, align 8, !dbg !668, !noundef !55
  %_5 = load i64, ptr %other, align 8, !dbg !669, !noundef !55
  %_3 = icmp ult i64 %_4, %_5, !dbg !668
  br i1 %_3, label %bb1, label %bb2, !dbg !668

bb2:                                              ; preds = %start
  %_6 = icmp eq i64 %_4, %_5, !dbg !670
  br i1 %_6, label %bb3, label %bb4, !dbg !670

bb1:                                              ; preds = %start
  store i8 -1, ptr %_0, align 1, !dbg !671
  br label %bb6, !dbg !672

bb4:                                              ; preds = %bb2
  store i8 1, ptr %_0, align 1, !dbg !673
  br label %bb5, !dbg !674

bb3:                                              ; preds = %bb2
  store i8 0, ptr %_0, align 1, !dbg !675
  br label %bb5, !dbg !674

bb5:                                              ; preds = %bb3, %bb4
  br label %bb6, !dbg !672

bb6:                                              ; preds = %bb1, %bb5
  %0 = load i8, ptr %_0, align 1, !dbg !676, !range !677, !noundef !55
  ret i8 %0, !dbg !676
}

; core::cmp::impls::<impl core::cmp::PartialEq for ()>::eq
; Function Attrs: inlinehint uwtable
define internal zeroext i1 @"_ZN4core3cmp5impls59_$LT$impl$u20$core..cmp..PartialEq$u20$for$u20$$LP$$RP$$GT$2eq17h6722ea997b1ffd63E"(ptr align 1 %self, ptr align 1 %_other) unnamed_addr #0 !dbg !678 {
start:
  %_other.dbg.spill = alloca ptr, align 8
  %self.dbg.spill = alloca ptr, align 8
  store ptr %self, ptr %self.dbg.spill, align 8
  call void @llvm.dbg.declare(metadata ptr %self.dbg.spill, metadata !684, metadata !DIExpression()), !dbg !686
  store ptr %_other, ptr %_other.dbg.spill, align 8
  call void @llvm.dbg.declare(metadata ptr %_other.dbg.spill, metadata !685, metadata !DIExpression()), !dbg !687
  ret i1 true, !dbg !688
}

; core::cmp::min_by
; Function Attrs: inlinehint uwtable
define i64 @_ZN4core3cmp6min_by17hd26b8d3802266ffeE(i64 %0, i64 %1) unnamed_addr #0 personality ptr @rust_eh_personality !dbg !689 {
start:
  %2 = alloca { ptr, i32, [1 x i32] }, align 8
  %compare.dbg.spill = alloca {}, align 1
  %_10 = alloca i8, align 1
  %_5 = alloca { ptr, ptr }, align 8
  %_4 = alloca i8, align 1
  %_0 = alloca i64, align 8
  %v2 = alloca i64, align 8
  %v1 = alloca i64, align 8
  store i64 %0, ptr %v1, align 8
  store i64 %1, ptr %v2, align 8
  call void @llvm.dbg.declare(metadata ptr %v1, metadata !694, metadata !DIExpression()), !dbg !699
  call void @llvm.dbg.declare(metadata ptr %v2, metadata !695, metadata !DIExpression()), !dbg !700
  call void @llvm.dbg.declare(metadata ptr %compare.dbg.spill, metadata !696, metadata !DIExpression()), !dbg !701
  store i8 1, ptr %_10, align 1, !dbg !702
  store ptr %v1, ptr %_5, align 8, !dbg !702
  %3 = getelementptr inbounds i8, ptr %_5, i64 8, !dbg !702
  store ptr %v2, ptr %3, align 8, !dbg !702
  %4 = load ptr, ptr %_5, align 8, !dbg !702, !nonnull !55, !align !655, !noundef !55
  %5 = getelementptr inbounds i8, ptr %_5, i64 8, !dbg !702
  %6 = load ptr, ptr %5, align 8, !dbg !702, !nonnull !55, !align !655, !noundef !55
; invoke core::ops::function::FnOnce::call_once
  %7 = invoke i8 @_ZN4core3ops8function6FnOnce9call_once17h4f9ce14a9d40028eE(ptr align 8 %4, ptr align 8 %6)
          to label %bb1 unwind label %cleanup, !dbg !702, !range !677

bb7:                                              ; preds = %cleanup
  br label %bb12, !dbg !703

cleanup:                                          ; preds = %start
  %8 = landingpad { ptr, i32 }
          cleanup
  %9 = extractvalue { ptr, i32 } %8, 0
  %10 = extractvalue { ptr, i32 } %8, 1
  store ptr %9, ptr %2, align 8
  %11 = getelementptr inbounds i8, ptr %2, i64 8
  store i32 %10, ptr %11, align 8
  br label %bb7

bb1:                                              ; preds = %start
  store i8 %7, ptr %_4, align 1, !dbg !702
  %_8 = load i8, ptr %_4, align 1, !dbg !702, !range !677, !noundef !55
  switch i8 %_8, label %bb2 [
    i8 -1, label %bb4
    i8 0, label %bb4
    i8 1, label %bb3
  ], !dbg !704

bb2:                                              ; preds = %bb1
  unreachable, !dbg !702

bb4:                                              ; preds = %bb1, %bb1
  store i8 0, ptr %_10, align 1, !dbg !705
  %12 = load i64, ptr %v1, align 8, !dbg !705, !noundef !55
  store i64 %12, ptr %_0, align 8, !dbg !705
  br label %bb9, !dbg !703

bb3:                                              ; preds = %bb1
  %13 = load i64, ptr %v2, align 8, !dbg !706, !noundef !55
  store i64 %13, ptr %_0, align 8, !dbg !706
  br label %bb5, !dbg !703

bb9:                                              ; preds = %bb4
  br label %bb6, !dbg !703

bb6:                                              ; preds = %bb10, %bb5, %bb9
  %14 = load i64, ptr %_0, align 8, !dbg !707, !noundef !55
  ret i64 %14, !dbg !707

bb5:                                              ; preds = %bb3
  %15 = load i8, ptr %_10, align 1, !dbg !703, !range !165, !noundef !55
  %16 = trunc i8 %15 to i1, !dbg !703
  br i1 %16, label %bb10, label %bb6, !dbg !703

bb10:                                             ; preds = %bb5
  br label %bb6, !dbg !703

bb12:                                             ; preds = %bb7
  %17 = load i8, ptr %_10, align 1, !dbg !703, !range !165, !noundef !55
  %18 = trunc i8 %17 to i1, !dbg !703
  br i1 %18, label %bb11, label %bb8, !dbg !703

bb8:                                              ; preds = %bb11, %bb12
  %19 = load ptr, ptr %2, align 8, !dbg !708, !noundef !55
  %20 = getelementptr inbounds i8, ptr %2, i64 8, !dbg !708
  %21 = load i32, ptr %20, align 8, !dbg !708, !noundef !55
  %22 = insertvalue { ptr, i32 } poison, ptr %19, 0, !dbg !708
  %23 = insertvalue { ptr, i32 } %22, i32 %21, 1, !dbg !708
  resume { ptr, i32 } %23, !dbg !708

bb11:                                             ; preds = %bb12
  br label %bb8, !dbg !703
}

; core::f32::<impl f32>::to_bits
; Function Attrs: inlinehint uwtable
define internal i32 @"_ZN4core3f3221_$LT$impl$u20$f32$GT$7to_bits17h0d3c10f6775efbd5E"(float %self) unnamed_addr #0 !dbg !709 {
start:
  %self.dbg.spill = alloca float, align 4
  store float %self, ptr %self.dbg.spill, align 4
  call void @llvm.dbg.declare(metadata ptr %self.dbg.spill, metadata !716, metadata !DIExpression()), !dbg !717
  call void @llvm.dbg.declare(metadata ptr %self.dbg.spill, metadata !718, metadata !DIExpression()), !dbg !723
  %_0 = bitcast float %self to i32, !dbg !725
  ret i32 %_0, !dbg !726
}

; core::f64::<impl f64>::to_bits
; Function Attrs: inlinehint uwtable
define internal i64 @"_ZN4core3f6421_$LT$impl$u20$f64$GT$7to_bits17hc1aec7bdaa1f3ca0E"(double %self) unnamed_addr #0 !dbg !727 {
start:
  %self.dbg.spill = alloca double, align 8
  store double %self, ptr %self.dbg.spill, align 8
  call void @llvm.dbg.declare(metadata ptr %self.dbg.spill, metadata !734, metadata !DIExpression()), !dbg !735
  call void @llvm.dbg.declare(metadata ptr %self.dbg.spill, metadata !736, metadata !DIExpression()), !dbg !741
  %_0 = bitcast double %self to i64, !dbg !743
  ret i64 %_0, !dbg !744
}

; core::ops::function::FnOnce::call_once
; Function Attrs: inlinehint uwtable
define internal i8 @_ZN4core3ops8function6FnOnce9call_once17h4f9ce14a9d40028eE(ptr align 8 %0, ptr align 8 %1) unnamed_addr #0 !dbg !745 {
start:
  %_1.dbg.spill = alloca {}, align 1
  %_2 = alloca { ptr, ptr }, align 8
  store ptr %0, ptr %_2, align 8
  %2 = getelementptr inbounds i8, ptr %_2, i64 8
  store ptr %1, ptr %2, align 8
  call void @llvm.dbg.declare(metadata ptr %_1.dbg.spill, metadata !752, metadata !DIExpression()), !dbg !761
  call void @llvm.dbg.declare(metadata ptr %_2, metadata !753, metadata !DIExpression()), !dbg !761
  %3 = load ptr, ptr %_2, align 8, !dbg !761, !nonnull !55, !align !655, !noundef !55
  %4 = getelementptr inbounds i8, ptr %_2, i64 8, !dbg !761
  %5 = load ptr, ptr %4, align 8, !dbg !761, !nonnull !55, !align !655, !noundef !55
; call core::cmp::impls::<impl core::cmp::Ord for usize>::cmp
  %_0 = call i8 @"_ZN4core3cmp5impls50_$LT$impl$u20$core..cmp..Ord$u20$for$u20$usize$GT$3cmp17hddf23daad1745cb4E"(ptr align 8 %3, ptr align 8 %5), !dbg !761, !range !677
  ret i8 %_0, !dbg !761
}

; core::ptr::const_ptr::<impl *const T>::sub_ptr
; Function Attrs: inlinehint uwtable
define i64 @"_ZN4core3ptr9const_ptr33_$LT$impl$u20$$BP$const$u20$T$GT$7sub_ptr17hbb3a3500ba564048E"(ptr %self, ptr %origin) unnamed_addr #0 !dbg !762 {
start:
  %0 = alloca i64, align 8
  %pointee_size.dbg.spill = alloca i64, align 8
  %origin.dbg.spill = alloca ptr, align 8
  %self.dbg.spill = alloca ptr, align 8
  store ptr %self, ptr %self.dbg.spill, align 8
  call void @llvm.dbg.declare(metadata ptr %self.dbg.spill, metadata !766, metadata !DIExpression()), !dbg !770
  store ptr %origin, ptr %origin.dbg.spill, align 8
  call void @llvm.dbg.declare(metadata ptr %origin.dbg.spill, metadata !767, metadata !DIExpression()), !dbg !771
  br label %bb1, !dbg !772

bb1:                                              ; preds = %start
; call core::ptr::const_ptr::<impl *const T>::sub_ptr::precondition_check
  call void @"_ZN4core3ptr9const_ptr33_$LT$impl$u20$$BP$const$u20$T$GT$7sub_ptr18precondition_check17h012d8a479895d993E"(ptr %self, ptr %origin) #10, !dbg !772
  br label %bb2, !dbg !772

bb2:                                              ; preds = %bb1
  store i64 1, ptr %pointee_size.dbg.spill, align 8, !dbg !773
  call void @llvm.dbg.declare(metadata ptr %pointee_size.dbg.spill, metadata !768, metadata !DIExpression()), !dbg !781
  br label %bb3, !dbg !782

bb3:                                              ; preds = %bb2
  br label %bb4, !dbg !783

bb4:                                              ; preds = %bb3
  %1 = ptrtoint ptr %self to i64, !dbg !784
  %2 = ptrtoint ptr %origin to i64, !dbg !784
  %3 = sub nuw i64 %1, %2, !dbg !784
  %4 = udiv exact i64 %3, 1, !dbg !784
  store i64 %4, ptr %0, align 8, !dbg !784
  %_0 = load i64, ptr %0, align 8, !dbg !784, !noundef !55
  ret i64 %_0, !dbg !785

bb5:                                              ; No predecessors!
; call core::panicking::panic
  call void @_ZN4core9panicking5panic17h5884aad3a9044857E(ptr align 1 @alloc_ec595fc0e82ef92fc59bd74f68296eae, i64 73, ptr align 8 @alloc_4e3a3aaf48410eaea90c90938dabe76a) #9, !dbg !786
  unreachable, !dbg !786
}

; core::ptr::const_ptr::<impl *const T>::sub_ptr::precondition_check
; Function Attrs: inlinehint nounwind uwtable
define internal void @"_ZN4core3ptr9const_ptr33_$LT$impl$u20$$BP$const$u20$T$GT$7sub_ptr18precondition_check17h012d8a479895d993E"(ptr %this, ptr %origin) unnamed_addr #2 !dbg !787 {
start:
  %origin.dbg.spill = alloca ptr, align 8
  %this.dbg.spill = alloca ptr, align 8
  store ptr %this, ptr %this.dbg.spill, align 8
  call void @llvm.dbg.declare(metadata ptr %this.dbg.spill, metadata !792, metadata !DIExpression()), !dbg !794
  store ptr %origin, ptr %origin.dbg.spill, align 8
  call void @llvm.dbg.declare(metadata ptr %origin.dbg.spill, metadata !793, metadata !DIExpression()), !dbg !794
  %_3 = icmp uge ptr %this, %origin, !dbg !795
  br i1 %_3, label %bb1, label %bb2, !dbg !795

bb2:                                              ; preds = %start
; call core::panicking::panic_nounwind
  call void @_ZN4core9panicking14panic_nounwind17h50c31e15afde233eE(ptr align 1 @alloc_7efb3a7632b3620f628ce83a521b4d9b, i64 71) #11, !dbg !797
  unreachable, !dbg !797

bb1:                                              ; preds = %start
  ret void, !dbg !798
}

; core::str::validations::next_code_point
; Function Attrs: inlinehint uwtable
define { i32, i32 } @_ZN4core3str11validations15next_code_point17ha5376d2f9d2a8a91E(ptr align 8 %bytes) unnamed_addr #0 !dbg !799 {
start:
  %w.dbg.spill = alloca i8, align 1
  %val.dbg.spill11 = alloca ptr, align 8
  %y_z.dbg.spill = alloca i32, align 4
  %z.dbg.spill = alloca i8, align 1
  %val.dbg.spill9 = alloca ptr, align 8
  %ch.dbg.spill = alloca i32, align 4
  %y.dbg.spill = alloca i8, align 1
  %val.dbg.spill6 = alloca ptr, align 8
  %init.dbg.spill = alloca i32, align 4
  %x.dbg.spill = alloca i8, align 1
  %val.dbg.spill = alloca ptr, align 8
  %v.dbg.spill = alloca ptr, align 8
  %bytes.dbg.spill = alloca ptr, align 8
  %self4 = alloca ptr, align 8
  %self3 = alloca ptr, align 8
  %ch = alloca i32, align 4
  %self2 = alloca ptr, align 8
  %self = alloca ptr, align 8
  %_3 = alloca ptr, align 8
  %_0 = alloca %"core::option::Option<u32>", align 4
  %width.dbg.spill = alloca i32, align 4
  %residual.dbg.spill1 = alloca %"core::option::Option<core::convert::Infallible>::None", align 1
  %residual.dbg.spill = alloca %"core::option::Option<core::convert::Infallible>::None", align 1
  call void @llvm.dbg.declare(metadata ptr %residual.dbg.spill, metadata !822, metadata !DIExpression()), !dbg !838
  call void @llvm.dbg.declare(metadata ptr %residual.dbg.spill1, metadata !839, metadata !DIExpression()), !dbg !845
  store i32 2, ptr %width.dbg.spill, align 4, !dbg !847
  call void @llvm.dbg.declare(metadata ptr %width.dbg.spill, metadata !854, metadata !DIExpression()), !dbg !847
  store ptr %bytes, ptr %bytes.dbg.spill, align 8, !dbg !847
  call void @llvm.dbg.declare(metadata ptr %bytes.dbg.spill, metadata !819, metadata !DIExpression()), !dbg !856
  call void @llvm.dbg.declare(metadata ptr %self, metadata !857, metadata !DIExpression()), !dbg !891
  call void @llvm.dbg.declare(metadata ptr %self2, metadata !893, metadata !DIExpression()), !dbg !918
  call void @llvm.dbg.declare(metadata ptr %ch, metadata !830, metadata !DIExpression()), !dbg !920
  call void @llvm.dbg.declare(metadata ptr %self3, metadata !910, metadata !DIExpression()), !dbg !921
  call void @llvm.dbg.declare(metadata ptr %self4, metadata !914, metadata !DIExpression()), !dbg !923
; call <core::slice::iter::Iter<T> as core::iter::traits::iterator::Iterator>::next
  %0 = call align 1 ptr @"_ZN91_$LT$core..slice..iter..Iter$LT$T$GT$$u20$as$u20$core..iter..traits..iterator..Iterator$GT$4next17h56d6f9086c2ae795E"(ptr align 8 %bytes), !dbg !892
  store ptr %0, ptr %self, align 8, !dbg !892
  %1 = load ptr, ptr %self, align 8, !dbg !925, !noundef !55
  %2 = ptrtoint ptr %1 to i64, !dbg !925
  %3 = icmp eq i64 %2, 0, !dbg !925
  %_27 = select i1 %3, i64 0, i64 1, !dbg !925
  %4 = icmp eq i64 %_27, 0, !dbg !926
  br i1 %4, label %bb13, label %bb14, !dbg !926

bb13:                                             ; preds = %start
  %5 = load i32, ptr @1, align 4, !dbg !927, !range !928, !noundef !55
  %6 = load i32, ptr getelementptr inbounds (i8, ptr @1, i64 4), align 4, !dbg !927
  store i32 %5, ptr %_0, align 4, !dbg !927
  %7 = getelementptr inbounds i8, ptr %_0, i64 4, !dbg !927
  store i32 %6, ptr %7, align 4, !dbg !927
  br label %bb12, !dbg !929

bb14:                                             ; preds = %start
  %v = load ptr, ptr %self, align 8, !dbg !931, !nonnull !55, !align !932, !noundef !55
  store ptr %v, ptr %v.dbg.spill, align 8, !dbg !931
  call void @llvm.dbg.declare(metadata ptr %v.dbg.spill, metadata !889, metadata !DIExpression()), !dbg !933
  store ptr %v, ptr %_3, align 8, !dbg !934
  %val = load ptr, ptr %_3, align 8, !dbg !892, !nonnull !55, !align !932, !noundef !55
  store ptr %val, ptr %val.dbg.spill, align 8, !dbg !892
  call void @llvm.dbg.declare(metadata ptr %val.dbg.spill, metadata !824, metadata !DIExpression()), !dbg !935
  %x = load i8, ptr %val, align 1, !dbg !936, !noundef !55
  store i8 %x, ptr %x.dbg.spill, align 1, !dbg !936
  call void @llvm.dbg.declare(metadata ptr %x.dbg.spill, metadata !820, metadata !DIExpression()), !dbg !937
  call void @llvm.dbg.declare(metadata ptr %x.dbg.spill, metadata !853, metadata !DIExpression()), !dbg !938
  %_6 = icmp ult i8 %x, -128, !dbg !939
  br i1 %_6, label %bb3, label %bb4, !dbg !939

bb12:                                             ; preds = %bb3, %bb11, %bb13
  %8 = load i32, ptr %_0, align 4, !dbg !940, !range !928, !noundef !55
  %9 = getelementptr inbounds i8, ptr %_0, i64 4, !dbg !940
  %10 = load i32, ptr %9, align 4, !dbg !940
  %11 = insertvalue { i32, i32 } poison, i32 %8, 0, !dbg !940
  %12 = insertvalue { i32, i32 } %11, i32 %10, 1, !dbg !940
  ret { i32, i32 } %12, !dbg !940

bb4:                                              ; preds = %bb14
  %_29 = and i8 %x, 31, !dbg !941
  %init = zext i8 %_29 to i32, !dbg !941
  store i32 %init, ptr %init.dbg.spill, align 4, !dbg !941
  call void @llvm.dbg.declare(metadata ptr %init.dbg.spill, metadata !826, metadata !DIExpression()), !dbg !942
  call void @llvm.dbg.declare(metadata ptr %init.dbg.spill, metadata !943, metadata !DIExpression()), !dbg !956
; call <core::slice::iter::Iter<T> as core::iter::traits::iterator::Iterator>::next
  %13 = call align 1 ptr @"_ZN91_$LT$core..slice..iter..Iter$LT$T$GT$$u20$as$u20$core..iter..traits..iterator..Iterator$GT$4next17h56d6f9086c2ae795E"(ptr align 8 %bytes), !dbg !958
  store ptr %13, ptr %self2, align 8, !dbg !958
  %14 = load ptr, ptr %self2, align 8, !dbg !959, !noundef !55
  %15 = ptrtoint ptr %14 to i64, !dbg !959
  %16 = icmp eq i64 %15, 0, !dbg !959
  %_30 = select i1 %16, i64 0, i64 1, !dbg !959
  %17 = icmp eq i64 %_30, 0, !dbg !960
  br i1 %17, label %bb15, label %bb16, !dbg !960

bb3:                                              ; preds = %bb14
  %_7 = zext i8 %x to i32, !dbg !961
  %18 = getelementptr inbounds i8, ptr %_0, i64 4, !dbg !962
  store i32 %_7, ptr %18, align 4, !dbg !962
  store i32 1, ptr %_0, align 4, !dbg !962
  br label %bb12, !dbg !963

bb15:                                             ; preds = %bb4
; call core::hint::unreachable_unchecked::precondition_check
  call void @_ZN4core4hint21unreachable_unchecked18precondition_check17ha5610570f2f166b8E() #10, !dbg !965
  br label %bb2, !dbg !965

bb16:                                             ; preds = %bb4
  %val5 = load ptr, ptr %self2, align 8, !dbg !973, !nonnull !55, !align !932, !noundef !55
  store ptr %val5, ptr %val.dbg.spill6, align 8, !dbg !973
  call void @llvm.dbg.declare(metadata ptr %val.dbg.spill6, metadata !908, metadata !DIExpression()), !dbg !974
  %y = load i8, ptr %val5, align 1, !dbg !975, !noundef !55
  store i8 %y, ptr %y.dbg.spill, align 1, !dbg !975
  call void @llvm.dbg.declare(metadata ptr %y.dbg.spill, metadata !828, metadata !DIExpression()), !dbg !976
  call void @llvm.dbg.declare(metadata ptr %y.dbg.spill, metadata !949, metadata !DIExpression()), !dbg !977
  %_33 = shl i32 %init, 6, !dbg !978
  %_35 = and i8 %y, 63, !dbg !979
  %ch7 = zext i8 %_35 to i32, !dbg !979
  store i32 %ch7, ptr %ch.dbg.spill, align 4, !dbg !979
  call void @llvm.dbg.declare(metadata ptr %ch.dbg.spill, metadata !950, metadata !DIExpression()), !dbg !980
  %19 = or i32 %_33, %ch7, !dbg !978
  store i32 %19, ptr %ch, align 4, !dbg !978
  %_13 = icmp uge i8 %x, -32, !dbg !982
  br i1 %_13, label %bb6, label %bb11, !dbg !982

bb2:                                              ; preds = %bb19, %bb17, %bb15
  unreachable, !dbg !892

bb11:                                             ; preds = %bb10, %bb16
  %_26 = load i32, ptr %ch, align 4, !dbg !983, !noundef !55
  %20 = getelementptr inbounds i8, ptr %_0, i64 4, !dbg !984
  store i32 %_26, ptr %20, align 4, !dbg !984
  store i32 1, ptr %_0, align 4, !dbg !984
  br label %bb12, !dbg !940

bb6:                                              ; preds = %bb16
; call <core::slice::iter::Iter<T> as core::iter::traits::iterator::Iterator>::next
  %21 = call align 1 ptr @"_ZN91_$LT$core..slice..iter..Iter$LT$T$GT$$u20$as$u20$core..iter..traits..iterator..Iterator$GT$4next17h56d6f9086c2ae795E"(ptr align 8 %bytes), !dbg !985
  store ptr %21, ptr %self3, align 8, !dbg !985
  %22 = load ptr, ptr %self3, align 8, !dbg !986, !noundef !55
  %23 = ptrtoint ptr %22 to i64, !dbg !986
  %24 = icmp eq i64 %23, 0, !dbg !986
  %_36 = select i1 %24, i64 0, i64 1, !dbg !986
  %25 = icmp eq i64 %_36, 0, !dbg !987
  br i1 %25, label %bb17, label %bb18, !dbg !987

bb17:                                             ; preds = %bb6
; call core::hint::unreachable_unchecked::precondition_check
  call void @_ZN4core4hint21unreachable_unchecked18precondition_check17ha5610570f2f166b8E() #10, !dbg !988
  br label %bb2, !dbg !988

bb18:                                             ; preds = %bb6
  %val8 = load ptr, ptr %self3, align 8, !dbg !991, !nonnull !55, !align !932, !noundef !55
  store ptr %val8, ptr %val.dbg.spill9, align 8, !dbg !991
  call void @llvm.dbg.declare(metadata ptr %val.dbg.spill9, metadata !912, metadata !DIExpression()), !dbg !992
  %z = load i8, ptr %val8, align 1, !dbg !993, !noundef !55
  store i8 %z, ptr %z.dbg.spill, align 1, !dbg !993
  call void @llvm.dbg.declare(metadata ptr %z.dbg.spill, metadata !832, metadata !DIExpression()), !dbg !994
  call void @llvm.dbg.declare(metadata ptr %z.dbg.spill, metadata !952, metadata !DIExpression()), !dbg !995
  %_39 = shl i32 %ch7, 6, !dbg !996
  %_41 = and i8 %z, 63, !dbg !997
  %_40 = zext i8 %_41 to i32, !dbg !997
  %y_z = or i32 %_39, %_40, !dbg !996
  store i32 %y_z, ptr %y_z.dbg.spill, align 4, !dbg !996
  call void @llvm.dbg.declare(metadata ptr %y_z.dbg.spill, metadata !834, metadata !DIExpression()), !dbg !998
  call void @llvm.dbg.declare(metadata ptr %y_z.dbg.spill, metadata !953, metadata !DIExpression()), !dbg !999
  %_18 = shl i32 %init, 12, !dbg !1001
  %26 = or i32 %_18, %y_z, !dbg !1002
  store i32 %26, ptr %ch, align 4, !dbg !1002
  %_19 = icmp uge i8 %x, -16, !dbg !1003
  br i1 %_19, label %bb8, label %bb10, !dbg !1003

bb10:                                             ; preds = %bb20, %bb18
  br label %bb11, !dbg !1004

bb8:                                              ; preds = %bb18
; call <core::slice::iter::Iter<T> as core::iter::traits::iterator::Iterator>::next
  %27 = call align 1 ptr @"_ZN91_$LT$core..slice..iter..Iter$LT$T$GT$$u20$as$u20$core..iter..traits..iterator..Iterator$GT$4next17h56d6f9086c2ae795E"(ptr align 8 %bytes), !dbg !1005
  store ptr %27, ptr %self4, align 8, !dbg !1005
  %28 = load ptr, ptr %self4, align 8, !dbg !1006, !noundef !55
  %29 = ptrtoint ptr %28 to i64, !dbg !1006
  %30 = icmp eq i64 %29, 0, !dbg !1006
  %_42 = select i1 %30, i64 0, i64 1, !dbg !1006
  %31 = icmp eq i64 %_42, 0, !dbg !1007
  br i1 %31, label %bb19, label %bb20, !dbg !1007

bb19:                                             ; preds = %bb8
; call core::hint::unreachable_unchecked::precondition_check
  call void @_ZN4core4hint21unreachable_unchecked18precondition_check17ha5610570f2f166b8E() #10, !dbg !1008
  br label %bb2, !dbg !1008

bb20:                                             ; preds = %bb8
  %val10 = load ptr, ptr %self4, align 8, !dbg !1011, !nonnull !55, !align !932, !noundef !55
  store ptr %val10, ptr %val.dbg.spill11, align 8, !dbg !1011
  call void @llvm.dbg.declare(metadata ptr %val.dbg.spill11, metadata !916, metadata !DIExpression()), !dbg !1012
  %w = load i8, ptr %val10, align 1, !dbg !1013, !noundef !55
  store i8 %w, ptr %w.dbg.spill, align 1, !dbg !1013
  call void @llvm.dbg.declare(metadata ptr %w.dbg.spill, metadata !836, metadata !DIExpression()), !dbg !1014
  call void @llvm.dbg.declare(metadata ptr %w.dbg.spill, metadata !955, metadata !DIExpression()), !dbg !1015
  %_24 = and i32 %init, 7, !dbg !1016
  %_23 = shl i32 %_24, 18, !dbg !1016
  %_45 = shl i32 %y_z, 6, !dbg !1017
  %_47 = and i8 %w, 63, !dbg !1018
  %_46 = zext i8 %_47 to i32, !dbg !1018
  %_25 = or i32 %_45, %_46, !dbg !1017
  %32 = or i32 %_23, %_25, !dbg !1019
  store i32 %32, ptr %ch, align 4, !dbg !1019
  br label %bb10, !dbg !1020
}

; core::str::<impl str>::is_char_boundary
; Function Attrs: inlinehint uwtable
define internal zeroext i1 @"_ZN4core3str21_$LT$impl$u20$str$GT$16is_char_boundary17hc3f6c9d8cb0660ddE"(ptr align 1 %self.0, i64 %self.1, i64 %index) unnamed_addr #0 !dbg !1021 {
start:
  %b.dbg.spill = alloca i8, align 1
  %self.dbg.spill1 = alloca { ptr, i64 }, align 8
  %index.dbg.spill = alloca i64, align 8
  %self.dbg.spill = alloca { ptr, i64 }, align 8
  %_3 = alloca ptr, align 8
  %_0 = alloca i8, align 1
  store ptr %self.0, ptr %self.dbg.spill, align 8
  %0 = getelementptr inbounds i8, ptr %self.dbg.spill, i64 8
  store i64 %self.1, ptr %0, align 8
  call void @llvm.dbg.declare(metadata ptr %self.dbg.spill, metadata !1027, metadata !DIExpression()), !dbg !1031
  call void @llvm.dbg.declare(metadata ptr %self.dbg.spill, metadata !1032, metadata !DIExpression()), !dbg !1044
  call void @llvm.dbg.declare(metadata ptr %self.dbg.spill, metadata !1046, metadata !DIExpression()), !dbg !1052
  call void @llvm.dbg.declare(metadata ptr %self.dbg.spill, metadata !1042, metadata !DIExpression()), !dbg !1054
  store i64 %index, ptr %index.dbg.spill, align 8
  call void @llvm.dbg.declare(metadata ptr %index.dbg.spill, metadata !1028, metadata !DIExpression()), !dbg !1056
  call void @llvm.dbg.declare(metadata ptr %index.dbg.spill, metadata !1057, metadata !DIExpression()), !dbg !1068
  %1 = icmp eq i64 %index, 0, !dbg !1070
  br i1 %1, label %bb1, label %bb2, !dbg !1070

bb1:                                              ; preds = %start
  store i8 1, ptr %_0, align 1, !dbg !1071
  br label %bb7, !dbg !1072

bb2:                                              ; preds = %start
  store ptr %self.0, ptr %self.dbg.spill1, align 8, !dbg !1073
  %2 = getelementptr inbounds i8, ptr %self.dbg.spill1, i64 8, !dbg !1073
  store i64 %self.1, ptr %2, align 8, !dbg !1073
  call void @llvm.dbg.declare(metadata ptr %self.dbg.spill1, metadata !1065, metadata !DIExpression()), !dbg !1074
; call <usize as core::slice::index::SliceIndex<[T]>>::get
  %3 = call align 1 ptr @"_ZN75_$LT$usize$u20$as$u20$core..slice..index..SliceIndex$LT$$u5b$T$u5d$$GT$$GT$3get17he3e69caa9439b716E"(i64 %index, ptr align 1 %self.0, i64 %self.1), !dbg !1075
  store ptr %3, ptr %_3, align 8, !dbg !1075
  %4 = load ptr, ptr %_3, align 8, !dbg !1076, !noundef !55
  %5 = ptrtoint ptr %4 to i64, !dbg !1076
  %6 = icmp eq i64 %5, 0, !dbg !1076
  %_5 = select i1 %6, i64 0, i64 1, !dbg !1076
  %7 = icmp eq i64 %_5, 0, !dbg !1077
  br i1 %7, label %bb5, label %bb4, !dbg !1077

bb7:                                              ; preds = %bb6, %bb1
  %8 = load i8, ptr %_0, align 1, !dbg !1072, !range !165, !noundef !55
  %9 = trunc i8 %8 to i1, !dbg !1072
  ret i1 %9, !dbg !1072

bb5:                                              ; preds = %bb2
  %10 = icmp eq i64 %index, %self.1, !dbg !1078
  %11 = zext i1 %10 to i8, !dbg !1078
  store i8 %11, ptr %_0, align 1, !dbg !1078
  br label %bb6, !dbg !1079

bb4:                                              ; preds = %bb2
  %_8 = load ptr, ptr %_3, align 8, !dbg !1080, !nonnull !55, !align !932, !noundef !55
  %b = load i8, ptr %_8, align 1, !dbg !1080, !noundef !55
  store i8 %b, ptr %b.dbg.spill, align 1, !dbg !1080
  call void @llvm.dbg.declare(metadata ptr %b.dbg.spill, metadata !1029, metadata !DIExpression()), !dbg !1081
  call void @llvm.dbg.declare(metadata ptr %b.dbg.spill, metadata !1082, metadata !DIExpression()), !dbg !1089
  %12 = icmp sge i8 %b, -64, !dbg !1091
  %13 = zext i1 %12 to i8, !dbg !1091
  store i8 %13, ptr %_0, align 1, !dbg !1091
  br label %bb6, !dbg !1092

bb6:                                              ; preds = %bb4, %bb5
  br label %bb7, !dbg !1072

bb3:                                              ; No predecessors!
  unreachable, !dbg !1076
}

; core::str::<impl str>::len
; Function Attrs: inlinehint uwtable
define internal i64 @"_ZN4core3str21_$LT$impl$u20$str$GT$3len17h897bb717d6e44c83E"(ptr align 1 %self.0, i64 %self.1) unnamed_addr #0 !dbg !1093 {
start:
  %self.dbg.spill = alloca { ptr, i64 }, align 8
  store ptr %self.0, ptr %self.dbg.spill, align 8
  %0 = getelementptr inbounds i8, ptr %self.dbg.spill, i64 8
  store i64 %self.1, ptr %0, align 8
  call void @llvm.dbg.declare(metadata ptr %self.dbg.spill, metadata !1095, metadata !DIExpression()), !dbg !1096
  call void @llvm.dbg.declare(metadata ptr %self.dbg.spill, metadata !1097, metadata !DIExpression()), !dbg !1101
  ret i64 %self.1, !dbg !1103
}

; core::str::<impl str>::bytes
; Function Attrs: inlinehint uwtable
define internal { ptr, ptr } @"_ZN4core3str21_$LT$impl$u20$str$GT$5bytes17hf31d42c1483da300E"(ptr align 1 %self.0, i64 %self.1) unnamed_addr #0 !dbg !1104 {
start:
  %end_or_len.dbg.spill = alloca ptr, align 8
  %self.dbg.spill3 = alloca ptr, align 8
  %len.dbg.spill = alloca i64, align 8
  %self.dbg.spill2 = alloca { ptr, i64 }, align 8
  %self.dbg.spill = alloca { ptr, i64 }, align 8
  %self1 = alloca %"core::ptr::non_null::NonNull<[u8]>", align 8
  %ptr = alloca ptr, align 8
  %self = alloca %"core::slice::iter::Iter<'_, u8>", align 8
  %_2 = alloca %"core::iter::adapters::copied::Copied<core::slice::iter::Iter<'_, u8>>", align 8
  %_0 = alloca %"core::str::iter::Bytes<'_>", align 8
  store ptr %self.0, ptr %self.dbg.spill, align 8
  %0 = getelementptr inbounds i8, ptr %self.dbg.spill, i64 8
  store i64 %self.1, ptr %0, align 8
  call void @llvm.dbg.declare(metadata ptr %self.dbg.spill, metadata !1108, metadata !DIExpression()), !dbg !1109
  call void @llvm.dbg.declare(metadata ptr %self.dbg.spill, metadata !1110, metadata !DIExpression()), !dbg !1114
  call void @llvm.dbg.declare(metadata ptr %self, metadata !1116, metadata !DIExpression()), !dbg !1128
  call void @llvm.dbg.declare(metadata ptr %self, metadata !1130, metadata !DIExpression()), !dbg !1136
  call void @llvm.dbg.declare(metadata ptr %ptr, metadata !1138, metadata !DIExpression()), !dbg !1152
  call void @llvm.dbg.declare(metadata ptr %ptr, metadata !1159, metadata !DIExpression()), !dbg !1168
  call void @llvm.dbg.declare(metadata ptr %self1, metadata !1170, metadata !DIExpression()), !dbg !1186
  call void @llvm.dbg.declare(metadata ptr %self1, metadata !1188, metadata !DIExpression()), !dbg !1199
  store ptr %self.0, ptr %self.dbg.spill2, align 8, !dbg !1201
  %1 = getelementptr inbounds i8, ptr %self.dbg.spill2, i64 8, !dbg !1201
  store i64 %self.1, ptr %1, align 8, !dbg !1201
  call void @llvm.dbg.declare(metadata ptr %self.dbg.spill2, metadata !1157, metadata !DIExpression()), !dbg !1202
  call void @llvm.dbg.declare(metadata ptr %self.dbg.spill2, metadata !1148, metadata !DIExpression()), !dbg !1203
  call void @llvm.dbg.declare(metadata ptr %self.dbg.spill2, metadata !1204, metadata !DIExpression()), !dbg !1211
  store i64 %self.1, ptr %len.dbg.spill, align 8, !dbg !1213
  call void @llvm.dbg.declare(metadata ptr %len.dbg.spill, metadata !1149, metadata !DIExpression()), !dbg !1214
  call void @llvm.dbg.declare(metadata ptr %len.dbg.spill, metadata !1215, metadata !DIExpression()), !dbg !1222
  call void @llvm.dbg.declare(metadata ptr %len.dbg.spill, metadata !1224, metadata !DIExpression()), !dbg !1234
  store ptr %self.0, ptr %self1, align 8, !dbg !1236
  %2 = getelementptr inbounds i8, ptr %self1, i64 8, !dbg !1236
  store i64 %self.1, ptr %2, align 8, !dbg !1236
  store ptr %self.0, ptr %ptr, align 8, !dbg !1237
  store ptr %self.0, ptr %self.dbg.spill3, align 8, !dbg !1238
  call void @llvm.dbg.declare(metadata ptr %self.dbg.spill3, metadata !1233, metadata !DIExpression()), !dbg !1239
  %_9 = getelementptr inbounds i8, ptr %self.0, i64 %self.1, !dbg !1240
  store ptr %_9, ptr %end_or_len.dbg.spill, align 8, !dbg !1241
  call void @llvm.dbg.declare(metadata ptr %end_or_len.dbg.spill, metadata !1150, metadata !DIExpression()), !dbg !1242
  %3 = load ptr, ptr %ptr, align 8, !dbg !1243, !nonnull !55, !noundef !55
  store ptr %3, ptr %self, align 8, !dbg !1243
  %4 = getelementptr inbounds i8, ptr %self, i64 8, !dbg !1243
  store ptr %_9, ptr %4, align 8, !dbg !1243
  %5 = load ptr, ptr %self, align 8, !dbg !1244, !nonnull !55, !noundef !55
  %6 = getelementptr inbounds i8, ptr %self, i64 8, !dbg !1244
  %7 = load ptr, ptr %6, align 8, !dbg !1244, !noundef !55
  store ptr %5, ptr %_2, align 8, !dbg !1244
  %8 = getelementptr inbounds i8, ptr %_2, i64 8, !dbg !1244
  store ptr %7, ptr %8, align 8, !dbg !1244
  %9 = load ptr, ptr %_2, align 8, !dbg !1245, !nonnull !55, !noundef !55
  %10 = getelementptr inbounds i8, ptr %_2, i64 8, !dbg !1245
  %11 = load ptr, ptr %10, align 8, !dbg !1245, !noundef !55
  store ptr %9, ptr %_0, align 8, !dbg !1245
  %12 = getelementptr inbounds i8, ptr %_0, i64 8, !dbg !1245
  store ptr %11, ptr %12, align 8, !dbg !1245
  %13 = load ptr, ptr %_0, align 8, !dbg !1246, !nonnull !55, !noundef !55
  %14 = getelementptr inbounds i8, ptr %_0, i64 8, !dbg !1246
  %15 = load ptr, ptr %14, align 8, !dbg !1246, !noundef !55
  %16 = insertvalue { ptr, ptr } poison, ptr %13, 0, !dbg !1246
  %17 = insertvalue { ptr, ptr } %16, ptr %15, 1, !dbg !1246
  ret { ptr, ptr } %17, !dbg !1246
}

; core::str::<impl str>::chars
; Function Attrs: inlinehint uwtable
define internal { ptr, ptr } @"_ZN4core3str21_$LT$impl$u20$str$GT$5chars17h085b5d73579197ddE"(ptr align 1 %self.0, i64 %self.1) unnamed_addr #0 !dbg !1247 {
start:
  %end_or_len.dbg.spill = alloca ptr, align 8
  %self.dbg.spill2 = alloca ptr, align 8
  %len.dbg.spill = alloca i64, align 8
  %self.dbg.spill1 = alloca { ptr, i64 }, align 8
  %self.dbg.spill = alloca { ptr, i64 }, align 8
  %self = alloca %"core::ptr::non_null::NonNull<[u8]>", align 8
  %ptr = alloca ptr, align 8
  %_2 = alloca %"core::slice::iter::Iter<'_, u8>", align 8
  %_0 = alloca %"core::str::iter::Chars<'_>", align 8
  store ptr %self.0, ptr %self.dbg.spill, align 8
  %0 = getelementptr inbounds i8, ptr %self.dbg.spill, i64 8
  store i64 %self.1, ptr %0, align 8
  call void @llvm.dbg.declare(metadata ptr %self.dbg.spill, metadata !1251, metadata !DIExpression()), !dbg !1252
  call void @llvm.dbg.declare(metadata ptr %self.dbg.spill, metadata !1253, metadata !DIExpression()), !dbg !1257
  call void @llvm.dbg.declare(metadata ptr %ptr, metadata !1259, metadata !DIExpression()), !dbg !1269
  call void @llvm.dbg.declare(metadata ptr %ptr, metadata !1276, metadata !DIExpression()), !dbg !1280
  call void @llvm.dbg.declare(metadata ptr %self, metadata !1282, metadata !DIExpression()), !dbg !1286
  call void @llvm.dbg.declare(metadata ptr %self, metadata !1288, metadata !DIExpression()), !dbg !1292
  store ptr %self.0, ptr %self.dbg.spill1, align 8, !dbg !1294
  %1 = getelementptr inbounds i8, ptr %self.dbg.spill1, i64 8, !dbg !1294
  store i64 %self.1, ptr %1, align 8, !dbg !1294
  call void @llvm.dbg.declare(metadata ptr %self.dbg.spill1, metadata !1274, metadata !DIExpression()), !dbg !1295
  call void @llvm.dbg.declare(metadata ptr %self.dbg.spill1, metadata !1265, metadata !DIExpression()), !dbg !1296
  call void @llvm.dbg.declare(metadata ptr %self.dbg.spill1, metadata !1297, metadata !DIExpression()), !dbg !1301
  store i64 %self.1, ptr %len.dbg.spill, align 8, !dbg !1303
  call void @llvm.dbg.declare(metadata ptr %len.dbg.spill, metadata !1266, metadata !DIExpression()), !dbg !1304
  call void @llvm.dbg.declare(metadata ptr %len.dbg.spill, metadata !1305, metadata !DIExpression()), !dbg !1309
  call void @llvm.dbg.declare(metadata ptr %len.dbg.spill, metadata !1311, metadata !DIExpression()), !dbg !1316
  store ptr %self.0, ptr %self, align 8, !dbg !1318
  %2 = getelementptr inbounds i8, ptr %self, i64 8, !dbg !1318
  store i64 %self.1, ptr %2, align 8, !dbg !1318
  store ptr %self.0, ptr %ptr, align 8, !dbg !1319
  store ptr %self.0, ptr %self.dbg.spill2, align 8, !dbg !1320
  call void @llvm.dbg.declare(metadata ptr %self.dbg.spill2, metadata !1315, metadata !DIExpression()), !dbg !1321
  %_8 = getelementptr inbounds i8, ptr %self.0, i64 %self.1, !dbg !1322
  store ptr %_8, ptr %end_or_len.dbg.spill, align 8, !dbg !1323
  call void @llvm.dbg.declare(metadata ptr %end_or_len.dbg.spill, metadata !1267, metadata !DIExpression()), !dbg !1324
  %3 = load ptr, ptr %ptr, align 8, !dbg !1325, !nonnull !55, !noundef !55
  store ptr %3, ptr %_2, align 8, !dbg !1325
  %4 = getelementptr inbounds i8, ptr %_2, i64 8, !dbg !1325
  store ptr %_8, ptr %4, align 8, !dbg !1325
  %5 = load ptr, ptr %_2, align 8, !dbg !1326, !nonnull !55, !noundef !55
  %6 = getelementptr inbounds i8, ptr %_2, i64 8, !dbg !1326
  %7 = load ptr, ptr %6, align 8, !dbg !1326, !noundef !55
  store ptr %5, ptr %_0, align 8, !dbg !1326
  %8 = getelementptr inbounds i8, ptr %_0, i64 8, !dbg !1326
  store ptr %7, ptr %8, align 8, !dbg !1326
  %9 = load ptr, ptr %_0, align 8, !dbg !1327, !nonnull !55, !noundef !55
  %10 = getelementptr inbounds i8, ptr %_0, i64 8, !dbg !1327
  %11 = load ptr, ptr %10, align 8, !dbg !1327, !noundef !55
  %12 = insertvalue { ptr, ptr } poison, ptr %9, 0, !dbg !1327
  %13 = insertvalue { ptr, ptr } %12, ptr %11, 1, !dbg !1327
  ret { ptr, ptr } %13, !dbg !1327
}

; core::str::<impl str>::parse
; Function Attrs: inlinehint uwtable
define void @"_ZN4core3str21_$LT$impl$u20$str$GT$5parse17h24324fe1c1b56ae5E"(ptr sret(%"core::result::Result<usize, core::num::error::ParseIntError>") align 8 %_0, ptr align 1 %self.0, i64 %self.1) unnamed_addr #0 !dbg !1328 {
start:
  %self.dbg.spill = alloca { ptr, i64 }, align 8
  store ptr %self.0, ptr %self.dbg.spill, align 8
  %0 = getelementptr inbounds i8, ptr %self.dbg.spill, i64 8
  store i64 %self.1, ptr %0, align 8
  call void @llvm.dbg.declare(metadata ptr %self.dbg.spill, metadata !1350, metadata !DIExpression()), !dbg !1353
; call core::num::<impl core::str::traits::FromStr for usize>::from_str
  call void @"_ZN4core3num62_$LT$impl$u20$core..str..traits..FromStr$u20$for$u20$usize$GT$8from_str17h2a64aea5ed095f6cE"(ptr sret(%"core::result::Result<usize, core::num::error::ParseIntError>") align 8 %_0, ptr align 1 %self.0, i64 %self.1), !dbg !1354
  ret void, !dbg !1355
}

; core::str::<impl str>::parse
; Function Attrs: inlinehint uwtable
define void @"_ZN4core3str21_$LT$impl$u20$str$GT$5parse17hca074ffa413b12e1E"(ptr sret(%"core::result::Result<f64, core::num::dec2flt::ParseFloatError>") align 8 %_0, ptr align 1 %self.0, i64 %self.1) unnamed_addr #0 !dbg !1356 {
start:
  %self.dbg.spill = alloca { ptr, i64 }, align 8
  store ptr %self.0, ptr %self.dbg.spill, align 8
  %0 = getelementptr inbounds i8, ptr %self.dbg.spill, i64 8
  store i64 %self.1, ptr %0, align 8
  call void @llvm.dbg.declare(metadata ptr %self.dbg.spill, metadata !1379, metadata !DIExpression()), !dbg !1382
; call core::num::dec2flt::<impl core::str::traits::FromStr for f64>::from_str
  call void @"_ZN4core3num7dec2flt60_$LT$impl$u20$core..str..traits..FromStr$u20$for$u20$f64$GT$8from_str17h67695805b1097002E"(ptr sret(%"core::result::Result<f64, core::num::dec2flt::ParseFloatError>") align 8 %_0, ptr align 1 %self.0, i64 %self.1), !dbg !1383
  ret void, !dbg !1384
}

; core::str::<impl str>::parse
; Function Attrs: inlinehint uwtable
define i64 @"_ZN4core3str21_$LT$impl$u20$str$GT$5parse17hd6b6e6e88a14d0a4E"(ptr align 1 %self.0, i64 %self.1) unnamed_addr #0 !dbg !1385 {
start:
  %0 = alloca i64, align 8
  %self.dbg.spill = alloca { ptr, i64 }, align 8
  %_0 = alloca %"core::result::Result<f32, core::num::dec2flt::ParseFloatError>", align 4
  store ptr %self.0, ptr %self.dbg.spill, align 8
  %1 = getelementptr inbounds i8, ptr %self.dbg.spill, i64 8
  store i64 %self.1, ptr %1, align 8
  call void @llvm.dbg.declare(metadata ptr %self.dbg.spill, metadata !1404, metadata !DIExpression()), !dbg !1407
; call core::num::dec2flt::<impl core::str::traits::FromStr for f32>::from_str
  %2 = call i64 @"_ZN4core3num7dec2flt60_$LT$impl$u20$core..str..traits..FromStr$u20$for$u20$f32$GT$8from_str17h10e74baccdda2fe9E"(ptr align 1 %self.0, i64 %self.1), !dbg !1408
  store i64 %2, ptr %0, align 8, !dbg !1408
  call void @llvm.memcpy.p0.p0.i64(ptr align 4 %_0, ptr align 8 %0, i64 8, i1 false), !dbg !1408
  %3 = load i64, ptr %_0, align 4, !dbg !1409
  ret i64 %3, !dbg !1409
}

; core::str::<impl str>::is_empty
; Function Attrs: inlinehint uwtable
define internal zeroext i1 @"_ZN4core3str21_$LT$impl$u20$str$GT$8is_empty17h15a4a5a2f4e4d0cbE"(ptr align 1 %self.0, i64 %self.1) unnamed_addr #0 !dbg !1410 {
start:
  %self.dbg.spill = alloca { ptr, i64 }, align 8
  store ptr %self.0, ptr %self.dbg.spill, align 8
  %0 = getelementptr inbounds i8, ptr %self.dbg.spill, i64 8
  store i64 %self.1, ptr %0, align 8
  call void @llvm.dbg.declare(metadata ptr %self.dbg.spill, metadata !1414, metadata !DIExpression()), !dbg !1415
  call void @llvm.dbg.declare(metadata ptr %self.dbg.spill, metadata !1416, metadata !DIExpression()), !dbg !1420
  call void @llvm.dbg.declare(metadata ptr %self.dbg.spill, metadata !1422, metadata !DIExpression()), !dbg !1426
  %_0 = icmp eq i64 %self.1, 0, !dbg !1428
  ret i1 %_0, !dbg !1429
}

; core::str::iter::Chars::as_str
; Function Attrs: inlinehint uwtable
define internal { ptr, i64 } @_ZN4core3str4iter5Chars6as_str17hcc55fce25788b6c1E(ptr align 8 %self) unnamed_addr #0 !dbg !1430 {
start:
  %data_pointer.dbg.spill.i = alloca ptr, align 8
  %end.dbg.spill.i = alloca ptr, align 8
  %self.dbg.spill4.i = alloca ptr, align 8
  %data.dbg.spill.i = alloca ptr, align 8
  %self.dbg.spill2.i = alloca ptr, align 8
  %self.dbg.spill.i = alloca ptr, align 8
  %_21.i = alloca %"core::ptr::metadata::PtrComponents<[u8]>", align 8
  %_20.i = alloca %"core::ptr::metadata::PtrRepr<[u8]>", align 8
  %len.i = alloca i64, align 8
  %v.dbg.spill = alloca { ptr, i64 }, align 8
  %self.dbg.spill1 = alloca ptr, align 8
  %self.dbg.spill = alloca ptr, align 8
  store ptr %self, ptr %self.dbg.spill, align 8
  call void @llvm.dbg.declare(metadata ptr %self.dbg.spill, metadata !1437, metadata !DIExpression()), !dbg !1438
  store ptr %self, ptr %self.dbg.spill1, align 8, !dbg !1439
  call void @llvm.dbg.declare(metadata ptr %self.dbg.spill1, metadata !1440, metadata !DIExpression()), !dbg !1448
  store ptr %self, ptr %self.dbg.spill.i, align 8
  call void @llvm.dbg.declare(metadata ptr %self.dbg.spill.i, metadata !1450, metadata !DIExpression()), !dbg !1459
  call void @llvm.dbg.declare(metadata ptr %len.i, metadata !1461, metadata !DIExpression()), !dbg !1470
  call void @llvm.dbg.declare(metadata ptr %len.i, metadata !1472, metadata !DIExpression()), !dbg !1479
  call void @llvm.dbg.declare(metadata ptr %len.i, metadata !1481, metadata !DIExpression()), !dbg !1490
  %self1.i = load ptr, ptr %self, align 8, !dbg !1492, !nonnull !55, !noundef !55
  store ptr %self1.i, ptr %self.dbg.spill2.i, align 8, !dbg !1492
  call void @llvm.dbg.declare(metadata ptr %self.dbg.spill2.i, metadata !1493, metadata !DIExpression()), !dbg !1497
  call void @llvm.dbg.declare(metadata ptr %self.dbg.spill2.i, metadata !1499, metadata !DIExpression()), !dbg !1507
  store ptr %self1.i, ptr %data.dbg.spill.i, align 8, !dbg !1509
  call void @llvm.dbg.declare(metadata ptr %data.dbg.spill.i, metadata !1469, metadata !DIExpression()), !dbg !1510
  call void @llvm.dbg.declare(metadata ptr %data.dbg.spill.i, metadata !1478, metadata !DIExpression()), !dbg !1511
  call void @llvm.dbg.declare(metadata ptr %data.dbg.spill.i, metadata !1512, metadata !DIExpression()), !dbg !1518
  %self3.i = getelementptr inbounds i8, ptr %self, i64 8, !dbg !1520
  store ptr %self3.i, ptr %self.dbg.spill4.i, align 8, !dbg !1520
  call void @llvm.dbg.declare(metadata ptr %self.dbg.spill4.i, metadata !1521, metadata !DIExpression()), !dbg !1532
  %end.i = load ptr, ptr %self3.i, align 8, !dbg !1520, !nonnull !55, !noundef !55
  store ptr %end.i, ptr %end.dbg.spill.i, align 8, !dbg !1520
  call void @llvm.dbg.declare(metadata ptr %end.dbg.spill.i, metadata !1457, metadata !DIExpression()), !dbg !1534
  call void @llvm.dbg.declare(metadata ptr %end.dbg.spill.i, metadata !1506, metadata !DIExpression()), !dbg !1535
; call core::ptr::const_ptr::<impl *const T>::sub_ptr
  %0 = call i64 @"_ZN4core3ptr9const_ptr33_$LT$impl$u20$$BP$const$u20$T$GT$7sub_ptr17hbb3a3500ba564048E"(ptr %end.i, ptr %self1.i), !dbg !1536
  store i64 %0, ptr %len.i, align 8, !dbg !1536
  %1 = load i64, ptr %len.i, align 8, !dbg !1537, !noundef !55
; call core::slice::raw::from_raw_parts::precondition_check
  call void @_ZN4core5slice3raw14from_raw_parts18precondition_check17h1cb2af24e43ff93fE(ptr %self1.i, i64 1, i64 1, i64 %1) #10, !dbg !1537
  store ptr %self1.i, ptr %data_pointer.dbg.spill.i, align 8, !dbg !1538
  call void @llvm.dbg.declare(metadata ptr %data_pointer.dbg.spill.i, metadata !1489, metadata !DIExpression()), !dbg !1539
  store ptr %self1.i, ptr %_21.i, align 8, !dbg !1540
  %2 = load i64, ptr %len.i, align 8, !dbg !1540, !noundef !55
  %3 = getelementptr inbounds i8, ptr %_21.i, i64 8, !dbg !1540
  store i64 %2, ptr %3, align 8, !dbg !1540
  %4 = load ptr, ptr %_21.i, align 8, !dbg !1541, !noundef !55
  %5 = getelementptr inbounds i8, ptr %_21.i, i64 8, !dbg !1541
  %6 = load i64, ptr %5, align 8, !dbg !1541, !noundef !55
  store ptr %4, ptr %_20.i, align 8, !dbg !1541
  %7 = getelementptr inbounds i8, ptr %_20.i, i64 8, !dbg !1541
  store i64 %6, ptr %7, align 8, !dbg !1541
  %_18.0.i = load ptr, ptr %_20.i, align 8, !dbg !1541, !noundef !55
  %8 = getelementptr inbounds i8, ptr %_20.i, i64 8, !dbg !1541
  %_18.1.i = load i64, ptr %8, align 8, !dbg !1541, !noundef !55
  %9 = insertvalue { ptr, i64 } poison, ptr %_18.0.i, 0, !dbg !1542
  %10 = insertvalue { ptr, i64 } %9, i64 %_18.1.i, 1, !dbg !1542
  %v.0 = extractvalue { ptr, i64 } %10, 0, !dbg !1543
  %v.1 = extractvalue { ptr, i64 } %10, 1, !dbg !1543
  store ptr %v.0, ptr %v.dbg.spill, align 8, !dbg !1543
  %11 = getelementptr inbounds i8, ptr %v.dbg.spill, i64 8, !dbg !1543
  store i64 %v.1, ptr %11, align 8, !dbg !1543
  call void @llvm.dbg.declare(metadata ptr %v.dbg.spill, metadata !1544, metadata !DIExpression()), !dbg !1552
  %12 = insertvalue { ptr, i64 } poison, ptr %v.0, 0, !dbg !1554
  %13 = insertvalue { ptr, i64 } %12, i64 %v.1, 1, !dbg !1554
  ret { ptr, i64 } %13, !dbg !1554
}

; core::str::traits::<impl core::slice::index::SliceIndex<str> for core::ops::range::Range<usize>>::get_unchecked
; Function Attrs: inlinehint uwtable
define internal { ptr, i64 } @"_ZN4core3str6traits108_$LT$impl$u20$core..slice..index..SliceIndex$LT$str$GT$$u20$for$u20$core..ops..range..Range$LT$usize$GT$$GT$13get_unchecked17h7c2997b352b7d1deE"(i64 %self.0, i64 %self.1, ptr %slice.0, i64 %slice.1) unnamed_addr #0 !dbg !1555 {
start:
  %data_pointer.dbg.spill = alloca ptr, align 8
  %len.dbg.spill = alloca i64, align 8
  %ptr.dbg.spill = alloca ptr, align 8
  %count.dbg.spill = alloca i64, align 8
  %self.dbg.spill2 = alloca ptr, align 8
  %slice.dbg.spill1 = alloca { ptr, i64 }, align 8
  %slice.dbg.spill = alloca { ptr, i64 }, align 8
  %self.dbg.spill = alloca %"core::ops::range::Range<usize>", align 8
  %_20 = alloca %"core::ptr::metadata::PtrComponents<[u8]>", align 8
  %_19 = alloca %"core::ptr::metadata::PtrRepr<[u8]>", align 8
  %_17 = alloca %"core::ptr::metadata::PtrRepr<[u8]>", align 8
  store i64 %self.0, ptr %self.dbg.spill, align 8
  %0 = getelementptr inbounds i8, ptr %self.dbg.spill, i64 8
  store i64 %self.1, ptr %0, align 8
  call void @llvm.dbg.declare(metadata ptr %self.dbg.spill, metadata !1573, metadata !DIExpression()), !dbg !1581
  store ptr %slice.0, ptr %slice.dbg.spill, align 8
  %1 = getelementptr inbounds i8, ptr %slice.dbg.spill, i64 8
  store i64 %slice.1, ptr %1, align 8
  call void @llvm.dbg.declare(metadata ptr %slice.dbg.spill, metadata !1574, metadata !DIExpression()), !dbg !1582
  store ptr %slice.0, ptr %slice.dbg.spill1, align 8, !dbg !1583
  %2 = getelementptr inbounds i8, ptr %slice.dbg.spill1, i64 8, !dbg !1583
  store i64 %slice.1, ptr %2, align 8, !dbg !1583
  call void @llvm.dbg.declare(metadata ptr %slice.dbg.spill1, metadata !1575, metadata !DIExpression()), !dbg !1584
  call void @llvm.dbg.declare(metadata ptr %slice.dbg.spill1, metadata !1585, metadata !DIExpression()), !dbg !1592
  call void @llvm.dbg.declare(metadata ptr %slice.dbg.spill1, metadata !1594, metadata !DIExpression()), !dbg !1598
  call void @llvm.dbg.declare(metadata ptr %slice.dbg.spill1, metadata !1600, metadata !DIExpression()), !dbg !1606
  br label %bb1, !dbg !1608

bb1:                                              ; preds = %start
  %_5 = icmp uge i64 %self.1, %self.0, !dbg !1609
  br i1 %_5, label %bb2, label %bb5, !dbg !1609

bb5:                                              ; preds = %bb1
  br label %bb6, !dbg !1610

bb2:                                              ; preds = %bb1
  store ptr %slice.0, ptr %_17, align 8, !dbg !1612
  %3 = getelementptr inbounds i8, ptr %_17, i64 8, !dbg !1612
  store i64 %slice.1, ptr %3, align 8, !dbg !1612
  %4 = getelementptr inbounds i8, ptr %_17, i64 8, !dbg !1612
  %_9 = load i64, ptr %4, align 8, !dbg !1612, !noundef !55
  %_8 = icmp ule i64 %self.1, %_9, !dbg !1613
  br i1 %_8, label %bb3, label %bb4, !dbg !1613

bb6:                                              ; preds = %bb4, %bb5
; call core::panicking::panic_nounwind
  call void @_ZN4core9panicking14panic_nounwind17h50c31e15afde233eE(ptr align 1 @alloc_b51e084ad98792f1063530f5eecbcef0, i64 69) #11, !dbg !1608
  unreachable, !dbg !1608

bb4:                                              ; preds = %bb2
  br label %bb6, !dbg !1610

bb3:                                              ; preds = %bb2
  br label %bb7, !dbg !1608

bb7:                                              ; preds = %bb3
  store ptr %slice.0, ptr %self.dbg.spill2, align 8, !dbg !1614
  call void @llvm.dbg.declare(metadata ptr %self.dbg.spill2, metadata !1615, metadata !DIExpression()), !dbg !1622
  store i64 %self.0, ptr %count.dbg.spill, align 8, !dbg !1624
  call void @llvm.dbg.declare(metadata ptr %count.dbg.spill, metadata !1621, metadata !DIExpression()), !dbg !1625
  %ptr = getelementptr inbounds i8, ptr %slice.0, i64 %self.0, !dbg !1626
  store ptr %ptr, ptr %ptr.dbg.spill, align 8, !dbg !1626
  call void @llvm.dbg.declare(metadata ptr %ptr.dbg.spill, metadata !1577, metadata !DIExpression()), !dbg !1627
  call void @llvm.dbg.declare(metadata ptr %ptr.dbg.spill, metadata !1628, metadata !DIExpression()), !dbg !1633
  call void @llvm.dbg.declare(metadata ptr %ptr.dbg.spill, metadata !1635, metadata !DIExpression()), !dbg !1639
  %len = sub i64 %self.1, %self.0, !dbg !1641
  store i64 %len, ptr %len.dbg.spill, align 8, !dbg !1641
  call void @llvm.dbg.declare(metadata ptr %len.dbg.spill, metadata !1579, metadata !DIExpression()), !dbg !1642
  call void @llvm.dbg.declare(metadata ptr %len.dbg.spill, metadata !1632, metadata !DIExpression()), !dbg !1643
  call void @llvm.dbg.declare(metadata ptr %len.dbg.spill, metadata !1644, metadata !DIExpression()), !dbg !1649
  store ptr %ptr, ptr %data_pointer.dbg.spill, align 8, !dbg !1651
  call void @llvm.dbg.declare(metadata ptr %data_pointer.dbg.spill, metadata !1648, metadata !DIExpression()), !dbg !1652
  store ptr %ptr, ptr %_20, align 8, !dbg !1653
  %5 = getelementptr inbounds i8, ptr %_20, i64 8, !dbg !1653
  store i64 %len, ptr %5, align 8, !dbg !1653
  %6 = load ptr, ptr %_20, align 8, !dbg !1654, !noundef !55
  %7 = getelementptr inbounds i8, ptr %_20, i64 8, !dbg !1654
  %8 = load i64, ptr %7, align 8, !dbg !1654, !noundef !55
  store ptr %6, ptr %_19, align 8, !dbg !1654
  %9 = getelementptr inbounds i8, ptr %_19, i64 8, !dbg !1654
  store i64 %8, ptr %9, align 8, !dbg !1654
  %_16.0 = load ptr, ptr %_19, align 8, !dbg !1654, !noundef !55
  %10 = getelementptr inbounds i8, ptr %_19, i64 8, !dbg !1654
  %_16.1 = load i64, ptr %10, align 8, !dbg !1654, !noundef !55
  %11 = insertvalue { ptr, i64 } poison, ptr %_16.0, 0, !dbg !1655
  %12 = insertvalue { ptr, i64 } %11, i64 %_16.1, 1, !dbg !1655
  ret { ptr, i64 } %12, !dbg !1655
}

; core::str::traits::<impl core::slice::index::SliceIndex<str> for core::ops::range::RangeFrom<usize>>::get
; Function Attrs: inlinehint uwtable
define internal { ptr, i64 } @"_ZN4core3str6traits112_$LT$impl$u20$core..slice..index..SliceIndex$LT$str$GT$$u20$for$u20$core..ops..range..RangeFrom$LT$usize$GT$$GT$3get17hd570b915bf4efc0bE"(i64 %self, ptr align 1 %slice.0, i64 %slice.1) unnamed_addr #0 !dbg !1656 {
start:
  %len.dbg.spill = alloca i64, align 8
  %self.dbg.spill2 = alloca { ptr, i64 }, align 8
  %self.dbg.spill1 = alloca i64, align 8
  %slice.dbg.spill = alloca { ptr, i64 }, align 8
  %self.dbg.spill = alloca i64, align 8
  %_11 = alloca %"core::ptr::metadata::PtrRepr<[u8]>", align 8
  %_10 = alloca %"core::ops::range::Range<usize>", align 8
  %_0 = alloca %"core::option::Option<&str>", align 8
  store i64 %self, ptr %self.dbg.spill, align 8
  call void @llvm.dbg.declare(metadata ptr %self.dbg.spill, metadata !1677, metadata !DIExpression()), !dbg !1679
  store ptr %slice.0, ptr %slice.dbg.spill, align 8
  %0 = getelementptr inbounds i8, ptr %slice.dbg.spill, i64 8
  store i64 %slice.1, ptr %0, align 8
  call void @llvm.dbg.declare(metadata ptr %slice.dbg.spill, metadata !1678, metadata !DIExpression()), !dbg !1680
  call void @llvm.dbg.declare(metadata ptr %slice.dbg.spill, metadata !1681, metadata !DIExpression()), !dbg !1690
  store i64 %self, ptr %self.dbg.spill1, align 8, !dbg !1692
  call void @llvm.dbg.declare(metadata ptr %self.dbg.spill1, metadata !1687, metadata !DIExpression()), !dbg !1693
; call core::str::<impl str>::is_char_boundary
  %_3 = call zeroext i1 @"_ZN4core3str21_$LT$impl$u20$str$GT$16is_char_boundary17hc3f6c9d8cb0660ddE"(ptr align 1 %slice.0, i64 %slice.1, i64 %self), !dbg !1694
  br i1 %_3, label %bb2, label %bb3, !dbg !1694

bb3:                                              ; preds = %start
  %1 = load ptr, ptr @0, align 8, !dbg !1695, !align !932, !noundef !55
  %2 = load i64, ptr getelementptr inbounds (i8, ptr @0, i64 8), align 8, !dbg !1695
  store ptr %1, ptr %_0, align 8, !dbg !1695
  %3 = getelementptr inbounds i8, ptr %_0, i64 8, !dbg !1695
  store i64 %2, ptr %3, align 8, !dbg !1695
  br label %bb4, !dbg !1696

bb2:                                              ; preds = %start
  store ptr %slice.0, ptr %self.dbg.spill2, align 8, !dbg !1697
  %4 = getelementptr inbounds i8, ptr %self.dbg.spill2, i64 8, !dbg !1697
  store i64 %slice.1, ptr %4, align 8, !dbg !1697
  call void @llvm.dbg.declare(metadata ptr %self.dbg.spill2, metadata !1698, metadata !DIExpression()), !dbg !1702
  call void @llvm.dbg.declare(metadata ptr %self.dbg.spill2, metadata !1704, metadata !DIExpression()), !dbg !1708
  store ptr %slice.0, ptr %_11, align 8, !dbg !1710
  %5 = getelementptr inbounds i8, ptr %_11, i64 8, !dbg !1710
  store i64 %slice.1, ptr %5, align 8, !dbg !1710
  %6 = getelementptr inbounds i8, ptr %_11, i64 8, !dbg !1710
  %len = load i64, ptr %6, align 8, !dbg !1710, !noundef !55
  store i64 %len, ptr %len.dbg.spill, align 8, !dbg !1710
  call void @llvm.dbg.declare(metadata ptr %len.dbg.spill, metadata !1688, metadata !DIExpression()), !dbg !1711
  store i64 %self, ptr %_10, align 8, !dbg !1712
  %7 = getelementptr inbounds i8, ptr %_10, i64 8, !dbg !1712
  store i64 %len, ptr %7, align 8, !dbg !1712
  %8 = load i64, ptr %_10, align 8, !dbg !1712, !noundef !55
  %9 = getelementptr inbounds i8, ptr %_10, i64 8, !dbg !1712
  %10 = load i64, ptr %9, align 8, !dbg !1712, !noundef !55
; call core::str::traits::<impl core::slice::index::SliceIndex<str> for core::ops::range::Range<usize>>::get_unchecked
  %11 = call { ptr, i64 } @"_ZN4core3str6traits108_$LT$impl$u20$core..slice..index..SliceIndex$LT$str$GT$$u20$for$u20$core..ops..range..Range$LT$usize$GT$$GT$13get_unchecked17h7c2997b352b7d1deE"(i64 %8, i64 %10, ptr %slice.0, i64 %slice.1), !dbg !1712
  %_6.0 = extractvalue { ptr, i64 } %11, 0, !dbg !1712
  %_6.1 = extractvalue { ptr, i64 } %11, 1, !dbg !1712
  store ptr %_6.0, ptr %_0, align 8, !dbg !1713
  %12 = getelementptr inbounds i8, ptr %_0, i64 8, !dbg !1713
  store i64 %_6.1, ptr %12, align 8, !dbg !1713
  br label %bb4, !dbg !1696

bb4:                                              ; preds = %bb2, %bb3
  %13 = load ptr, ptr %_0, align 8, !dbg !1714, !align !932, !noundef !55
  %14 = getelementptr inbounds i8, ptr %_0, i64 8, !dbg !1714
  %15 = load i64, ptr %14, align 8, !dbg !1714
  %16 = insertvalue { ptr, i64 } poison, ptr %13, 0, !dbg !1714
  %17 = insertvalue { ptr, i64 } %16, i64 %15, 1, !dbg !1714
  ret { ptr, i64 } %17, !dbg !1714
}

; core::str::traits::<impl core::slice::index::SliceIndex<str> for core::ops::range::RangeFrom<usize>>::index
; Function Attrs: inlinehint uwtable
define internal { ptr, i64 } @"_ZN4core3str6traits112_$LT$impl$u20$core..slice..index..SliceIndex$LT$str$GT$$u20$for$u20$core..ops..range..RangeFrom$LT$usize$GT$$GT$5index17h2480561c41cd12b2E"(i64 %self, ptr align 1 %slice.0, i64 %slice.1, ptr align 8 %0) unnamed_addr #0 !dbg !1715 {
start:
  %s.dbg.spill = alloca { ptr, i64 }, align 8
  %end.dbg.spill = alloca i64, align 8
  %start.dbg.spill = alloca i64, align 8
  %slice.dbg.spill = alloca { ptr, i64 }, align 8
  %self.dbg.spill = alloca i64, align 8
  %_5 = alloca %"core::option::Option<&str>", align 8
  store i64 %self, ptr %self.dbg.spill, align 8
  call void @llvm.dbg.declare(metadata ptr %self.dbg.spill, metadata !1719, metadata !DIExpression()), !dbg !1726
  store ptr %slice.0, ptr %slice.dbg.spill, align 8
  %1 = getelementptr inbounds i8, ptr %slice.dbg.spill, i64 8
  store i64 %slice.1, ptr %1, align 8
  call void @llvm.dbg.declare(metadata ptr %slice.dbg.spill, metadata !1720, metadata !DIExpression()), !dbg !1727
  call void @llvm.dbg.declare(metadata ptr %slice.dbg.spill, metadata !1728, metadata !DIExpression()), !dbg !1732
  call void @llvm.dbg.declare(metadata ptr %slice.dbg.spill, metadata !1734, metadata !DIExpression()), !dbg !1738
  store i64 %self, ptr %start.dbg.spill, align 8, !dbg !1740
  call void @llvm.dbg.declare(metadata ptr %start.dbg.spill, metadata !1721, metadata !DIExpression()), !dbg !1741
  store i64 %slice.1, ptr %end.dbg.spill, align 8, !dbg !1742
  call void @llvm.dbg.declare(metadata ptr %end.dbg.spill, metadata !1723, metadata !DIExpression()), !dbg !1743
; call core::str::traits::<impl core::slice::index::SliceIndex<str> for core::ops::range::RangeFrom<usize>>::get
  %2 = call { ptr, i64 } @"_ZN4core3str6traits112_$LT$impl$u20$core..slice..index..SliceIndex$LT$str$GT$$u20$for$u20$core..ops..range..RangeFrom$LT$usize$GT$$GT$3get17hd570b915bf4efc0bE"(i64 %self, ptr align 1 %slice.0, i64 %slice.1), !dbg !1744
  %3 = extractvalue { ptr, i64 } %2, 0, !dbg !1744
  %4 = extractvalue { ptr, i64 } %2, 1, !dbg !1744
  store ptr %3, ptr %_5, align 8, !dbg !1744
  %5 = getelementptr inbounds i8, ptr %_5, i64 8, !dbg !1744
  store i64 %4, ptr %5, align 8, !dbg !1744
  %6 = load ptr, ptr %_5, align 8, !dbg !1744, !noundef !55
  %7 = ptrtoint ptr %6 to i64, !dbg !1744
  %8 = icmp eq i64 %7, 0, !dbg !1744
  %_6 = select i1 %8, i64 0, i64 1, !dbg !1744
  %9 = icmp eq i64 %_6, 0, !dbg !1745
  br i1 %9, label %bb3, label %bb4, !dbg !1745

bb3:                                              ; preds = %start
; call core::str::slice_error_fail
  call void @_ZN4core3str16slice_error_fail17hf2e2889463786e4bE(ptr align 1 %slice.0, i64 %slice.1, i64 %self, i64 %slice.1, ptr align 8 %0) #9, !dbg !1746
  unreachable, !dbg !1746

bb4:                                              ; preds = %start
  %s.0 = load ptr, ptr %_5, align 8, !dbg !1747, !nonnull !55, !align !932, !noundef !55
  %10 = getelementptr inbounds i8, ptr %_5, i64 8, !dbg !1747
  %s.1 = load i64, ptr %10, align 8, !dbg !1747, !noundef !55
  store ptr %s.0, ptr %s.dbg.spill, align 8, !dbg !1747
  %11 = getelementptr inbounds i8, ptr %s.dbg.spill, i64 8, !dbg !1747
  store i64 %s.1, ptr %11, align 8, !dbg !1747
  call void @llvm.dbg.declare(metadata ptr %s.dbg.spill, metadata !1724, metadata !DIExpression()), !dbg !1748
  %12 = insertvalue { ptr, i64 } poison, ptr %s.0, 0, !dbg !1749
  %13 = insertvalue { ptr, i64 } %12, i64 %s.1, 1, !dbg !1749
  ret { ptr, i64 } %13, !dbg !1749

bb2:                                              ; No predecessors!
  unreachable, !dbg !1744
}

; core::str::traits::<impl core::cmp::PartialEq for str>::eq
; Function Attrs: inlinehint uwtable
define internal zeroext i1 @"_ZN4core3str6traits54_$LT$impl$u20$core..cmp..PartialEq$u20$for$u20$str$GT$2eq17h7e7b74f45a72da40E"(ptr align 1 %self.0, i64 %self.1, ptr align 1 %other.0, i64 %other.1) unnamed_addr #0 !dbg !1750 {
start:
  %other.dbg.spill8 = alloca { ptr, i64 }, align 8
  %self.dbg.spill5 = alloca { ptr, i64 }, align 8
  %other.dbg.spill2 = alloca ptr, align 8
  %self.dbg.spill1 = alloca ptr, align 8
  %other.dbg.spill = alloca { ptr, i64 }, align 8
  %self.dbg.spill = alloca { ptr, i64 }, align 8
  %_6 = alloca { ptr, i64 }, align 8
  %_4 = alloca { ptr, i64 }, align 8
  store ptr %self.0, ptr %self.dbg.spill, align 8
  %0 = getelementptr inbounds i8, ptr %self.dbg.spill, i64 8
  store i64 %self.1, ptr %0, align 8
  call void @llvm.dbg.declare(metadata ptr %self.dbg.spill, metadata !1755, metadata !DIExpression()), !dbg !1757
  call void @llvm.dbg.declare(metadata ptr %self.dbg.spill, metadata !1758, metadata !DIExpression()), !dbg !1764
  store ptr %other.0, ptr %other.dbg.spill, align 8
  %1 = getelementptr inbounds i8, ptr %other.dbg.spill, i64 8
  store i64 %other.1, ptr %1, align 8
  call void @llvm.dbg.declare(metadata ptr %other.dbg.spill, metadata !1756, metadata !DIExpression()), !dbg !1766
  call void @llvm.dbg.declare(metadata ptr %other.dbg.spill, metadata !1762, metadata !DIExpression()), !dbg !1767
  store ptr %self.0, ptr %_4, align 8, !dbg !1769
  %2 = getelementptr inbounds i8, ptr %_4, i64 8, !dbg !1769
  store i64 %self.1, ptr %2, align 8, !dbg !1769
  store ptr %_4, ptr %self.dbg.spill1, align 8, !dbg !1770
  call void @llvm.dbg.declare(metadata ptr %self.dbg.spill1, metadata !1771, metadata !DIExpression()), !dbg !1783
  store ptr %other.0, ptr %_6, align 8, !dbg !1784
  %3 = getelementptr inbounds i8, ptr %_6, i64 8, !dbg !1784
  store i64 %other.1, ptr %3, align 8, !dbg !1784
  store ptr %_6, ptr %other.dbg.spill2, align 8, !dbg !1785
  call void @llvm.dbg.declare(metadata ptr %other.dbg.spill2, metadata !1779, metadata !DIExpression()), !dbg !1786
  %self.03 = load ptr, ptr %_4, align 8, !dbg !1787, !nonnull !55, !align !932, !noundef !55
  %4 = getelementptr inbounds i8, ptr %_4, i64 8, !dbg !1787
  %self.14 = load i64, ptr %4, align 8, !dbg !1787, !noundef !55
  store ptr %self.03, ptr %self.dbg.spill5, align 8, !dbg !1787
  %5 = getelementptr inbounds i8, ptr %self.dbg.spill5, i64 8, !dbg !1787
  store i64 %self.14, ptr %5, align 8, !dbg !1787
  call void @llvm.dbg.declare(metadata ptr %self.dbg.spill5, metadata !1788, metadata !DIExpression()), !dbg !1798
  %other.06 = load ptr, ptr %_6, align 8, !dbg !1800, !nonnull !55, !align !932, !noundef !55
  %6 = getelementptr inbounds i8, ptr %_6, i64 8, !dbg !1800
  %other.17 = load i64, ptr %6, align 8, !dbg !1800, !noundef !55
  store ptr %other.06, ptr %other.dbg.spill8, align 8, !dbg !1800
  %7 = getelementptr inbounds i8, ptr %other.dbg.spill8, i64 8, !dbg !1800
  store i64 %other.17, ptr %7, align 8, !dbg !1800
  call void @llvm.dbg.declare(metadata ptr %other.dbg.spill8, metadata !1797, metadata !DIExpression()), !dbg !1801
; call <[A] as core::slice::cmp::SlicePartialEq<B>>::equal
  %_0 = call zeroext i1 @"_ZN73_$LT$$u5b$A$u5d$$u20$as$u20$core..slice..cmp..SlicePartialEq$LT$B$GT$$GT$5equal17h767d653f42380d6eE"(ptr align 1 %self.03, i64 %self.14, ptr align 1 %other.06, i64 %other.17), !dbg !1802
  ret i1 %_0, !dbg !1803
}

; core::str::traits::<impl core::ops::index::Index<I> for str>::index
; Function Attrs: inlinehint uwtable
define { ptr, i64 } @"_ZN4core3str6traits66_$LT$impl$u20$core..ops..index..Index$LT$I$GT$$u20$for$u20$str$GT$5index17hd5764ded42a4d321E"(ptr align 1 %self.0, i64 %self.1, i64 %index, ptr align 8 %0) unnamed_addr #0 !dbg !1804 {
start:
  %index.dbg.spill = alloca i64, align 8
  %self.dbg.spill = alloca { ptr, i64 }, align 8
  store ptr %self.0, ptr %self.dbg.spill, align 8
  %1 = getelementptr inbounds i8, ptr %self.dbg.spill, i64 8
  store i64 %self.1, ptr %1, align 8
  call void @llvm.dbg.declare(metadata ptr %self.dbg.spill, metadata !1809, metadata !DIExpression()), !dbg !1813
  store i64 %index, ptr %index.dbg.spill, align 8
  call void @llvm.dbg.declare(metadata ptr %index.dbg.spill, metadata !1810, metadata !DIExpression()), !dbg !1814
; call core::str::traits::<impl core::slice::index::SliceIndex<str> for core::ops::range::RangeFrom<usize>>::index
  %2 = call { ptr, i64 } @"_ZN4core3str6traits112_$LT$impl$u20$core..slice..index..SliceIndex$LT$str$GT$$u20$for$u20$core..ops..range..RangeFrom$LT$usize$GT$$GT$5index17h2480561c41cd12b2E"(i64 %index, ptr align 1 %self.0, i64 %self.1, ptr align 8 %0), !dbg !1815
  %_0.0 = extractvalue { ptr, i64 } %2, 0, !dbg !1815
  %_0.1 = extractvalue { ptr, i64 } %2, 1, !dbg !1815
  %3 = insertvalue { ptr, i64 } poison, ptr %_0.0, 0, !dbg !1816
  %4 = insertvalue { ptr, i64 } %3, i64 %_0.1, 1, !dbg !1816
  ret { ptr, i64 } %4, !dbg !1816
}

; core::char::convert::from_u32_unchecked::precondition_check
; Function Attrs: inlinehint nounwind uwtable
define internal void @_ZN4core4char7convert18from_u32_unchecked18precondition_check17h39549257abfc3570E(i32 %i) unnamed_addr #2 !dbg !1817 {
start:
  %self.dbg.spill1 = alloca ptr, align 8
  %self.dbg.spill = alloca i32, align 4
  %i.dbg.spill = alloca i32, align 4
  %_3 = alloca i32, align 4
  %rhs.dbg.spill = alloca i32, align 4
  store i32 2048, ptr %rhs.dbg.spill, align 4, !dbg !1825
  call void @llvm.dbg.declare(metadata ptr %rhs.dbg.spill, metadata !1834, metadata !DIExpression()), !dbg !1825
  store i32 %i, ptr %i.dbg.spill, align 4, !dbg !1825
  call void @llvm.dbg.declare(metadata ptr %i.dbg.spill, metadata !1824, metadata !DIExpression()), !dbg !1863
  call void @llvm.dbg.declare(metadata ptr %i.dbg.spill, metadata !1860, metadata !DIExpression()), !dbg !1864
  %self = xor i32 %i, 55296, !dbg !1865
  store i32 %self, ptr %self.dbg.spill, align 4, !dbg !1865
  call void @llvm.dbg.declare(metadata ptr %self.dbg.spill, metadata !1833, metadata !DIExpression()), !dbg !1825
  %_6 = sub i32 %self, 2048, !dbg !1825
  %_5 = icmp uge i32 %_6, 1112064, !dbg !1865
  br i1 %_5, label %bb1, label %bb2, !dbg !1865

bb2:                                              ; preds = %start
  store i32 %i, ptr %_3, align 4, !dbg !1866
  br label %bb3, !dbg !1867

bb1:                                              ; preds = %start
  store i32 1114112, ptr %_3, align 4, !dbg !1868
  br label %bb3, !dbg !1867

bb3:                                              ; preds = %bb1, %bb2
  store ptr %_3, ptr %self.dbg.spill1, align 8, !dbg !1861
  call void @llvm.dbg.declare(metadata ptr %self.dbg.spill1, metadata !1869, metadata !DIExpression()), !dbg !1878
  %0 = load i32, ptr %_3, align 4, !dbg !1880, !range !275, !noundef !55
  %1 = icmp eq i32 %0, 1114112, !dbg !1880
  %_9 = select i1 %1, i64 1, i64 0, !dbg !1880
  %2 = icmp eq i64 %_9, 0, !dbg !1881
  br i1 %2, label %bb5, label %bb4, !dbg !1881

bb5:                                              ; preds = %bb3
  ret void, !dbg !1882

bb4:                                              ; preds = %bb3
; call core::panicking::panic_nounwind
  call void @_ZN4core9panicking14panic_nounwind17h50c31e15afde233eE(ptr align 1 @alloc_38d865ee598848532cbd764e0d6298fc, i64 57) #11, !dbg !1883
  unreachable, !dbg !1883

bb6:                                              ; No predecessors!
  unreachable, !dbg !1884
}

; core::char::methods::<impl char>::to_digit
; Function Attrs: inlinehint uwtable
define internal { i32, i32 } @"_ZN4core4char7methods22_$LT$impl$u20$char$GT$8to_digit17h38e5bd9689bb6632E"(i32 %self, i32 %radix) unnamed_addr #0 !dbg !1885 {
start:
  %0 = alloca i32, align 4
  %self.dbg.spill7 = alloca i32, align 4
  %self.dbg.spill5 = alloca i32, align 4
  %pieces.dbg.spill = alloca { ptr, i64 }, align 8
  %self.dbg.spill3 = alloca i32, align 4
  %radix.dbg.spill = alloca i32, align 4
  %self.dbg.spill = alloca i32, align 4
  %_8 = alloca %"core::fmt::Arguments<'_>", align 8
  %digit = alloca i32, align 4
  %_0 = alloca %"core::option::Option<u32>", align 4
  %rhs.dbg.spill2 = alloca i32, align 4
  %rhs.dbg.spill1 = alloca i32, align 4
  %rhs.dbg.spill = alloca i32, align 4
  store i32 48, ptr %rhs.dbg.spill, align 4, !dbg !1896
  call void @llvm.dbg.declare(metadata ptr %rhs.dbg.spill, metadata !1902, metadata !DIExpression()), !dbg !1896
  store i32 97, ptr %rhs.dbg.spill1, align 4, !dbg !1908
  call void @llvm.dbg.declare(metadata ptr %rhs.dbg.spill1, metadata !1906, metadata !DIExpression()), !dbg !1908
  store i32 10, ptr %rhs.dbg.spill2, align 4, !dbg !1910
  call void @llvm.dbg.declare(metadata ptr %rhs.dbg.spill2, metadata !1916, metadata !DIExpression()), !dbg !1910
  store i32 %self, ptr %self.dbg.spill, align 4, !dbg !1910
  call void @llvm.dbg.declare(metadata ptr %self.dbg.spill, metadata !1892, metadata !DIExpression()), !dbg !1918
  store i32 %radix, ptr %radix.dbg.spill, align 4, !dbg !1910
  call void @llvm.dbg.declare(metadata ptr %radix.dbg.spill, metadata !1893, metadata !DIExpression()), !dbg !1919
  call void @llvm.dbg.declare(metadata ptr %digit, metadata !1894, metadata !DIExpression()), !dbg !1920
  store i32 %self, ptr %self.dbg.spill3, align 4, !dbg !1921
  call void @llvm.dbg.declare(metadata ptr %self.dbg.spill3, metadata !1901, metadata !DIExpression()), !dbg !1896
  %1 = sub i32 %self, 48, !dbg !1896
  store i32 %1, ptr %digit, align 4, !dbg !1896
  %_5 = icmp ugt i32 %radix, 10, !dbg !1922
  br i1 %_5, label %bb1, label %bb6, !dbg !1922

bb6:                                              ; preds = %bb5, %start
  %_17 = load i32, ptr %digit, align 4, !dbg !1923, !noundef !55
  %_16 = icmp ult i32 %_17, %radix, !dbg !1923
  br i1 %_16, label %bb7, label %bb8, !dbg !1923

bb1:                                              ; preds = %start
  %_6 = icmp ule i32 %radix, 36, !dbg !1924
  br i1 %_6, label %bb2, label %bb3, !dbg !1924

bb3:                                              ; preds = %bb1
  store ptr @alloc_04bc4679429b8d302f58b2e3b25a87e5, ptr %pieces.dbg.spill, align 8, !dbg !1925
  %2 = getelementptr inbounds i8, ptr %pieces.dbg.spill, i64 8, !dbg !1925
  store i64 1, ptr %2, align 8, !dbg !1925
  call void @llvm.dbg.declare(metadata ptr %pieces.dbg.spill, metadata !1926, metadata !DIExpression()), !dbg !1930
  store ptr @alloc_04bc4679429b8d302f58b2e3b25a87e5, ptr %_8, align 8, !dbg !1933
  %3 = getelementptr inbounds i8, ptr %_8, i64 8, !dbg !1933
  store i64 1, ptr %3, align 8, !dbg !1933
  %4 = load ptr, ptr @0, align 8, !dbg !1933, !align !655, !noundef !55
  %5 = load i64, ptr getelementptr inbounds (i8, ptr @0, i64 8), align 8, !dbg !1933
  %6 = getelementptr inbounds i8, ptr %_8, i64 32, !dbg !1933
  store ptr %4, ptr %6, align 8, !dbg !1933
  %7 = getelementptr inbounds i8, ptr %6, i64 8, !dbg !1933
  store i64 %5, ptr %7, align 8, !dbg !1933
  %8 = getelementptr inbounds i8, ptr %_8, i64 16, !dbg !1933
  store ptr @alloc_513570631223a12912d85da2bec3b15a, ptr %8, align 8, !dbg !1933
  %9 = getelementptr inbounds i8, ptr %8, i64 8, !dbg !1933
  store i64 0, ptr %9, align 8, !dbg !1933
; call core::panicking::panic_fmt
  call void @_ZN4core9panicking9panic_fmt17ha6d62ade15192290E(ptr align 8 %_8, ptr align 8 @alloc_1fd5ad6a13fcd2cff57ea0b870f5c0bd) #9, !dbg !1934
  unreachable, !dbg !1934

bb2:                                              ; preds = %bb1
  %_11 = load i32, ptr %digit, align 4, !dbg !1935, !noundef !55
  %_10 = icmp ult i32 %_11, 10, !dbg !1935
  br i1 %_10, label %bb4, label %bb5, !dbg !1935

bb5:                                              ; preds = %bb2
  %self4 = or i32 %self, 32, !dbg !1936
  store i32 %self4, ptr %self.dbg.spill5, align 4, !dbg !1936
  call void @llvm.dbg.declare(metadata ptr %self.dbg.spill5, metadata !1903, metadata !DIExpression()), !dbg !1908
  %self6 = sub i32 %self4, 97, !dbg !1908
  store i32 %self6, ptr %self.dbg.spill7, align 4, !dbg !1908
  call void @llvm.dbg.declare(metadata ptr %self.dbg.spill7, metadata !1915, metadata !DIExpression()), !dbg !1910
  %10 = call i32 @llvm.uadd.sat.i32(i32 %self6, i32 10), !dbg !1910
  store i32 %10, ptr %0, align 4, !dbg !1910
  %_13 = load i32, ptr %0, align 4, !dbg !1910, !noundef !55
  store i32 %_13, ptr %digit, align 4, !dbg !1937
  br label %bb6, !dbg !1938

bb4:                                              ; preds = %bb2
  %_12 = load i32, ptr %digit, align 4, !dbg !1939, !noundef !55
  %11 = getelementptr inbounds i8, ptr %_0, i64 4, !dbg !1940
  store i32 %_12, ptr %11, align 4, !dbg !1940
  store i32 1, ptr %_0, align 4, !dbg !1940
  br label %bb10, !dbg !1941

bb8:                                              ; preds = %bb6
  %12 = load i32, ptr @1, align 4, !dbg !1942, !range !928, !noundef !55
  %13 = load i32, ptr getelementptr inbounds (i8, ptr @1, i64 4), align 4, !dbg !1942
  store i32 %12, ptr %_0, align 4, !dbg !1942
  %14 = getelementptr inbounds i8, ptr %_0, i64 4, !dbg !1942
  store i32 %13, ptr %14, align 4, !dbg !1942
  br label %bb9, !dbg !1943

bb7:                                              ; preds = %bb6
  %_18 = load i32, ptr %digit, align 4, !dbg !1944, !noundef !55
  %15 = getelementptr inbounds i8, ptr %_0, i64 4, !dbg !1945
  store i32 %_18, ptr %15, align 4, !dbg !1945
  store i32 1, ptr %_0, align 4, !dbg !1945
  br label %bb9, !dbg !1943

bb9:                                              ; preds = %bb7, %bb8
  br label %bb10, !dbg !1941

bb10:                                             ; preds = %bb4, %bb9
  %16 = load i32, ptr %_0, align 4, !dbg !1941, !range !928, !noundef !55
  %17 = getelementptr inbounds i8, ptr %_0, i64 4, !dbg !1941
  %18 = load i32, ptr %17, align 4, !dbg !1941
  %19 = insertvalue { i32, i32 } poison, i32 %16, 0, !dbg !1941
  %20 = insertvalue { i32, i32 } %19, i32 %18, 1, !dbg !1941
  ret { i32, i32 } %20, !dbg !1941
}

; core::hint::unreachable_unchecked::precondition_check
; Function Attrs: inlinehint nounwind uwtable
define internal void @_ZN4core4hint21unreachable_unchecked18precondition_check17ha5610570f2f166b8E() unnamed_addr #2 !dbg !1946 {
start:
; call core::panicking::panic_nounwind
  call void @_ZN4core9panicking14panic_nounwind17h50c31e15afde233eE(ptr align 1 @alloc_1eb6f53a157dccb32488e066ad957e6d, i64 82) #11, !dbg !1948
  unreachable, !dbg !1948
}

; core::iter::traits::iterator::Iterator::all
; Function Attrs: inlinehint uwtable
define zeroext i1 @_ZN4core4iter6traits8iterator8Iterator3all17h31c20117be66035bE(ptr align 8 %self) unnamed_addr #0 !dbg !1949 {
start:
  %f.dbg.spill = alloca %"{closure@src/lib.rs:212:41: 212:49}", align 1
  %self.dbg.spill = alloca ptr, align 8
  %_4 = alloca i8, align 1
  store ptr %self, ptr %self.dbg.spill, align 8
  call void @llvm.dbg.declare(metadata ptr %self.dbg.spill, metadata !1955, metadata !DIExpression()), !dbg !1960
  call void @llvm.dbg.declare(metadata ptr %f.dbg.spill, metadata !1956, metadata !DIExpression()), !dbg !1961
  call void @llvm.dbg.declare(metadata ptr %f.dbg.spill, metadata !1962, metadata !DIExpression()), !dbg !1971
; call core::iter::traits::iterator::Iterator::try_fold
  %0 = call zeroext i1 @_ZN4core4iter6traits8iterator8Iterator8try_fold17hc1209678c096d3e0E(ptr align 8 %self), !dbg !1973
  %1 = zext i1 %0 to i8, !dbg !1973
  store i8 %1, ptr %_4, align 1, !dbg !1973
; call <core::ops::control_flow::ControlFlow<B,C> as core::cmp::PartialEq>::eq
  %_0 = call zeroext i1 @"_ZN90_$LT$core..ops..control_flow..ControlFlow$LT$B$C$C$GT$$u20$as$u20$core..cmp..PartialEq$GT$2eq17hb00eec0ff4ab8409E"(ptr align 1 %_4, ptr align 1 @alloc_914b2c69d7eca30497b9feaf15ac92f1), !dbg !1973
  ret i1 %_0, !dbg !1974
}

; core::iter::traits::iterator::Iterator::all::check::{{closure}}
; Function Attrs: inlinehint uwtable
define zeroext i1 @"_ZN4core4iter6traits8iterator8Iterator3all5check28_$u7b$$u7b$closure$u7d$$u7d$17h443fae4005c39036E"(ptr align 1 %_1, i8 %x.0, i8 %x.1) unnamed_addr #0 !dbg !1975 {
start:
  %x.dbg.spill = alloca { i8, i8 }, align 1
  %_2.dbg.spill = alloca {}, align 1
  %_1.dbg.spill = alloca ptr, align 8
  %_6 = alloca { { i8, i8 } }, align 1
  %_0 = alloca i8, align 1
  store ptr %_1, ptr %_1.dbg.spill, align 8
  call void @llvm.dbg.declare(metadata ptr %_1.dbg.spill, metadata !1985, metadata !DIExpression(DW_OP_deref)), !dbg !1987
  call void @llvm.dbg.declare(metadata ptr %_2.dbg.spill, metadata !1986, metadata !DIExpression()), !dbg !1988
  store i8 %x.0, ptr %x.dbg.spill, align 1
  %0 = getelementptr inbounds i8, ptr %x.dbg.spill, i64 1
  store i8 %x.1, ptr %0, align 1
  call void @llvm.dbg.declare(metadata ptr %x.dbg.spill, metadata !1984, metadata !DIExpression()), !dbg !1989
  store i8 %x.0, ptr %_6, align 1, !dbg !1990
  %1 = getelementptr inbounds i8, ptr %_6, i64 1, !dbg !1990
  store i8 %x.1, ptr %1, align 1, !dbg !1990
  %2 = load i8, ptr %_6, align 1, !dbg !1990, !noundef !55
  %3 = getelementptr inbounds i8, ptr %_6, i64 1, !dbg !1990
  %4 = load i8, ptr %3, align 1, !dbg !1990, !noundef !55
; call num_traits::str_to_ascii_lower_eq_str::{{closure}}
  %_4 = call zeroext i1 @"_ZN10num_traits25str_to_ascii_lower_eq_str28_$u7b$$u7b$closure$u7d$$u7d$17hb855513b6a4a8565E"(ptr align 1 %_1, i8 %2, i8 %4), !dbg !1990
  br i1 %_4, label %bb2, label %bb3, !dbg !1990

bb3:                                              ; preds = %start
  store i8 1, ptr %_0, align 1, !dbg !1991
  br label %bb4, !dbg !1992

bb2:                                              ; preds = %start
  store i8 0, ptr %_0, align 1, !dbg !1993
  br label %bb4, !dbg !1992

bb4:                                              ; preds = %bb2, %bb3
  %5 = load i8, ptr %_0, align 1, !dbg !1994, !range !165, !noundef !55
  %6 = trunc i8 %5 to i1, !dbg !1994
  ret i1 %6, !dbg !1994
}

; core::iter::traits::iterator::Iterator::zip
; Function Attrs: inlinehint uwtable
define void @_ZN4core4iter6traits8iterator8Iterator3zip17he18b927dc4613051E(ptr sret(%"core::iter::adapters::zip::Zip<core::str::iter::Bytes<'_>, core::str::iter::Bytes<'_>>") align 8 %_0, ptr %self.0, ptr %self.1, ptr %other.0, ptr %other.1) unnamed_addr #0 personality ptr @rust_eh_personality !dbg !1995 {
start:
  %b.dbg.spill = alloca %"core::str::iter::Bytes<'_>", align 8
  %0 = alloca { ptr, i32, [1 x i32] }, align 8
  %a.dbg.spill = alloca %"core::str::iter::Bytes<'_>", align 8
  %other.dbg.spill = alloca %"core::str::iter::Bytes<'_>", align 8
  %self.dbg.spill = alloca %"core::str::iter::Bytes<'_>", align 8
  %_5 = alloca i8, align 1
  store ptr %self.0, ptr %self.dbg.spill, align 8
  %1 = getelementptr inbounds i8, ptr %self.dbg.spill, i64 8
  store ptr %self.1, ptr %1, align 8
  call void @llvm.dbg.declare(metadata ptr %self.dbg.spill, metadata !1997, metadata !DIExpression()), !dbg !2002
  store ptr %other.0, ptr %other.dbg.spill, align 8
  %2 = getelementptr inbounds i8, ptr %other.dbg.spill, i64 8
  store ptr %other.1, ptr %2, align 8
  call void @llvm.dbg.declare(metadata ptr %other.dbg.spill, metadata !1998, metadata !DIExpression()), !dbg !2003
  store i8 1, ptr %_5, align 1, !dbg !2004
  store ptr %self.0, ptr %a.dbg.spill, align 8, !dbg !2004
  %3 = getelementptr inbounds i8, ptr %a.dbg.spill, i64 8, !dbg !2004
  store ptr %self.1, ptr %3, align 8, !dbg !2004
  call void @llvm.dbg.declare(metadata ptr %a.dbg.spill, metadata !2005, metadata !DIExpression()), !dbg !2011
; invoke <I as core::iter::traits::collect::IntoIterator>::into_iter
  %4 = invoke { ptr, ptr } @"_ZN63_$LT$I$u20$as$u20$core..iter..traits..collect..IntoIterator$GT$9into_iter17hbcf5fa35b8e79a46E"(ptr %other.0, ptr %other.1)
          to label %bb1 unwind label %cleanup, !dbg !2013

bb4:                                              ; preds = %cleanup
  %5 = load i8, ptr %_5, align 1, !dbg !2014, !range !165, !noundef !55
  %6 = trunc i8 %5 to i1, !dbg !2014
  br i1 %6, label %bb3, label %bb2, !dbg !2014

cleanup:                                          ; preds = %bb1, %start
  %7 = landingpad { ptr, i32 }
          cleanup
  %8 = extractvalue { ptr, i32 } %7, 0
  %9 = extractvalue { ptr, i32 } %7, 1
  store ptr %8, ptr %0, align 8
  %10 = getelementptr inbounds i8, ptr %0, i64 8
  store i32 %9, ptr %10, align 8
  br label %bb4

bb1:                                              ; preds = %start
  %b.0 = extractvalue { ptr, ptr } %4, 0, !dbg !2013
  %b.1 = extractvalue { ptr, ptr } %4, 1, !dbg !2013
  store ptr %b.0, ptr %b.dbg.spill, align 8, !dbg !2013
  %11 = getelementptr inbounds i8, ptr %b.dbg.spill, i64 8, !dbg !2013
  store ptr %b.1, ptr %11, align 8, !dbg !2013
  call void @llvm.dbg.declare(metadata ptr %b.dbg.spill, metadata !2010, metadata !DIExpression()), !dbg !2015
  store i8 0, ptr %_5, align 1, !dbg !2012
; invoke <core::iter::adapters::zip::Zip<A,B> as core::iter::adapters::zip::ZipImpl<A,B>>::new
  invoke void @"_ZN111_$LT$core..iter..adapters..zip..Zip$LT$A$C$B$GT$$u20$as$u20$core..iter..adapters..zip..ZipImpl$LT$A$C$B$GT$$GT$3new17hbbca03c2cda451ccE"(ptr sret(%"core::iter::adapters::zip::Zip<core::str::iter::Bytes<'_>, core::str::iter::Bytes<'_>>") align 8 %_0, ptr %self.0, ptr %self.1, ptr %b.0, ptr %b.1)
          to label %bb5 unwind label %cleanup, !dbg !2016

bb5:                                              ; preds = %bb1
  ret void, !dbg !2017

bb2:                                              ; preds = %bb3, %bb4
  %12 = load ptr, ptr %0, align 8, !dbg !2018, !noundef !55
  %13 = getelementptr inbounds i8, ptr %0, i64 8, !dbg !2018
  %14 = load i32, ptr %13, align 8, !dbg !2018, !noundef !55
  %15 = insertvalue { ptr, i32 } poison, ptr %12, 0, !dbg !2018
  %16 = insertvalue { ptr, i32 } %15, i32 %14, 1, !dbg !2018
  resume { ptr, i32 } %16, !dbg !2018

bb3:                                              ; preds = %bb4
  br label %bb2, !dbg !2014
}

; core::iter::traits::iterator::Iterator::by_ref
; Function Attrs: uwtable
define align 8 ptr @_ZN4core4iter6traits8iterator8Iterator6by_ref17h812a3472f392bef5E(ptr align 8 %self) unnamed_addr #1 !dbg !2019 {
start:
  %self.dbg.spill = alloca ptr, align 8
  store ptr %self, ptr %self.dbg.spill, align 8
  call void @llvm.dbg.declare(metadata ptr %self.dbg.spill, metadata !2023, metadata !DIExpression()), !dbg !2026
  ret ptr %self, !dbg !2027
}

; core::iter::traits::iterator::Iterator::try_fold
; Function Attrs: inlinehint uwtable
define zeroext i1 @_ZN4core4iter6traits8iterator8Iterator8try_fold17hc1209678c096d3e0E(ptr align 8 %self) unnamed_addr #0 personality ptr @rust_eh_personality !dbg !2028 {
start:
  %x.dbg.spill = alloca { i8, i8 }, align 1
  %0 = alloca i24, align 4
  %1 = alloca { ptr, i32, [1 x i32] }, align 8
  %val.dbg.spill = alloca {}, align 1
  %residual.dbg.spill = alloca %"core::ops::control_flow::ControlFlow<(), core::convert::Infallible>::Break", align 1
  %accum.dbg.spill = alloca {}, align 1
  %init.dbg.spill = alloca {}, align 1
  %self.dbg.spill = alloca ptr, align 8
  %_17 = alloca i8, align 1
  %_11 = alloca { {}, { i8, i8 } }, align 1
  %_8 = alloca i8, align 1
  %_5 = alloca %"core::option::Option<(u8, u8)>", align 1
  %_0 = alloca i8, align 1
  %f = alloca %"{closure@core::iter::traits::iterator::Iterator::all::check<(u8, u8), {closure@src/lib.rs:212:41: 212:49}>::{closure#0}}", align 1
  store ptr %self, ptr %self.dbg.spill, align 8
  call void @llvm.dbg.declare(metadata ptr %self.dbg.spill, metadata !2032, metadata !DIExpression()), !dbg !2046
  call void @llvm.dbg.declare(metadata ptr %init.dbg.spill, metadata !2033, metadata !DIExpression()), !dbg !2047
  call void @llvm.dbg.declare(metadata ptr %f, metadata !2034, metadata !DIExpression()), !dbg !2048
  call void @llvm.dbg.declare(metadata ptr %accum.dbg.spill, metadata !2035, metadata !DIExpression()), !dbg !2049
  call void @llvm.dbg.declare(metadata ptr %residual.dbg.spill, metadata !2039, metadata !DIExpression()), !dbg !2050
  call void @llvm.dbg.declare(metadata ptr %val.dbg.spill, metadata !2041, metadata !DIExpression()), !dbg !2051
  store i8 1, ptr %_17, align 1, !dbg !2052
  br label %bb1, !dbg !2053

bb1:                                              ; preds = %bb7, %start
; invoke <core::iter::adapters::zip::Zip<A,B> as core::iter::traits::iterator::Iterator>::next
  %2 = invoke i24 @"_ZN102_$LT$core..iter..adapters..zip..Zip$LT$A$C$B$GT$$u20$as$u20$core..iter..traits..iterator..Iterator$GT$4next17h0b677a5a0b1a8d51E"(ptr align 8 %self)
          to label %bb2 unwind label %cleanup.loopexit, !dbg !2054

bb17:                                             ; preds = %cleanup
  %3 = load i8, ptr %_17, align 1, !dbg !2055, !range !165, !noundef !55
  %4 = trunc i8 %3 to i1, !dbg !2055
  br i1 %4, label %bb16, label %bb14, !dbg !2055

cleanup.loopexit:                                 ; preds = %bb1, %bb3, %bb4
  %lpad.loopexit = landingpad { ptr, i32 }
          cleanup
  br label %cleanup

cleanup.loopexit.split-lp:                        ; preds = %bb8, %bb11
  %lpad.loopexit.split-lp = landingpad { ptr, i32 }
          cleanup
  br label %cleanup

cleanup:                                          ; preds = %cleanup.loopexit.split-lp, %cleanup.loopexit
  %lpad.phi = phi { ptr, i32 } [ %lpad.loopexit, %cleanup.loopexit ], [ %lpad.loopexit.split-lp, %cleanup.loopexit.split-lp ]
  %5 = extractvalue { ptr, i32 } %lpad.phi, 0
  %6 = extractvalue { ptr, i32 } %lpad.phi, 1
  store ptr %5, ptr %1, align 8
  %7 = getelementptr inbounds i8, ptr %1, i64 8
  store i32 %6, ptr %7, align 8
  br label %bb17

bb2:                                              ; preds = %bb1
  store i24 %2, ptr %0, align 4, !dbg !2054
  call void @llvm.memcpy.p0.p0.i64(ptr align 1 %_5, ptr align 4 %0, i64 3, i1 false), !dbg !2054
  %8 = load i8, ptr %_5, align 1, !dbg !2056, !range !165, !noundef !55
  %9 = trunc i8 %8 to i1, !dbg !2056
  %_6 = zext i1 %9 to i64, !dbg !2056
  %10 = icmp eq i64 %_6, 1, !dbg !2056
  br i1 %10, label %bb3, label %bb10, !dbg !2056

bb3:                                              ; preds = %bb2
  %11 = getelementptr inbounds i8, ptr %_5, i64 1, !dbg !2057
  %x.0 = load i8, ptr %11, align 1, !dbg !2057, !noundef !55
  %12 = getelementptr inbounds i8, ptr %11, i64 1, !dbg !2057
  %x.1 = load i8, ptr %12, align 1, !dbg !2057, !noundef !55
  store i8 %x.0, ptr %x.dbg.spill, align 1, !dbg !2057
  %13 = getelementptr inbounds i8, ptr %x.dbg.spill, i64 1, !dbg !2057
  store i8 %x.1, ptr %13, align 1, !dbg !2057
  call void @llvm.dbg.declare(metadata ptr %x.dbg.spill, metadata !2037, metadata !DIExpression()), !dbg !2057
  store i8 0, ptr %_17, align 1, !dbg !2058
  store i8 %x.0, ptr %_11, align 1, !dbg !2059
  %14 = getelementptr inbounds i8, ptr %_11, i64 1, !dbg !2059
  store i8 %x.1, ptr %14, align 1, !dbg !2059
  %15 = load i8, ptr %_11, align 1, !dbg !2059, !noundef !55
  %16 = getelementptr inbounds i8, ptr %_11, i64 1, !dbg !2059
  %17 = load i8, ptr %16, align 1, !dbg !2059, !noundef !55
; invoke core::iter::traits::iterator::Iterator::all::check::{{closure}}
  %_9 = invoke zeroext i1 @"_ZN4core4iter6traits8iterator8Iterator3all5check28_$u7b$$u7b$closure$u7d$$u7d$17h443fae4005c39036E"(ptr align 1 %f, i8 %15, i8 %17)
          to label %bb4 unwind label %cleanup.loopexit, !dbg !2059

bb10:                                             ; preds = %bb2
  br label %bb11, !dbg !2053

bb4:                                              ; preds = %bb3
; invoke <core::ops::control_flow::ControlFlow<B,C> as core::ops::try_trait::Try>::branch
  %18 = invoke zeroext i1 @"_ZN95_$LT$core..ops..control_flow..ControlFlow$LT$B$C$C$GT$$u20$as$u20$core..ops..try_trait..Try$GT$6branch17h3ca0a4328c940d0bE"(i1 zeroext %_9)
          to label %bb5 unwind label %cleanup.loopexit, !dbg !2059

bb5:                                              ; preds = %bb4
  %19 = zext i1 %18 to i8, !dbg !2059
  store i8 %19, ptr %_8, align 1, !dbg !2059
  %20 = load i8, ptr %_8, align 1, !dbg !2059, !range !165, !noundef !55
  %21 = trunc i8 %20 to i1, !dbg !2059
  %_13 = zext i1 %21 to i64, !dbg !2059
  %22 = icmp eq i64 %_13, 0, !dbg !2059
  br i1 %22, label %bb7, label %bb8, !dbg !2059

bb7:                                              ; preds = %bb5
  store i8 1, ptr %_17, align 1, !dbg !2060
  br label %bb1, !dbg !2053

bb8:                                              ; preds = %bb5
; invoke <core::ops::control_flow::ControlFlow<B,C> as core::ops::try_trait::FromResidual>::from_residual
  %23 = invoke zeroext i1 @"_ZN104_$LT$core..ops..control_flow..ControlFlow$LT$B$C$C$GT$$u20$as$u20$core..ops..try_trait..FromResidual$GT$13from_residual17hb94bf56f01f39e2aE"()
          to label %bb9 unwind label %cleanup.loopexit.split-lp, !dbg !2061

bb9:                                              ; preds = %bb8
  %24 = zext i1 %23 to i8, !dbg !2061
  store i8 %24, ptr %_0, align 1, !dbg !2061
  br label %bb13, !dbg !2055

bb13:                                             ; preds = %bb12, %bb9
  %25 = load i8, ptr %_0, align 1, !dbg !2062, !range !165, !noundef !55
  %26 = trunc i8 %25 to i1, !dbg !2062
  ret i1 %26, !dbg !2062

bb11:                                             ; preds = %bb10
  store i8 0, ptr %_17, align 1, !dbg !2063
; invoke <core::ops::control_flow::ControlFlow<B,C> as core::ops::try_trait::Try>::from_output
  %27 = invoke zeroext i1 @"_ZN95_$LT$core..ops..control_flow..ControlFlow$LT$B$C$C$GT$$u20$as$u20$core..ops..try_trait..Try$GT$11from_output17h3c900882cf7bfc8eE"()
          to label %bb12 unwind label %cleanup.loopexit.split-lp, !dbg !2063

bb12:                                             ; preds = %bb11
  %28 = zext i1 %27 to i8, !dbg !2063
  store i8 %28, ptr %_0, align 1, !dbg !2063
  br label %bb13, !dbg !2055

bb6:                                              ; No predecessors!
  unreachable, !dbg !2059

bb14:                                             ; preds = %bb16, %bb17
  %29 = load ptr, ptr %1, align 8, !dbg !2064, !noundef !55
  %30 = getelementptr inbounds i8, ptr %1, i64 8, !dbg !2064
  %31 = load i32, ptr %30, align 8, !dbg !2064, !noundef !55
  %32 = insertvalue { ptr, i32 } poison, ptr %29, 0, !dbg !2064
  %33 = insertvalue { ptr, i32 } %32, i32 %31, 1, !dbg !2064
  resume { ptr, i32 } %33, !dbg !2064

bb16:                                             ; preds = %bb17
  br label %bb14, !dbg !2055
}

; core::iter::traits::iterator::Iterator::enumerate
; Function Attrs: inlinehint uwtable
define void @_ZN4core4iter6traits8iterator8Iterator9enumerate17h8529aad654d19618E(ptr sret(%"core::iter::adapters::enumerate::Enumerate<core::str::iter::Chars<'_>>") align 8 %_0, ptr %self.0, ptr %self.1) unnamed_addr #0 !dbg !2065 {
start:
  %self.dbg.spill = alloca %"core::str::iter::Chars<'_>", align 8
  store ptr %self.0, ptr %self.dbg.spill, align 8
  %0 = getelementptr inbounds i8, ptr %self.dbg.spill, i64 8
  store ptr %self.1, ptr %0, align 8
  call void @llvm.dbg.declare(metadata ptr %self.dbg.spill, metadata !2069, metadata !DIExpression()), !dbg !2072
  call void @llvm.dbg.declare(metadata ptr %self.dbg.spill, metadata !2073, metadata !DIExpression()), !dbg !2078
  store ptr %self.0, ptr %_0, align 8, !dbg !2080
  %1 = getelementptr inbounds i8, ptr %_0, i64 8, !dbg !2080
  store ptr %self.1, ptr %1, align 8, !dbg !2080
  %2 = getelementptr inbounds i8, ptr %_0, i64 16, !dbg !2080
  store i64 0, ptr %2, align 8, !dbg !2080
  ret void, !dbg !2081
}

; core::iter::adapters::zip::TrustedRandomAccessNoCoerce::size
; Function Attrs: uwtable
define i64 @_ZN4core4iter8adapters3zip27TrustedRandomAccessNoCoerce4size17h91030a21e39fd8b0E(ptr align 8 %self) unnamed_addr #1 !dbg !2082 {
start:
  %self.dbg.spill = alloca ptr, align 8
  %_2 = alloca { i64, %"core::option::Option<usize>" }, align 8
  store ptr %self, ptr %self.dbg.spill, align 8
  call void @llvm.dbg.declare(metadata ptr %self.dbg.spill, metadata !2088, metadata !DIExpression()), !dbg !2090
; call <core::str::iter::Bytes as core::iter::traits::iterator::Iterator>::size_hint
  call void @"_ZN81_$LT$core..str..iter..Bytes$u20$as$u20$core..iter..traits..iterator..Iterator$GT$9size_hint17hb3db2b2f2195ead1E"(ptr sret({ i64, %"core::option::Option<usize>" }) align 8 %_2, ptr align 8 %self), !dbg !2091
  %_0 = load i64, ptr %_2, align 8, !dbg !2091, !noundef !55
  ret i64 %_0, !dbg !2092
}

; core::slice::raw::from_raw_parts::precondition_check
; Function Attrs: inlinehint nounwind uwtable
define internal void @_ZN4core5slice3raw14from_raw_parts18precondition_check17h1cb2af24e43ff93fE(ptr %data, i64 %size, i64 %align, i64 %len) unnamed_addr #2 personality ptr @rust_eh_personality !dbg !2093 {
start:
  %len.dbg.spill = alloca i64, align 8
  %align.dbg.spill = alloca i64, align 8
  %size.dbg.spill = alloca i64, align 8
  %data.dbg.spill = alloca ptr, align 8
  %max_len = alloca i64, align 8
  store ptr %data, ptr %data.dbg.spill, align 8
  call void @llvm.dbg.declare(metadata ptr %data.dbg.spill, metadata !2099, metadata !DIExpression()), !dbg !2103
  store i64 %size, ptr %size.dbg.spill, align 8
  call void @llvm.dbg.declare(metadata ptr %size.dbg.spill, metadata !2100, metadata !DIExpression()), !dbg !2103
  call void @llvm.dbg.declare(metadata ptr %size.dbg.spill, metadata !2104, metadata !DIExpression()), !dbg !2113
  store i64 %align, ptr %align.dbg.spill, align 8
  call void @llvm.dbg.declare(metadata ptr %align.dbg.spill, metadata !2101, metadata !DIExpression()), !dbg !2103
  store i64 %len, ptr %len.dbg.spill, align 8
  call void @llvm.dbg.declare(metadata ptr %len.dbg.spill, metadata !2102, metadata !DIExpression()), !dbg !2103
  call void @llvm.dbg.declare(metadata ptr %len.dbg.spill, metadata !2110, metadata !DIExpression()), !dbg !2116
  call void @llvm.dbg.declare(metadata ptr %max_len, metadata !2111, metadata !DIExpression()), !dbg !2117
; invoke core::intrinsics::is_aligned_and_not_null
  %_5 = invoke zeroext i1 @_ZN4core10intrinsics23is_aligned_and_not_null17ha90fbe8bd986bd26E(ptr %data, i64 %align)
          to label %bb1 unwind label %terminate, !dbg !2118

terminate:                                        ; preds = %panic, %start
  %0 = landingpad { ptr, i32 }
          filter [0 x ptr] zeroinitializer
  %1 = extractvalue { ptr, i32 } %0, 0
  %2 = extractvalue { ptr, i32 } %0, 1
; call core::panicking::panic_cannot_unwind
  call void @_ZN4core9panicking19panic_cannot_unwind17h3626040c0976c0c3E() #12, !dbg !2119
  unreachable, !dbg !2119

bb1:                                              ; preds = %start
  br i1 %_5, label %bb2, label %bb5, !dbg !2118

bb5:                                              ; preds = %bb1
  br label %bb6, !dbg !2120

bb2:                                              ; preds = %bb1
  %_10 = icmp eq i64 %size, 0, !dbg !2122
  %3 = icmp eq i64 %size, 0, !dbg !2122
  br i1 %3, label %bb7, label %bb8, !dbg !2122

bb6:                                              ; preds = %bb4, %bb5
; call core::panicking::panic_nounwind
  call void @_ZN4core9panicking14panic_nounwind17h50c31e15afde233eE(ptr align 1 @alloc_11195730e5236cfdc15ea13be1c301f9, i64 162) #11, !dbg !2123
  unreachable, !dbg !2123

bb7:                                              ; preds = %bb2
  store i64 -1, ptr %max_len, align 8, !dbg !2124
  br label %bb10, !dbg !2125

bb8:                                              ; preds = %bb2
  %4 = call i1 @llvm.expect.i1(i1 %_10, i1 false), !dbg !2126
  br i1 %4, label %panic, label %bb9, !dbg !2126

bb10:                                             ; preds = %bb9, %bb7
  %_11 = load i64, ptr %max_len, align 8, !dbg !2127, !noundef !55
  %_7 = icmp ule i64 %len, %_11, !dbg !2128
  br i1 %_7, label %bb3, label %bb4, !dbg !2114

bb9:                                              ; preds = %bb8
  %5 = udiv i64 9223372036854775807, %size, !dbg !2126
  store i64 %5, ptr %max_len, align 8, !dbg !2126
  br label %bb10, !dbg !2125

panic:                                            ; preds = %bb8
; invoke core::panicking::panic
  invoke void @_ZN4core9panicking5panic17h5884aad3a9044857E(ptr align 1 @str.1, i64 25, ptr align 8 @alloc_3ddfd615a577a80e66751be046ca7362) #9
          to label %unreachable unwind label %terminate, !dbg !2126

unreachable:                                      ; preds = %panic
  unreachable

bb4:                                              ; preds = %bb10
  br label %bb6, !dbg !2120

bb3:                                              ; preds = %bb10
  ret void, !dbg !2129
}

; core::option::Option<T>::is_none
; Function Attrs: inlinehint uwtable
define zeroext i1 @"_ZN4core6option15Option$LT$T$GT$7is_none17hab16d4f879cef487E"(ptr align 8 %self) unnamed_addr #0 !dbg !2130 {
start:
  %self.dbg.spill = alloca ptr, align 8
  %_2 = alloca i8, align 1
  store ptr %self, ptr %self.dbg.spill, align 8
  call void @llvm.dbg.declare(metadata ptr %self.dbg.spill, metadata !2153, metadata !DIExpression()), !dbg !2154
  call void @llvm.dbg.declare(metadata ptr %self.dbg.spill, metadata !2155, metadata !DIExpression()), !dbg !2160
  %0 = load i32, ptr %self, align 8, !dbg !2162, !range !275, !noundef !55
  %1 = icmp eq i32 %0, 1114112, !dbg !2162
  %_3 = select i1 %1, i64 0, i64 1, !dbg !2162
  %2 = icmp eq i64 %_3, 1, !dbg !2163
  br i1 %2, label %bb3, label %bb2, !dbg !2163

bb3:                                              ; preds = %start
  store i8 1, ptr %_2, align 1, !dbg !2163
  br label %bb1, !dbg !2163

bb2:                                              ; preds = %start
  store i8 0, ptr %_2, align 1, !dbg !2163
  br label %bb1, !dbg !2163

bb1:                                              ; preds = %bb2, %bb3
  %3 = load i8, ptr %_2, align 1, !dbg !2164, !range !165, !noundef !55
  %4 = trunc i8 %3 to i1, !dbg !2164
  %_0 = xor i1 %4, true, !dbg !2164
  ret i1 %_0, !dbg !2165

bb4:                                              ; No predecessors!
  unreachable, !dbg !2166
}

; core::result::Result<T,E>::map_err
; Function Attrs: inlinehint uwtable
define void @"_ZN4core6result19Result$LT$T$C$E$GT$7map_err17h59795b8ee31d094dE"(ptr sret(%"core::result::Result<f64, ParseFloatError>") align 8 %_0, ptr align 8 %self, ptr align 8 %op) unnamed_addr #0 !dbg !2167 {
start:
  %e.dbg.spill = alloca i8, align 1
  %t.dbg.spill = alloca double, align 8
  %op.dbg.spill = alloca ptr, align 8
  %_8 = alloca i8, align 1
  call void @llvm.dbg.declare(metadata ptr %self, metadata !2199, metadata !DIExpression()), !dbg !2205
  store ptr %op, ptr %op.dbg.spill, align 8
  call void @llvm.dbg.declare(metadata ptr %op.dbg.spill, metadata !2200, metadata !DIExpression()), !dbg !2206
  %0 = load i8, ptr %self, align 8, !dbg !2207, !range !165, !noundef !55
  %1 = trunc i8 %0 to i1, !dbg !2207
  %_3 = zext i1 %1 to i64, !dbg !2207
  %2 = icmp eq i64 %_3, 0, !dbg !2208
  br i1 %2, label %bb3, label %bb2, !dbg !2208

bb3:                                              ; preds = %start
  %3 = getelementptr inbounds i8, ptr %self, i64 8, !dbg !2209
  %t = load double, ptr %3, align 8, !dbg !2209, !noundef !55
  store double %t, ptr %t.dbg.spill, align 8, !dbg !2209
  call void @llvm.dbg.declare(metadata ptr %t.dbg.spill, metadata !2201, metadata !DIExpression()), !dbg !2210
  %4 = getelementptr inbounds i8, ptr %_0, i64 8, !dbg !2211
  store double %t, ptr %4, align 8, !dbg !2211
  store i8 0, ptr %_0, align 8, !dbg !2211
  br label %bb5, !dbg !2212

bb2:                                              ; preds = %start
  %5 = getelementptr inbounds i8, ptr %self, i64 1, !dbg !2213
  %6 = load i8, ptr %5, align 1, !dbg !2213, !range !165, !noundef !55
  %e = trunc i8 %6 to i1, !dbg !2213
  %7 = zext i1 %e to i8, !dbg !2213
  store i8 %7, ptr %e.dbg.spill, align 1, !dbg !2213
  call void @llvm.dbg.declare(metadata ptr %e.dbg.spill, metadata !2203, metadata !DIExpression()), !dbg !2214
  %8 = zext i1 %e to i8, !dbg !2215
  store i8 %8, ptr %_8, align 1, !dbg !2215
  %9 = load i8, ptr %_8, align 1, !dbg !2215, !range !165, !noundef !55
  %10 = trunc i8 %9 to i1, !dbg !2215
; call <f64 as num_traits::Num>::from_str_radix::{{closure}}
  %_6 = call zeroext i1 @"_ZN39_$LT$f64$u20$as$u20$num_traits..Num$GT$14from_str_radix28_$u7b$$u7b$closure$u7d$$u7d$17hc8a66d6264416e74E"(ptr align 8 %op, i1 zeroext %10), !dbg !2215
  %11 = getelementptr inbounds i8, ptr %_0, i64 1, !dbg !2216
  %12 = zext i1 %_6 to i8, !dbg !2216
  store i8 %12, ptr %11, align 1, !dbg !2216
  store i8 1, ptr %_0, align 8, !dbg !2216
  br label %bb5, !dbg !2217

bb5:                                              ; preds = %bb2, %bb3
  ret void, !dbg !2218

bb1:                                              ; No predecessors!
  unreachable, !dbg !2207
}

; core::result::Result<T,E>::map_err
; Function Attrs: inlinehint uwtable
define i64 @"_ZN4core6result19Result$LT$T$C$E$GT$7map_err17hc7dd90bc04107341E"(i64 %0, ptr align 8 %op) unnamed_addr #0 !dbg !2219 {
start:
  %e.dbg.spill = alloca i8, align 1
  %t.dbg.spill = alloca float, align 4
  %op.dbg.spill = alloca ptr, align 8
  %_8 = alloca i8, align 1
  %_0 = alloca %"core::result::Result<f32, ParseFloatError>", align 4
  %1 = alloca i64, align 8
  %self = alloca %"core::result::Result<f32, core::num::dec2flt::ParseFloatError>", align 4
  store i64 %0, ptr %1, align 8
  call void @llvm.memcpy.p0.p0.i64(ptr align 4 %self, ptr align 8 %1, i64 8, i1 false)
  call void @llvm.dbg.declare(metadata ptr %self, metadata !2245, metadata !DIExpression()), !dbg !2251
  store ptr %op, ptr %op.dbg.spill, align 8
  call void @llvm.dbg.declare(metadata ptr %op.dbg.spill, metadata !2246, metadata !DIExpression()), !dbg !2252
  %2 = load i8, ptr %self, align 4, !dbg !2253, !range !165, !noundef !55
  %3 = trunc i8 %2 to i1, !dbg !2253
  %_3 = zext i1 %3 to i64, !dbg !2253
  %4 = icmp eq i64 %_3, 0, !dbg !2254
  br i1 %4, label %bb3, label %bb2, !dbg !2254

bb3:                                              ; preds = %start
  %5 = getelementptr inbounds i8, ptr %self, i64 4, !dbg !2255
  %t = load float, ptr %5, align 4, !dbg !2255, !noundef !55
  store float %t, ptr %t.dbg.spill, align 4, !dbg !2255
  call void @llvm.dbg.declare(metadata ptr %t.dbg.spill, metadata !2247, metadata !DIExpression()), !dbg !2256
  %6 = getelementptr inbounds i8, ptr %_0, i64 4, !dbg !2257
  store float %t, ptr %6, align 4, !dbg !2257
  store i8 0, ptr %_0, align 4, !dbg !2257
  br label %bb5, !dbg !2258

bb2:                                              ; preds = %start
  %7 = getelementptr inbounds i8, ptr %self, i64 1, !dbg !2259
  %8 = load i8, ptr %7, align 1, !dbg !2259, !range !165, !noundef !55
  %e = trunc i8 %8 to i1, !dbg !2259
  %9 = zext i1 %e to i8, !dbg !2259
  store i8 %9, ptr %e.dbg.spill, align 1, !dbg !2259
  call void @llvm.dbg.declare(metadata ptr %e.dbg.spill, metadata !2249, metadata !DIExpression()), !dbg !2260
  %10 = zext i1 %e to i8, !dbg !2261
  store i8 %10, ptr %_8, align 1, !dbg !2261
  %11 = load i8, ptr %_8, align 1, !dbg !2261, !range !165, !noundef !55
  %12 = trunc i8 %11 to i1, !dbg !2261
; call <f32 as num_traits::Num>::from_str_radix::{{closure}}
  %_6 = call zeroext i1 @"_ZN39_$LT$f32$u20$as$u20$num_traits..Num$GT$14from_str_radix28_$u7b$$u7b$closure$u7d$$u7d$17h51e3ea21866efcddE"(ptr align 8 %op, i1 zeroext %12), !dbg !2261
  %13 = getelementptr inbounds i8, ptr %_0, i64 1, !dbg !2262
  %14 = zext i1 %_6 to i8, !dbg !2262
  store i8 %14, ptr %13, align 1, !dbg !2262
  store i8 1, ptr %_0, align 4, !dbg !2262
  br label %bb5, !dbg !2263

bb5:                                              ; preds = %bb2, %bb3
  %15 = load i64, ptr %_0, align 4, !dbg !2264
  ret i64 %15, !dbg !2264

bb1:                                              ; No predecessors!
  unreachable, !dbg !2253
}

; <I as core::iter::traits::collect::IntoIterator>::into_iter
; Function Attrs: inlinehint uwtable
define { ptr, ptr } @"_ZN63_$LT$I$u20$as$u20$core..iter..traits..collect..IntoIterator$GT$9into_iter17hbcf5fa35b8e79a46E"(ptr %self.0, ptr %self.1) unnamed_addr #0 !dbg !2265 {
start:
  %self.dbg.spill = alloca %"core::str::iter::Bytes<'_>", align 8
  store ptr %self.0, ptr %self.dbg.spill, align 8
  %0 = getelementptr inbounds i8, ptr %self.dbg.spill, i64 8
  store ptr %self.1, ptr %0, align 8
  call void @llvm.dbg.declare(metadata ptr %self.dbg.spill, metadata !2272, metadata !DIExpression()), !dbg !2275
  %1 = insertvalue { ptr, ptr } poison, ptr %self.0, 0, !dbg !2276
  %2 = insertvalue { ptr, ptr } %1, ptr %self.1, 1, !dbg !2276
  ret { ptr, ptr } %2, !dbg !2276
}

; <I as core::iter::traits::collect::IntoIterator>::into_iter
; Function Attrs: inlinehint uwtable
define align 8 ptr @"_ZN63_$LT$I$u20$as$u20$core..iter..traits..collect..IntoIterator$GT$9into_iter17hfba0e1aba579d7f2E"(ptr align 8 %self) unnamed_addr #0 !dbg !2277 {
start:
  %self.dbg.spill = alloca ptr, align 8
  store ptr %self, ptr %self.dbg.spill, align 8
  call void @llvm.dbg.declare(metadata ptr %self.dbg.spill, metadata !2279, metadata !DIExpression()), !dbg !2282
  ret ptr %self, !dbg !2283
}

; <&mut I as core::iter::traits::iterator::Iterator>::next
; Function Attrs: inlinehint uwtable
define { i64, i32 } @"_ZN72_$LT$$RF$mut$u20$I$u20$as$u20$core..iter..traits..iterator..Iterator$GT$4next17hbd5817750733f727E"(ptr align 8 %self) unnamed_addr #0 !dbg !2284 {
start:
  %self.dbg.spill = alloca ptr, align 8
  store ptr %self, ptr %self.dbg.spill, align 8
  call void @llvm.dbg.declare(metadata ptr %self.dbg.spill, metadata !2290, metadata !DIExpression()), !dbg !2293
  %_2 = load ptr, ptr %self, align 8, !dbg !2294, !nonnull !55, !align !655, !noundef !55
; call <core::iter::adapters::enumerate::Enumerate<I> as core::iter::traits::iterator::Iterator>::next
  %0 = call { i64, i32 } @"_ZN110_$LT$core..iter..adapters..enumerate..Enumerate$LT$I$GT$$u20$as$u20$core..iter..traits..iterator..Iterator$GT$4next17hae9f188189e2f261E"(ptr align 8 %_2), !dbg !2294
  %_0.0 = extractvalue { i64, i32 } %0, 0, !dbg !2294
  %_0.1 = extractvalue { i64, i32 } %0, 1, !dbg !2294
  %1 = insertvalue { i64, i32 } poison, i64 %_0.0, 0, !dbg !2295
  %2 = insertvalue { i64, i32 } %1, i32 %_0.1, 1, !dbg !2295
  ret { i64, i32 } %2, !dbg !2295
}

; <[A] as core::slice::cmp::SlicePartialEq<B>>::equal
; Function Attrs: uwtable
define zeroext i1 @"_ZN73_$LT$$u5b$A$u5d$$u20$as$u20$core..slice..cmp..SlicePartialEq$LT$B$GT$$GT$5equal17h767d653f42380d6eE"(ptr align 1 %self.0, i64 %self.1, ptr align 1 %other.0, i64 %other.1) unnamed_addr #1 !dbg !2296 {
start:
  %0 = alloca i32, align 4
  %size.dbg.spill = alloca i64, align 8
  %1 = alloca i64, align 8
  %other.dbg.spill = alloca { ptr, i64 }, align 8
  %self.dbg.spill = alloca { ptr, i64 }, align 8
  %_0 = alloca i8, align 1
  store ptr %self.0, ptr %self.dbg.spill, align 8
  %2 = getelementptr inbounds i8, ptr %self.dbg.spill, i64 8
  store i64 %self.1, ptr %2, align 8
  call void @llvm.dbg.declare(metadata ptr %self.dbg.spill, metadata !2299, metadata !DIExpression()), !dbg !2303
  call void @llvm.dbg.declare(metadata ptr %self.dbg.spill, metadata !2304, metadata !DIExpression()), !dbg !2310
  call void @llvm.dbg.declare(metadata ptr %self.dbg.spill, metadata !2312, metadata !DIExpression()), !dbg !2320
  store ptr %other.0, ptr %other.dbg.spill, align 8
  %3 = getelementptr inbounds i8, ptr %other.dbg.spill, i64 8
  store i64 %other.1, ptr %3, align 8
  call void @llvm.dbg.declare(metadata ptr %other.dbg.spill, metadata !2300, metadata !DIExpression()), !dbg !2322
  call void @llvm.dbg.declare(metadata ptr %other.dbg.spill, metadata !2318, metadata !DIExpression()), !dbg !2323
  %_3 = icmp ne i64 %self.1, %other.1, !dbg !2325
  br i1 %_3, label %bb1, label %bb2, !dbg !2325

bb2:                                              ; preds = %start
  %4 = mul nsw i64 %self.1, 1, !dbg !2326
  store i64 %4, ptr %1, align 8, !dbg !2326
  %size = load i64, ptr %1, align 8, !dbg !2326, !noundef !55
  store i64 %size, ptr %size.dbg.spill, align 8, !dbg !2326
  call void @llvm.dbg.declare(metadata ptr %size.dbg.spill, metadata !2301, metadata !DIExpression()), !dbg !2327
  %5 = call i32 @memcmp(ptr %self.0, ptr %other.0, i64 %size), !dbg !2328
  store i32 %5, ptr %0, align 4, !dbg !2328
  %_7 = load i32, ptr %0, align 4, !dbg !2328, !noundef !55
  %6 = icmp eq i32 %_7, 0, !dbg !2328
  %7 = zext i1 %6 to i8, !dbg !2328
  store i8 %7, ptr %_0, align 1, !dbg !2328
  br label %bb4, !dbg !2329

bb1:                                              ; preds = %start
  store i8 0, ptr %_0, align 1, !dbg !2330
  br label %bb4, !dbg !2329

bb4:                                              ; preds = %bb1, %bb2
  %8 = load i8, ptr %_0, align 1, !dbg !2329, !range !165, !noundef !55
  %9 = trunc i8 %8 to i1, !dbg !2329
  ret i1 %9, !dbg !2329
}

; <core::option::Option<T> as core::ops::try_trait::Try>::branch
; Function Attrs: inlinehint uwtable
define i32 @"_ZN75_$LT$core..option..Option$LT$T$GT$$u20$as$u20$core..ops..try_trait..Try$GT$6branch17hdf3367fa2ce5da8bE"(i32 %0) unnamed_addr #0 !dbg !2331 {
start:
  %v.dbg.spill = alloca i32, align 4
  %_0 = alloca i32, align 4
  %self = alloca i32, align 4
  store i32 %0, ptr %self, align 4
  call void @llvm.dbg.declare(metadata ptr %self, metadata !2333, metadata !DIExpression()), !dbg !2336
  %1 = load i32, ptr %self, align 4, !dbg !2337, !range !275, !noundef !55
  %2 = icmp eq i32 %1, 1114112, !dbg !2337
  %_2 = select i1 %2, i64 0, i64 1, !dbg !2337
  %3 = icmp eq i64 %_2, 0, !dbg !2338
  br i1 %3, label %bb2, label %bb3, !dbg !2338

bb2:                                              ; preds = %start
  store i32 1114112, ptr %_0, align 4, !dbg !2339
  br label %bb4, !dbg !2340

bb3:                                              ; preds = %start
  %v = load i32, ptr %self, align 4, !dbg !2341, !range !281, !noundef !55
  store i32 %v, ptr %v.dbg.spill, align 4, !dbg !2341
  call void @llvm.dbg.declare(metadata ptr %v.dbg.spill, metadata !2334, metadata !DIExpression()), !dbg !2342
  store i32 %v, ptr %_0, align 4, !dbg !2343
  br label %bb4, !dbg !2344

bb4:                                              ; preds = %bb3, %bb2
  %4 = load i32, ptr %_0, align 4, !dbg !2345, !range !275, !noundef !55
  ret i32 %4, !dbg !2345

bb1:                                              ; No predecessors!
  unreachable, !dbg !2337
}

; <usize as core::slice::index::SliceIndex<[T]>>::get
; Function Attrs: inlinehint uwtable
define align 1 ptr @"_ZN75_$LT$usize$u20$as$u20$core..slice..index..SliceIndex$LT$$u5b$T$u5d$$GT$$GT$3get17he3e69caa9439b716E"(i64 %self, ptr align 1 %slice.0, i64 %slice.1) unnamed_addr #0 !dbg !2346 {
start:
  %self.dbg.spill1 = alloca ptr, align 8
  %slice.dbg.spill = alloca { ptr, i64 }, align 8
  %self.dbg.spill = alloca i64, align 8
  %_16 = alloca %"core::ptr::metadata::PtrRepr<[u8]>", align 8
  %_15 = alloca %"core::ptr::metadata::PtrRepr<[u8]>", align 8
  %_0 = alloca ptr, align 8
  store i64 %self, ptr %self.dbg.spill, align 8
  call void @llvm.dbg.declare(metadata ptr %self.dbg.spill, metadata !2353, metadata !DIExpression()), !dbg !2355
  call void @llvm.dbg.declare(metadata ptr %self.dbg.spill, metadata !2356, metadata !DIExpression()), !dbg !2363
  call void @llvm.dbg.declare(metadata ptr %self.dbg.spill, metadata !2365, metadata !DIExpression()), !dbg !2370
  store ptr %slice.0, ptr %slice.dbg.spill, align 8
  %0 = getelementptr inbounds i8, ptr %slice.dbg.spill, i64 8
  store i64 %slice.1, ptr %0, align 8
  call void @llvm.dbg.declare(metadata ptr %slice.dbg.spill, metadata !2354, metadata !DIExpression()), !dbg !2372
  call void @llvm.dbg.declare(metadata ptr %slice.dbg.spill, metadata !2362, metadata !DIExpression()), !dbg !2373
  call void @llvm.dbg.declare(metadata ptr %slice.dbg.spill, metadata !2374, metadata !DIExpression()), !dbg !2380
  call void @llvm.dbg.declare(metadata ptr %slice.dbg.spill, metadata !2382, metadata !DIExpression()), !dbg !2388
  call void @llvm.dbg.declare(metadata ptr %slice.dbg.spill, metadata !2378, metadata !DIExpression()), !dbg !2390
  call void @llvm.dbg.declare(metadata ptr %slice.dbg.spill, metadata !2386, metadata !DIExpression()), !dbg !2392
  call void @llvm.dbg.declare(metadata ptr %slice.dbg.spill, metadata !2394, metadata !DIExpression()), !dbg !2398
  %_3 = icmp ult i64 %self, %slice.1, !dbg !2400
  br i1 %_3, label %bb1, label %bb2, !dbg !2400

bb2:                                              ; preds = %start
  store ptr null, ptr %_0, align 8, !dbg !2401
  br label %bb3, !dbg !2402

bb1:                                              ; preds = %start
  br label %bb4, !dbg !2403

bb3:                                              ; preds = %bb7, %bb2
  %1 = load ptr, ptr %_0, align 8, !dbg !2404, !align !932, !noundef !55
  ret ptr %1, !dbg !2404

bb4:                                              ; preds = %bb1
  store ptr %slice.0, ptr %_15, align 8, !dbg !2405
  %2 = getelementptr inbounds i8, ptr %_15, i64 8, !dbg !2405
  store i64 %slice.1, ptr %2, align 8, !dbg !2405
  %3 = getelementptr inbounds i8, ptr %_15, i64 8, !dbg !2405
  %_10 = load i64, ptr %3, align 8, !dbg !2405, !noundef !55
  %_9 = icmp ult i64 %self, %_10, !dbg !2406
  br i1 %_9, label %bb5, label %bb6, !dbg !2406

bb6:                                              ; preds = %bb4
; call core::panicking::panic_nounwind
  call void @_ZN4core9panicking14panic_nounwind17h50c31e15afde233eE(ptr align 1 @alloc_8572d294b7d4b9d2125dc5191e02725c, i64 64) #11, !dbg !2403
  unreachable, !dbg !2403

bb5:                                              ; preds = %bb4
  br label %bb7, !dbg !2403

bb7:                                              ; preds = %bb5
  store ptr %slice.0, ptr %_16, align 8, !dbg !2407
  %4 = getelementptr inbounds i8, ptr %_16, i64 8, !dbg !2407
  store i64 %slice.1, ptr %4, align 8, !dbg !2407
  %5 = getelementptr inbounds i8, ptr %_16, i64 8, !dbg !2407
  %_13 = load i64, ptr %5, align 8, !dbg !2407, !noundef !55
  %_12 = icmp ult i64 %self, %_13, !dbg !2408
  store ptr %slice.0, ptr %self.dbg.spill1, align 8, !dbg !2409
  call void @llvm.dbg.declare(metadata ptr %self.dbg.spill1, metadata !2369, metadata !DIExpression()), !dbg !2410
  %_6 = getelementptr inbounds i8, ptr %slice.0, i64 %self, !dbg !2411
  store ptr %_6, ptr %_0, align 8, !dbg !2412
  br label %bb3, !dbg !2402
}

; <core::str::iter::Bytes as core::iter::traits::iterator::Iterator>::__iterator_get_unchecked
; Function Attrs: inlinehint uwtable
define internal i8 @"_ZN81_$LT$core..str..iter..Bytes$u20$as$u20$core..iter..traits..iterator..Iterator$GT$24__iterator_get_unchecked17h28b42102d73b116fE"(ptr align 8 %self, i64 %idx) unnamed_addr #0 !dbg !2413 {
start:
  %self.dbg.spill4 = alloca ptr, align 8
  %self.dbg.spill3 = alloca ptr, align 8
  %it.dbg.spill = alloca ptr, align 8
  %self.dbg.spill1 = alloca ptr, align 8
  %idx.dbg.spill = alloca i64, align 8
  %self.dbg.spill = alloca ptr, align 8
  store ptr %self, ptr %self.dbg.spill, align 8
  call void @llvm.dbg.declare(metadata ptr %self.dbg.spill, metadata !2419, metadata !DIExpression()), !dbg !2421
  store i64 %idx, ptr %idx.dbg.spill, align 8
  call void @llvm.dbg.declare(metadata ptr %idx.dbg.spill, metadata !2420, metadata !DIExpression()), !dbg !2422
  call void @llvm.dbg.declare(metadata ptr %idx.dbg.spill, metadata !2423, metadata !DIExpression()), !dbg !2433
  call void @llvm.dbg.declare(metadata ptr %idx.dbg.spill, metadata !2435, metadata !DIExpression()), !dbg !2442
  call void @llvm.dbg.declare(metadata ptr %idx.dbg.spill, metadata !2444, metadata !DIExpression()), !dbg !2450
  call void @llvm.dbg.declare(metadata ptr %idx.dbg.spill, metadata !2452, metadata !DIExpression()), !dbg !2459
  call void @llvm.dbg.declare(metadata ptr %idx.dbg.spill, metadata !2461, metadata !DIExpression()), !dbg !2466
  store ptr %self, ptr %self.dbg.spill1, align 8, !dbg !2468
  call void @llvm.dbg.declare(metadata ptr %self.dbg.spill1, metadata !2431, metadata !DIExpression()), !dbg !2469
  store ptr %self, ptr %it.dbg.spill, align 8, !dbg !2470
  call void @llvm.dbg.declare(metadata ptr %it.dbg.spill, metadata !2441, metadata !DIExpression()), !dbg !2471
  call void @llvm.dbg.declare(metadata ptr %it.dbg.spill, metadata !2449, metadata !DIExpression()), !dbg !2472
  call void @llvm.dbg.declare(metadata ptr %it.dbg.spill, metadata !2458, metadata !DIExpression()), !dbg !2459
  %self2 = load ptr, ptr %self, align 8, !dbg !2459, !nonnull !55, !noundef !55
  store ptr %self2, ptr %self.dbg.spill3, align 8, !dbg !2459
  call void @llvm.dbg.declare(metadata ptr %self.dbg.spill3, metadata !2473, metadata !DIExpression()), !dbg !2477
  store ptr %self2, ptr %self.dbg.spill4, align 8, !dbg !2479
  call void @llvm.dbg.declare(metadata ptr %self.dbg.spill4, metadata !2465, metadata !DIExpression()), !dbg !2480
  %_5 = getelementptr inbounds i8, ptr %self2, i64 %idx, !dbg !2481
  %_0 = load i8, ptr %_5, align 1, !dbg !2482, !noundef !55
  ret i8 %_0, !dbg !2483
}

; <core::str::iter::Bytes as core::iter::traits::iterator::Iterator>::size_hint
; Function Attrs: inlinehint uwtable
define internal void @"_ZN81_$LT$core..str..iter..Bytes$u20$as$u20$core..iter..traits..iterator..Iterator$GT$9size_hint17hb3db2b2f2195ead1E"(ptr sret({ i64, %"core::option::Option<usize>" }) align 8 %_0, ptr align 8 %self) unnamed_addr #0 !dbg !2484 {
start:
  %self.dbg.spill1 = alloca ptr, align 8
  %self.dbg.spill = alloca ptr, align 8
  store ptr %self, ptr %self.dbg.spill, align 8
  call void @llvm.dbg.declare(metadata ptr %self.dbg.spill, metadata !2492, metadata !DIExpression()), !dbg !2493
  store ptr %self, ptr %self.dbg.spill1, align 8, !dbg !2494
  call void @llvm.dbg.declare(metadata ptr %self.dbg.spill1, metadata !2495, metadata !DIExpression()), !dbg !2502
; call <core::slice::iter::Iter<T> as core::iter::traits::iterator::Iterator>::size_hint
  call void @"_ZN91_$LT$core..slice..iter..Iter$LT$T$GT$$u20$as$u20$core..iter..traits..iterator..Iterator$GT$9size_hint17h4edd89f6a1278541E"(ptr sret({ i64, %"core::option::Option<usize>" }) align 8 %_0, ptr align 8 %self), !dbg !2504
  ret void, !dbg !2505
}

; <core::str::iter::Chars as core::iter::traits::iterator::Iterator>::next
; Function Attrs: inlinehint uwtable
define internal i32 @"_ZN81_$LT$core..str..iter..Chars$u20$as$u20$core..iter..traits..iterator..Iterator$GT$4next17h0f95308b8f9dd8b5E"(ptr align 8 %self) unnamed_addr #0 !dbg !2506 {
start:
  %x.dbg.spill = alloca i32, align 4
  %self.dbg.spill = alloca ptr, align 8
  %self1 = alloca %"core::option::Option<u32>", align 4
  %_0 = alloca i32, align 4
  %f.dbg.spill = alloca %"{closure@<core::str::iter::Chars<'_> as core::iter::traits::iterator::Iterator>::next::{closure#0}}", align 1
  call void @llvm.dbg.declare(metadata ptr %f.dbg.spill, metadata !2513, metadata !DIExpression()), !dbg !2528
  store ptr %self, ptr %self.dbg.spill, align 8, !dbg !2528
  call void @llvm.dbg.declare(metadata ptr %self.dbg.spill, metadata !2512, metadata !DIExpression()), !dbg !2530
  call void @llvm.dbg.declare(metadata ptr %self1, metadata !2525, metadata !DIExpression()), !dbg !2531
; call core::str::validations::next_code_point
  %0 = call { i32, i32 } @_ZN4core3str11validations15next_code_point17ha5376d2f9d2a8a91E(ptr align 8 %self), !dbg !2532
  %1 = extractvalue { i32, i32 } %0, 0, !dbg !2532
  %2 = extractvalue { i32, i32 } %0, 1, !dbg !2532
  store i32 %1, ptr %self1, align 4, !dbg !2532
  %3 = getelementptr inbounds i8, ptr %self1, i64 4, !dbg !2532
  store i32 %2, ptr %3, align 4, !dbg !2532
  %4 = load i32, ptr %self1, align 4, !dbg !2533, !range !928, !noundef !55
  %_4 = zext i32 %4 to i64, !dbg !2533
  %5 = icmp eq i64 %_4, 0, !dbg !2534
  br i1 %5, label %bb4, label %bb5, !dbg !2534

bb4:                                              ; preds = %start
  store i32 1114112, ptr %_0, align 4, !dbg !2535
  br label %bb2, !dbg !2536

bb5:                                              ; preds = %start
  %6 = getelementptr inbounds i8, ptr %self1, i64 4, !dbg !2537
  %x = load i32, ptr %6, align 4, !dbg !2537, !noundef !55
  store i32 %x, ptr %x.dbg.spill, align 4, !dbg !2537
  call void @llvm.dbg.declare(metadata ptr %x.dbg.spill, metadata !2526, metadata !DIExpression()), !dbg !2538
  call void @llvm.dbg.declare(metadata ptr %x.dbg.spill, metadata !2539, metadata !DIExpression()), !dbg !2545
  call void @llvm.dbg.declare(metadata ptr %x.dbg.spill, metadata !2547, metadata !DIExpression()), !dbg !2553
  call void @llvm.dbg.declare(metadata ptr %x.dbg.spill, metadata !2555, metadata !DIExpression()), !dbg !2559
  br label %bb6, !dbg !2561

bb2:                                              ; preds = %bb7, %bb4
  %7 = load i32, ptr %_0, align 4, !dbg !2562, !range !275, !noundef !55
  ret i32 %7, !dbg !2562

bb6:                                              ; preds = %bb5
; call core::char::convert::from_u32_unchecked::precondition_check
  call void @_ZN4core4char7convert18from_u32_unchecked18precondition_check17h39549257abfc3570E(i32 %x) #10, !dbg !2561
  br label %bb7, !dbg !2561

bb7:                                              ; preds = %bb6
  store i32 %x, ptr %_0, align 4, !dbg !2563
  br label %bb2, !dbg !2564

bb3:                                              ; No predecessors!
  unreachable, !dbg !2533
}

; <core::option::Option<T> as core::ops::try_trait::FromResidual>::from_residual
; Function Attrs: inlinehint uwtable
define void @"_ZN84_$LT$core..option..Option$LT$T$GT$$u20$as$u20$core..ops..try_trait..FromResidual$GT$13from_residual17h363f502210e9935dE"(ptr sret(%"core::option::Option<(char, &str)>") align 8 %_0) unnamed_addr #0 !dbg !2565 {
start:
  %_1.dbg.spill = alloca %"core::option::Option<core::convert::Infallible>::None", align 1
  %residual.dbg.spill = alloca %"core::option::Option<core::convert::Infallible>::None", align 1
  call void @llvm.dbg.declare(metadata ptr %residual.dbg.spill, metadata !2586, metadata !DIExpression()), !dbg !2588
  call void @llvm.dbg.declare(metadata ptr %_1.dbg.spill, metadata !2587, metadata !DIExpression()), !dbg !2588
  store i32 1114112, ptr %_0, align 8, !dbg !2589
  ret void, !dbg !2590
}

; <core::ops::control_flow::ControlFlow<B,C> as core::cmp::PartialEq>::eq
; Function Attrs: inlinehint uwtable
define zeroext i1 @"_ZN90_$LT$core..ops..control_flow..ControlFlow$LT$B$C$C$GT$$u20$as$u20$core..cmp..PartialEq$GT$2eq17hb00eec0ff4ab8409E"(ptr align 1 %self, ptr align 1 %other) unnamed_addr #0 !dbg !2591 {
start:
  %__arg1_0.dbg.spill4 = alloca ptr, align 8
  %__self_0.dbg.spill2 = alloca ptr, align 8
  %__arg1_0.dbg.spill = alloca ptr, align 8
  %__self_0.dbg.spill = alloca ptr, align 8
  %__arg1_tag.dbg.spill = alloca i64, align 8
  %__self_tag.dbg.spill = alloca i64, align 8
  %other.dbg.spill = alloca ptr, align 8
  %self.dbg.spill = alloca ptr, align 8
  %_0 = alloca i8, align 1
  store ptr %self, ptr %self.dbg.spill, align 8
  call void @llvm.dbg.declare(metadata ptr %self.dbg.spill, metadata !2597, metadata !DIExpression()), !dbg !2610
  store ptr %other, ptr %other.dbg.spill, align 8
  call void @llvm.dbg.declare(metadata ptr %other.dbg.spill, metadata !2598, metadata !DIExpression()), !dbg !2610
  %0 = load i8, ptr %self, align 1, !dbg !2610, !range !165, !noundef !55
  %1 = trunc i8 %0 to i1, !dbg !2610
  %__self_tag = zext i1 %1 to i64, !dbg !2610
  store i64 %__self_tag, ptr %__self_tag.dbg.spill, align 8, !dbg !2610
  call void @llvm.dbg.declare(metadata ptr %__self_tag.dbg.spill, metadata !2599, metadata !DIExpression()), !dbg !2611
  %2 = load i8, ptr %other, align 1, !dbg !2611, !range !165, !noundef !55
  %3 = trunc i8 %2 to i1, !dbg !2611
  %__arg1_tag = zext i1 %3 to i64, !dbg !2611
  store i64 %__arg1_tag, ptr %__arg1_tag.dbg.spill, align 8, !dbg !2611
  call void @llvm.dbg.declare(metadata ptr %__arg1_tag.dbg.spill, metadata !2602, metadata !DIExpression()), !dbg !2612
  %_5 = icmp eq i64 %__self_tag, %__arg1_tag, !dbg !2612
  br i1 %_5, label %bb1, label %bb2, !dbg !2612

bb2:                                              ; preds = %start
  store i8 0, ptr %_0, align 1, !dbg !2612
  br label %bb7, !dbg !2612

bb1:                                              ; preds = %start
  %4 = load i8, ptr %self, align 1, !dbg !2612, !range !165, !noundef !55
  %5 = trunc i8 %4 to i1, !dbg !2612
  %_8 = zext i1 %5 to i64, !dbg !2612
  %6 = icmp eq i64 %_8, 0, !dbg !2612
  br i1 %6, label %bb3, label %bb4, !dbg !2612

bb7:                                              ; preds = %bb4, %bb3, %bb2
  %7 = load i8, ptr %_0, align 1, !dbg !2613, !range !165, !noundef !55
  %8 = trunc i8 %7 to i1, !dbg !2613
  ret i1 %8, !dbg !2613

bb3:                                              ; preds = %bb1
  %9 = load i8, ptr %other, align 1, !dbg !2612, !range !165, !noundef !55
  %10 = trunc i8 %9 to i1, !dbg !2612
  %_6 = zext i1 %10 to i64, !dbg !2612
  %_18 = icmp eq i64 %_6, 0, !dbg !2612
  %__self_0 = getelementptr inbounds i8, ptr %self, i64 1, !dbg !2614
  store ptr %__self_0, ptr %__self_0.dbg.spill, align 8, !dbg !2614
  call void @llvm.dbg.declare(metadata ptr %__self_0.dbg.spill, metadata !2604, metadata !DIExpression()), !dbg !2615
  %__arg1_0 = getelementptr inbounds i8, ptr %other, i64 1, !dbg !2614
  store ptr %__arg1_0, ptr %__arg1_0.dbg.spill, align 8, !dbg !2614
  call void @llvm.dbg.declare(metadata ptr %__arg1_0.dbg.spill, metadata !2606, metadata !DIExpression()), !dbg !2615
  %_11 = getelementptr inbounds i8, ptr %self, i64 1, !dbg !2615
  %_12 = getelementptr inbounds i8, ptr %other, i64 1, !dbg !2615
; call core::cmp::impls::<impl core::cmp::PartialEq for ()>::eq
  %11 = call zeroext i1 @"_ZN4core3cmp5impls59_$LT$impl$u20$core..cmp..PartialEq$u20$for$u20$$LP$$RP$$GT$2eq17h6722ea997b1ffd63E"(ptr align 1 %_11, ptr align 1 %_12), !dbg !2615
  %12 = zext i1 %11 to i8, !dbg !2615
  store i8 %12, ptr %_0, align 1, !dbg !2615
  br label %bb7, !dbg !2616

bb4:                                              ; preds = %bb1
  %13 = load i8, ptr %other, align 1, !dbg !2612, !range !165, !noundef !55
  %14 = trunc i8 %13 to i1, !dbg !2612
  %_7 = zext i1 %14 to i64, !dbg !2612
  %_17 = icmp eq i64 %_7, 1, !dbg !2612
  %__self_01 = getelementptr inbounds i8, ptr %self, i64 1, !dbg !2617
  store ptr %__self_01, ptr %__self_0.dbg.spill2, align 8, !dbg !2617
  call void @llvm.dbg.declare(metadata ptr %__self_0.dbg.spill2, metadata !2607, metadata !DIExpression()), !dbg !2618
  %__arg1_03 = getelementptr inbounds i8, ptr %other, i64 1, !dbg !2617
  store ptr %__arg1_03, ptr %__arg1_0.dbg.spill4, align 8, !dbg !2617
  call void @llvm.dbg.declare(metadata ptr %__arg1_0.dbg.spill4, metadata !2609, metadata !DIExpression()), !dbg !2618
  %_15 = getelementptr inbounds i8, ptr %self, i64 1, !dbg !2618
  %_16 = getelementptr inbounds i8, ptr %other, i64 1, !dbg !2618
; call core::cmp::impls::<impl core::cmp::PartialEq for ()>::eq
  %15 = call zeroext i1 @"_ZN4core3cmp5impls59_$LT$impl$u20$core..cmp..PartialEq$u20$for$u20$$LP$$RP$$GT$2eq17h6722ea997b1ffd63E"(ptr align 1 %_15, ptr align 1 %_16), !dbg !2618
  %16 = zext i1 %15 to i8, !dbg !2618
  store i8 %16, ptr %_0, align 1, !dbg !2618
  br label %bb7, !dbg !2616

bb8:                                              ; No predecessors!
  unreachable, !dbg !2610
}

; <core::slice::iter::Iter<T> as core::iter::traits::iterator::Iterator>::next
; Function Attrs: inlinehint uwtable
define align 1 ptr @"_ZN91_$LT$core..slice..iter..Iter$LT$T$GT$$u20$as$u20$core..iter..traits..iterator..Iterator$GT$4next17h56d6f9086c2ae795E"(ptr align 8 %self) unnamed_addr #0 !dbg !2619 {
start:
  %self.dbg.spill22 = alloca ptr, align 8
  %self.dbg.spill21 = alloca ptr, align 8
  %self.dbg.spill19 = alloca ptr, align 8
  %self.dbg.spill18 = alloca i64, align 8
  %len.dbg.spill16 = alloca ptr, align 8
  %self.dbg.spill15 = alloca ptr, align 8
  %self.dbg.spill13 = alloca ptr, align 8
  %_end.dbg.spill = alloca ptr, align 8
  %self.dbg.spill11 = alloca ptr, align 8
  %len.dbg.spill = alloca i64, align 8
  %self.dbg.spill9 = alloca ptr, align 8
  %self.dbg.spill7 = alloca ptr, align 8
  %self.dbg.spill5 = alloca ptr, align 8
  %other.dbg.spill = alloca ptr, align 8
  %self.dbg.spill3 = alloca ptr, align 8
  %self.dbg.spill2 = alloca ptr, align 8
  %self.dbg.spill = alloca ptr, align 8
  %_28 = alloca ptr, align 8
  %old = alloca ptr, align 8
  %end = alloca ptr, align 8
  %_2 = alloca i8, align 1
  %_0 = alloca ptr, align 8
  %count.dbg.spill = alloca i64, align 8
  %rhs.dbg.spill = alloca i64, align 8
  %offset.dbg.spill = alloca i64, align 8
  store i64 1, ptr %offset.dbg.spill, align 8, !dbg !2628
  call void @llvm.dbg.declare(metadata ptr %offset.dbg.spill, metadata !2636, metadata !DIExpression()), !dbg !2628
  store i64 1, ptr %rhs.dbg.spill, align 8, !dbg !2646
  call void @llvm.dbg.declare(metadata ptr %rhs.dbg.spill, metadata !2652, metadata !DIExpression()), !dbg !2646
  store i64 1, ptr %count.dbg.spill, align 8, !dbg !2654
  call void @llvm.dbg.declare(metadata ptr %count.dbg.spill, metadata !2662, metadata !DIExpression()), !dbg !2654
  store ptr %self, ptr %self.dbg.spill, align 8, !dbg !2654
  call void @llvm.dbg.declare(metadata ptr %self.dbg.spill, metadata !2623, metadata !DIExpression()), !dbg !2664
  call void @llvm.dbg.declare(metadata ptr %self.dbg.spill, metadata !2635, metadata !DIExpression()), !dbg !2665
  call void @llvm.dbg.declare(metadata ptr %end, metadata !2626, metadata !DIExpression()), !dbg !2666
  call void @llvm.dbg.declare(metadata ptr %old, metadata !2637, metadata !DIExpression()), !dbg !2667
  br label %bb2, !dbg !2668

bb2:                                              ; preds = %start
  %self1 = getelementptr inbounds i8, ptr %self, i64 8, !dbg !2668
  store ptr %self1, ptr %self.dbg.spill2, align 8, !dbg !2668
  call void @llvm.dbg.declare(metadata ptr %self.dbg.spill2, metadata !2669, metadata !DIExpression()), !dbg !2673
  %0 = load ptr, ptr %self1, align 8, !dbg !2668, !nonnull !55, !noundef !55
  store ptr %0, ptr %end, align 8, !dbg !2668
  store ptr %self, ptr %self.dbg.spill3, align 8, !dbg !2666
  call void @llvm.dbg.declare(metadata ptr %self.dbg.spill3, metadata !2675, metadata !DIExpression()), !dbg !2684
  store ptr %end, ptr %other.dbg.spill, align 8, !dbg !2666
  call void @llvm.dbg.declare(metadata ptr %other.dbg.spill, metadata !2683, metadata !DIExpression()), !dbg !2686
  %self4 = load ptr, ptr %self, align 8, !dbg !2687, !nonnull !55, !noundef !55
  store ptr %self4, ptr %self.dbg.spill5, align 8, !dbg !2687
  call void @llvm.dbg.declare(metadata ptr %self.dbg.spill5, metadata !2688, metadata !DIExpression()), !dbg !2696
  %self6 = load ptr, ptr %end, align 8, !dbg !2698, !nonnull !55, !noundef !55
  store ptr %self6, ptr %self.dbg.spill7, align 8, !dbg !2698
  call void @llvm.dbg.declare(metadata ptr %self.dbg.spill7, metadata !2692, metadata !DIExpression()), !dbg !2699
  %1 = icmp eq ptr %self4, %self6, !dbg !2687
  %2 = zext i1 %1 to i8, !dbg !2687
  store i8 %2, ptr %_2, align 1, !dbg !2687
  br label %bb3, !dbg !2668

bb3:                                              ; preds = %bb1, %bb2
  %3 = load i8, ptr %_2, align 1, !dbg !2668, !range !165, !noundef !55
  %4 = trunc i8 %3 to i1, !dbg !2668
  br i1 %4, label %bb4, label %bb5, !dbg !2668

bb1:                                              ; No predecessors!
  %5 = getelementptr inbounds i8, ptr %self, i64 8, !dbg !2668
  %self8 = load ptr, ptr %5, align 8, !dbg !2668, !noundef !55
  store ptr %self8, ptr %self.dbg.spill9, align 8, !dbg !2668
  call void @llvm.dbg.declare(metadata ptr %self.dbg.spill9, metadata !2701, metadata !DIExpression()), !dbg !2705
  call void @llvm.dbg.declare(metadata ptr %self.dbg.spill9, metadata !2707, metadata !DIExpression()), !dbg !2711
  %len = ptrtoint ptr %self8 to i64, !dbg !2713
  store i64 %len, ptr %len.dbg.spill, align 8, !dbg !2713
  call void @llvm.dbg.declare(metadata ptr %len.dbg.spill, metadata !2624, metadata !DIExpression()), !dbg !2714
  %6 = icmp eq i64 %len, 0, !dbg !2714
  %7 = zext i1 %6 to i8, !dbg !2714
  store i8 %7, ptr %_2, align 1, !dbg !2714
  br label %bb3, !dbg !2668

bb5:                                              ; preds = %bb3
  %8 = load ptr, ptr %self, align 8, !dbg !2715, !nonnull !55, !noundef !55
  store ptr %8, ptr %old, align 8, !dbg !2715
  br label %bb8, !dbg !2716

bb4:                                              ; preds = %bb3
  store ptr null, ptr %_0, align 8, !dbg !2717
  br label %bb6, !dbg !2718

bb8:                                              ; preds = %bb5
  %self10 = getelementptr inbounds i8, ptr %self, i64 8, !dbg !2716
  store ptr %self10, ptr %self.dbg.spill11, align 8, !dbg !2716
  call void @llvm.dbg.declare(metadata ptr %self.dbg.spill11, metadata !2719, metadata !DIExpression()), !dbg !2726
  store ptr %self10, ptr %_end.dbg.spill, align 8, !dbg !2728
  call void @llvm.dbg.declare(metadata ptr %_end.dbg.spill, metadata !2642, metadata !DIExpression()), !dbg !2729
  %self12 = load ptr, ptr %self, align 8, !dbg !2730, !nonnull !55, !noundef !55
  store ptr %self12, ptr %self.dbg.spill13, align 8, !dbg !2730
  call void @llvm.dbg.declare(metadata ptr %self.dbg.spill13, metadata !2661, metadata !DIExpression()), !dbg !2731
  %_30 = getelementptr inbounds i8, ptr %self12, i64 1, !dbg !2732
  store ptr %_30, ptr %_28, align 8, !dbg !2733
  %9 = load ptr, ptr %_28, align 8, !dbg !2734, !nonnull !55, !noundef !55
  store ptr %9, ptr %self, align 8, !dbg !2734
  br label %bb9, !dbg !2716

bb9:                                              ; preds = %bb7, %bb8
  store ptr %old, ptr %self.dbg.spill19, align 8, !dbg !2735
  call void @llvm.dbg.declare(metadata ptr %self.dbg.spill19, metadata !2736, metadata !DIExpression()), !dbg !2743
  %self20 = load ptr, ptr %old, align 8, !dbg !2745, !nonnull !55, !noundef !55
  store ptr %self20, ptr %self.dbg.spill21, align 8, !dbg !2745
  call void @llvm.dbg.declare(metadata ptr %self.dbg.spill21, metadata !2694, metadata !DIExpression()), !dbg !2746
  store ptr %self20, ptr %self.dbg.spill22, align 8, !dbg !2748
  call void @llvm.dbg.declare(metadata ptr %self.dbg.spill22, metadata !2749, metadata !DIExpression()), !dbg !2755
  store ptr %self20, ptr %_0, align 8, !dbg !2757
  br label %bb6, !dbg !2718

bb7:                                              ; No predecessors!
  %self14 = getelementptr inbounds i8, ptr %self, i64 8, !dbg !2716
  store ptr %self14, ptr %self.dbg.spill15, align 8, !dbg !2716
  call void @llvm.dbg.declare(metadata ptr %self.dbg.spill15, metadata !2758, metadata !DIExpression()), !dbg !2766
  store ptr %self14, ptr %len.dbg.spill16, align 8, !dbg !2768
  call void @llvm.dbg.declare(metadata ptr %len.dbg.spill16, metadata !2639, metadata !DIExpression()), !dbg !2769
  %self17 = load i64, ptr %self14, align 8, !dbg !2770, !noundef !55
  store i64 %self17, ptr %self.dbg.spill18, align 8, !dbg !2770
  call void @llvm.dbg.declare(metadata ptr %self.dbg.spill18, metadata !2651, metadata !DIExpression()), !dbg !2646
  %_24 = sub nuw i64 %self17, 1, !dbg !2646
  store i64 %_24, ptr %self14, align 8, !dbg !2771
  br label %bb9, !dbg !2716

bb6:                                              ; preds = %bb4, %bb9
  %10 = load ptr, ptr %_0, align 8, !dbg !2772, !align !932, !noundef !55
  ret ptr %10, !dbg !2772
}

; <core::slice::iter::Iter<T> as core::iter::traits::iterator::Iterator>::size_hint
; Function Attrs: inlinehint uwtable
define void @"_ZN91_$LT$core..slice..iter..Iter$LT$T$GT$$u20$as$u20$core..iter..traits..iterator..Iterator$GT$9size_hint17h4edd89f6a1278541E"(ptr sret({ i64, %"core::option::Option<usize>" }) align 8 %_0, ptr align 8 %self) unnamed_addr #0 !dbg !2773 {
start:
  %len.dbg.spill = alloca i64, align 8
  %self.dbg.spill4 = alloca ptr, align 8
  %subtracted.dbg.spill = alloca ptr, align 8
  %end.dbg.spill = alloca ptr, align 8
  %self.dbg.spill2 = alloca ptr, align 8
  %self.dbg.spill = alloca ptr, align 8
  %_11 = alloca %"core::option::Option<usize>", align 8
  %exact = alloca i64, align 8
  store ptr %self, ptr %self.dbg.spill, align 8
  call void @llvm.dbg.declare(metadata ptr %self.dbg.spill, metadata !2777, metadata !DIExpression()), !dbg !2784
  call void @llvm.dbg.declare(metadata ptr %exact, metadata !2778, metadata !DIExpression()), !dbg !2785
  br label %bb2, !dbg !2786

bb2:                                              ; preds = %start
  %self1 = getelementptr inbounds i8, ptr %self, i64 8, !dbg !2786
  store ptr %self1, ptr %self.dbg.spill2, align 8, !dbg !2786
  call void @llvm.dbg.declare(metadata ptr %self.dbg.spill2, metadata !2787, metadata !DIExpression()), !dbg !2791
  %end = load ptr, ptr %self1, align 8, !dbg !2786, !nonnull !55, !noundef !55
  store ptr %end, ptr %end.dbg.spill, align 8, !dbg !2786
  call void @llvm.dbg.declare(metadata ptr %end.dbg.spill, metadata !2782, metadata !DIExpression()), !dbg !2793
  call void @llvm.dbg.declare(metadata ptr %end.dbg.spill, metadata !2794, metadata !DIExpression()), !dbg !2799
  %subtracted = load ptr, ptr %self, align 8, !dbg !2793, !nonnull !55, !noundef !55
  store ptr %subtracted, ptr %subtracted.dbg.spill, align 8, !dbg !2793
  call void @llvm.dbg.declare(metadata ptr %subtracted.dbg.spill, metadata !2798, metadata !DIExpression()), !dbg !2801
; call core::ptr::const_ptr::<impl *const T>::sub_ptr
  %0 = call i64 @"_ZN4core3ptr9const_ptr33_$LT$impl$u20$$BP$const$u20$T$GT$7sub_ptr17hbb3a3500ba564048E"(ptr %end, ptr %subtracted), !dbg !2802
  store i64 %0, ptr %exact, align 8, !dbg !2802
  br label %bb3, !dbg !2786

bb3:                                              ; preds = %bb1, %bb2
  %_10 = load i64, ptr %exact, align 8, !dbg !2803, !noundef !55
  %_12 = load i64, ptr %exact, align 8, !dbg !2804, !noundef !55
  %1 = getelementptr inbounds i8, ptr %_11, i64 8, !dbg !2805
  store i64 %_12, ptr %1, align 8, !dbg !2805
  store i64 1, ptr %_11, align 8, !dbg !2805
  store i64 %_10, ptr %_0, align 8, !dbg !2806
  %2 = load i64, ptr %_11, align 8, !dbg !2806, !range !2807, !noundef !55
  %3 = getelementptr inbounds i8, ptr %_11, i64 8, !dbg !2806
  %4 = load i64, ptr %3, align 8, !dbg !2806
  %5 = getelementptr inbounds i8, ptr %_0, i64 8, !dbg !2806
  store i64 %2, ptr %5, align 8, !dbg !2806
  %6 = getelementptr inbounds i8, ptr %5, i64 8, !dbg !2806
  store i64 %4, ptr %6, align 8, !dbg !2806
  ret void, !dbg !2808

bb1:                                              ; No predecessors!
  %7 = getelementptr inbounds i8, ptr %self, i64 8, !dbg !2786
  %self3 = load ptr, ptr %7, align 8, !dbg !2786, !noundef !55
  store ptr %self3, ptr %self.dbg.spill4, align 8, !dbg !2786
  call void @llvm.dbg.declare(metadata ptr %self.dbg.spill4, metadata !2809, metadata !DIExpression()), !dbg !2813
  call void @llvm.dbg.declare(metadata ptr %self.dbg.spill4, metadata !2815, metadata !DIExpression()), !dbg !2819
  %len = ptrtoint ptr %self3 to i64, !dbg !2821
  store i64 %len, ptr %len.dbg.spill, align 8, !dbg !2821
  call void @llvm.dbg.declare(metadata ptr %len.dbg.spill, metadata !2780, metadata !DIExpression()), !dbg !2822
  store i64 %len, ptr %exact, align 8, !dbg !2822
  br label %bb3, !dbg !2786
}

; <core::ops::control_flow::ControlFlow<B,C> as core::ops::try_trait::Try>::from_output
; Function Attrs: inlinehint uwtable
define zeroext i1 @"_ZN95_$LT$core..ops..control_flow..ControlFlow$LT$B$C$C$GT$$u20$as$u20$core..ops..try_trait..Try$GT$11from_output17h3c900882cf7bfc8eE"() unnamed_addr #0 !dbg !2823 {
start:
  %output.dbg.spill = alloca {}, align 1
  %_0 = alloca i8, align 1
  call void @llvm.dbg.declare(metadata ptr %output.dbg.spill, metadata !2828, metadata !DIExpression()), !dbg !2829
  store i8 0, ptr %_0, align 1, !dbg !2830
  %0 = load i8, ptr %_0, align 1, !dbg !2831, !range !165, !noundef !55
  %1 = trunc i8 %0 to i1, !dbg !2831
  ret i1 %1, !dbg !2831
}

; <core::ops::control_flow::ControlFlow<B,C> as core::ops::try_trait::Try>::branch
; Function Attrs: inlinehint uwtable
define zeroext i1 @"_ZN95_$LT$core..ops..control_flow..ControlFlow$LT$B$C$C$GT$$u20$as$u20$core..ops..try_trait..Try$GT$6branch17h3ca0a4328c940d0bE"(i1 zeroext %0) unnamed_addr #0 !dbg !2832 {
start:
  %b.dbg.spill = alloca {}, align 1
  %c.dbg.spill = alloca {}, align 1
  %_0 = alloca i8, align 1
  %self = alloca i8, align 1
  %1 = zext i1 %0 to i8
  store i8 %1, ptr %self, align 1
  call void @llvm.dbg.declare(metadata ptr %self, metadata !2851, metadata !DIExpression()), !dbg !2856
  call void @llvm.dbg.declare(metadata ptr %c.dbg.spill, metadata !2852, metadata !DIExpression()), !dbg !2857
  call void @llvm.dbg.declare(metadata ptr %b.dbg.spill, metadata !2854, metadata !DIExpression()), !dbg !2858
  %2 = load i8, ptr %self, align 1, !dbg !2859, !range !165, !noundef !55
  %3 = trunc i8 %2 to i1, !dbg !2859
  %_2 = zext i1 %3 to i64, !dbg !2859
  %4 = icmp eq i64 %_2, 0, !dbg !2860
  br i1 %4, label %bb3, label %bb2, !dbg !2860

bb3:                                              ; preds = %start
  store i8 0, ptr %_0, align 1, !dbg !2861
  br label %bb4, !dbg !2862

bb2:                                              ; preds = %start
  store i8 1, ptr %_0, align 1, !dbg !2863
  br label %bb4, !dbg !2864

bb4:                                              ; preds = %bb2, %bb3
  %5 = load i8, ptr %_0, align 1, !dbg !2865, !range !165, !noundef !55
  %6 = trunc i8 %5 to i1, !dbg !2865
  ret i1 %6, !dbg !2865

bb1:                                              ; No predecessors!
  unreachable, !dbg !2859
}

; num_traits::float::integer_decode_f32
; Function Attrs: uwtable
define void @_ZN10num_traits5float18integer_decode_f3217h23aedeb834cd063dE(ptr sret({ i64, i16, i8, [5 x i8] }) align 8 %_0, float %f) unnamed_addr #1 !dbg !2866 {
start:
  %bits.dbg.spill = alloca i32, align 4
  %f.dbg.spill = alloca float, align 4
  %mantissa = alloca i32, align 4
  %exponent = alloca i16, align 2
  %sign = alloca i8, align 1
  store float %f, ptr %f.dbg.spill, align 4
  call void @llvm.dbg.declare(metadata ptr %f.dbg.spill, metadata !2878, metadata !DIExpression()), !dbg !2887
  call void @llvm.dbg.declare(metadata ptr %sign, metadata !2881, metadata !DIExpression()), !dbg !2888
  call void @llvm.dbg.declare(metadata ptr %exponent, metadata !2883, metadata !DIExpression()), !dbg !2889
  call void @llvm.dbg.declare(metadata ptr %mantissa, metadata !2885, metadata !DIExpression()), !dbg !2890
; call core::f32::<impl f32>::to_bits
  %bits = call i32 @"_ZN4core3f3221_$LT$impl$u20$f32$GT$7to_bits17h0d3c10f6775efbd5E"(float %f), !dbg !2891
  store i32 %bits, ptr %bits.dbg.spill, align 4, !dbg !2891
  call void @llvm.dbg.declare(metadata ptr %bits.dbg.spill, metadata !2879, metadata !DIExpression()), !dbg !2892
  %_4 = lshr i32 %bits, 31, !dbg !2893
  %0 = icmp eq i32 %_4, 0, !dbg !2893
  br i1 %0, label %bb3, label %bb4, !dbg !2893

bb3:                                              ; preds = %start
  store i8 1, ptr %sign, align 1, !dbg !2894
  br label %bb5, !dbg !2895

bb4:                                              ; preds = %start
  store i8 -1, ptr %sign, align 1, !dbg !2896
  br label %bb5, !dbg !2895

bb5:                                              ; preds = %bb4, %bb3
  %_9 = lshr i32 %bits, 23, !dbg !2897
  %_8 = and i32 %_9, 255, !dbg !2898
  %1 = trunc i32 %_8 to i16, !dbg !2898
  store i16 %1, ptr %exponent, align 2, !dbg !2898
  %_13 = load i16, ptr %exponent, align 2, !dbg !2899, !noundef !55
  %2 = icmp eq i16 %_13, 0, !dbg !2899
  br i1 %2, label %bb7, label %bb9, !dbg !2899

bb7:                                              ; preds = %bb5
  %_14 = and i32 %bits, 8388607, !dbg !2900
  %3 = shl i32 %_14, 1, !dbg !2900
  store i32 %3, ptr %mantissa, align 4, !dbg !2900
  br label %bb10, !dbg !2901

bb9:                                              ; preds = %bb5
  %_17 = and i32 %bits, 8388607, !dbg !2902
  %4 = or i32 %_17, 8388608, !dbg !2902
  store i32 %4, ptr %mantissa, align 4, !dbg !2902
  br label %bb10, !dbg !2901

bb10:                                             ; preds = %bb9, %bb7
  %5 = call { i16, i1 } @llvm.sadd.with.overflow.i16(i16 127, i16 23), !dbg !2903
  %_19.0 = extractvalue { i16, i1 } %5, 0, !dbg !2903
  %_19.1 = extractvalue { i16, i1 } %5, 1, !dbg !2903
  %6 = call i1 @llvm.expect.i1(i1 %_19.1, i1 false), !dbg !2903
  br i1 %6, label %panic, label %bb11, !dbg !2903

bb11:                                             ; preds = %bb10
  %7 = load i16, ptr %exponent, align 2, !dbg !2904, !noundef !55
  %8 = call { i16, i1 } @llvm.ssub.with.overflow.i16(i16 %7, i16 %_19.0), !dbg !2904
  %_20.0 = extractvalue { i16, i1 } %8, 0, !dbg !2904
  %_20.1 = extractvalue { i16, i1 } %8, 1, !dbg !2904
  %9 = call i1 @llvm.expect.i1(i1 %_20.1, i1 false), !dbg !2904
  br i1 %9, label %panic1, label %bb12, !dbg !2904

panic:                                            ; preds = %bb10
; call core::panicking::panic
  call void @_ZN4core9panicking5panic17h5884aad3a9044857E(ptr align 1 @str.0, i64 28, ptr align 8 @alloc_9b101f089775dd27207f14dd59a3d85e) #9, !dbg !2903
  unreachable, !dbg !2903

bb12:                                             ; preds = %bb11
  store i16 %_20.0, ptr %exponent, align 2, !dbg !2904
  %_22 = load i32, ptr %mantissa, align 4, !dbg !2905, !noundef !55
  %_21 = zext i32 %_22 to i64, !dbg !2905
  %_23 = load i16, ptr %exponent, align 2, !dbg !2906, !noundef !55
  %_24 = load i8, ptr %sign, align 1, !dbg !2907, !noundef !55
  store i64 %_21, ptr %_0, align 8, !dbg !2908
  %10 = getelementptr inbounds i8, ptr %_0, i64 8, !dbg !2908
  store i16 %_23, ptr %10, align 8, !dbg !2908
  %11 = getelementptr inbounds i8, ptr %_0, i64 10, !dbg !2908
  store i8 %_24, ptr %11, align 2, !dbg !2908
  ret void, !dbg !2909

panic1:                                           ; preds = %bb11
; call core::panicking::panic
  call void @_ZN4core9panicking5panic17h5884aad3a9044857E(ptr align 1 @str.2, i64 33, ptr align 8 @alloc_912f6a9565033a07dc52003ec600fe58) #9, !dbg !2904
  unreachable, !dbg !2904
}

; num_traits::float::integer_decode_f64
; Function Attrs: uwtable
define void @_ZN10num_traits5float18integer_decode_f6417h89f4262eb3a42650E(ptr sret({ i64, i16, i8, [5 x i8] }) align 8 %_0, double %f) unnamed_addr #1 !dbg !2910 {
start:
  %bits.dbg.spill = alloca i64, align 8
  %f.dbg.spill = alloca double, align 8
  %mantissa = alloca i64, align 8
  %exponent = alloca i16, align 2
  %sign = alloca i8, align 1
  store double %f, ptr %f.dbg.spill, align 8
  call void @llvm.dbg.declare(metadata ptr %f.dbg.spill, metadata !2914, metadata !DIExpression()), !dbg !2923
  call void @llvm.dbg.declare(metadata ptr %sign, metadata !2917, metadata !DIExpression()), !dbg !2924
  call void @llvm.dbg.declare(metadata ptr %exponent, metadata !2919, metadata !DIExpression()), !dbg !2925
  call void @llvm.dbg.declare(metadata ptr %mantissa, metadata !2921, metadata !DIExpression()), !dbg !2926
; call core::f64::<impl f64>::to_bits
  %bits = call i64 @"_ZN4core3f6421_$LT$impl$u20$f64$GT$7to_bits17hc1aec7bdaa1f3ca0E"(double %f), !dbg !2927
  store i64 %bits, ptr %bits.dbg.spill, align 8, !dbg !2927
  call void @llvm.dbg.declare(metadata ptr %bits.dbg.spill, metadata !2915, metadata !DIExpression()), !dbg !2928
  %_4 = lshr i64 %bits, 63, !dbg !2929
  %0 = icmp eq i64 %_4, 0, !dbg !2929
  br i1 %0, label %bb3, label %bb4, !dbg !2929

bb3:                                              ; preds = %start
  store i8 1, ptr %sign, align 1, !dbg !2930
  br label %bb5, !dbg !2931

bb4:                                              ; preds = %start
  store i8 -1, ptr %sign, align 1, !dbg !2932
  br label %bb5, !dbg !2931

bb5:                                              ; preds = %bb4, %bb3
  %_9 = lshr i64 %bits, 52, !dbg !2933
  %_8 = and i64 %_9, 2047, !dbg !2934
  %1 = trunc i64 %_8 to i16, !dbg !2934
  store i16 %1, ptr %exponent, align 2, !dbg !2934
  %_13 = load i16, ptr %exponent, align 2, !dbg !2935, !noundef !55
  %2 = icmp eq i16 %_13, 0, !dbg !2935
  br i1 %2, label %bb7, label %bb9, !dbg !2935

bb7:                                              ; preds = %bb5
  %_14 = and i64 %bits, 4503599627370495, !dbg !2936
  %3 = shl i64 %_14, 1, !dbg !2936
  store i64 %3, ptr %mantissa, align 8, !dbg !2936
  br label %bb10, !dbg !2937

bb9:                                              ; preds = %bb5
  %_17 = and i64 %bits, 4503599627370495, !dbg !2938
  %4 = or i64 %_17, 4503599627370496, !dbg !2938
  store i64 %4, ptr %mantissa, align 8, !dbg !2938
  br label %bb10, !dbg !2937

bb10:                                             ; preds = %bb9, %bb7
  %5 = call { i16, i1 } @llvm.sadd.with.overflow.i16(i16 1023, i16 52), !dbg !2939
  %_19.0 = extractvalue { i16, i1 } %5, 0, !dbg !2939
  %_19.1 = extractvalue { i16, i1 } %5, 1, !dbg !2939
  %6 = call i1 @llvm.expect.i1(i1 %_19.1, i1 false), !dbg !2939
  br i1 %6, label %panic, label %bb11, !dbg !2939

bb11:                                             ; preds = %bb10
  %7 = load i16, ptr %exponent, align 2, !dbg !2940, !noundef !55
  %8 = call { i16, i1 } @llvm.ssub.with.overflow.i16(i16 %7, i16 %_19.0), !dbg !2940
  %_20.0 = extractvalue { i16, i1 } %8, 0, !dbg !2940
  %_20.1 = extractvalue { i16, i1 } %8, 1, !dbg !2940
  %9 = call i1 @llvm.expect.i1(i1 %_20.1, i1 false), !dbg !2940
  br i1 %9, label %panic1, label %bb12, !dbg !2940

panic:                                            ; preds = %bb10
; call core::panicking::panic
  call void @_ZN4core9panicking5panic17h5884aad3a9044857E(ptr align 1 @str.0, i64 28, ptr align 8 @alloc_dbd8a743cd5c4fd9d9ae5ab6224bd476) #9, !dbg !2939
  unreachable, !dbg !2939

bb12:                                             ; preds = %bb11
  store i16 %_20.0, ptr %exponent, align 2, !dbg !2940
  %_21 = load i64, ptr %mantissa, align 8, !dbg !2941, !noundef !55
  %_22 = load i16, ptr %exponent, align 2, !dbg !2942, !noundef !55
  %_23 = load i8, ptr %sign, align 1, !dbg !2943, !noundef !55
  store i64 %_21, ptr %_0, align 8, !dbg !2944
  %10 = getelementptr inbounds i8, ptr %_0, i64 8, !dbg !2944
  store i16 %_22, ptr %10, align 8, !dbg !2944
  %11 = getelementptr inbounds i8, ptr %_0, i64 10, !dbg !2944
  store i8 %_23, ptr %11, align 2, !dbg !2944
  ret void, !dbg !2945

panic1:                                           ; preds = %bb11
; call core::panicking::panic
  call void @_ZN4core9panicking5panic17h5884aad3a9044857E(ptr align 1 @str.2, i64 33, ptr align 8 @alloc_be27ad36952da62162d24501a0362817) #9, !dbg !2940
  unreachable, !dbg !2940
}

; <num_traits::ParseFloatError as core::fmt::Display>::fmt
; Function Attrs: uwtable
define zeroext i1 @"_ZN66_$LT$num_traits..ParseFloatError$u20$as$u20$core..fmt..Display$GT$3fmt17hf0060c97000e744bE"(ptr align 1 %self, ptr align 8 %f) unnamed_addr #1 !dbg !2946 {
start:
  %f.dbg.spill = alloca ptr, align 8
  %self.dbg.spill = alloca ptr, align 8
  %description = alloca { ptr, i64 }, align 8
  store ptr %self, ptr %self.dbg.spill, align 8
  call void @llvm.dbg.declare(metadata ptr %self.dbg.spill, metadata !2952, metadata !DIExpression()), !dbg !2956
  store ptr %f, ptr %f.dbg.spill, align 8
  call void @llvm.dbg.declare(metadata ptr %f.dbg.spill, metadata !2953, metadata !DIExpression()), !dbg !2957
  call void @llvm.dbg.declare(metadata ptr %description, metadata !2954, metadata !DIExpression()), !dbg !2958
  %0 = load i8, ptr %self, align 1, !dbg !2959, !range !165, !noundef !55
  %1 = trunc i8 %0 to i1, !dbg !2959
  %_4 = zext i1 %1 to i64, !dbg !2959
  %2 = icmp eq i64 %_4, 0, !dbg !2960
  br i1 %2, label %bb3, label %bb2, !dbg !2960

bb3:                                              ; preds = %start
  store ptr @alloc_5a9fc3a985c53716860b99bd30ab67d1, ptr %description, align 8, !dbg !2961
  %3 = getelementptr inbounds i8, ptr %description, i64 8, !dbg !2961
  store i64 36, ptr %3, align 8, !dbg !2961
  br label %bb4, !dbg !2961

bb2:                                              ; preds = %start
  store ptr @alloc_daada04787e8fdd3808aeb6c6c60d6f6, ptr %description, align 8, !dbg !2962
  %4 = getelementptr inbounds i8, ptr %description, i64 8, !dbg !2962
  store i64 21, ptr %4, align 8, !dbg !2962
  br label %bb4, !dbg !2963

bb4:                                              ; preds = %bb2, %bb3
  %_6.0 = load ptr, ptr %description, align 8, !dbg !2964, !nonnull !55, !align !932, !noundef !55
  %5 = getelementptr inbounds i8, ptr %description, i64 8, !dbg !2964
  %_6.1 = load i64, ptr %5, align 8, !dbg !2964, !noundef !55
; call <str as core::fmt::Display>::fmt
  %_0 = call zeroext i1 @"_ZN42_$LT$str$u20$as$u20$core..fmt..Display$GT$3fmt17h50d95ecc07d0417eE"(ptr align 1 %_6.0, i64 %_6.1, ptr align 8 %f), !dbg !2964
  ret i1 %_0, !dbg !2965

bb1:                                              ; No predecessors!
  unreachable, !dbg !2959
}

; num_traits::str_to_ascii_lower_eq_str
; Function Attrs: uwtable
define internal zeroext i1 @_ZN10num_traits25str_to_ascii_lower_eq_str17h84c55ba8c3732f5eE(ptr align 1 %a.0, i64 %a.1, ptr align 1 %b.0, i64 %b.1) unnamed_addr #1 !dbg !2966 {
start:
  %b.dbg.spill = alloca { ptr, i64 }, align 8
  %a.dbg.spill = alloca { ptr, i64 }, align 8
  %_7 = alloca %"core::iter::adapters::zip::Zip<core::str::iter::Bytes<'_>, core::str::iter::Bytes<'_>>", align 8
  %_0 = alloca i8, align 1
  store ptr %a.0, ptr %a.dbg.spill, align 8
  %0 = getelementptr inbounds i8, ptr %a.dbg.spill, i64 8
  store i64 %a.1, ptr %0, align 8
  call void @llvm.dbg.declare(metadata ptr %a.dbg.spill, metadata !2968, metadata !DIExpression()), !dbg !2970
  store ptr %b.0, ptr %b.dbg.spill, align 8
  %1 = getelementptr inbounds i8, ptr %b.dbg.spill, i64 8
  store i64 %b.1, ptr %1, align 8
  call void @llvm.dbg.declare(metadata ptr %b.dbg.spill, metadata !2969, metadata !DIExpression()), !dbg !2971
; call core::str::<impl str>::len
  %_4 = call i64 @"_ZN4core3str21_$LT$impl$u20$str$GT$3len17h897bb717d6e44c83E"(ptr align 1 %a.0, i64 %a.1), !dbg !2972
; call core::str::<impl str>::len
  %_5 = call i64 @"_ZN4core3str21_$LT$impl$u20$str$GT$3len17h897bb717d6e44c83E"(ptr align 1 %b.0, i64 %b.1), !dbg !2973
  %_3 = icmp eq i64 %_4, %_5, !dbg !2972
  br i1 %_3, label %bb3, label %bb4, !dbg !2972

bb4:                                              ; preds = %start
  store i8 0, ptr %_0, align 1, !dbg !2972
  br label %bb8, !dbg !2972

bb3:                                              ; preds = %start
; call core::str::<impl str>::bytes
  %2 = call { ptr, ptr } @"_ZN4core3str21_$LT$impl$u20$str$GT$5bytes17hf31d42c1483da300E"(ptr align 1 %a.0, i64 %a.1), !dbg !2974
  %_8.0 = extractvalue { ptr, ptr } %2, 0, !dbg !2974
  %_8.1 = extractvalue { ptr, ptr } %2, 1, !dbg !2974
; call core::str::<impl str>::bytes
  %3 = call { ptr, ptr } @"_ZN4core3str21_$LT$impl$u20$str$GT$5bytes17hf31d42c1483da300E"(ptr align 1 %b.0, i64 %b.1), !dbg !2975
  %_9.0 = extractvalue { ptr, ptr } %3, 0, !dbg !2975
  %_9.1 = extractvalue { ptr, ptr } %3, 1, !dbg !2975
; call core::iter::traits::iterator::Iterator::zip
  call void @_ZN4core4iter6traits8iterator8Iterator3zip17he18b927dc4613051E(ptr sret(%"core::iter::adapters::zip::Zip<core::str::iter::Bytes<'_>, core::str::iter::Bytes<'_>>") align 8 %_7, ptr %_8.0, ptr %_8.1, ptr %_9.0, ptr %_9.1), !dbg !2974
; call core::iter::traits::iterator::Iterator::all
  %4 = call zeroext i1 @_ZN4core4iter6traits8iterator8Iterator3all17h31c20117be66035bE(ptr align 8 %_7), !dbg !2974
  %5 = zext i1 %4 to i8, !dbg !2974
  store i8 %5, ptr %_0, align 1, !dbg !2974
  br label %bb8, !dbg !2974

bb8:                                              ; preds = %bb3, %bb4
  %6 = load i8, ptr %_0, align 1, !dbg !2976, !range !165, !noundef !55
  %7 = trunc i8 %6 to i1, !dbg !2976
  ret i1 %7, !dbg !2976
}

; num_traits::str_to_ascii_lower_eq_str::{{closure}}
; Function Attrs: inlinehint uwtable
define internal zeroext i1 @"_ZN10num_traits25str_to_ascii_lower_eq_str28_$u7b$$u7b$closure$u7d$$u7d$17hb855513b6a4a8565E"(ptr align 1 %_1, i8 %_2.0, i8 %_2.1) unnamed_addr #0 !dbg !2977 {
start:
  %a_to_ascii_lower.dbg.spill = alloca i8, align 1
  %b.dbg.spill = alloca i8, align 1
  %a.dbg.spill = alloca i8, align 1
  %_2.dbg.spill = alloca { i8, i8 }, align 1
  %_1.dbg.spill = alloca ptr, align 8
  %_8 = alloca i8, align 1
  store ptr %_1, ptr %_1.dbg.spill, align 8
  call void @llvm.dbg.declare(metadata ptr %_1.dbg.spill, metadata !2987, metadata !DIExpression()), !dbg !2989
  store i8 %_2.0, ptr %_2.dbg.spill, align 1
  %0 = getelementptr inbounds i8, ptr %_2.dbg.spill, i64 1
  store i8 %_2.1, ptr %0, align 1
  call void @llvm.dbg.declare(metadata ptr %_2.dbg.spill, metadata !2988, metadata !DIExpression()), !dbg !2990
  store i8 %_2.0, ptr %a.dbg.spill, align 1, !dbg !2991
  call void @llvm.dbg.declare(metadata ptr %a.dbg.spill, metadata !2982, metadata !DIExpression()), !dbg !2992
  store i8 %_2.1, ptr %b.dbg.spill, align 1, !dbg !2993
  call void @llvm.dbg.declare(metadata ptr %b.dbg.spill, metadata !2984, metadata !DIExpression()), !dbg !2994
  %_9 = icmp ule i8 65, %_2.0, !dbg !2995
  br i1 %_9, label %bb1, label %bb2, !dbg !2995

bb2:                                              ; preds = %start
  store i8 0, ptr %_8, align 1, !dbg !2996
  br label %bb3, !dbg !2996

bb1:                                              ; preds = %start
  %1 = icmp ule i8 %_2.0, 90, !dbg !2997
  %2 = zext i1 %1 to i8, !dbg !2997
  store i8 %2, ptr %_8, align 1, !dbg !2997
  br label %bb3, !dbg !2996

bb3:                                              ; preds = %bb1, %bb2
  %3 = load i8, ptr %_8, align 1, !dbg !2998, !range !165, !noundef !55
  %4 = trunc i8 %3 to i1, !dbg !2998
  %_7 = zext i1 %4 to i8, !dbg !2998
  %_6 = shl i8 %_7, 5, !dbg !2999
  %a_to_ascii_lower = or i8 %_2.0, %_6, !dbg !3000
  store i8 %a_to_ascii_lower, ptr %a_to_ascii_lower.dbg.spill, align 1, !dbg !3000
  call void @llvm.dbg.declare(metadata ptr %a_to_ascii_lower.dbg.spill, metadata !2985, metadata !DIExpression()), !dbg !3001
  %_0 = icmp eq i8 %a_to_ascii_lower, %_2.1, !dbg !3002
  ret i1 %_0, !dbg !3003
}

; <f32 as num_traits::float::Float>::powi
; Function Attrs: inlinehint uwtable
define internal float @"_ZN48_$LT$f32$u20$as$u20$num_traits..float..Float$GT$4powi17hefd13ff4f79adad1E"(float %self, i32 %n) unnamed_addr #0 !dbg !3004 {
start:
  %n.dbg.spill = alloca i32, align 4
  %self.dbg.spill = alloca float, align 4
  store float %self, ptr %self.dbg.spill, align 4
  call void @llvm.dbg.declare(metadata ptr %self.dbg.spill, metadata !3008, metadata !DIExpression()), !dbg !3010
  store i32 %n, ptr %n.dbg.spill, align 4
  call void @llvm.dbg.declare(metadata ptr %n.dbg.spill, metadata !3009, metadata !DIExpression()), !dbg !3011
; call std::f32::<impl f32>::powi
  %_0 = call float @"_ZN3std3f3221_$LT$impl$u20$f32$GT$4powi17hb08a9a2a806977e7E"(float %self, i32 %n), !dbg !3012
  ret float %_0, !dbg !3013
}

; <f64 as num_traits::float::Float>::powi
; Function Attrs: inlinehint uwtable
define internal double @"_ZN48_$LT$f64$u20$as$u20$num_traits..float..Float$GT$4powi17hf60b47c67a3210e6E"(double %self, i32 %n) unnamed_addr #0 !dbg !3014 {
start:
  %n.dbg.spill = alloca i32, align 4
  %self.dbg.spill = alloca double, align 8
  store double %self, ptr %self.dbg.spill, align 8
  call void @llvm.dbg.declare(metadata ptr %self.dbg.spill, metadata !3017, metadata !DIExpression()), !dbg !3019
  store i32 %n, ptr %n.dbg.spill, align 4
  call void @llvm.dbg.declare(metadata ptr %n.dbg.spill, metadata !3018, metadata !DIExpression()), !dbg !3020
; call std::f64::<impl f64>::powi
  %_0 = call double @"_ZN3std3f6421_$LT$impl$u20$f64$GT$4powi17h7668c5f4711c0321E"(double %self, i32 %n), !dbg !3021
  ret double %_0, !dbg !3022
}

; <f32 as num_traits::Num>::from_str_radix
; Function Attrs: uwtable
define i64 @"_ZN39_$LT$f32$u20$as$u20$num_traits..Num$GT$14from_str_radix17hfb9447776eda5e4eE"(ptr align 1 %0, i64 %1, i32 %radix) unnamed_addr #1 !dbg !3023 {
start:
  %digit.dbg.spill28 = alloca i32, align 4
  %digit.dbg.spill = alloca i32, align 4
  %exp.dbg.spill26 = alloca i64, align 8
  %exp.dbg.spill = alloca i64, align 8
  %is_positive.dbg.spill23 = alloca i8, align 1
  %src.dbg.spill21 = alloca { ptr, i64 }, align 8
  %src.dbg.spill18 = alloca { ptr, i64 }, align 8
  %src.dbg.spill15 = alloca { ptr, i64 }, align 8
  %offset.dbg.spill = alloca i64, align 8
  %c.dbg.spill12 = alloca i32, align 4
  %c.dbg.spill9 = alloca i32, align 4
  %i.dbg.spill7 = alloca i64, align 8
  %c.dbg.spill = alloca i32, align 4
  %i.dbg.spill = alloca i64, align 8
  %src.dbg.spill5 = alloca { ptr, i64 }, align 8
  %is_positive.dbg.spill = alloca i8, align 1
  %src.dbg.spill = alloca { ptr, i64 }, align 8
  %2 = alloca i64, align 8
  %3 = alloca i64, align 8
  %radix.dbg.spill = alloca i32, align 4
  %_159 = alloca i8, align 1
  %_158 = alloca i8, align 1
  %_149 = alloca { i8, [7 x i8], %"core::result::Result<usize, core::num::error::ParseIntError>" }, align 8
  %_148 = alloca i8, align 1
  %_147 = alloca i8, align 1
  %_146 = alloca %"core::result::Result<usize, core::num::error::ParseIntError>", align 8
  %_145 = alloca %"core::result::Result<usize, core::num::error::ParseIntError>", align 8
  %_143 = alloca %"core::result::Result<usize, core::num::error::ParseIntError>", align 8
  %_140 = alloca %"core::option::Option<(char, &str)>", align 8
  %_139 = alloca { i8, [7 x i8], %"core::result::Result<usize, core::num::error::ParseIntError>" }, align 8
  %exp2 = alloca %"core::result::Result<usize, core::num::error::ParseIntError>", align 8
  %_136 = alloca i64, align 8
  %_134 = alloca i8, align 1
  %_133 = alloca i8, align 1
  %base = alloca float, align 4
  %exp = alloca float, align 4
  %_127 = alloca i8, align 1
  %_126 = alloca i8, align 1
  %_123 = alloca { i32, [1 x i32], i64 }, align 8
  %_122 = alloca %"core::option::Option<(char, usize)>", align 8
  %_106 = alloca float, align 4
  %_102 = alloca %"core::option::Option<u32>", align 4
  %_97 = alloca %"core::option::Option<(usize, char)>", align 8
  %iter1 = alloca ptr, align 8
  %power = alloca float, align 4
  %_89 = alloca i8, align 1
  %_88 = alloca i8, align 1
  %_85 = alloca { i32, [1 x i32], i64 }, align 8
  %_84 = alloca %"core::option::Option<(char, usize)>", align 8
  %_53 = alloca %"core::option::Option<u32>", align 4
  %_48 = alloca %"core::option::Option<(usize, char)>", align 8
  %iter = alloca ptr, align 8
  %exp_info = alloca %"core::option::Option<(char, usize)>", align 8
  %cs = alloca %"core::iter::adapters::enumerate::Enumerate<core::str::iter::Chars<'_>>", align 8
  %prev_sig = alloca float, align 4
  %sig = alloca float, align 4
  %_36 = alloca i8, align 1
  %_35 = alloca i8, align 1
  %_34 = alloca i8, align 1
  %_33 = alloca i8, align 1
  %_29 = alloca %"core::option::Option<(char, &str)>", align 8
  %_28 = alloca { i8, [7 x i8], { ptr, i64 } }, align 8
  %_5 = alloca ptr, align 8
  %_3 = alloca %"core::result::Result<f32, core::num::dec2flt::ParseFloatError>", align 4
  %_0 = alloca %"core::result::Result<f32, ParseFloatError>", align 4
  %src = alloca { ptr, i64 }, align 8
  store ptr %0, ptr %src, align 8
  %4 = getelementptr inbounds i8, ptr %src, i64 8
  store i64 %1, ptr %4, align 8
  call void @llvm.dbg.declare(metadata ptr %src, metadata !3027, metadata !DIExpression()), !dbg !3078
  store i32 %radix, ptr %radix.dbg.spill, align 4
  call void @llvm.dbg.declare(metadata ptr %radix.dbg.spill, metadata !3028, metadata !DIExpression()), !dbg !3079
  call void @llvm.dbg.declare(metadata ptr %sig, metadata !3034, metadata !DIExpression()), !dbg !3080
  call void @llvm.dbg.declare(metadata ptr %prev_sig, metadata !3036, metadata !DIExpression()), !dbg !3081
  call void @llvm.dbg.declare(metadata ptr %cs, metadata !3038, metadata !DIExpression()), !dbg !3082
  call void @llvm.dbg.declare(metadata ptr %exp_info, metadata !3040, metadata !DIExpression()), !dbg !3083
  call void @llvm.dbg.declare(metadata ptr %iter, metadata !3042, metadata !DIExpression()), !dbg !3084
  call void @llvm.dbg.declare(metadata ptr %power, metadata !3049, metadata !DIExpression()), !dbg !3085
  call void @llvm.dbg.declare(metadata ptr %iter1, metadata !3051, metadata !DIExpression()), !dbg !3086
  call void @llvm.dbg.declare(metadata ptr %exp, metadata !3058, metadata !DIExpression()), !dbg !3087
  call void @llvm.dbg.declare(metadata ptr %base, metadata !3063, metadata !DIExpression()), !dbg !3088
  call void @llvm.dbg.declare(metadata ptr %exp2, metadata !3069, metadata !DIExpression()), !dbg !3089
  %5 = icmp eq i32 %radix, 10, !dbg !3090
  br i1 %5, label %bb1, label %bb3, !dbg !3090

bb1:                                              ; preds = %start
  %_4.0 = load ptr, ptr %src, align 8, !dbg !3091, !nonnull !55, !align !932, !noundef !55
  %6 = getelementptr inbounds i8, ptr %src, i64 8, !dbg !3091
  %_4.1 = load i64, ptr %6, align 8, !dbg !3091, !noundef !55
; call core::str::<impl str>::parse
  %7 = call i64 @"_ZN4core3str21_$LT$impl$u20$str$GT$5parse17hd6b6e6e88a14d0a4E"(ptr align 1 %_4.0, i64 %_4.1), !dbg !3091
  store i64 %7, ptr %3, align 8, !dbg !3091
  call void @llvm.memcpy.p0.p0.i64(ptr align 4 %_3, ptr align 8 %3, i64 8, i1 false), !dbg !3091
  store ptr %src, ptr %_5, align 8, !dbg !3092
  %8 = load i64, ptr %_3, align 4, !dbg !3091
  %9 = load ptr, ptr %_5, align 8, !dbg !3091, !nonnull !55, !align !655, !noundef !55
; call core::result::Result<T,E>::map_err
  %10 = call i64 @"_ZN4core6result19Result$LT$T$C$E$GT$7map_err17hc7dd90bc04107341E"(i64 %8, ptr align 8 %9), !dbg !3091
  store i64 %10, ptr %2, align 8, !dbg !3091
  call void @llvm.memcpy.p0.p0.i64(ptr align 4 %_0, ptr align 8 %2, i64 8, i1 false), !dbg !3091
  br label %bb115, !dbg !3091

bb3:                                              ; preds = %start
  %_8.0 = load ptr, ptr %src, align 8, !dbg !3093, !nonnull !55, !align !932, !noundef !55
  %11 = getelementptr inbounds i8, ptr %src, i64 8, !dbg !3093
  %_8.1 = load i64, ptr %11, align 8, !dbg !3093, !noundef !55
; call num_traits::str_to_ascii_lower_eq_str
  %_7 = call zeroext i1 @_ZN10num_traits25str_to_ascii_lower_eq_str17h84c55ba8c3732f5eE(ptr align 1 %_8.0, i64 %_8.1, ptr align 1 @alloc_6c433d3c07b7c6453f8a17b49b46c496, i64 3), !dbg !3094
  br i1 %_7, label %bb7, label %bb5, !dbg !3094

bb115:                                            ; preds = %bb7, %bb12, %bb15, %bb18, %bb48, %bb54, %bb57, %bb51, %bb59, %bb77, %bb80, %bb82, %bb88, %bb108, %bb114, %bb98, %bb26, %bb28, %bb1
  %12 = load i64, ptr %_0, align 4, !dbg !3095
  ret i64 %12, !dbg !3095

bb5:                                              ; preds = %bb3
  %_11.0 = load ptr, ptr %src, align 8, !dbg !3096, !nonnull !55, !align !932, !noundef !55
  %13 = getelementptr inbounds i8, ptr %src, i64 8, !dbg !3096
  %_11.1 = load i64, ptr %13, align 8, !dbg !3096, !noundef !55
; call num_traits::str_to_ascii_lower_eq_str
  %_10 = call zeroext i1 @_ZN10num_traits25str_to_ascii_lower_eq_str17h84c55ba8c3732f5eE(ptr align 1 %_11.0, i64 %_11.1, ptr align 1 @alloc_1d4707983f2c2629bdbf9266146dc075, i64 8), !dbg !3097
  br i1 %_10, label %bb7, label %bb8, !dbg !3097

bb7:                                              ; preds = %bb5, %bb3
  %14 = getelementptr inbounds i8, ptr %_0, i64 4, !dbg !3098
  store float 0x7FF0000000000000, ptr %14, align 4, !dbg !3098
  store i8 0, ptr %_0, align 4, !dbg !3098
  br label %bb115, !dbg !3099

bb8:                                              ; preds = %bb5
  %_14.0 = load ptr, ptr %src, align 8, !dbg !3100, !nonnull !55, !align !932, !noundef !55
  %15 = getelementptr inbounds i8, ptr %src, i64 8, !dbg !3100
  %_14.1 = load i64, ptr %15, align 8, !dbg !3100, !noundef !55
; call num_traits::str_to_ascii_lower_eq_str
  %_13 = call zeroext i1 @_ZN10num_traits25str_to_ascii_lower_eq_str17h84c55ba8c3732f5eE(ptr align 1 %_14.0, i64 %_14.1, ptr align 1 @alloc_159a91930e1f3f513911a864c7d9fa72, i64 4), !dbg !3101
  br i1 %_13, label %bb12, label %bb10, !dbg !3101

bb10:                                             ; preds = %bb8
  %_17.0 = load ptr, ptr %src, align 8, !dbg !3102, !nonnull !55, !align !932, !noundef !55
  %16 = getelementptr inbounds i8, ptr %src, i64 8, !dbg !3102
  %_17.1 = load i64, ptr %16, align 8, !dbg !3102, !noundef !55
; call num_traits::str_to_ascii_lower_eq_str
  %_16 = call zeroext i1 @_ZN10num_traits25str_to_ascii_lower_eq_str17h84c55ba8c3732f5eE(ptr align 1 %_17.0, i64 %_17.1, ptr align 1 @alloc_8c906af7646fe10360573dc34c12f689, i64 9), !dbg !3103
  br i1 %_16, label %bb12, label %bb13, !dbg !3103

bb12:                                             ; preds = %bb10, %bb8
  %17 = getelementptr inbounds i8, ptr %_0, i64 4, !dbg !3104
  store float 0xFFF0000000000000, ptr %17, align 4, !dbg !3104
  store i8 0, ptr %_0, align 4, !dbg !3104
  br label %bb115, !dbg !3105

bb13:                                             ; preds = %bb10
  %_20.0 = load ptr, ptr %src, align 8, !dbg !3106, !nonnull !55, !align !932, !noundef !55
  %18 = getelementptr inbounds i8, ptr %src, i64 8, !dbg !3106
  %_20.1 = load i64, ptr %18, align 8, !dbg !3106, !noundef !55
; call num_traits::str_to_ascii_lower_eq_str
  %_19 = call zeroext i1 @_ZN10num_traits25str_to_ascii_lower_eq_str17h84c55ba8c3732f5eE(ptr align 1 %_20.0, i64 %_20.1, ptr align 1 @alloc_bbe173742141154fcf253606867854d9, i64 3), !dbg !3107
  br i1 %_19, label %bb15, label %bb16, !dbg !3107

bb16:                                             ; preds = %bb13
  %_23.0 = load ptr, ptr %src, align 8, !dbg !3108, !nonnull !55, !align !932, !noundef !55
  %19 = getelementptr inbounds i8, ptr %src, i64 8, !dbg !3108
  %_23.1 = load i64, ptr %19, align 8, !dbg !3108, !noundef !55
; call num_traits::str_to_ascii_lower_eq_str
  %_22 = call zeroext i1 @_ZN10num_traits25str_to_ascii_lower_eq_str17h84c55ba8c3732f5eE(ptr align 1 %_23.0, i64 %_23.1, ptr align 1 @alloc_09041e75dc84c4f90838ba63407d8bea, i64 4), !dbg !3109
  br i1 %_22, label %bb18, label %bb19, !dbg !3109

bb15:                                             ; preds = %bb13
  %20 = getelementptr inbounds i8, ptr %_0, i64 4, !dbg !3110
  store float 0x7FF8000000000000, ptr %20, align 4, !dbg !3110
  store i8 0, ptr %_0, align 4, !dbg !3110
  br label %bb115, !dbg !3111

bb19:                                             ; preds = %bb16
  %_30.0 = load ptr, ptr %src, align 8, !dbg !3112, !nonnull !55, !align !932, !noundef !55
  %21 = getelementptr inbounds i8, ptr %src, i64 8, !dbg !3112
  %_30.1 = load i64, ptr %21, align 8, !dbg !3112, !noundef !55
; call <f32 as num_traits::Num>::from_str_radix::slice_shift_char
  call void @"_ZN39_$LT$f32$u20$as$u20$num_traits..Num$GT$14from_str_radix16slice_shift_char17h547fb94a0e22d574E"(ptr sret(%"core::option::Option<(char, &str)>") align 8 %_29, ptr align 1 %_30.0, i64 %_30.1), !dbg !3113
  %22 = load i32, ptr %_29, align 8, !dbg !3113, !range !275, !noundef !55
  %23 = icmp eq i32 %22, 1114112, !dbg !3113
  %_32 = select i1 %23, i64 0, i64 1, !dbg !3113
  %24 = icmp eq i64 %_32, 0, !dbg !3114
  br i1 %24, label %bb28, label %bb22, !dbg !3114

bb18:                                             ; preds = %bb16
  %25 = getelementptr inbounds i8, ptr %_0, i64 4, !dbg !3115
  store float 0xFFF8000000000000, ptr %25, align 4, !dbg !3115
  store i8 0, ptr %_0, align 4, !dbg !3115
  br label %bb115, !dbg !3116

bb28:                                             ; preds = %bb19
  store i8 0, ptr %_34, align 1, !dbg !3117
  %26 = load i8, ptr %_34, align 1, !dbg !3118, !range !165, !noundef !55
  %27 = trunc i8 %26 to i1, !dbg !3118
  %28 = zext i1 %27 to i8, !dbg !3118
  store i8 %28, ptr %_33, align 1, !dbg !3118
  %29 = load i8, ptr %_33, align 1, !dbg !3119, !range !165, !noundef !55
  %30 = trunc i8 %29 to i1, !dbg !3119
  %31 = getelementptr inbounds i8, ptr %_0, i64 1, !dbg !3119
  %32 = zext i1 %30 to i8, !dbg !3119
  store i8 %32, ptr %31, align 1, !dbg !3119
  store i8 1, ptr %_0, align 4, !dbg !3119
  br label %bb115, !dbg !3120

bb22:                                             ; preds = %bb19
  %33 = load i32, ptr %_29, align 8, !dbg !3114, !range !281, !noundef !55
  %34 = icmp eq i32 %33, 45, !dbg !3114
  br i1 %34, label %bb24, label %bb23, !dbg !3114

bb24:                                             ; preds = %bb22
  %35 = getelementptr inbounds i8, ptr %_29, i64 8, !dbg !3121
  %36 = load ptr, ptr %35, align 8, !dbg !3121, !nonnull !55, !align !932, !noundef !55
  %37 = getelementptr inbounds i8, ptr %35, i64 8, !dbg !3121
  %38 = load i64, ptr %37, align 8, !dbg !3121, !noundef !55
; call core::str::traits::<impl core::cmp::PartialEq for str>::eq
  %_31 = call zeroext i1 @"_ZN4core3str6traits54_$LT$impl$u20$core..cmp..PartialEq$u20$for$u20$str$GT$2eq17h7e7b74f45a72da40E"(ptr align 1 %36, i64 %38, ptr align 1 @alloc_513570631223a12912d85da2bec3b15a, i64 0), !dbg !3121
  br i1 %_31, label %bb26, label %bb25, !dbg !3121

bb23:                                             ; preds = %bb22
  %_38.0 = load ptr, ptr %src, align 8, !dbg !3122, !nonnull !55, !align !932, !noundef !55
  %39 = getelementptr inbounds i8, ptr %src, i64 8, !dbg !3122
  %_38.1 = load i64, ptr %39, align 8, !dbg !3122, !noundef !55
  store i8 1, ptr %_28, align 8, !dbg !3123
  %40 = getelementptr inbounds i8, ptr %_28, i64 8, !dbg !3123
  store ptr %_38.0, ptr %40, align 8, !dbg !3123
  %41 = getelementptr inbounds i8, ptr %40, i64 8, !dbg !3123
  store i64 %_38.1, ptr %41, align 8, !dbg !3123
  br label %bb29, !dbg !3124

bb25:                                             ; preds = %bb24
  %42 = getelementptr inbounds i8, ptr %_29, i64 8, !dbg !3125
  %src.0 = load ptr, ptr %42, align 8, !dbg !3125, !nonnull !55, !align !932, !noundef !55
  %43 = getelementptr inbounds i8, ptr %42, i64 8, !dbg !3125
  %src.1 = load i64, ptr %43, align 8, !dbg !3125, !noundef !55
  store ptr %src.0, ptr %src.dbg.spill, align 8, !dbg !3125
  %44 = getelementptr inbounds i8, ptr %src.dbg.spill, i64 8, !dbg !3125
  store i64 %src.1, ptr %44, align 8, !dbg !3125
  call void @llvm.dbg.declare(metadata ptr %src.dbg.spill, metadata !3032, metadata !DIExpression()), !dbg !3126
  store i8 0, ptr %_28, align 8, !dbg !3127
  %45 = getelementptr inbounds i8, ptr %_28, i64 8, !dbg !3127
  store ptr %src.0, ptr %45, align 8, !dbg !3127
  %46 = getelementptr inbounds i8, ptr %45, i64 8, !dbg !3127
  store i64 %src.1, ptr %46, align 8, !dbg !3127
  br label %bb29, !dbg !3128

bb26:                                             ; preds = %bb24
  store i8 0, ptr %_36, align 1, !dbg !3129
  %47 = load i8, ptr %_36, align 1, !dbg !3130, !range !165, !noundef !55
  %48 = trunc i8 %47 to i1, !dbg !3130
  %49 = zext i1 %48 to i8, !dbg !3130
  store i8 %49, ptr %_35, align 1, !dbg !3130
  %50 = load i8, ptr %_35, align 1, !dbg !3131, !range !165, !noundef !55
  %51 = trunc i8 %50 to i1, !dbg !3131
  %52 = getelementptr inbounds i8, ptr %_0, i64 1, !dbg !3131
  %53 = zext i1 %51 to i8, !dbg !3131
  store i8 %53, ptr %52, align 1, !dbg !3131
  store i8 1, ptr %_0, align 4, !dbg !3131
  br label %bb115, !dbg !3132

bb29:                                             ; preds = %bb23, %bb25
  %54 = load i8, ptr %_28, align 8, !dbg !3133, !range !165, !noundef !55
  %is_positive = trunc i8 %54 to i1, !dbg !3133
  %55 = zext i1 %is_positive to i8, !dbg !3133
  store i8 %55, ptr %is_positive.dbg.spill, align 1, !dbg !3133
  call void @llvm.dbg.declare(metadata ptr %is_positive.dbg.spill, metadata !3029, metadata !DIExpression()), !dbg !3134
  %56 = getelementptr inbounds i8, ptr %_28, i64 8, !dbg !3135
  %src.03 = load ptr, ptr %56, align 8, !dbg !3135, !nonnull !55, !align !932, !noundef !55
  %57 = getelementptr inbounds i8, ptr %56, i64 8, !dbg !3135
  %src.14 = load i64, ptr %57, align 8, !dbg !3135, !noundef !55
  store ptr %src.03, ptr %src.dbg.spill5, align 8, !dbg !3135
  %58 = getelementptr inbounds i8, ptr %src.dbg.spill5, i64 8, !dbg !3135
  store i64 %src.14, ptr %58, align 8, !dbg !3135
  call void @llvm.dbg.declare(metadata ptr %src.dbg.spill5, metadata !3031, metadata !DIExpression()), !dbg !3136
  br i1 %is_positive, label %bb30, label %bb31, !dbg !3137

bb31:                                             ; preds = %bb29
  store float -0.000000e+00, ptr %sig, align 4, !dbg !3138
  br label %bb32, !dbg !3139

bb30:                                             ; preds = %bb29
  store float 0.000000e+00, ptr %sig, align 4, !dbg !3140
  br label %bb32, !dbg !3139

bb32:                                             ; preds = %bb30, %bb31
  %59 = load float, ptr %sig, align 4, !dbg !3141, !noundef !55
  store float %59, ptr %prev_sig, align 4, !dbg !3141
; call core::str::<impl str>::chars
  %60 = call { ptr, ptr } @"_ZN4core3str21_$LT$impl$u20$str$GT$5chars17h085b5d73579197ddE"(ptr align 1 %src.03, i64 %src.14), !dbg !3142
  %_42.0 = extractvalue { ptr, ptr } %60, 0, !dbg !3142
  %_42.1 = extractvalue { ptr, ptr } %60, 1, !dbg !3142
; call core::iter::traits::iterator::Iterator::enumerate
  call void @_ZN4core4iter6traits8iterator8Iterator9enumerate17h8529aad654d19618E(ptr sret(%"core::iter::adapters::enumerate::Enumerate<core::str::iter::Chars<'_>>") align 8 %cs, ptr %_42.0, ptr %_42.1), !dbg !3142
  store i32 1114112, ptr %exp_info, align 8, !dbg !3143
; call core::iter::traits::iterator::Iterator::by_ref
  %_45 = call align 8 ptr @_ZN4core4iter6traits8iterator8Iterator6by_ref17h812a3472f392bef5E(ptr align 8 %cs), !dbg !3144
; call <I as core::iter::traits::collect::IntoIterator>::into_iter
  %_44 = call align 8 ptr @"_ZN63_$LT$I$u20$as$u20$core..iter..traits..collect..IntoIterator$GT$9into_iter17hfba0e1aba579d7f2E"(ptr align 8 %_45), !dbg !3144
  store ptr %_44, ptr %iter, align 8, !dbg !3144
  br label %bb37, !dbg !3145

bb37:                                             ; preds = %bb58, %bb32
; call <&mut I as core::iter::traits::iterator::Iterator>::next
  %61 = call { i64, i32 } @"_ZN72_$LT$$RF$mut$u20$I$u20$as$u20$core..iter..traits..iterator..Iterator$GT$4next17hbd5817750733f727E"(ptr align 8 %iter), !dbg !3084
  %62 = extractvalue { i64, i32 } %61, 0, !dbg !3084
  %63 = extractvalue { i64, i32 } %61, 1, !dbg !3084
  store i64 %62, ptr %_48, align 8, !dbg !3084
  %64 = getelementptr inbounds i8, ptr %_48, i64 8, !dbg !3084
  store i32 %63, ptr %64, align 8, !dbg !3084
  %65 = getelementptr inbounds i8, ptr %_48, i64 8, !dbg !3084
  %66 = load i32, ptr %65, align 8, !dbg !3084, !range !275, !noundef !55
  %67 = icmp eq i32 %66, 1114112, !dbg !3084
  %_50 = select i1 %67, i64 0, i64 1, !dbg !3084
  %68 = icmp eq i64 %_50, 0, !dbg !3084
  br i1 %68, label %bb62.loopexit, label %bb39, !dbg !3084

bb62.loopexit:                                    ; preds = %bb37
  br label %bb62, !dbg !3146

bb62:                                             ; preds = %bb62.loopexit, %bb61, %bb41
; call core::option::Option<T>::is_none
  %_90 = call zeroext i1 @"_ZN4core6option15Option$LT$T$GT$7is_none17hab16d4f879cef487E"(ptr align 8 %exp_info), !dbg !3146
  br i1 %_90, label %bb64, label %bb85, !dbg !3146

bb39:                                             ; preds = %bb37
  %i = load i64, ptr %_48, align 8, !dbg !3147, !noundef !55
  store i64 %i, ptr %i.dbg.spill, align 8, !dbg !3147
  call void @llvm.dbg.declare(metadata ptr %i.dbg.spill, metadata !3044, metadata !DIExpression()), !dbg !3148
  %69 = getelementptr inbounds i8, ptr %_48, i64 8, !dbg !3149
  %c = load i32, ptr %69, align 8, !dbg !3149, !range !281, !noundef !55
  store i32 %c, ptr %c.dbg.spill, align 4, !dbg !3149
  call void @llvm.dbg.declare(metadata ptr %c.dbg.spill, metadata !3046, metadata !DIExpression()), !dbg !3150
; call core::char::methods::<impl char>::to_digit
  %70 = call { i32, i32 } @"_ZN4core4char7methods22_$LT$impl$u20$char$GT$8to_digit17h38e5bd9689bb6632E"(i32 %c, i32 %radix), !dbg !3151
  %71 = extractvalue { i32, i32 } %70, 0, !dbg !3151
  %72 = extractvalue { i32, i32 } %70, 1, !dbg !3151
  store i32 %71, ptr %_53, align 4, !dbg !3151
  %73 = getelementptr inbounds i8, ptr %_53, i64 4, !dbg !3151
  store i32 %72, ptr %73, align 4, !dbg !3151
  %74 = load i32, ptr %_53, align 4, !dbg !3151, !range !928, !noundef !55
  %_54 = zext i32 %74 to i64, !dbg !3151
  %75 = icmp eq i64 %_54, 0, !dbg !3152
  br i1 %75, label %bb41, label %bb42, !dbg !3152

bb41:                                             ; preds = %bb39
  %i.lcssa = phi i64 [ %i, %bb39 ], !dbg !3147
  %c.lcssa = phi i32 [ %c, %bb39 ], !dbg !3149
  switch i32 %c.lcssa, label %bb59 [
    i32 101, label %bb60
    i32 69, label %bb60
    i32 112, label %bb60
    i32 80, label %bb60
    i32 46, label %bb62
  ], !dbg !3153

bb42:                                             ; preds = %bb39
  %76 = getelementptr inbounds i8, ptr %_53, i64 4, !dbg !3154
  %digit27 = load i32, ptr %76, align 4, !dbg !3154, !noundef !55
  store i32 %digit27, ptr %digit.dbg.spill28, align 4, !dbg !3154
  call void @llvm.dbg.declare(metadata ptr %digit.dbg.spill28, metadata !3047, metadata !DIExpression()), !dbg !3155
  %_56 = uitofp i32 %radix to float, !dbg !3156
  %77 = load float, ptr %sig, align 4, !dbg !3157, !noundef !55
  %78 = fmul float %77, %_56, !dbg !3157
  store float %78, ptr %sig, align 4, !dbg !3157
  br i1 %is_positive, label %bb43, label %bb44, !dbg !3158

bb59:                                             ; preds = %bb41
  store i8 1, ptr %_89, align 1, !dbg !3159
  %79 = load i8, ptr %_89, align 1, !dbg !3160, !range !165, !noundef !55
  %80 = trunc i8 %79 to i1, !dbg !3160
  %81 = zext i1 %80 to i8, !dbg !3160
  store i8 %81, ptr %_88, align 1, !dbg !3160
  %82 = load i8, ptr %_88, align 1, !dbg !3161, !range !165, !noundef !55
  %83 = trunc i8 %82 to i1, !dbg !3161
  %84 = getelementptr inbounds i8, ptr %_0, i64 1, !dbg !3161
  %85 = zext i1 %83 to i8, !dbg !3161
  store i8 %85, ptr %84, align 1, !dbg !3161
  store i8 1, ptr %_0, align 4, !dbg !3161
  br label %bb115, !dbg !3162

bb60:                                             ; preds = %bb41, %bb41, %bb41, %bb41
  %86 = call { i64, i1 } @llvm.uadd.with.overflow.i64(i64 %i.lcssa, i64 1), !dbg !3163
  %_87.0 = extractvalue { i64, i1 } %86, 0, !dbg !3163
  %_87.1 = extractvalue { i64, i1 } %86, 1, !dbg !3163
  %87 = call i1 @llvm.expect.i1(i1 %_87.1, i1 false), !dbg !3163
  br i1 %87, label %panic, label %bb61, !dbg !3163

bb61:                                             ; preds = %bb60
  store i32 %c.lcssa, ptr %_85, align 8, !dbg !3164
  %88 = getelementptr inbounds i8, ptr %_85, i64 8, !dbg !3164
  store i64 %_87.0, ptr %88, align 8, !dbg !3164
  %89 = load i32, ptr %_85, align 8, !dbg !3165, !range !281, !noundef !55
  %90 = getelementptr inbounds i8, ptr %_85, i64 8, !dbg !3165
  %91 = load i64, ptr %90, align 8, !dbg !3165, !noundef !55
  store i32 %89, ptr %_84, align 8, !dbg !3165
  %92 = getelementptr inbounds i8, ptr %_84, i64 8, !dbg !3165
  store i64 %91, ptr %92, align 8, !dbg !3165
  %93 = load i32, ptr %_84, align 8, !dbg !3166, !range !275, !noundef !55
  %94 = getelementptr inbounds i8, ptr %_84, i64 8, !dbg !3166
  %95 = load i64, ptr %94, align 8, !dbg !3166
  store i32 %93, ptr %exp_info, align 8, !dbg !3166
  %96 = getelementptr inbounds i8, ptr %exp_info, i64 8, !dbg !3166
  store i64 %95, ptr %96, align 8, !dbg !3166
  br label %bb62, !dbg !3167

panic:                                            ; preds = %bb60
; call core::panicking::panic
  call void @_ZN4core9panicking5panic17h5884aad3a9044857E(ptr align 1 @str.0, i64 28, ptr align 8 @alloc_e9da7d8a5f3b4a985a1998fb900aef5f) #9, !dbg !3163
  unreachable, !dbg !3163

bb85.loopexit:                                    ; preds = %bb67
  br label %bb85, !dbg !3168

bb85:                                             ; preds = %bb85.loopexit, %bb84, %bb62
  %97 = load i32, ptr %exp_info, align 8, !dbg !3168, !range !275, !noundef !55
  %98 = icmp eq i32 %97, 1114112, !dbg !3168
  %_129 = select i1 %98, i64 0, i64 1, !dbg !3168
  %99 = icmp eq i64 %_129, 0, !dbg !3169
  br i1 %99, label %bb86, label %bb87, !dbg !3169

bb64:                                             ; preds = %bb62
  store float 1.000000e+00, ptr %power, align 4, !dbg !3170
; call core::iter::traits::iterator::Iterator::by_ref
  %_94 = call align 8 ptr @_ZN4core4iter6traits8iterator8Iterator6by_ref17h812a3472f392bef5E(ptr align 8 %cs), !dbg !3171
; call <I as core::iter::traits::collect::IntoIterator>::into_iter
  %_93 = call align 8 ptr @"_ZN63_$LT$I$u20$as$u20$core..iter..traits..collect..IntoIterator$GT$9into_iter17hfba0e1aba579d7f2E"(ptr align 8 %_94), !dbg !3171
  store ptr %_93, ptr %iter1, align 8, !dbg !3171
  br label %bb67, !dbg !3172

bb67:                                             ; preds = %bb81, %bb64
; call <&mut I as core::iter::traits::iterator::Iterator>::next
  %100 = call { i64, i32 } @"_ZN72_$LT$$RF$mut$u20$I$u20$as$u20$core..iter..traits..iterator..Iterator$GT$4next17hbd5817750733f727E"(ptr align 8 %iter1), !dbg !3086
  %101 = extractvalue { i64, i32 } %100, 0, !dbg !3086
  %102 = extractvalue { i64, i32 } %100, 1, !dbg !3086
  store i64 %101, ptr %_97, align 8, !dbg !3086
  %103 = getelementptr inbounds i8, ptr %_97, i64 8, !dbg !3086
  store i32 %102, ptr %103, align 8, !dbg !3086
  %104 = getelementptr inbounds i8, ptr %_97, i64 8, !dbg !3086
  %105 = load i32, ptr %104, align 8, !dbg !3086, !range !275, !noundef !55
  %106 = icmp eq i32 %105, 1114112, !dbg !3086
  %_99 = select i1 %106, i64 0, i64 1, !dbg !3086
  %107 = icmp eq i64 %_99, 0, !dbg !3086
  br i1 %107, label %bb85.loopexit, label %bb69, !dbg !3086

bb69:                                             ; preds = %bb67
  %i6 = load i64, ptr %_97, align 8, !dbg !3173, !noundef !55
  store i64 %i6, ptr %i.dbg.spill7, align 8, !dbg !3173
  call void @llvm.dbg.declare(metadata ptr %i.dbg.spill7, metadata !3053, metadata !DIExpression()), !dbg !3174
  %108 = getelementptr inbounds i8, ptr %_97, i64 8, !dbg !3175
  %c8 = load i32, ptr %108, align 8, !dbg !3175, !range !281, !noundef !55
  store i32 %c8, ptr %c.dbg.spill9, align 4, !dbg !3175
  call void @llvm.dbg.declare(metadata ptr %c.dbg.spill9, metadata !3055, metadata !DIExpression()), !dbg !3176
; call core::char::methods::<impl char>::to_digit
  %109 = call { i32, i32 } @"_ZN4core4char7methods22_$LT$impl$u20$char$GT$8to_digit17h38e5bd9689bb6632E"(i32 %c8, i32 %radix), !dbg !3177
  %110 = extractvalue { i32, i32 } %109, 0, !dbg !3177
  %111 = extractvalue { i32, i32 } %109, 1, !dbg !3177
  store i32 %110, ptr %_102, align 4, !dbg !3177
  %112 = getelementptr inbounds i8, ptr %_102, i64 4, !dbg !3177
  store i32 %111, ptr %112, align 4, !dbg !3177
  %113 = load i32, ptr %_102, align 4, !dbg !3177, !range !928, !noundef !55
  %_103 = zext i32 %113 to i64, !dbg !3177
  %114 = icmp eq i64 %_103, 0, !dbg !3178
  br i1 %114, label %bb71, label %bb72, !dbg !3178

bb71:                                             ; preds = %bb69
  %i6.lcssa = phi i64 [ %i6, %bb69 ], !dbg !3173
  %c8.lcssa = phi i32 [ %c8, %bb69 ], !dbg !3175
  switch i32 %c8.lcssa, label %bb82 [
    i32 101, label %bb83
    i32 69, label %bb83
    i32 112, label %bb83
    i32 80, label %bb83
  ], !dbg !3179

bb72:                                             ; preds = %bb69
  %115 = getelementptr inbounds i8, ptr %_102, i64 4, !dbg !3180
  %digit = load i32, ptr %115, align 4, !dbg !3180, !noundef !55
  store i32 %digit, ptr %digit.dbg.spill, align 4, !dbg !3180
  call void @llvm.dbg.declare(metadata ptr %digit.dbg.spill, metadata !3056, metadata !DIExpression()), !dbg !3181
  %_105 = uitofp i32 %radix to float, !dbg !3182
  %116 = load float, ptr %power, align 4, !dbg !3183, !noundef !55
  %117 = fdiv float %116, %_105, !dbg !3183
  store float %117, ptr %power, align 4, !dbg !3183
  br i1 %is_positive, label %bb73, label %bb74, !dbg !3184

bb82:                                             ; preds = %bb71
  store i8 1, ptr %_127, align 1, !dbg !3185
  %118 = load i8, ptr %_127, align 1, !dbg !3186, !range !165, !noundef !55
  %119 = trunc i8 %118 to i1, !dbg !3186
  %120 = zext i1 %119 to i8, !dbg !3186
  store i8 %120, ptr %_126, align 1, !dbg !3186
  %121 = load i8, ptr %_126, align 1, !dbg !3187, !range !165, !noundef !55
  %122 = trunc i8 %121 to i1, !dbg !3187
  %123 = getelementptr inbounds i8, ptr %_0, i64 1, !dbg !3187
  %124 = zext i1 %122 to i8, !dbg !3187
  store i8 %124, ptr %123, align 1, !dbg !3187
  store i8 1, ptr %_0, align 4, !dbg !3187
  br label %bb115, !dbg !3188

bb83:                                             ; preds = %bb71, %bb71, %bb71, %bb71
  %125 = call { i64, i1 } @llvm.uadd.with.overflow.i64(i64 %i6.lcssa, i64 1), !dbg !3189
  %_125.0 = extractvalue { i64, i1 } %125, 0, !dbg !3189
  %_125.1 = extractvalue { i64, i1 } %125, 1, !dbg !3189
  %126 = call i1 @llvm.expect.i1(i1 %_125.1, i1 false), !dbg !3189
  br i1 %126, label %panic10, label %bb84, !dbg !3189

bb84:                                             ; preds = %bb83
  store i32 %c8.lcssa, ptr %_123, align 8, !dbg !3190
  %127 = getelementptr inbounds i8, ptr %_123, i64 8, !dbg !3190
  store i64 %_125.0, ptr %127, align 8, !dbg !3190
  %128 = load i32, ptr %_123, align 8, !dbg !3191, !range !281, !noundef !55
  %129 = getelementptr inbounds i8, ptr %_123, i64 8, !dbg !3191
  %130 = load i64, ptr %129, align 8, !dbg !3191, !noundef !55
  store i32 %128, ptr %_122, align 8, !dbg !3191
  %131 = getelementptr inbounds i8, ptr %_122, i64 8, !dbg !3191
  store i64 %130, ptr %131, align 8, !dbg !3191
  %132 = load i32, ptr %_122, align 8, !dbg !3192, !range !275, !noundef !55
  %133 = getelementptr inbounds i8, ptr %_122, i64 8, !dbg !3192
  %134 = load i64, ptr %133, align 8, !dbg !3192
  store i32 %132, ptr %exp_info, align 8, !dbg !3192
  %135 = getelementptr inbounds i8, ptr %exp_info, i64 8, !dbg !3192
  store i64 %134, ptr %135, align 8, !dbg !3192
  br label %bb85, !dbg !3193

panic10:                                          ; preds = %bb83
; call core::panicking::panic
  call void @_ZN4core9panicking5panic17h5884aad3a9044857E(ptr align 1 @str.0, i64 28, ptr align 8 @alloc_e9da7d8a5f3b4a985a1998fb900aef5f) #9, !dbg !3189
  unreachable, !dbg !3189

bb86:                                             ; preds = %bb85
  store float 1.000000e+00, ptr %exp, align 4, !dbg !3194
  br label %bb114, !dbg !3194

bb87:                                             ; preds = %bb85
  %c11 = load i32, ptr %exp_info, align 8, !dbg !3195, !range !281, !noundef !55
  store i32 %c11, ptr %c.dbg.spill12, align 4, !dbg !3195
  call void @llvm.dbg.declare(metadata ptr %c.dbg.spill12, metadata !3060, metadata !DIExpression()), !dbg !3196
  %136 = getelementptr inbounds i8, ptr %exp_info, i64 8, !dbg !3197
  %offset = load i64, ptr %136, align 8, !dbg !3197, !noundef !55
  store i64 %offset, ptr %offset.dbg.spill, align 8, !dbg !3197
  call void @llvm.dbg.declare(metadata ptr %offset.dbg.spill, metadata !3062, metadata !DIExpression()), !dbg !3198
  switch i32 %c11, label %bb88 [
    i32 69, label %bb90
    i32 101, label %bb91
    i32 80, label %bb93
    i32 112, label %bb94
  ], !dbg !3199

bb114:                                            ; preds = %bb111, %bb112, %bb86
  %_161 = load float, ptr %sig, align 4, !dbg !3200, !noundef !55
  %_162 = load float, ptr %exp, align 4, !dbg !3201, !noundef !55
  %_160 = fmul float %_161, %_162, !dbg !3200
  %137 = getelementptr inbounds i8, ptr %_0, i64 4, !dbg !3202
  store float %_160, ptr %137, align 4, !dbg !3202
  store i8 0, ptr %_0, align 4, !dbg !3202
  br label %bb115, !dbg !3095

bb88:                                             ; preds = %bb94, %bb93, %bb91, %bb90, %bb87
  store i8 1, ptr %_134, align 1, !dbg !3203
  %138 = load i8, ptr %_134, align 1, !dbg !3204, !range !165, !noundef !55
  %139 = trunc i8 %138 to i1, !dbg !3204
  %140 = zext i1 %139 to i8, !dbg !3204
  store i8 %140, ptr %_133, align 1, !dbg !3204
  %141 = load i8, ptr %_133, align 1, !dbg !3205, !range !165, !noundef !55
  %142 = trunc i8 %141 to i1, !dbg !3205
  %143 = getelementptr inbounds i8, ptr %_0, i64 1, !dbg !3205
  %144 = zext i1 %142 to i8, !dbg !3205
  store i8 %144, ptr %143, align 1, !dbg !3205
  store i8 1, ptr %_0, align 4, !dbg !3205
  br label %bb115, !dbg !3206

bb90:                                             ; preds = %bb87
  %145 = icmp eq i32 %radix, 10, !dbg !3207
  br i1 %145, label %bb89, label %bb88, !dbg !3207

bb91:                                             ; preds = %bb87
  %146 = icmp eq i32 %radix, 10, !dbg !3207
  br i1 %146, label %bb89, label %bb88, !dbg !3207

bb93:                                             ; preds = %bb87
  %147 = icmp eq i32 %radix, 16, !dbg !3208
  br i1 %147, label %bb92, label %bb88, !dbg !3208

bb94:                                             ; preds = %bb87
  %148 = icmp eq i32 %radix, 16, !dbg !3208
  br i1 %148, label %bb92, label %bb88, !dbg !3208

bb89:                                             ; preds = %bb91, %bb90
  store float 1.000000e+01, ptr %base, align 4, !dbg !3209
  br label %bb95, !dbg !3209

bb95:                                             ; preds = %bb92, %bb89
  store i64 %offset, ptr %_136, align 8, !dbg !3210
  %149 = load i64, ptr %_136, align 8, !dbg !3211, !noundef !55
; call core::str::traits::<impl core::ops::index::Index<I> for str>::index
  %150 = call { ptr, i64 } @"_ZN4core3str6traits66_$LT$impl$u20$core..ops..index..Index$LT$I$GT$$u20$for$u20$str$GT$5index17hd5764ded42a4d321E"(ptr align 1 %src.03, i64 %src.14, i64 %149, ptr align 8 @alloc_e9da7d8a5f3b4a985a1998fb900aef5f), !dbg !3211
  %src.013 = extractvalue { ptr, i64 } %150, 0, !dbg !3211
  %src.114 = extractvalue { ptr, i64 } %150, 1, !dbg !3211
  store ptr %src.013, ptr %src.dbg.spill15, align 8, !dbg !3211
  %151 = getelementptr inbounds i8, ptr %src.dbg.spill15, i64 8, !dbg !3211
  store i64 %src.114, ptr %151, align 8, !dbg !3211
  call void @llvm.dbg.declare(metadata ptr %src.dbg.spill15, metadata !3065, metadata !DIExpression()), !dbg !3212
; call <f32 as num_traits::Num>::from_str_radix::slice_shift_char
  call void @"_ZN39_$LT$f32$u20$as$u20$num_traits..Num$GT$14from_str_radix16slice_shift_char17h547fb94a0e22d574E"(ptr sret(%"core::option::Option<(char, &str)>") align 8 %_140, ptr align 1 %src.013, i64 %src.114), !dbg !3213
  %152 = load i32, ptr %_140, align 8, !dbg !3213, !range !275, !noundef !55
  %153 = icmp eq i32 %152, 1114112, !dbg !3213
  %_141 = select i1 %153, i64 0, i64 1, !dbg !3213
  %154 = icmp eq i64 %_141, 0, !dbg !3214
  br i1 %154, label %bb98, label %bb99, !dbg !3214

bb92:                                             ; preds = %bb94, %bb93
  store float 2.000000e+00, ptr %base, align 4, !dbg !3215
  br label %bb95, !dbg !3215

bb98:                                             ; preds = %bb95
  store i8 1, ptr %_148, align 1, !dbg !3216
  %155 = load i8, ptr %_148, align 1, !dbg !3217, !range !165, !noundef !55
  %156 = trunc i8 %155 to i1, !dbg !3217
  %157 = zext i1 %156 to i8, !dbg !3217
  store i8 %157, ptr %_147, align 1, !dbg !3217
  %158 = load i8, ptr %_147, align 1, !dbg !3218, !range !165, !noundef !55
  %159 = trunc i8 %158 to i1, !dbg !3218
  %160 = getelementptr inbounds i8, ptr %_0, i64 1, !dbg !3218
  %161 = zext i1 %159 to i8, !dbg !3218
  store i8 %161, ptr %160, align 1, !dbg !3218
  store i8 1, ptr %_0, align 4, !dbg !3218
  br label %bb115, !dbg !3219

bb99:                                             ; preds = %bb95
  %162 = load i32, ptr %_140, align 8, !dbg !3214, !range !281, !noundef !55
  switch i32 %162, label %bb104 [
    i32 45, label %bb100
    i32 43, label %bb102
  ], !dbg !3214

bb104:                                            ; preds = %bb99
; call core::str::<impl str>::parse
  call void @"_ZN4core3str21_$LT$impl$u20$str$GT$5parse17h24324fe1c1b56ae5E"(ptr sret(%"core::result::Result<usize, core::num::error::ParseIntError>") align 8 %_146, ptr align 1 %src.013, i64 %src.114), !dbg !3220
  store i8 1, ptr %_139, align 8, !dbg !3221
  %163 = getelementptr inbounds i8, ptr %_139, i64 8, !dbg !3221
  call void @llvm.memcpy.p0.p0.i64(ptr align 8 %163, ptr align 8 %_146, i64 16, i1 false), !dbg !3221
  br label %bb106, !dbg !3222

bb100:                                            ; preds = %bb99
  %164 = getelementptr inbounds i8, ptr %_140, i64 8, !dbg !3223
  %src.016 = load ptr, ptr %164, align 8, !dbg !3223, !nonnull !55, !align !932, !noundef !55
  %165 = getelementptr inbounds i8, ptr %164, i64 8, !dbg !3223
  %src.117 = load i64, ptr %165, align 8, !dbg !3223, !noundef !55
  store ptr %src.016, ptr %src.dbg.spill18, align 8, !dbg !3223
  %166 = getelementptr inbounds i8, ptr %src.dbg.spill18, i64 8, !dbg !3223
  store i64 %src.117, ptr %166, align 8, !dbg !3223
  call void @llvm.dbg.declare(metadata ptr %src.dbg.spill18, metadata !3070, metadata !DIExpression()), !dbg !3224
; call core::str::<impl str>::parse
  call void @"_ZN4core3str21_$LT$impl$u20$str$GT$5parse17h24324fe1c1b56ae5E"(ptr sret(%"core::result::Result<usize, core::num::error::ParseIntError>") align 8 %_143, ptr align 1 %src.016, i64 %src.117), !dbg !3225
  store i8 0, ptr %_139, align 8, !dbg !3226
  %167 = getelementptr inbounds i8, ptr %_139, i64 8, !dbg !3226
  call void @llvm.memcpy.p0.p0.i64(ptr align 8 %167, ptr align 8 %_143, i64 16, i1 false), !dbg !3226
  br label %bb106, !dbg !3227

bb102:                                            ; preds = %bb99
  %168 = getelementptr inbounds i8, ptr %_140, i64 8, !dbg !3228
  %src.019 = load ptr, ptr %168, align 8, !dbg !3228, !nonnull !55, !align !932, !noundef !55
  %169 = getelementptr inbounds i8, ptr %168, i64 8, !dbg !3228
  %src.120 = load i64, ptr %169, align 8, !dbg !3228, !noundef !55
  store ptr %src.019, ptr %src.dbg.spill21, align 8, !dbg !3228
  %170 = getelementptr inbounds i8, ptr %src.dbg.spill21, i64 8, !dbg !3228
  store i64 %src.120, ptr %170, align 8, !dbg !3228
  call void @llvm.dbg.declare(metadata ptr %src.dbg.spill21, metadata !3072, metadata !DIExpression()), !dbg !3229
; call core::str::<impl str>::parse
  call void @"_ZN4core3str21_$LT$impl$u20$str$GT$5parse17h24324fe1c1b56ae5E"(ptr sret(%"core::result::Result<usize, core::num::error::ParseIntError>") align 8 %_145, ptr align 1 %src.019, i64 %src.120), !dbg !3230
  store i8 1, ptr %_139, align 8, !dbg !3231
  %171 = getelementptr inbounds i8, ptr %_139, i64 8, !dbg !3231
  call void @llvm.memcpy.p0.p0.i64(ptr align 8 %171, ptr align 8 %_145, i64 16, i1 false), !dbg !3231
  br label %bb106, !dbg !3232

bb106:                                            ; preds = %bb104, %bb102, %bb100
  %172 = load i8, ptr %_139, align 8, !dbg !3233, !range !165, !noundef !55
  %is_positive22 = trunc i8 %172 to i1, !dbg !3233
  %173 = zext i1 %is_positive22 to i8, !dbg !3233
  store i8 %173, ptr %is_positive.dbg.spill23, align 1, !dbg !3233
  call void @llvm.dbg.declare(metadata ptr %is_positive.dbg.spill23, metadata !3067, metadata !DIExpression()), !dbg !3234
  %174 = getelementptr inbounds i8, ptr %_139, i64 8, !dbg !3235
  call void @llvm.memcpy.p0.p0.i64(ptr align 8 %exp2, ptr align 8 %174, i64 16, i1 false), !dbg !3235
  %175 = zext i1 %is_positive22 to i8, !dbg !3236
  store i8 %175, ptr %_149, align 8, !dbg !3236
  %176 = getelementptr inbounds i8, ptr %_149, i64 8, !dbg !3236
  call void @llvm.memcpy.p0.p0.i64(ptr align 8 %176, ptr align 8 %exp2, i64 16, i1 false), !dbg !3236
  %177 = load i8, ptr %_149, align 8, !dbg !3237, !range !165, !noundef !55
  %178 = trunc i8 %177 to i1, !dbg !3237
  br i1 %178, label %bb110, label %bb109, !dbg !3237

bb109:                                            ; preds = %bb106
  %179 = getelementptr inbounds i8, ptr %_149, i64 8, !dbg !3236
  %180 = load i8, ptr %179, align 8, !dbg !3236, !range !165, !noundef !55
  %181 = trunc i8 %180 to i1, !dbg !3236
  %_151 = zext i1 %181 to i64, !dbg !3236
  %182 = icmp eq i64 %_151, 0, !dbg !3237
  br i1 %182, label %bb112, label %bb107, !dbg !3237

bb110:                                            ; preds = %bb106
  %183 = getelementptr inbounds i8, ptr %_149, i64 8, !dbg !3236
  %184 = load i8, ptr %183, align 8, !dbg !3236, !range !165, !noundef !55
  %185 = trunc i8 %184 to i1, !dbg !3236
  %_152 = zext i1 %185 to i64, !dbg !3236
  %186 = icmp eq i64 %_152, 0, !dbg !3237
  br i1 %186, label %bb111, label %bb107, !dbg !3237

bb112:                                            ; preds = %bb109
  %187 = getelementptr inbounds i8, ptr %_149, i64 8, !dbg !3238
  %188 = getelementptr inbounds i8, ptr %187, i64 8, !dbg !3238
  %exp24 = load i64, ptr %188, align 8, !dbg !3238, !noundef !55
  store i64 %exp24, ptr %exp.dbg.spill, align 8, !dbg !3238
  call void @llvm.dbg.declare(metadata ptr %exp.dbg.spill, metadata !3076, metadata !DIExpression()), !dbg !3239
  %_157 = load float, ptr %base, align 4, !dbg !3240, !noundef !55
; call <f32 as num_traits::Num>::from_str_radix::pow
  %_156 = call float @"_ZN39_$LT$f32$u20$as$u20$num_traits..Num$GT$14from_str_radix3pow17h78ed0a2f096ef4f5E"(float %_157, i64 %exp24), !dbg !3241
  %189 = fdiv float 1.000000e+00, %_156, !dbg !3242
  store float %189, ptr %exp, align 4, !dbg !3242
  br label %bb114, !dbg !3243

bb107:                                            ; preds = %bb110, %bb109
  %190 = getelementptr inbounds i8, ptr %_149, i64 8, !dbg !3236
  %191 = load i8, ptr %190, align 8, !dbg !3236, !range !165, !noundef !55
  %192 = trunc i8 %191 to i1, !dbg !3236
  %_150 = zext i1 %192 to i64, !dbg !3236
  %193 = icmp eq i64 %_150, 1, !dbg !3237
  br i1 %193, label %bb108, label %bb21, !dbg !3237

bb111:                                            ; preds = %bb110
  %194 = getelementptr inbounds i8, ptr %_149, i64 8, !dbg !3244
  %195 = getelementptr inbounds i8, ptr %194, i64 8, !dbg !3244
  %exp25 = load i64, ptr %195, align 8, !dbg !3244, !noundef !55
  store i64 %exp25, ptr %exp.dbg.spill26, align 8, !dbg !3244
  call void @llvm.dbg.declare(metadata ptr %exp.dbg.spill26, metadata !3074, metadata !DIExpression()), !dbg !3245
  %_154 = load float, ptr %base, align 4, !dbg !3246, !noundef !55
; call <f32 as num_traits::Num>::from_str_radix::pow
  %196 = call float @"_ZN39_$LT$f32$u20$as$u20$num_traits..Num$GT$14from_str_radix3pow17h78ed0a2f096ef4f5E"(float %_154, i64 %exp25), !dbg !3247
  store float %196, ptr %exp, align 4, !dbg !3247
  br label %bb114, !dbg !3247

bb108:                                            ; preds = %bb107
  store i8 1, ptr %_159, align 1, !dbg !3248
  %197 = load i8, ptr %_159, align 1, !dbg !3249, !range !165, !noundef !55
  %198 = trunc i8 %197 to i1, !dbg !3249
  %199 = zext i1 %198 to i8, !dbg !3249
  store i8 %199, ptr %_158, align 1, !dbg !3249
  %200 = load i8, ptr %_158, align 1, !dbg !3250, !range !165, !noundef !55
  %201 = trunc i8 %200 to i1, !dbg !3250
  %202 = getelementptr inbounds i8, ptr %_0, i64 1, !dbg !3250
  %203 = zext i1 %201 to i8, !dbg !3250
  store i8 %203, ptr %202, align 1, !dbg !3250
  store i8 1, ptr %_0, align 4, !dbg !3250
  br label %bb115, !dbg !3251

bb21:                                             ; preds = %bb107
  unreachable, !dbg !3113

bb74:                                             ; preds = %bb72
  %_111 = load float, ptr %sig, align 4, !dbg !3252, !noundef !55
  %_113 = uitofp i32 %digit to float, !dbg !3253
  %_114 = load float, ptr %power, align 4, !dbg !3254, !noundef !55
  %_112 = fmul float %_113, %_114, !dbg !3253
  %204 = fsub float %_111, %_112, !dbg !3252
  store float %204, ptr %_106, align 4, !dbg !3252
  br label %bb75, !dbg !3255

bb73:                                             ; preds = %bb72
  %_107 = load float, ptr %sig, align 4, !dbg !3256, !noundef !55
  %_109 = uitofp i32 %digit to float, !dbg !3257
  %_110 = load float, ptr %power, align 4, !dbg !3258, !noundef !55
  %_108 = fmul float %_109, %_110, !dbg !3257
  %205 = fadd float %_107, %_108, !dbg !3256
  store float %205, ptr %_106, align 4, !dbg !3256
  br label %bb75, !dbg !3255

bb75:                                             ; preds = %bb73, %bb74
  %206 = load float, ptr %_106, align 4, !dbg !3259, !noundef !55
  store float %206, ptr %sig, align 4, !dbg !3259
  br i1 %is_positive, label %bb76, label %bb78, !dbg !3260

bb78:                                             ; preds = %bb76, %bb75
  br i1 %is_positive, label %bb81, label %bb79, !dbg !3261

bb76:                                             ; preds = %bb75
  %_116 = load float, ptr %sig, align 4, !dbg !3262, !noundef !55
  %_117 = load float, ptr %prev_sig, align 4, !dbg !3263, !noundef !55
  %_115 = fcmp olt float %_116, %_117, !dbg !3262
  br i1 %_115, label %bb77, label %bb78, !dbg !3262

bb77:                                             ; preds = %bb76
  %207 = getelementptr inbounds i8, ptr %_0, i64 4, !dbg !3264
  store float 0x7FF0000000000000, ptr %207, align 4, !dbg !3264
  store i8 0, ptr %_0, align 4, !dbg !3264
  br label %bb115, !dbg !3265

bb79:                                             ; preds = %bb78
  %_119 = load float, ptr %sig, align 4, !dbg !3266, !noundef !55
  %_120 = load float, ptr %prev_sig, align 4, !dbg !3267, !noundef !55
  %_118 = fcmp ogt float %_119, %_120, !dbg !3266
  br i1 %_118, label %bb80, label %bb81, !dbg !3266

bb81:                                             ; preds = %bb79, %bb78
  %_121 = load float, ptr %sig, align 4, !dbg !3268, !noundef !55
  store float %_121, ptr %prev_sig, align 4, !dbg !3269
  br label %bb67, !dbg !3172

bb80:                                             ; preds = %bb79
  %208 = getelementptr inbounds i8, ptr %_0, i64 4, !dbg !3270
  store float 0xFFF0000000000000, ptr %208, align 4, !dbg !3270
  store i8 0, ptr %_0, align 4, !dbg !3270
  br label %bb115, !dbg !3265

bb44:                                             ; preds = %bb42
  %_60 = zext i32 %digit27 to i64, !dbg !3271
  %_59 = sitofp i64 %_60 to float, !dbg !3271
  %209 = load float, ptr %sig, align 4, !dbg !3272, !noundef !55
  %210 = fsub float %209, %_59, !dbg !3272
  store float %210, ptr %sig, align 4, !dbg !3272
  br label %bb45, !dbg !3273

bb43:                                             ; preds = %bb42
  %_58 = zext i32 %digit27 to i64, !dbg !3274
  %_57 = sitofp i64 %_58 to float, !dbg !3274
  %211 = load float, ptr %sig, align 4, !dbg !3275, !noundef !55
  %212 = fadd float %211, %_57, !dbg !3275
  store float %212, ptr %sig, align 4, !dbg !3275
  br label %bb45, !dbg !3273

bb45:                                             ; preds = %bb43, %bb44
  %_62 = load float, ptr %prev_sig, align 4, !dbg !3276, !noundef !55
  %_61 = fcmp une float %_62, 0.000000e+00, !dbg !3276
  br i1 %_61, label %bb46, label %bb58, !dbg !3276

bb58:                                             ; preds = %bb56, %bb55, %bb45
  %_83 = load float, ptr %sig, align 4, !dbg !3277, !noundef !55
  store float %_83, ptr %prev_sig, align 4, !dbg !3278
  br label %bb37, !dbg !3145

bb46:                                             ; preds = %bb45
  br i1 %is_positive, label %bb47, label %bb49, !dbg !3279

bb49:                                             ; preds = %bb47, %bb46
  br i1 %is_positive, label %bb52, label %bb50, !dbg !3280

bb47:                                             ; preds = %bb46
  %_64 = load float, ptr %sig, align 4, !dbg !3281, !noundef !55
  %_65 = load float, ptr %prev_sig, align 4, !dbg !3282, !noundef !55
  %_63 = fcmp ole float %_64, %_65, !dbg !3281
  br i1 %_63, label %bb48, label %bb49, !dbg !3281

bb48:                                             ; preds = %bb47
  %213 = getelementptr inbounds i8, ptr %_0, i64 4, !dbg !3283
  store float 0x7FF0000000000000, ptr %213, align 4, !dbg !3283
  store i8 0, ptr %_0, align 4, !dbg !3283
  br label %bb115, !dbg !3284

bb50:                                             ; preds = %bb49
  %_67 = load float, ptr %sig, align 4, !dbg !3285, !noundef !55
  %_68 = load float, ptr %prev_sig, align 4, !dbg !3286, !noundef !55
  %_66 = fcmp oge float %_67, %_68, !dbg !3285
  br i1 %_66, label %bb51, label %bb52, !dbg !3285

bb52:                                             ; preds = %bb50, %bb49
  br i1 %is_positive, label %bb53, label %bb55, !dbg !3287

bb51:                                             ; preds = %bb50
  %214 = getelementptr inbounds i8, ptr %_0, i64 4, !dbg !3288
  store float 0xFFF0000000000000, ptr %214, align 4, !dbg !3288
  store i8 0, ptr %_0, align 4, !dbg !3288
  br label %bb115, !dbg !3284

bb55:                                             ; preds = %bb53, %bb52
  br i1 %is_positive, label %bb58, label %bb56, !dbg !3289

bb53:                                             ; preds = %bb52
  %_70 = load float, ptr %prev_sig, align 4, !dbg !3290, !noundef !55
  %_73 = load float, ptr %sig, align 4, !dbg !3291, !noundef !55
  %_74 = uitofp i32 %digit27 to float, !dbg !3292
  %_72 = fsub float %_73, %_74, !dbg !3293
  %_75 = uitofp i32 %radix to float, !dbg !3294
  %_71 = fdiv float %_72, %_75, !dbg !3293
  %_69 = fcmp une float %_70, %_71, !dbg !3295
  br i1 %_69, label %bb54, label %bb55, !dbg !3295

bb54:                                             ; preds = %bb53
  %215 = getelementptr inbounds i8, ptr %_0, i64 4, !dbg !3296
  store float 0x7FF0000000000000, ptr %215, align 4, !dbg !3296
  store i8 0, ptr %_0, align 4, !dbg !3296
  br label %bb115, !dbg !3284

bb56:                                             ; preds = %bb55
  %_77 = load float, ptr %prev_sig, align 4, !dbg !3297, !noundef !55
  %_80 = load float, ptr %sig, align 4, !dbg !3298, !noundef !55
  %_81 = uitofp i32 %digit27 to float, !dbg !3299
  %_79 = fadd float %_80, %_81, !dbg !3300
  %_82 = uitofp i32 %radix to float, !dbg !3301
  %_78 = fdiv float %_79, %_82, !dbg !3300
  %_76 = fcmp une float %_77, %_78, !dbg !3302
  br i1 %_76, label %bb57, label %bb58, !dbg !3302

bb57:                                             ; preds = %bb56
  %216 = getelementptr inbounds i8, ptr %_0, i64 4, !dbg !3303
  store float 0xFFF0000000000000, ptr %216, align 4, !dbg !3303
  store i8 0, ptr %_0, align 4, !dbg !3303
  br label %bb115, !dbg !3284
}

; <f32 as num_traits::Num>::from_str_radix::{{closure}}
; Function Attrs: inlinehint uwtable
define internal zeroext i1 @"_ZN39_$LT$f32$u20$as$u20$num_traits..Num$GT$14from_str_radix28_$u7b$$u7b$closure$u7d$$u7d$17h51e3ea21866efcddE"(ptr align 8 %0, i1 zeroext %_2) unnamed_addr #0 !dbg !3304 {
start:
  %_2.dbg.spill = alloca i8, align 1
  %_3 = alloca i8, align 1
  %_0 = alloca i8, align 1
  %_1 = alloca ptr, align 8
  store ptr %0, ptr %_1, align 8
  call void @llvm.dbg.declare(metadata ptr %_1, metadata !3308, metadata !DIExpression(DW_OP_deref)), !dbg !3310
  %1 = zext i1 %_2 to i8
  store i8 %1, ptr %_2.dbg.spill, align 1
  call void @llvm.dbg.declare(metadata ptr %_2.dbg.spill, metadata !3309, metadata !DIExpression()), !dbg !3311
  %_5 = load ptr, ptr %_1, align 8, !dbg !3312, !nonnull !55, !align !655, !noundef !55
  %_6.0 = load ptr, ptr %_5, align 8, !dbg !3312, !nonnull !55, !align !932, !noundef !55
  %2 = getelementptr inbounds i8, ptr %_5, i64 8, !dbg !3312
  %_6.1 = load i64, ptr %2, align 8, !dbg !3312, !noundef !55
; call core::str::<impl str>::is_empty
  %_4 = call zeroext i1 @"_ZN4core3str21_$LT$impl$u20$str$GT$8is_empty17h15a4a5a2f4e4d0cbE"(ptr align 1 %_6.0, i64 %_6.1), !dbg !3312
  br i1 %_4, label %bb2, label %bb3, !dbg !3312

bb3:                                              ; preds = %start
  store i8 1, ptr %_3, align 1, !dbg !3313
  br label %bb4, !dbg !3314

bb2:                                              ; preds = %start
  store i8 0, ptr %_3, align 1, !dbg !3315
  br label %bb4, !dbg !3314

bb4:                                              ; preds = %bb2, %bb3
  %3 = load i8, ptr %_3, align 1, !dbg !3316, !range !165, !noundef !55
  %4 = trunc i8 %3 to i1, !dbg !3316
  %5 = zext i1 %4 to i8, !dbg !3316
  store i8 %5, ptr %_0, align 1, !dbg !3316
  %6 = load i8, ptr %_0, align 1, !dbg !3317, !range !165, !noundef !55
  %7 = trunc i8 %6 to i1, !dbg !3317
  ret i1 %7, !dbg !3317
}

; <f32 as num_traits::Num>::from_str_radix::slice_shift_char
; Function Attrs: uwtable
define internal void @"_ZN39_$LT$f32$u20$as$u20$num_traits..Num$GT$14from_str_radix16slice_shift_char17h547fb94a0e22d574E"(ptr sret(%"core::option::Option<(char, &str)>") align 8 %_0, ptr align 1 %src.0, i64 %src.1) unnamed_addr #1 !dbg !3318 {
start:
  %val.dbg.spill = alloca i32, align 4
  %src.dbg.spill = alloca { ptr, i64 }, align 8
  %_4 = alloca i32, align 4
  %_3 = alloca { i32, [1 x i32], { ptr, i64 } }, align 8
  %chars = alloca %"core::str::iter::Chars<'_>", align 8
  %residual.dbg.spill = alloca %"core::option::Option<core::convert::Infallible>::None", align 1
  call void @llvm.dbg.declare(metadata ptr %residual.dbg.spill, metadata !3325, metadata !DIExpression()), !dbg !3329
  store ptr %src.0, ptr %src.dbg.spill, align 8, !dbg !3329
  %0 = getelementptr inbounds i8, ptr %src.dbg.spill, i64 8, !dbg !3329
  store i64 %src.1, ptr %0, align 8, !dbg !3329
  call void @llvm.dbg.declare(metadata ptr %src.dbg.spill, metadata !3322, metadata !DIExpression()), !dbg !3330
  call void @llvm.dbg.declare(metadata ptr %chars, metadata !3323, metadata !DIExpression()), !dbg !3331
; call core::str::<impl str>::chars
  %1 = call { ptr, ptr } @"_ZN4core3str21_$LT$impl$u20$str$GT$5chars17h085b5d73579197ddE"(ptr align 1 %src.0, i64 %src.1), !dbg !3332
  %2 = extractvalue { ptr, ptr } %1, 0, !dbg !3332
  %3 = extractvalue { ptr, ptr } %1, 1, !dbg !3332
  store ptr %2, ptr %chars, align 8, !dbg !3332
  %4 = getelementptr inbounds i8, ptr %chars, i64 8, !dbg !3332
  store ptr %3, ptr %4, align 8, !dbg !3332
; call <core::str::iter::Chars as core::iter::traits::iterator::Iterator>::next
  %_5 = call i32 @"_ZN81_$LT$core..str..iter..Chars$u20$as$u20$core..iter..traits..iterator..Iterator$GT$4next17h0f95308b8f9dd8b5E"(ptr align 8 %chars), !dbg !3333, !range !275
; call <core::option::Option<T> as core::ops::try_trait::Try>::branch
  %5 = call i32 @"_ZN75_$LT$core..option..Option$LT$T$GT$$u20$as$u20$core..ops..try_trait..Try$GT$6branch17hdf3367fa2ce5da8bE"(i32 %_5), !dbg !3333, !range !275
  store i32 %5, ptr %_4, align 4, !dbg !3333
  %6 = load i32, ptr %_4, align 4, !dbg !3333, !range !275, !noundef !55
  %7 = icmp eq i32 %6, 1114112, !dbg !3333
  %_7 = select i1 %7, i64 1, i64 0, !dbg !3333
  %8 = icmp eq i64 %_7, 0, !dbg !3333
  br i1 %8, label %bb5, label %bb6, !dbg !3333

bb5:                                              ; preds = %start
  %val = load i32, ptr %_4, align 4, !dbg !3333, !range !281, !noundef !55
  store i32 %val, ptr %val.dbg.spill, align 4, !dbg !3333
  call void @llvm.dbg.declare(metadata ptr %val.dbg.spill, metadata !3327, metadata !DIExpression()), !dbg !3334
; call core::str::iter::Chars::as_str
  %9 = call { ptr, i64 } @_ZN4core3str4iter5Chars6as_str17hcc55fce25788b6c1E(ptr align 8 %chars), !dbg !3335
  %_9.0 = extractvalue { ptr, i64 } %9, 0, !dbg !3335
  %_9.1 = extractvalue { ptr, i64 } %9, 1, !dbg !3335
  store i32 %val, ptr %_3, align 8, !dbg !3336
  %10 = getelementptr inbounds i8, ptr %_3, i64 8, !dbg !3336
  store ptr %_9.0, ptr %10, align 8, !dbg !3336
