; ModuleID = 'u7aulk7sbzcxu7c'
source_filename = "u7aulk7sbzcxu7c"
target datalayout = "e-m:o-i64:64-i128:128-n32:64-S128"
target triple = "arm64-apple-macosx11.0.0"

%"core::sync::atomic::AtomicPtr<parking_lot_core::parking_lot::HashTable>" = type { ptr }
%"std::sys::thread_local::fast_local::Key<parking_lot_core::parking_lot::ThreadData>" = type { %"std::sys::thread_local::lazy::LazyKeyInner<parking_lot_core::parking_lot::ThreadData>", i8, [7 x i8] }
%"std::sys::thread_local::lazy::LazyKeyInner<parking_lot_core::parking_lot::ThreadData>" = type { %"core::cell::UnsafeCell<core::option::Option<parking_lot_core::parking_lot::ThreadData>>" }
%"core::cell::UnsafeCell<core::option::Option<parking_lot_core::parking_lot::ThreadData>>" = type { %"core::option::Option<parking_lot_core::parking_lot::ThreadData>" }
%"core::option::Option<parking_lot_core::parking_lot::ThreadData>" = type { i64, [20 x i64] }
%"core::option::Option<parking_lot_core::thread_parker::imp::UnparkHandle>" = type { i64, [1 x i64] }
%"core::option::Option<core::fmt::Arguments<'_>>" = type { ptr, [5 x i64] }
%"libc::unix::timespec" = type { i64, i64 }
%"core::option::Option<libc::unix::timespec>" = type { i64, [2 x i64] }
%"std::time::Instant" = type { %"std::sys::pal::unix::time::Instant" }
%"std::sys::pal::unix::time::Instant" = type { %"std::sys::pal::unix::time::Timespec" }
%"std::sys::pal::unix::time::Timespec" = type { i64, i32, [1 x i32] }
%"smallvec::CollectionAllocErr" = type { i64, [1 x i64] }
%"core::result::Result<(), smallvec::CollectionAllocErr>" = type { i64, [1 x i64] }
%"core::result::Result<core::convert::Infallible, smallvec::CollectionAllocErr>::Err" = type { %"smallvec::CollectionAllocErr" }
%"core::result::Result<core::alloc::layout::Layout, smallvec::CollectionAllocErr>" = type { i64, [2 x i64] }
%"parking_lot_core::parking_lot::ParkResult" = type { i64, [1 x i64] }
%"core::ptr::metadata::PtrComponents<parking_lot_core::parking_lot::ThreadData>" = type { ptr, {} }
%"core::ptr::metadata::PtrRepr<parking_lot_core::parking_lot::ThreadData>" = type { [1 x i64] }
%"smallvec::IntoIter<[parking_lot_core::thread_parker::imp::UnparkHandle; 8]>" = type { %"smallvec::SmallVec<[parking_lot_core::thread_parker::imp::UnparkHandle; 8]>", i64, i64 }
%"smallvec::SmallVec<[parking_lot_core::thread_parker::imp::UnparkHandle; 8]>" = type { %"smallvec::SmallVecData<[parking_lot_core::thread_parker::imp::UnparkHandle; 8]>", i64 }
%"smallvec::SmallVecData<[parking_lot_core::thread_parker::imp::UnparkHandle; 8]>" = type { i64, [8 x i64] }
%"parking_lot_core::parking_lot::UnparkResult" = type { i64, i64, {}, i8, i8, [6 x i8] }
%"{closure@src/raw_mutex.rs:296:24: 296:46}" = type { ptr, ptr }
%"parking_lot_core::parking_lot::Bucket" = type { %"parking_lot_core::word_lock::WordLock", ptr, ptr, %"core::cell::UnsafeCell<parking_lot_core::parking_lot::FairTimeout>", [2 x i64] }
%"parking_lot_core::word_lock::WordLock" = type { %"core::sync::atomic::AtomicUsize" }
%"core::sync::atomic::AtomicUsize" = type { i64 }
%"core::cell::UnsafeCell<parking_lot_core::parking_lot::FairTimeout>" = type { %"parking_lot_core::parking_lot::FairTimeout" }
%"parking_lot_core::parking_lot::FairTimeout" = type { %"std::time::Instant", i32, [1 x i32] }
%"core::option::Option<(*const parking_lot_core::parking_lot::ThreadData, core::option::Option<parking_lot_core::thread_parker::imp::UnparkHandle>)>" = type { [1 x i64], i64, [1 x i64] }
%"smallvec::IntoIter<[(*const parking_lot_core::parking_lot::ThreadData, core::option::Option<parking_lot_core::thread_parker::imp::UnparkHandle>); 8]>" = type { %"smallvec::SmallVec<[(*const parking_lot_core::parking_lot::ThreadData, core::option::Option<parking_lot_core::thread_parker::imp::UnparkHandle>); 8]>", i64, i64 }
%"smallvec::SmallVec<[(*const parking_lot_core::parking_lot::ThreadData, core::option::Option<parking_lot_core::thread_parker::imp::UnparkHandle>); 8]>" = type { %"smallvec::SmallVecData<[(*const parking_lot_core::parking_lot::ThreadData, core::option::Option<parking_lot_core::thread_parker::imp::UnparkHandle>); 8]>", i64 }
%"smallvec::SmallVecData<[(*const parking_lot_core::parking_lot::ThreadData, core::option::Option<parking_lot_core::thread_parker::imp::UnparkHandle>); 8]>" = type { i64, [24 x i64] }
%"core::slice::iter::IterMut<'_, (*const parking_lot_core::parking_lot::ThreadData, core::option::Option<parking_lot_core::thread_parker::imp::UnparkHandle>)>" = type { ptr, ptr, %"core::marker::PhantomData<&mut (*const parking_lot_core::parking_lot::ThreadData, core::option::Option<parking_lot_core::thread_parker::imp::UnparkHandle>)>" }
%"core::marker::PhantomData<&mut (*const parking_lot_core::parking_lot::ThreadData, core::option::Option<parking_lot_core::thread_parker::imp::UnparkHandle>)>" = type {}
%"{closure@src/raw_rwlock.rs:967:24: 967:32}" = type { %"{closure@src/raw_rwlock.rs:802:24: 802:57}", ptr }
%"{closure@src/raw_rwlock.rs:802:24: 802:57}" = type { ptr, ptr }
%"{closure@src/raw_rwlock.rs:967:24: 967:32}.0" = type { %"{closure@src/raw_rwlock.rs:653:24: 653:61}", ptr }
%"{closure@src/raw_rwlock.rs:653:24: 653:61}" = type { ptr, ptr }
%"{closure@src/raw_rwlock.rs:967:24: 967:32}.1" = type { ptr, ptr }
%"{closure@src/raw_rwlock.rs:967:24: 967:32}.2" = type { ptr, ptr }
%"{closure@src/raw_rwlock.rs:967:24: 967:32}.3" = type { ptr, ptr }
%"{closure@src/condvar.rs:202:24: 202:26}" = type { ptr, ptr }
%"core::option::Option<*const parking_lot_core::parking_lot::ThreadData>" = type { i64, [1 x i64] }
%"{closure@src/condvar.rs:143:24: 143:26}" = type { ptr, ptr }
%"{closure@parking_lot_core::parking_lot::with_thread_data<parking_lot_core::parking_lot::ParkResult, {closure@parking_lot_core::parking_lot::park<{closure@src/condvar.rs:303:28: 303:30}, {closure@src/condvar.rs:316:32: 316:34}, {closure@src/condvar.rs:320:29: 320:49}>::{closure#0}}>::{closure#0}}" = type {}
%"std::thread::local::AccessError" = type {}
%"{closure@parking_lot_core::parking_lot::with_thread_data<parking_lot_core::parking_lot::ParkResult, {closure@parking_lot_core::parking_lot::park<{closure@src/once.rs:256:28: 256:30}, {closure@src/once.rs:257:32: 257:34}, {closure@src/once.rs:258:29: 258:35}>::{closure#0}}>::{closure#0}}" = type {}
%"{closure@parking_lot_core::parking_lot::with_thread_data<parking_lot_core::parking_lot::ParkResult, {closure@parking_lot_core::parking_lot::park<{closure@src/raw_mutex.rs:249:28: 249:30}, {closure@src/raw_mutex.rs:250:32: 250:34}, {closure@src/raw_mutex.rs:251:29: 251:49}>::{closure#0}}>::{closure#0}}" = type {}
%"{closure@parking_lot_core::parking_lot::with_thread_data<parking_lot_core::parking_lot::ParkResult, {closure@parking_lot_core::parking_lot::park<{closure@src/raw_rwlock.rs:1102:28: 1102:30}, {closure@src/raw_rwlock.rs:1106:32: 1106:34}, {closure@src/raw_rwlock.rs:1107:29: 1107:49}>::{closure#0}}>::{closure#0}}" = type {}
%"{closure@parking_lot_core::parking_lot::with_thread_data<parking_lot_core::parking_lot::ParkResult, {closure@parking_lot_core::parking_lot::park<{closure@src/raw_rwlock.rs:1006:28: 1006:30}, {closure@src/raw_rwlock.rs:1010:32: 1010:34}, {closure@src/raw_rwlock.rs:1011:29: 1011:35}>::{closure#0}}>::{closure#0}}" = type {}
%"{closure@parking_lot_core::parking_lot::with_thread_data<parking_lot_core::parking_lot::ParkResult, {closure@parking_lot_core::parking_lot::park<{closure@src/raw_rwlock.rs:1102:28: 1102:30}, {closure@src/raw_rwlock.rs:1106:32: 1106:34}, {closure@src/raw_rwlock.rs:1107:29: 1107:49}>::{closure#0}}>::{closure#0}}.10" = type {}
%"{closure@parking_lot_core::parking_lot::with_thread_data<parking_lot_core::parking_lot::ParkResult, {closure@parking_lot_core::parking_lot::park<{closure@src/raw_rwlock.rs:1102:28: 1102:30}, {closure@src/raw_rwlock.rs:1106:32: 1106:34}, {closure@src/raw_rwlock.rs:1107:29: 1107:49}>::{closure#0}}>::{closure#0}}.11" = type {}
%"{closure@parking_lot_core::parking_lot::park<{closure@src/once.rs:256:28: 256:30}, {closure@src/once.rs:257:32: 257:34}, {closure@src/once.rs:258:29: 258:35}>::{closure#0}}" = type { ptr, ptr, ptr, ptr, %"{closure@src/once.rs:257:32: 257:34}", %"{closure@src/once.rs:258:29: 258:35}" }
%"{closure@src/once.rs:257:32: 257:34}" = type {}
%"{closure@src/once.rs:258:29: 258:35}" = type {}
%"core::option::Option<std::time::Instant>" = type { [2 x i32], i32, [1 x i32] }
%"{closure@parking_lot_core::parking_lot::park<{closure@src/raw_rwlock.rs:1006:28: 1006:30}, {closure@src/raw_rwlock.rs:1010:32: 1010:34}, {closure@src/raw_rwlock.rs:1011:29: 1011:35}>::{closure#0}}" = type { ptr, ptr, ptr, ptr, %"{closure@src/raw_rwlock.rs:1010:32: 1010:34}", %"{closure@src/raw_rwlock.rs:1011:29: 1011:35}" }
%"{closure@src/raw_rwlock.rs:1010:32: 1010:34}" = type {}
%"{closure@src/raw_rwlock.rs:1011:29: 1011:35}" = type {}
%"{closure@parking_lot_core::parking_lot::park<{closure@src/raw_rwlock.rs:1102:28: 1102:30}, {closure@src/raw_rwlock.rs:1106:32: 1106:34}, {closure@src/raw_rwlock.rs:1107:29: 1107:49}>::{closure#0}}.4" = type { ptr, %"{closure@src/raw_rwlock.rs:1102:28: 1102:30}.5", ptr, ptr, ptr, %"{closure@src/raw_rwlock.rs:1106:32: 1106:34}.6" }
%"{closure@src/raw_rwlock.rs:1102:28: 1102:30}.5" = type { ptr, ptr }
%"{closure@src/raw_rwlock.rs:1106:32: 1106:34}.6" = type {}
%"{closure@parking_lot_core::parking_lot::park<{closure@src/condvar.rs:303:28: 303:30}, {closure@src/condvar.rs:316:32: 316:34}, {closure@src/condvar.rs:320:29: 320:49}>::{closure#0}}" = type { ptr, %"{closure@src/condvar.rs:303:28: 303:30}", ptr, ptr, ptr, %"{closure@src/condvar.rs:320:29: 320:49}" }
%"{closure@src/condvar.rs:303:28: 303:30}" = type { ptr, ptr, ptr }
%"{closure@src/condvar.rs:320:29: 320:49}" = type { ptr, ptr, ptr }
%"{closure@parking_lot_core::parking_lot::park<{closure@src/raw_mutex.rs:249:28: 249:30}, {closure@src/raw_mutex.rs:250:32: 250:34}, {closure@src/raw_mutex.rs:251:29: 251:49}>::{closure#0}}" = type { ptr, ptr, ptr, ptr, ptr, %"{closure@src/raw_mutex.rs:250:32: 250:34}" }
%"{closure@src/raw_mutex.rs:250:32: 250:34}" = type {}
%"{closure@parking_lot_core::parking_lot::park<{closure@src/raw_rwlock.rs:1102:28: 1102:30}, {closure@src/raw_rwlock.rs:1106:32: 1106:34}, {closure@src/raw_rwlock.rs:1107:29: 1107:49}>::{closure#0}}.7" = type { ptr, %"{closure@src/raw_rwlock.rs:1102:28: 1102:30}.8", ptr, ptr, ptr, %"{closure@src/raw_rwlock.rs:1106:32: 1106:34}.9" }
%"{closure@src/raw_rwlock.rs:1102:28: 1102:30}.8" = type { ptr, ptr }
%"{closure@src/raw_rwlock.rs:1106:32: 1106:34}.9" = type {}
%"{closure@parking_lot_core::parking_lot::park<{closure@src/raw_rwlock.rs:1102:28: 1102:30}, {closure@src/raw_rwlock.rs:1106:32: 1106:34}, {closure@src/raw_rwlock.rs:1107:29: 1107:49}>::{closure#0}}" = type { ptr, %"{closure@src/raw_rwlock.rs:1102:28: 1102:30}", ptr, ptr, ptr, %"{closure@src/raw_rwlock.rs:1106:32: 1106:34}" }
%"{closure@src/raw_rwlock.rs:1102:28: 1102:30}" = type { ptr, ptr }
%"{closure@src/raw_rwlock.rs:1106:32: 1106:34}" = type {}
%"core::ptr::metadata::PtrComponents<core::ffi::c_void>" = type { ptr, {} }
%"core::ptr::metadata::PtrRepr<core::ffi::c_void>" = type { [1 x i64] }
%"core::mem::maybe_uninit::MaybeUninit<libc::unix::timeval>" = type { [2 x i64] }
%"core::mem::manually_drop::ManuallyDrop<libc::unix::timeval>" = type { %"libc::unix::timeval" }
%"libc::unix::timeval" = type { i64, i32, [1 x i32] }
%"core::option::Option<i64>" = type { i64, [1 x i64] }
%"core::time::Duration" = type { i64, i32, [1 x i32] }
%"{closure@parking_lot_core::thread_parker::imp::timeout_to_timespec::{closure#0}}" = type {}
%"core::core_arch::arm_shared::barrier::common::SY" = type {}
%"core::option::Option<u32>" = type { i32, [1 x i32] }
%"core::ops::range::Range<u32>" = type { i32, i32 }
%"core::result::Result<usize, usize>" = type { i64, [1 x i64] }
%"core::fmt::Arguments<'_>" = type { { ptr, i64 }, { ptr, i64 }, %"core::option::Option<&[core::fmt::rt::Placeholder]>" }
%"core::option::Option<&[core::fmt::rt::Placeholder]>" = type { ptr, [1 x i64] }
%"core::fmt::rt::Argument<'_>" = type { ptr, ptr }
%"std::sys::pal::unix::stdio::Stderr" = type { {} }
%"core::result::Result<(), alloc::boxed::Box<dyn core::any::Any + core::marker::Send>>" = type { ptr, [1 x i64] }
%"core::option::Option<u8>" = type { i8, [1 x i8] }
%"{closure@src/remutex.rs:23:18: 23:21}" = type {}
%"core::result::Result<*const parking_lot_core::parking_lot::ThreadData, std::thread::local::AccessError>" = type { i64, [1 x i64] }
%"core::result::Result<core::convert::Infallible, std::thread::local::AccessError>::Err" = type { %"std::thread::local::AccessError" }
%"core::mem::manually_drop::ManuallyDrop<alloc::boxed::Box<dyn core::any::Any + core::marker::Send>>" = type { %"alloc::boxed::Box<dyn core::any::Any + core::marker::Send>" }
%"alloc::boxed::Box<dyn core::any::Any + core::marker::Send>" = type { %"core::ptr::unique::Unique<dyn core::any::Any + core::marker::Send>", %"alloc::alloc::Global" }
%"core::ptr::unique::Unique<dyn core::any::Any + core::marker::Send>" = type { %"core::ptr::non_null::NonNull<dyn core::any::Any + core::marker::Send>", %"core::marker::PhantomData<dyn core::any::Any + core::marker::Send>" }
%"core::ptr::non_null::NonNull<dyn core::any::Any + core::marker::Send>" = type { { ptr, ptr } }
%"core::marker::PhantomData<dyn core::any::Any + core::marker::Send>" = type {}
%"alloc::alloc::Global" = type {}
%"core::mem::manually_drop::ManuallyDrop<()>" = type { {} }
%"std::panicking::r#try::Data<core::panic::unwind_safe::AssertUnwindSafe<{closure@std::sys::thread_local::fast_local::destroy_value<u8>::{closure#0}}>, ()>" = type { [2 x i64] }
%"core::option::Option<usize>" = type { i64, [1 x i64] }
%"parking_lot_core::parking_lot::ThreadData" = type { %"parking_lot_core::thread_parker::imp::ThreadParker", %"core::sync::atomic::AtomicUsize", ptr, i64, i64, i8, [7 x i8] }
%"parking_lot_core::thread_parker::imp::ThreadParker" = type { %"core::cell::UnsafeCell<libc::unix::bsd::apple::pthread_mutex_t>", %"core::cell::UnsafeCell<libc::unix::bsd::apple::pthread_cond_t>", i8, i8, [6 x i8] }
%"core::cell::UnsafeCell<libc::unix::bsd::apple::pthread_mutex_t>" = type { %"libc::unix::bsd::apple::pthread_mutex_t" }
%"libc::unix::bsd::apple::pthread_mutex_t" = type { i64, [56 x i8] }
%"core::cell::UnsafeCell<libc::unix::bsd::apple::pthread_cond_t>" = type { %"libc::unix::bsd::apple::pthread_cond_t" }
%"libc::unix::bsd::apple::pthread_cond_t" = type { i64, [40 x i8] }
%"core::result::Result<u8, u8>" = type { i8, [1 x i8] }
%"core::option::Option<u64>" = type { i64, [1 x i64] }
%"core::alloc::layout::Layout" = type { i64, i64 }
%"core::result::Result<core::alloc::layout::Layout, core::alloc::layout::LayoutError>" = type { i64, [1 x i64] }
%"core::ptr::non_null::NonNull<[(*const parking_lot_core::parking_lot::ThreadData, core::option::Option<parking_lot_core::thread_parker::imp::UnparkHandle>)]>" = type { { ptr, i64 } }
%"core::ptr::metadata::PtrComponents<[parking_lot_core::thread_parker::imp::UnparkHandle]>" = type { ptr, i64 }
%"core::ptr::metadata::PtrRepr<[parking_lot_core::thread_parker::imp::UnparkHandle]>" = type { [2 x i64] }
%"core::ptr::metadata::PtrComponents<[(*const parking_lot_core::parking_lot::ThreadData, core::option::Option<parking_lot_core::thread_parker::imp::UnparkHandle>)]>" = type { ptr, i64 }
%"core::ptr::metadata::PtrRepr<[(*const parking_lot_core::parking_lot::ThreadData, core::option::Option<parking_lot_core::thread_parker::imp::UnparkHandle>)]>" = type { [2 x i64] }
%"core::result::Result<core::ptr::non_null::NonNull<u8>, smallvec::CollectionAllocErr>" = type { i64, [1 x i64] }
%"core::result::Result<usize, smallvec::CollectionAllocErr>" = type { i64, [1 x i64] }
%"core::alloc::layout::LayoutError" = type {}
%"{closure@smallvec::layout_array<parking_lot_core::thread_parker::imp::UnparkHandle>::{closure#0}}" = type {}
%"{closure@smallvec::layout_array<(*const parking_lot_core::parking_lot::ThreadData, core::option::Option<parking_lot_core::thread_parker::imp::UnparkHandle>)>::{closure#0}}" = type {}
%"alloc::vec::Vec<parking_lot_core::thread_parker::imp::UnparkHandle>" = type { %"alloc::raw_vec::RawVec<parking_lot_core::thread_parker::imp::UnparkHandle>", i64 }
%"alloc::raw_vec::RawVec<parking_lot_core::thread_parker::imp::UnparkHandle>" = type { i64, ptr, %"alloc::alloc::Global" }
%"alloc::vec::Vec<(*const parking_lot_core::parking_lot::ThreadData, core::option::Option<parking_lot_core::thread_parker::imp::UnparkHandle>)>" = type { %"alloc::raw_vec::RawVec<(*const parking_lot_core::parking_lot::ThreadData, core::option::Option<parking_lot_core::thread_parker::imp::UnparkHandle>)>", i64 }
%"alloc::raw_vec::RawVec<(*const parking_lot_core::parking_lot::ThreadData, core::option::Option<parking_lot_core::thread_parker::imp::UnparkHandle>)>" = type { i64, ptr, %"alloc::alloc::Global" }
%"core::option::Option<(core::ptr::non_null::NonNull<u8>, core::alloc::layout::Layout)>" = type { [1 x i64], i64, [1 x i64] }
%"core::ops::control_flow::ControlFlow<core::result::Result<core::convert::Infallible, smallvec::CollectionAllocErr>, core::ptr::non_null::NonNull<u8>>" = type { i64, [1 x i64] }
%"core::ops::control_flow::ControlFlow<core::result::Result<core::convert::Infallible, smallvec::CollectionAllocErr>, usize>" = type { i64, [1 x i64] }
%"core::ops::control_flow::ControlFlow<core::result::Result<core::convert::Infallible, smallvec::CollectionAllocErr>, core::alloc::layout::Layout>" = type { i64, [2 x i64] }
%"core::ops::range::RangeFull" = type {}
%"core::mem::maybe_uninit::MaybeUninit<[(*const parking_lot_core::parking_lot::ThreadData, core::option::Option<parking_lot_core::thread_parker::imp::UnparkHandle>); 8]>" = type { [24 x i64] }
%"core::mem::maybe_uninit::MaybeUninit<[parking_lot_core::thread_parker::imp::UnparkHandle; 8]>" = type { [8 x i64] }
%"core::ptr::metadata::PtrComponents<raw_mutex::RawMutex>" = type { ptr, {} }
%"core::ptr::metadata::PtrRepr<raw_mutex::RawMutex>" = type { [1 x i64] }
%"core::fmt::builders::DebugStruct<'_, '_>" = type { ptr, i8, i8, [6 x i8] }
%"{closure@src/raw_rwlock.rs:680:24: 680:43}" = type { ptr, ptr }

@alloc_83ea17bf0c4f4a5a5a13d3ae7955acd0 = private unnamed_addr constant <{ [4 x i8] }> zeroinitializer, align 4
@alloc_8d14ac4309c8975dfab0cd92735cc8e2 = private unnamed_addr constant <{ [107 x i8] }> <{ [107 x i8] c"/private/var/folders/m6/nyw0tbd5239gngtm06pzykr00000gn/T/.tmpPXbnuW/lock_api/core/src/thread_parker/unix.rs" }>, align 1
@alloc_91e30601a06b0c7730dfd71f24710563 = private unnamed_addr constant <{ ptr, [16 x i8] }> <{ ptr @alloc_8d14ac4309c8975dfab0cd92735cc8e2, [16 x i8] c"k\00\00\00\00\00\00\00\\\00\00\00\09\00\00\00" }>, align 8
@alloc_94e58ee801ced27922547c8083a41e92 = private unnamed_addr constant <{ ptr, [16 x i8] }> <{ ptr @alloc_8d14ac4309c8975dfab0cd92735cc8e2, [16 x i8] c"k\00\00\00\00\00\00\00v\00\00\00\09\00\00\00" }>, align 8
@alloc_52f02e54d24c6ccbbea337d92c46e415 = private unnamed_addr constant <{ [48 x i8] }> <{ [48 x i8] c"assertion failed: r == 0 || r == libc::ETIMEDOUT" }>, align 1
@alloc_61ebb2013a1eaae86d31061e7a1573e3 = private unnamed_addr constant <{ ptr, [16 x i8] }> <{ ptr @alloc_8d14ac4309c8975dfab0cd92735cc8e2, [16 x i8] c"k\00\00\00\00\00\00\00m\00\00\00\15\00\00\00" }>, align 8
@alloc_5610e670986a4b615dfd0fbc4b34b6af = private unnamed_addr constant <{ [69 x i8] }> <{ [69 x i8] c"assertion failed: r == 0 || r == libc::ETIMEDOUT || r == libc::EINVAL" }>, align 1
@alloc_8ed478f4f6c4534ed9bd2f873623dcf7 = private unnamed_addr constant <{ ptr, [16 x i8] }> <{ ptr @alloc_8d14ac4309c8975dfab0cd92735cc8e2, [16 x i8] c"k\00\00\00\00\00\00\00k\00\00\00\15\00\00\00" }>, align 8
@alloc_2a3e365372d6a7e6c1e8fcf2e56ee623 = private unnamed_addr constant <{ ptr, [16 x i8] }> <{ ptr @alloc_8d14ac4309c8975dfab0cd92735cc8e2, [16 x i8] c"k\00\00\00\00\00\00\00r\00\00\00\11\00\00\00" }>, align 8
@alloc_8bef48ee8c8c794fb13e01d4bb9f90df = private unnamed_addr constant <{ ptr, [16 x i8] }> <{ ptr @alloc_8d14ac4309c8975dfab0cd92735cc8e2, [16 x i8] c"k\00\00\00\00\00\00\00a\00\00\00\11\00\00\00" }>, align 8
@alloc_301622c8fae3d7e2d34174e01fb08421 = private unnamed_addr constant <{ ptr, [16 x i8] }> <{ ptr @alloc_8d14ac4309c8975dfab0cd92735cc8e2, [16 x i8] c"k\00\00\00\00\00\00\00}\00\00\00\09\00\00\00" }>, align 8
@alloc_4a2ad986af2120545fff5117e148d037 = private unnamed_addr constant <{ ptr, [16 x i8] }> <{ ptr @alloc_8d14ac4309c8975dfab0cd92735cc8e2, [16 x i8] c"k\00\00\00\00\00\00\00P\00\00\00\09\00\00\00" }>, align 8
@alloc_fd9b2f6720816e9f8a520249582fc420 = private unnamed_addr constant <{ ptr, [16 x i8] }> <{ ptr @alloc_8d14ac4309c8975dfab0cd92735cc8e2, [16 x i8] c"k\00\00\00\00\00\00\00V\00\00\00\09\00\00\00" }>, align 8
@alloc_7c8481acfec48c20c78637f83534acd1 = private unnamed_addr constant <{ ptr, [16 x i8] }> <{ ptr @alloc_8d14ac4309c8975dfab0cd92735cc8e2, [16 x i8] c"k\00\00\00\00\00\00\00S\00\00\00\0D\00\00\00" }>, align 8
@alloc_66db8b602202312650e3488eb361d074 = private unnamed_addr constant <{ ptr, [16 x i8] }> <{ ptr @alloc_8d14ac4309c8975dfab0cd92735cc8e2, [16 x i8] c"k\00\00\00\00\00\00\00F\00\00\00\09\00\00\00" }>, align 8
@alloc_8f738bc45c5cd28e882d8fba70c330ce = private unnamed_addr constant <{ ptr, [16 x i8] }> <{ ptr @alloc_8d14ac4309c8975dfab0cd92735cc8e2, [16 x i8] c"k\00\00\00\00\00\00\00I\00\00\00\09\00\00\00" }>, align 8
@alloc_70ae7af21cb4bd10ff4e286a7ea403a0 = private unnamed_addr constant <{ ptr, [16 x i8] }> <{ ptr @alloc_8d14ac4309c8975dfab0cd92735cc8e2, [16 x i8] c"k\00\00\00\00\00\00\00\C6\00\00\00\09\00\00\00" }>, align 8
@alloc_f2c81229400c78747228bf5bff2a7ca7 = private unnamed_addr constant <{ ptr, [16 x i8] }> <{ ptr @alloc_8d14ac4309c8975dfab0cd92735cc8e2, [16 x i8] c"k\00\00\00\00\00\00\00\C8\00\00\00\09\00\00\00" }>, align 8
@alloc_92a109c69c060258251efbe605d9e63e = private unnamed_addr constant <{ [100 x i8] }> <{ [100 x i8] c"/private/var/folders/m6/nyw0tbd5239gngtm06pzykr00000gn/T/.tmpPXbnuW/lock_api/core/src/parking_lot.rs" }>, align 1
@alloc_b49418e118df34fc881ed6c31d7808b9 = private unnamed_addr constant <{ ptr, [16 x i8] }> <{ ptr @alloc_92a109c69c060258251efbe605d9e63e, [16 x i8] c"d\00\00\00\00\00\00\00k\01\00\00\17\00\00\00" }>, align 8
@_ZN16parking_lot_core11parking_lot9HASHTABLE17hf1de9e36645b0103E = external global %"core::sync::atomic::AtomicPtr<parking_lot_core::parking_lot::HashTable>"
@alloc_914b2c69d7eca30497b9feaf15ac92f1 = private unnamed_addr constant <{ [1 x i8] }> zeroinitializer, align 1
@alloc_8821998f047ca62cad40e6bc4e4d87c4 = private unnamed_addr constant <{ [1 x i8] }> <{ [1 x i8] c"\01" }>, align 1
@alloc_5ef25d47ce7abcce53750a8a2a946f9a = private unnamed_addr constant <{ [1 x i8] }> <{ [1 x i8] c"\03" }>, align 1
@alloc_740753e99578367ca7fa94970b9e7dc6 = private unnamed_addr constant <{ ptr, [16 x i8] }> <{ ptr @alloc_92a109c69c060258251efbe605d9e63e, [16 x i8] c"d\00\00\00\00\00\00\00\A8\03\00\00\11\00\00\00" }>, align 8
@str.0 = internal unnamed_addr constant [28 x i8] c"attempt to add with overflow"
@alloc_8f93129258d814f9b63875138cc59527 = private unnamed_addr constant <{ [1 x i8] }> <{ [1 x i8] c"\04" }>, align 1
@alloc_a296d8516154b2ed8b54aceb5ded9d86 = private unnamed_addr constant <{ ptr, [16 x i8] }> <{ ptr @alloc_92a109c69c060258251efbe605d9e63e, [16 x i8] c"d\00\00\00\00\00\00\00\AB\01\00\00\0E\00\00\00" }>, align 8
@alloc_50e12a37a44418a7b14197a4ec9847c7 = private unnamed_addr constant <{ ptr, [16 x i8] }> <{ ptr @alloc_92a109c69c060258251efbe605d9e63e, [16 x i8] c"d\00\00\00\00\00\00\00\A9\01\00\00\0E\00\00\00" }>, align 8
@alloc_a96f530026852a4e2246e8f6951c7ceb = private unnamed_addr constant <{ ptr, [16 x i8] }> <{ ptr @alloc_92a109c69c060258251efbe605d9e63e, [16 x i8] c"d\00\00\00\00\00\00\00\BC\01\00\00 \00\00\00" }>, align 8
@alloc_f7e534d9a63e8c3bceef85874b7fc8e3 = private unnamed_addr constant <{ ptr, [16 x i8] }> <{ ptr @alloc_92a109c69c060258251efbe605d9e63e, [16 x i8] c"d\00\00\00\00\00\00\00\B8\01\00\00 \00\00\00" }>, align 8
@_ZN16parking_lot_core11parking_lot16with_thread_data11THREAD_DATA7__getit5__KEY17h1fcff3078d9de22aE = external thread_local global %"std::sys::thread_local::fast_local::Key<parking_lot_core::parking_lot::ThreadData>"
@alloc_e055aa56daac7fd296628a7222481aec = private unnamed_addr constant <{ ptr }> <{ ptr @_ZN16parking_lot_core11parking_lot16with_thread_data11THREAD_DATA7__getit17h56e37aba871e828cE }>, align 8
@alloc_91909f434d6bf63cee5bbf710d560b31 = private unnamed_addr constant <{ ptr, [16 x i8] }> <{ ptr @alloc_92a109c69c060258251efbe605d9e63e, [16 x i8] c"d\00\00\00\00\00\00\00\CD\00\00\00\0A\00\00\00" }>, align 8
@alloc_93201ecdb7ba889ddda550569b89c5d5 = private unnamed_addr constant <{ ptr, [16 x i8] }> <{ ptr @alloc_92a109c69c060258251efbe605d9e63e, [16 x i8] c"d\00\00\00\00\00\00\00\86\01\00\00\17\00\00\00" }>, align 8
@alloc_987027447764505e6cca725a6d87bc52 = private unnamed_addr constant <{ ptr, [16 x i8] }> <{ ptr @alloc_92a109c69c060258251efbe605d9e63e, [16 x i8] c"d\00\00\00\00\00\00\00`\01\00\00-\00\00\00" }>, align 8
@str.1 = internal unnamed_addr constant [33 x i8] c"attempt to subtract with overflow"
@alloc_0149eb7e0da2e7bbc4becc4633e44f49 = private unnamed_addr constant <{ ptr, [16 x i8] }> <{ ptr @alloc_92a109c69c060258251efbe605d9e63e, [16 x i8] c"d\00\00\00\00\00\00\00`\01\00\00\05\00\00\00" }>, align 8
@str.2 = internal unnamed_addr constant [36 x i8] c"attempt to shift right with overflow"
@alloc_b3024f5288fb977eeb160e5b81232a52 = private unnamed_addr constant <{ [36 x i8] }> <{ [36 x i8] c"assertion failed: !current.is_null()" }>, align 1
@alloc_9461fa3ed42dd52ccd373d522c51acbc = private unnamed_addr constant <{ ptr, [16 x i8] }> <{ ptr @alloc_92a109c69c060258251efbe605d9e63e, [16 x i8] c"d\00\00\00\00\00\00\00\BB\02\00\00\09\00\00\00" }>, align 8
@alloc_f10ee094097971998667f4cd2c1104f5 = private unnamed_addr constant <{ ptr, [16 x i8] }> <{ ptr @alloc_8d14ac4309c8975dfab0cd92735cc8e2, [16 x i8] c"k\00\00\00\00\00\00\00\D7\00\00\00\05\00\00\00" }>, align 8
@alloc_f5fe68412f22e5898b01c3deff033064 = private unnamed_addr constant <{ ptr, [16 x i8] }> <{ ptr @alloc_8d14ac4309c8975dfab0cd92735cc8e2, [16 x i8] c"k\00\00\00\00\00\00\00\D9\00\00\00\1C\00\00\00" }>, align 8
@alloc_0b372d80f76e9c6dbb33ed8740f586f5 = private unnamed_addr constant <{ ptr, [16 x i8] }> <{ ptr @alloc_8d14ac4309c8975dfab0cd92735cc8e2, [16 x i8] c"k\00\00\00\00\00\00\00\DC\00\00\00\12\00\00\00" }>, align 8
@str.3 = internal unnamed_addr constant [33 x i8] c"attempt to multiply with overflow"
@alloc_e9439a675344ca73ab5b52e083d14f6a = private unnamed_addr constant <{ ptr, [16 x i8] }> <{ ptr @alloc_8d14ac4309c8975dfab0cd92735cc8e2, [16 x i8] c"k\00\00\00\00\00\00\00\FF\00\00\00\14\00\00\00" }>, align 8
@alloc_54603c5ce497c0a3c03e3222b4fa89b6 = private unnamed_addr constant <{ ptr, [16 x i8] }> <{ ptr @alloc_8d14ac4309c8975dfab0cd92735cc8e2, [16 x i8] c"k\00\00\00\00\00\00\00\02\01\00\00\09\00\00\00" }>, align 8
@alloc_a500d906b91607583596fa15e63c2ada = private unnamed_addr constant <{ [40 x i8] }> <{ [40 x i8] c"internal error: entered unreachable code" }>, align 1
@alloc_3a466883f88a24c0c5aee4f085b43731 = private unnamed_addr constant <{ [93 x i8] }> <{ [93 x i8] c"/private/var/folders/m6/nyw0tbd5239gngtm06pzykr00000gn/T/.tmpPXbnuW/lock_api/core/src/util.rs" }>, align 1
@alloc_1a520a429dfb5dde765456898ee5c430 = private unnamed_addr constant <{ ptr, [16 x i8] }> <{ ptr @alloc_3a466883f88a24c0c5aee4f085b43731, [16 x i8] c"]\00\00\00\00\00\00\00\1B\00\00\00\09\00\00\00" }>, align 8
@alloc_f9517d714086b552b98cf7304a3cdaf2 = private unnamed_addr constant <{ [97 x i8] }> <{ [97 x i8] c"/private/var/folders/m6/nyw0tbd5239gngtm06pzykr00000gn/T/.tmpPXbnuW/lock_api/core/src/spinwait.rs" }>, align 1
@alloc_88575648d96fe8a881757fa14727365d = private unnamed_addr constant <{ ptr, [16 x i8] }> <{ ptr @alloc_f9517d714086b552b98cf7304a3cdaf2, [16 x i8] c"a\00\00\00\00\00\00\00D\00\00\00\09\00\00\00" }>, align 8
@alloc_5c54fc7cfe63121af1b26cb02dc0ed8b = private unnamed_addr constant <{ ptr, [16 x i8] }> <{ ptr @alloc_f9517d714086b552b98cf7304a3cdaf2, [16 x i8] c"a\00\00\00\00\00\00\00H\00\00\00\13\00\00\00" }>, align 8
@str.4 = internal unnamed_addr constant [35 x i8] c"attempt to shift left with overflow"
@alloc_848205e173e5e53c0dfdc096a9a1a694 = private unnamed_addr constant <{ ptr, [16 x i8] }> <{ ptr @alloc_f9517d714086b552b98cf7304a3cdaf2, [16 x i8] c"a\00\00\00\00\00\00\004\00\00\00\09\00\00\00" }>, align 8
@alloc_67b08606c32c7881c8d1be247f805ced = private unnamed_addr constant <{ ptr, [16 x i8] }> <{ ptr @alloc_f9517d714086b552b98cf7304a3cdaf2, [16 x i8] c"a\00\00\00\00\00\00\006\00\00\00\17\00\00\00" }>, align 8
@alloc_1ccfc410ce4ba7704b8709f0d6e60294 = private unnamed_addr constant <{ [51 x i8] }> <{ [51 x i8] c"fatal runtime error: thread local panicked on drop\0A" }>, align 1
@alloc_f7c18d5ab6a04e64e435b4d6f64423e3 = private unnamed_addr constant <{ ptr, [8 x i8] }> <{ ptr @alloc_1ccfc410ce4ba7704b8709f0d6e60294, [8 x i8] c"3\00\00\00\00\00\00\00" }>, align 8
@0 = private unnamed_addr constant <{ [8 x i8], [8 x i8] }> <{ [8 x i8] zeroinitializer, [8 x i8] undef }>, align 8
@alloc_91c7fa63c3cfeaa3c795652d5cf060e4 = private unnamed_addr constant <{ [12 x i8] }> <{ [12 x i8] c"invalid args" }>, align 1
@alloc_af99043bc04c419363a7f04d23183506 = private unnamed_addr constant <{ ptr, [8 x i8] }> <{ ptr @alloc_91c7fa63c3cfeaa3c795652d5cf060e4, [8 x i8] c"\0C\00\00\00\00\00\00\00" }>, align 8
@alloc_513570631223a12912d85da2bec3b15a = private unnamed_addr constant <{}> zeroinitializer, align 8
@alloc_b471600b253f24fcc8f91ba747bf2f04 = private unnamed_addr constant <{ [75 x i8] }> <{ [75 x i8] c"/rustc/46b180ec2452d388c5d9c14009442e2e0beb01d7/library/core/src/fmt/mod.rs" }>, align 1
@alloc_4ba2c5ddff77a51f3765b0dd5f2851cc = private unnamed_addr constant <{ ptr, [16 x i8] }> <{ ptr @alloc_b471600b253f24fcc8f91ba747bf2f04, [16 x i8] c"K\00\00\00\00\00\00\00U\01\00\00\0D\00\00\00" }>, align 8
@alloc_2ee7ba9733a263ad3a32ba87b5ec3eae = private unnamed_addr constant <{ [70 x i8] }> <{ [70 x i8] c"cannot access a Thread Local Storage value during or after destruction" }>, align 1
@alloc_e5b4baa3830a5e30ee60a04e3635f15f = private unnamed_addr constant <{ [79 x i8] }> <{ [79 x i8] c"/rustc/46b180ec2452d388c5d9c14009442e2e0beb01d7/library/std/src/thread/local.rs" }>, align 1
@alloc_00aa40083825d612354fd68663f71701 = private unnamed_addr constant <{ ptr, [16 x i8] }> <{ ptr @alloc_e5b4baa3830a5e30ee60a04e3635f15f, [16 x i8] c"O\00\00\00\00\00\00\00\04\01\00\00\1A\00\00\00" }>, align 8
@alloc_763310d78c99c2c1ad3f8a9821e942f3 = private unnamed_addr constant <{ [61 x i8] }> <{ [61 x i8] c"is_nonoverlapping: `size_of::<T>() * count` overflows a usize" }>, align 1
@alloc_8df0580a595a87d56789d20c7318e185 = private unnamed_addr constant <{ [166 x i8] }> <{ [166 x i8] c"unsafe precondition(s) violated: ptr::copy_nonoverlapping requires that both pointer arguments are aligned and non-null and the specified memory ranges do not overlap" }>, align 1
@alloc_fad0cd83b7d1858a846a172eb260e593 = private unnamed_addr constant <{ [42 x i8] }> <{ [42 x i8] c"is_aligned_to: align is not a power-of-two" }>, align 1
@alloc_041983ee8170efdaaf95ba67fd072d26 = private unnamed_addr constant <{ ptr, [8 x i8] }> <{ ptr @alloc_fad0cd83b7d1858a846a172eb260e593, [8 x i8] c"*\00\00\00\00\00\00\00" }>, align 8
@alloc_f1802761b0cba8787ff63a6853b741ad = private unnamed_addr constant <{ [81 x i8] }> <{ [81 x i8] c"/rustc/46b180ec2452d388c5d9c14009442e2e0beb01d7/library/core/src/ptr/const_ptr.rs" }>, align 1
@alloc_33f991fa5bbac1da9d8a778b0f014caf = private unnamed_addr constant <{ ptr, [16 x i8] }> <{ ptr @alloc_f1802761b0cba8787ff63a6853b741ad, [16 x i8] c"Q\00\00\00\00\00\00\00T\06\00\00\0D\00\00\00" }>, align 8
@alloc_3d28b95801fd55932918b2920be93f48 = private unnamed_addr constant <{ ptr, [16 x i8] }> <{ ptr @alloc_b471600b253f24fcc8f91ba747bf2f04, [16 x i8] c"K\00\00\00\00\00\00\00K\01\00\00\0D\00\00\00" }>, align 8
@alloc_d4d2a2a8539eafc62756407d946babb3 = private unnamed_addr constant <{ [110 x i8] }> <{ [110 x i8] c"unsafe precondition(s) violated: ptr::read_volatile requires that the pointer argument is aligned and non-null" }>, align 1
@alloc_20b3d155afd5c58c42e598b7e6d186ef = private unnamed_addr constant <{ [93 x i8] }> <{ [93 x i8] c"unsafe precondition(s) violated: NonNull::new_unchecked requires that the pointer is non-null" }>, align 1
@alloc_1eb6f53a157dccb32488e066ad957e6d = private unnamed_addr constant <{ [82 x i8] }> <{ [82 x i8] c"unsafe precondition(s) violated: hint::unreachable_unchecked must never be reached" }>, align 1
@alloc_9cd20c3e415f4d39f0ceb012cb758628 = private unnamed_addr constant <{ [40 x i8] }> <{ [40 x i8] c"there is no such thing as a release load" }>, align 1
@alloc_cf8f91dd8bc9347b20052f6ccc905cd7 = private unnamed_addr constant <{ ptr, [8 x i8] }> <{ ptr @alloc_9cd20c3e415f4d39f0ceb012cb758628, [8 x i8] c"(\00\00\00\00\00\00\00" }>, align 8
@alloc_fb04678f0d962c767fbe619d0fb3421c = private unnamed_addr constant <{ [79 x i8] }> <{ [79 x i8] c"/rustc/46b180ec2452d388c5d9c14009442e2e0beb01d7/library/core/src/sync/atomic.rs" }>, align 1
@alloc_8c9cdb58c2f0a4545f7cc326c35c8372 = private unnamed_addr constant <{ ptr, [16 x i8] }> <{ ptr @alloc_fb04678f0d962c767fbe619d0fb3421c, [16 x i8] c"O\00\00\00\00\00\00\00\EE\0C\00\00\18\00\00\00" }>, align 8
@alloc_96ab912d0054b46da785b206a96c9a45 = private unnamed_addr constant <{ [49 x i8] }> <{ [49 x i8] c"there is no such thing as an acquire-release load" }>, align 1
@alloc_7e8e9a1d4bc7d0bbec692f0a50681e22 = private unnamed_addr constant <{ ptr, [8 x i8] }> <{ ptr @alloc_96ab912d0054b46da785b206a96c9a45, [8 x i8] c"1\00\00\00\00\00\00\00" }>, align 8
@alloc_79a5c80227634b987971a232b8e75faa = private unnamed_addr constant <{ ptr, [16 x i8] }> <{ ptr @alloc_fb04678f0d962c767fbe619d0fb3421c, [16 x i8] c"O\00\00\00\00\00\00\00\EF\0C\00\00\17\00\00\00" }>, align 8
@alloc_bf39103a6db665396aab4632362d9353 = private unnamed_addr constant <{ [42 x i8] }> <{ [42 x i8] c"there is no such thing as an acquire store" }>, align 1
@alloc_47c752ba42fbab56d43a37cfd56e4899 = private unnamed_addr constant <{ ptr, [8 x i8] }> <{ ptr @alloc_bf39103a6db665396aab4632362d9353, [8 x i8] c"*\00\00\00\00\00\00\00" }>, align 8
@alloc_b157ad0004577c6c88dd62899145e37d = private unnamed_addr constant <{ ptr, [16 x i8] }> <{ ptr @alloc_fb04678f0d962c767fbe619d0fb3421c, [16 x i8] c"O\00\00\00\00\00\00\00\DF\0C\00\00\18\00\00\00" }>, align 8
@alloc_00c0bce0fa6327f8ec8e69d6d765d508 = private unnamed_addr constant <{ [50 x i8] }> <{ [50 x i8] c"there is no such thing as an acquire-release store" }>, align 1
@alloc_f8dbac861f87e25e445761cc4af66745 = private unnamed_addr constant <{ ptr, [8 x i8] }> <{ ptr @alloc_00c0bce0fa6327f8ec8e69d6d765d508, [8 x i8] c"2\00\00\00\00\00\00\00" }>, align 8
@alloc_59475c7fc9ca991233bda64f955b86c3 = private unnamed_addr constant <{ ptr, [16 x i8] }> <{ ptr @alloc_fb04678f0d962c767fbe619d0fb3421c, [16 x i8] c"O\00\00\00\00\00\00\00\E0\0C\00\00\17\00\00\00" }>, align 8
@alloc_5a43f8d94dd4505c1dba43832ce73af8 = private unnamed_addr constant <{ [52 x i8] }> <{ [52 x i8] c"there is no such thing as a release failure ordering" }>, align 1
@alloc_04ab601c54c6e0a22ff11d72dc7f4511 = private unnamed_addr constant <{ ptr, [8 x i8] }> <{ ptr @alloc_5a43f8d94dd4505c1dba43832ce73af8, [8 x i8] c"4\00\00\00\00\00\00\00" }>, align 8
@alloc_19270ecf540b1a1f8c2c2e2f9f23d498 = private unnamed_addr constant <{ ptr, [16 x i8] }> <{ ptr @alloc_fb04678f0d962c767fbe619d0fb3421c, [16 x i8] c"O\00\00\00\00\00\00\00C\0D\00\00\1D\00\00\00" }>, align 8
@alloc_7adef5546d83b439c7829602020737c6 = private unnamed_addr constant <{ [61 x i8] }> <{ [61 x i8] c"there is no such thing as an acquire-release failure ordering" }>, align 1
@alloc_dd7d8f77c173bf31726eae321f955bec = private unnamed_addr constant <{ ptr, [8 x i8] }> <{ ptr @alloc_7adef5546d83b439c7829602020737c6, [8 x i8] c"=\00\00\00\00\00\00\00" }>, align 8
@alloc_4d14c61bfb4767046945de79e7109737 = private unnamed_addr constant <{ ptr, [16 x i8] }> <{ ptr @alloc_fb04678f0d962c767fbe619d0fb3421c, [16 x i8] c"O\00\00\00\00\00\00\00B\0D\00\00\1C\00\00\00" }>, align 8
@alloc_5d2ae3dd1864f348b0c14ee5f21cf038 = private unnamed_addr constant <{ ptr, [16 x i8] }> <{ ptr @alloc_fb04678f0d962c767fbe619d0fb3421c, [16 x i8] c"O\00\00\00\00\00\00\00f\0D\00\00\1D\00\00\00" }>, align 8
@alloc_3d94901043a3687e806bde019c890ec6 = private unnamed_addr constant <{ ptr, [16 x i8] }> <{ ptr @alloc_fb04678f0d962c767fbe619d0fb3421c, [16 x i8] c"O\00\00\00\00\00\00\00e\0D\00\00\1C\00\00\00" }>, align 8
@alloc_929e9b2e7b7429614ca4fc017efff666 = private unnamed_addr constant <{ [41 x i8] }> <{ [41 x i8] c"there is no such thing as a relaxed fence" }>, align 1
@alloc_39071d8363362e29009d9bb27c1e4df5 = private unnamed_addr constant <{ ptr, [8 x i8] }> <{ ptr @alloc_929e9b2e7b7429614ca4fc017efff666, [8 x i8] c")\00\00\00\00\00\00\00" }>, align 8
@alloc_27aff692ab13ea4ce26048aea66f1823 = private unnamed_addr constant <{ ptr, [16 x i8] }> <{ ptr @alloc_fb04678f0d962c767fbe619d0fb3421c, [16 x i8] c"O\00\00\00\00\00\00\00F\0E\00\00\18\00\00\00" }>, align 8
@alloc_374c9df73b8540d3e9b0cfbfed1be08c = private unnamed_addr constant <{ [25 x i8] }> <{ [25 x i8] c"overflow in Duration::new" }>, align 1
@alloc_b7c1c22a954085a45dacf7c670d25258 = private unnamed_addr constant <{ ptr, [8 x i8] }> <{ ptr @alloc_374c9df73b8540d3e9b0cfbfed1be08c, [8 x i8] c"\19\00\00\00\00\00\00\00" }>, align 8
@alloc_f27a8a25eece1add2cdd144d6ec0b344 = private unnamed_addr constant <{ [72 x i8] }> <{ [72 x i8] c"/rustc/46b180ec2452d388c5d9c14009442e2e0beb01d7/library/core/src/time.rs" }>, align 1
@alloc_27c6dd4922b7f57d4b491c7a0405e947 = private unnamed_addr constant <{ ptr, [16 x i8] }> <{ ptr @alloc_f27a8a25eece1add2cdd144d6ec0b344, [16 x i8] c"H\00\00\00\00\00\00\00\D6\00\00\00\19\00\00\00" }>, align 8
@alloc_81f9ea5ad36a4fd02db0f8c6040ce6ce = private unnamed_addr constant <{ [78 x i8] }> <{ [78 x i8] c"/rustc/46b180ec2452d388c5d9c14009442e2e0beb01d7/library/core/src/intrinsics.rs" }>, align 1
@alloc_3ddfd615a577a80e66751be046ca7362 = private unnamed_addr constant <{ ptr, [16 x i8] }> <{ ptr @alloc_81f9ea5ad36a4fd02db0f8c6040ce6ce, [16 x i8] c"N\00\00\00\00\00\00\00\E6\0A\00\006\00\00\00" }>, align 8
@str.5 = internal unnamed_addr constant [25 x i8] c"attempt to divide by zero"
@alloc_d685bb4d9a1abf4f5af46d1af0d9ef8a = private unnamed_addr constant <{ [166 x i8] }> <{ [166 x i8] c"unsafe precondition(s) violated: slice::from_raw_parts_mut requires the pointer to be aligned and non-null, and the total size of the slice not to exceed `isize::MAX`" }>, align 1
@vtable.6 = private constant <{ ptr, [16 x i8], ptr }> <{ ptr @"_ZN4core3ptr52drop_in_place$LT$std..thread..local..AccessError$GT$17hf315e56715a1575aE", [16 x i8] c"\00\00\00\00\00\00\00\00\01\00\00\00\00\00\00\00", ptr @"_ZN68_$LT$std..thread..local..AccessError$u20$as$u20$core..fmt..Debug$GT$3fmt17h2212dcebdb5b2aa8E" }>, align 8, !dbg !0
@alloc_00ae4b301f7fab8ac9617c03fcbd7274 = private unnamed_addr constant <{ [43 x i8] }> <{ [43 x i8] c"called `Result::unwrap()` on an `Err` value" }>, align 1
@vtable.7 = private constant <{ ptr, [16 x i8], ptr }> <{ ptr @"_ZN4core3ptr49drop_in_place$LT$smallvec..CollectionAllocErr$GT$17hd920a484b3f051fdE", [16 x i8] c"\10\00\00\00\00\00\00\00\08\00\00\00\00\00\00\00", ptr @"_ZN65_$LT$smallvec..CollectionAllocErr$u20$as$u20$core..fmt..Debug$GT$3fmt17h7603246ab930d022E" }>, align 8, !dbg !17
@vtable.8 = private constant <{ ptr, [16 x i8], ptr }> <{ ptr @"_ZN4core3ptr30drop_in_place$LT$$RF$usize$GT$17h774ee52a7ad08ef2E", [16 x i8] c"\08\00\00\00\00\00\00\00\08\00\00\00\00\00\00\00", ptr @"_ZN42_$LT$$RF$T$u20$as$u20$core..fmt..Debug$GT$3fmt17hcbd741b6b97a31fcE" }>, align 8, !dbg !116
@__rust_no_alloc_shim_is_unstable = external global i8
@alloc_7f2b6174d6f02c6e1de24889f4a54675 = private unnamed_addr constant <{ [16 x i8] }> <{ [16 x i8] c"CapacityOverflow" }>, align 1
@alloc_898c1d05a219517f439d4a7e90301145 = private unnamed_addr constant <{ [8 x i8] }> <{ [8 x i8] c"AllocErr" }>, align 1
@alloc_78d0f28df2ebcdba112547bb2c1cb40a = private unnamed_addr constant <{ [6 x i8] }> <{ [6 x i8] c"layout" }>, align 1
@vtable.9 = private constant <{ ptr, [16 x i8], ptr }> <{ ptr @"_ZN4core3ptr52drop_in_place$LT$$RF$core..alloc..layout..Layout$GT$17h107f25fd01ae2e61E", [16 x i8] c"\08\00\00\00\00\00\00\00\08\00\00\00\00\00\00\00", ptr @"_ZN42_$LT$$RF$T$u20$as$u20$core..fmt..Debug$GT$3fmt17hb2d030289acbade8E" }>, align 8, !dbg !125
@alloc_ce1780bd3b0fdae491f45d03e4b51618 = private unnamed_addr constant <{ [90 x i8] }> <{ [90 x i8] c"/Users/s1g/.cargo/registry/src/index.crates.io-6f17d22bba15001f/smallvec-1.13.1/src/lib.rs" }>, align 1
@alloc_5b3b3222e47496efbf13e13777ace695 = private unnamed_addr constant <{ ptr, [16 x i8] }> <{ ptr @alloc_ce1780bd3b0fdae491f45d03e4b51618, [16 x i8] c"Z\00\00\00\00\00\00\00K\08\00\00-\00\00\00" }>, align 8
@alloc_83b040a86dbd17c49b5f11207c691359 = private unnamed_addr constant <{ ptr, [16 x i8] }> <{ ptr @alloc_ce1780bd3b0fdae491f45d03e4b51618, [16 x i8] c"Z\00\00\00\00\00\00\00\C2\08\00\00\11\00\00\00" }>, align 8
@alloc_fd52d60ecc5bcc96087d6ad1ba90c08e = private unnamed_addr constant <{ ptr, [16 x i8] }> <{ ptr @alloc_ce1780bd3b0fdae491f45d03e4b51618, [16 x i8] c"Z\00\00\00\00\00\00\00R\01\00\00.\00\00\00" }>, align 8
@alloc_31365cfefba383c4d2bf6b6a04cc10aa = private unnamed_addr constant <{ [17 x i8] }> <{ [17 x i8] c"capacity overflow" }>, align 1
@alloc_409780e62e10f74461c2594e6014b4a3 = private unnamed_addr constant <{ ptr, [16 x i8] }> <{ ptr @alloc_ce1780bd3b0fdae491f45d03e4b51618, [16 x i8] c"Z\00\00\00\00\00\00\00A\01\00\006\00\00\00" }>, align 8
@alloc_4657575a94c466bc9bc981fa90be1843 = private unnamed_addr constant <{ ptr, [16 x i8] }> <{ ptr @alloc_ce1780bd3b0fdae491f45d03e4b51618, [16 x i8] c"Z\00\00\00\00\00\00\00I\01\00\00\10\00\00\00" }>, align 8
@alloc_e0ac7763c33eb83812cb5844a8b1d675 = private unnamed_addr constant <{ ptr, [16 x i8] }> <{ ptr @alloc_ce1780bd3b0fdae491f45d03e4b51618, [16 x i8] c"Z\00\00\00\00\00\00\00\CA\04\00\00\09\00\00\00" }>, align 8
@alloc_59dc2bc7432532b0f4bfb108f6b2ff4f = private unnamed_addr constant <{ ptr, [16 x i8] }> <{ ptr @alloc_ce1780bd3b0fdae491f45d03e4b51618, [16 x i8] c"Z\00\00\00\00\00\00\00\CE\04\00\00\0E\00\00\00" }>, align 8
@alloc_cc59ce50ca3a2214cf14838d099d8a72 = private unnamed_addr constant <{ ptr, [16 x i8] }> <{ ptr @alloc_ce1780bd3b0fdae491f45d03e4b51618, [16 x i8] c"Z\00\00\00\00\00\00\00\0F\03\00\00$\00\00\00" }>, align 8
@alloc_52932847cc6c9ce083f39cc33d17c8e1 = private unnamed_addr constant <{ [136 x i8] }> <{ [136 x i8] c"assertion failed: mem::size_of::<A>() == A::size() * mem::size_of::<A::Item>() &&\0A    mem::align_of::<A>() >= mem::align_of::<A::Item>()" }>, align 1
@alloc_d8a082403fcc46d6bf3b458918c8326e = private unnamed_addr constant <{ ptr, [16 x i8] }> <{ ptr @alloc_ce1780bd3b0fdae491f45d03e4b51618, [16 x i8] c"Z\00\00\00\00\00\00\00\0E\03\00\00\09\00\00\00" }>, align 8
@alloc_883de51679aa43a11e52ed481e8a6c02 = private unnamed_addr constant <{ ptr, [16 x i8] }> <{ ptr @alloc_ce1780bd3b0fdae491f45d03e4b51618, [16 x i8] c"Z\00\00\00\00\00\00\00d\04\00\00\0D\00\00\00" }>, align 8
@alloc_41cefc85c2237ca19d10f4690cbd8cfa = private unnamed_addr constant <{ [32 x i8] }> <{ [32 x i8] c"assertion failed: new_cap >= len" }>, align 1
@alloc_d0de5a5176ba970764def5306d77feba = private unnamed_addr constant <{ ptr, [16 x i8] }> <{ ptr @alloc_ce1780bd3b0fdae491f45d03e4b51618, [16 x i8] c"Z\00\00\00\00\00\00\00\99\04\00\00\0D\00\00\00" }>, align 8
@alloc_f595db2893c51ac329945abcbf4d6560 = private unnamed_addr constant <{ [35 x i8] }> <{ [35 x i8] c"assertion failed: layout.size() > 0" }>, align 1
@alloc_d9079a097c474c42f3ba578858c468a1 = private unnamed_addr constant <{ ptr, [16 x i8] }> <{ ptr @alloc_ce1780bd3b0fdae491f45d03e4b51618, [16 x i8] c"Z\00\00\00\00\00\00\00\A4\04\00\00\11\00\00\00" }>, align 8
@alloc_6ff0da5639d0359d17b4916f4dd988c8 = private unnamed_addr constant <{ ptr, [16 x i8] }> <{ ptr @alloc_ce1780bd3b0fdae491f45d03e4b51618, [16 x i8] c"Z\00\00\00\00\00\00\00\B2\04\00\00!\00\00\00" }>, align 8
@alloc_289b4b08ffd7e9677301ba4a2b88761d = private unnamed_addr constant <{ ptr, [16 x i8] }> <{ ptr @alloc_ce1780bd3b0fdae491f45d03e4b51618, [16 x i8] c"Z\00\00\00\00\00\00\00\AE\04\00\00&\00\00\00" }>, align 8
@alloc_c1ad9f712eaf52883c433eb62ba144c3 = private unnamed_addr constant <{ ptr, [16 x i8] }> <{ ptr @alloc_ce1780bd3b0fdae491f45d03e4b51618, [16 x i8] c"Z\00\00\00\00\00\00\00\A7\04\00\00!\00\00\00" }>, align 8
@alloc_b5627c8aba22b7c12434f34350d04c53 = private unnamed_addr constant <{ ptr, [16 x i8] }> <{ ptr @alloc_ce1780bd3b0fdae491f45d03e4b51618, [16 x i8] c"Z\00\00\00\00\00\00\00\A3\04\00\00\1E\00\00\00" }>, align 8
@alloc_366bfd09acc6a48316ccfad2f40f95e3 = private unnamed_addr constant <{ ptr, [16 x i8] }> <{ ptr @alloc_ce1780bd3b0fdae491f45d03e4b51618, [16 x i8] c"Z\00\00\00\00\00\00\00\C0\02\00\00U\00\00\00" }>, align 8
@alloc_bee3835e00194ec9f555bdb041021a84 = private unnamed_addr constant <{ [24 x i8] }> <{ [24 x i8] c"entered unreachable code" }>, align 1
@alloc_a85afb6b4b1f9c102b8f52077e344094 = private unnamed_addr constant <{ ptr, [16 x i8] }> <{ ptr @alloc_ce1780bd3b0fdae491f45d03e4b51618, [16 x i8] c"Z\00\00\00\00\00\00\00\C1\02\00\00\12\00\00\00" }>, align 8
@alloc_d1e764fb24702ccca2844ec8253df4bb = private unnamed_addr constant <{ ptr, [16 x i8] }> <{ ptr @alloc_ce1780bd3b0fdae491f45d03e4b51618, [16 x i8] c"Z\00\00\00\00\00\00\00\D3\02\00\00\12\00\00\00" }>, align 8
@alloc_06c2f27d942d7f4a691c8c4f091c49d7 = private unnamed_addr constant <{ ptr, [16 x i8] }> <{ ptr @alloc_ce1780bd3b0fdae491f45d03e4b51618, [16 x i8] c"Z\00\00\00\00\00\00\00\B9\02\00\00X\00\00\00" }>, align 8
@alloc_b206704f2cd2f9b90342babe4a43a182 = private unnamed_addr constant <{ ptr, [16 x i8] }> <{ ptr @alloc_ce1780bd3b0fdae491f45d03e4b51618, [16 x i8] c"Z\00\00\00\00\00\00\00\BA\02\00\00\12\00\00\00" }>, align 8
@alloc_f2c9f921ec5475bec31a0fa396b2b4ab = private unnamed_addr constant <{ ptr, [16 x i8] }> <{ ptr @alloc_ce1780bd3b0fdae491f45d03e4b51618, [16 x i8] c"Z\00\00\00\00\00\00\00\DA\02\00\00\12\00\00\00" }>, align 8
@alloc_b7aa011c1a5652cdd6efd7c1c41ec256 = private unnamed_addr constant <{ [14 x i8] }> <{ [14 x i8] c"src/condvar.rs" }>, align 1
@alloc_37e1f541d499436e3bd51a3301e4c7a7 = private unnamed_addr constant <{ ptr, [16 x i8] }> <{ ptr @alloc_b7aa011c1a5652cdd6efd7c1c41ec256, [16 x i8] c"\0E\00\00\00\00\00\00\00\AE\00\00\00\09\00\00\00" }>, align 8
@alloc_c68ca919e07843162292516113036136 = private unnamed_addr constant <{ ptr, [16 x i8] }> <{ ptr @alloc_b7aa011c1a5652cdd6efd7c1c41ec256, [16 x i8] c"\0E\00\00\00\00\00\00\00\EE\00\00\00\09\00\00\00" }>, align 8
@alloc_b484decd81e9b1ad1b319395631c6dcb = private unnamed_addr constant <{ [16 x i8] }> <{ [16 x i8] c"\00\00\00\00\00\00\00\00\01\00\00\00\00\00\00\00" }>, align 8
@alloc_329f3c9e187aecf5ddccb6f6e48df683 = private unnamed_addr constant <{ [62 x i8] }> <{ [62 x i8] c"attempted to use a condition variable with more than one mutex" }>, align 1
@alloc_da0526a07940b7c869df883b77b5727f = private unnamed_addr constant <{ ptr, [8 x i8] }> <{ ptr @alloc_329f3c9e187aecf5ddccb6f6e48df683, [8 x i8] c">\00\00\00\00\00\00\00" }>, align 8
@alloc_0d63b8db4a4cfb18a0178add385a8b1c = private unnamed_addr constant <{ ptr, [16 x i8] }> <{ ptr @alloc_b7aa011c1a5652cdd6efd7c1c41ec256, [16 x i8] c"\0E\00\00\00\00\00\00\00]\01\00\00\0D\00\00\00" }>, align 8
@alloc_324e64f98ead05a34d088c8cc851da53 = private unnamed_addr constant <{ [14 x i8] }> <{ [14 x i8] c"Condvar { .. }" }>, align 1
@alloc_49f276459b50625ec15364cbc005a4f1 = private unnamed_addr constant <{ [14 x i8] }> <{ [14 x i8] c"src/elision.rs" }>, align 1
@alloc_bc3d2089872425386358280be564d0be = private unnamed_addr constant <{ ptr, [16 x i8] }> <{ ptr @alloc_49f276459b50625ec15364cbc005a4f1, [16 x i8] c"\0E\00\00\00\00\00\00\00-\00\00\00\09\00\00\00" }>, align 8
@alloc_f701ac5b9e8f2f3225d5cfa7e674e601 = private unnamed_addr constant <{ ptr, [16 x i8] }> <{ ptr @alloc_49f276459b50625ec15364cbc005a4f1, [16 x i8] c"\0E\00\00\00\00\00\00\002\00\00\00\09\00\00\00" }>, align 8
@alloc_2e27c105fc1a6692f373ee7f9a57a4d7 = private unnamed_addr constant <{ [42 x i8] }> <{ [42 x i8] c"Once instance has previously been poisoned" }>, align 1
@alloc_9cc4df00976b591da2e084a2cf898fab = private unnamed_addr constant <{ ptr, [8 x i8] }> <{ ptr @alloc_2e27c105fc1a6692f373ee7f9a57a4d7, [8 x i8] c"*\00\00\00\00\00\00\00" }>, align 8
@alloc_d89cc879667cac5f1040767f9ff114a0 = private unnamed_addr constant <{ [11 x i8] }> <{ [11 x i8] c"src/once.rs" }>, align 1
@alloc_30bbc08fe072c8f24f0a9f49299ae1f1 = private unnamed_addr constant <{ ptr, [16 x i8] }> <{ ptr @alloc_d89cc879667cac5f1040767f9ff114a0, [16 x i8] c"\0B\00\00\00\00\00\00\00\D7\00\00\00\11\00\00\00" }>, align 8
@alloc_0d82819d30fef68a9884d0a6c155af08 = private unnamed_addr constant <{ ptr, [16 x i8] }> <{ ptr @alloc_d89cc879667cac5f1040767f9ff114a0, [16 x i8] c"\0B\00\00\00\00\00\00\00\02\01\00\00$\00\00\00" }>, align 8
@alloc_79a3282823cdfbdd29b6a59d44a53125 = private unnamed_addr constant <{ [4 x i8] }> <{ [4 x i8] c"Once" }>, align 1
@alloc_53dc2ae8bb09ccd50a261f689b87edcd = private unnamed_addr constant <{ [5 x i8] }> <{ [5 x i8] c"state" }>, align 1
@vtable.a = private constant <{ ptr, [16 x i8], ptr }> <{ ptr @"_ZN4core3ptr49drop_in_place$LT$parking_lot..once..OnceState$GT$17h9dd8893e44eb5263E", [16 x i8] c"\01\00\00\00\00\00\00\00\01\00\00\00\00\00\00\00", ptr @"_ZN65_$LT$parking_lot..once..OnceState$u20$as$u20$core..fmt..Debug$GT$3fmt17h102f070552740d0bE" }>, align 8, !dbg !134
@alloc_b67ee10f52be73544ccef22a23a60a29 = private unnamed_addr constant <{ [24 x i8] }> <{ [24 x i8] c"assertion failed: result" }>, align 1
@alloc_108510354085ab14e9dc2019b5d45787 = private unnamed_addr constant <{ [17 x i8] }> <{ [17 x i8] c"src/raw_rwlock.rs" }>, align 1
@alloc_17a2ec004657a567f152360a0e893809 = private unnamed_addr constant <{ ptr, [16 x i8] }> <{ ptr @alloc_108510354085ab14e9dc2019b5d45787, [16 x i8] c"\11\00\00\00\00\00\00\00J\00\00\00\0D\00\00\00" }>, align 8
@alloc_1f2b6857b291934bb9106f21e85b4e94 = private unnamed_addr constant <{ ptr, [16 x i8] }> <{ ptr @alloc_108510354085ab14e9dc2019b5d45787, [16 x i8] c"\11\00\00\00\00\00\00\00n\00\00\00\0D\00\00\00" }>, align 8
@alloc_13e122a9bb8bfd14f150d56117e6e386 = private unnamed_addr constant <{ ptr, [16 x i8] }> <{ ptr @alloc_108510354085ab14e9dc2019b5d45787, [16 x i8] c"\11\00\00\00\00\00\00\00G\01\00\00\0D\00\00\00" }>, align 8
@alloc_aca34ea3fef4ea7ca0c33bff720530f3 = private unnamed_addr constant <{ [28 x i8] }> <{ [28 x i8] c"RwLock reader count overflow" }>, align 1
@alloc_81b355b347df2cea933d7101d69bc873 = private unnamed_addr constant <{ ptr, [16 x i8] }> <{ ptr @alloc_108510354085ab14e9dc2019b5d45787, [16 x i8] c"\11\00\00\00\00\00\00\001\02\00\00\1A\00\00\00" }>, align 8
@alloc_4db6a3e8501e3f5265070a80c8d79dc0 = private unnamed_addr constant <{ ptr, [16 x i8] }> <{ ptr @alloc_108510354085ab14e9dc2019b5d45787, [16 x i8] c"\11\00\00\00\00\00\00\00\\\02\00\00\16\00\00\00" }>, align 8
@alloc_342fafa72e58273083278e8a70aec354 = private unnamed_addr constant <{ ptr, [16 x i8] }> <{ ptr @alloc_108510354085ab14e9dc2019b5d45787, [16 x i8] c"\11\00\00\00\00\00\00\00\C3\02\00\00\1E\00\00\00" }>, align 8
@alloc_51ee4b5ebbda8bdd6ad22c679adb1d5d = private unnamed_addr constant <{ ptr, [16 x i8] }> <{ ptr @alloc_108510354085ab14e9dc2019b5d45787, [16 x i8] c"\11\00\00\00\00\00\00\00\DB\02\00\00\14\00\00\00" }>, align 8
@alloc_04afee6697851bcbd05ae22b5fedfce8 = private unnamed_addr constant <{ ptr, [16 x i8] }> <{ ptr @alloc_108510354085ab14e9dc2019b5d45787, [16 x i8] c"\11\00\00\00\00\00\00\00\F9\02\00\00\1E\00\00\00" }>, align 8
@alloc_4982349592f444a37082aa6cf056f081 = private unnamed_addr constant <{ ptr, [16 x i8] }> <{ ptr @alloc_108510354085ab14e9dc2019b5d45787, [16 x i8] c"\11\00\00\00\00\00\00\00\18\03\00\00\11\00\00\00" }>, align 8
@alloc_fc872306cc6cc85992e3d62fa22b93df = private unnamed_addr constant <{ ptr, [16 x i8] }> <{ ptr @alloc_108510354085ab14e9dc2019b5d45787, [16 x i8] c"\11\00\00\00\00\00\00\00*\03\00\00\15\00\00\00" }>, align 8
@alloc_fcc149c16d84c4e5f48a79fa3aa4c7f2 = private unnamed_addr constant <{ ptr, [16 x i8] }> <{ ptr @alloc_108510354085ab14e9dc2019b5d45787, [16 x i8] c"\11\00\00\00\00\00\00\00?\03\00\00%\00\00\00" }>, align 8
@alloc_098b35e1d589e966034884401692949f = private unnamed_addr constant <{ ptr, [16 x i8] }> <{ ptr @alloc_108510354085ab14e9dc2019b5d45787, [16 x i8] c"\11\00\00\00\00\00\00\00_\03\00\00\11\00\00\00" }>, align 8
@alloc_de018b6194c4d7c91f5f0c3ac270c7cd = private unnamed_addr constant <{ ptr, [16 x i8] }> <{ ptr @alloc_108510354085ab14e9dc2019b5d45787, [16 x i8] c"\11\00\00\00\00\00\00\00\C3\03\00\00\1F\00\00\00" }>, align 8
@alloc_5f4e4be04ccfd5dc4ea8ddba54b12212 = private unnamed_addr constant <{ ptr, [16 x i8] }> <{ ptr @alloc_108510354085ab14e9dc2019b5d45787, [16 x i8] c"\11\00\00\00\00\00\00\00\ED\03\00\00\18\00\00\00" }>, align 8
@alloc_fb56eda050bcb8aff62f7780647a8d95 = private unnamed_addr constant <{ ptr, [16 x i8] }> <{ ptr @alloc_108510354085ab14e9dc2019b5d45787, [16 x i8] c"\11\00\00\00\00\00\00\00y\04\00\00-\00\00\00" }>, align 8
@alloc_73a8c83c1180848ded118d0be59ddda2 = private unnamed_addr constant <{ ptr, [16 x i8] }> <{ ptr @alloc_108510354085ab14e9dc2019b5d45787, [16 x i8] c"\11\00\00\00\00\00\00\00\7F\04\00\00-\00\00\00" }>, align 8
@alloc_427fbff31cd4b5349de557cf304da2f9 = private unnamed_addr constant <{ ptr }> <{ ptr @"_ZN84_$LT$parking_lot..remutex..RawThreadId$u20$as$u20$lock_api..remutex..GetThreadId$GT$17nonzero_thread_id3KEY7__getit17haf00395b58132171E" }>, align 8
@alloc_b3c29552056b3ba16a829997dda7b084 = private unnamed_addr constant <{ [37 x i8] }> <{ [37 x i8] c"thread-local variable address is null" }>, align 1
@alloc_aa6b4b9d9f321652a93dc78059dfdc0a = private unnamed_addr constant <{ [14 x i8] }> <{ [14 x i8] c"src/remutex.rs" }>, align 1
@alloc_6a4297e7dde2ab3f9623b88eb4a31065 = private unnamed_addr constant <{ ptr, [16 x i8] }> <{ ptr @alloc_aa6b4b9d9f321652a93dc78059dfdc0a, [16 x i8] c"\0E\00\00\00\00\00\00\00\19\00\00\00\12\00\00\00" }>, align 8
@alloc_c1f3251b7ea1b12273231c1a6b3bdc5d = private unnamed_addr constant <{ [3 x i8] }> <{ [3 x i8] c"New" }>, align 1
@alloc_fa4bb3d925fa9c5217c8b3c6ebb15a09 = private unnamed_addr constant <{ [8 x i8] }> <{ [8 x i8] c"Poisoned" }>, align 1
@alloc_36edc5aa794f5d13261ccf501209afd1 = private unnamed_addr constant <{ [10 x i8] }> <{ [10 x i8] c"InProgress" }>, align 1
@alloc_95e92e796314c78ffcd67dd842143eea = private unnamed_addr constant <{ [4 x i8] }> <{ [4 x i8] c"Done" }>, align 1
@"_ZN84_$LT$parking_lot..remutex..RawThreadId$u20$as$u20$lock_api..remutex..GetThreadId$GT$17nonzero_thread_id3KEY7__getit5__KEY17hc5b1914f15f62af3E" = internal thread_local global <{ [1 x i8], [1 x i8], [1 x i8] }> <{ [1 x i8] zeroinitializer, [1 x i8] undef, [1 x i8] zeroinitializer }>, section "__DATA,__thread_bss", align 1, !dbg !151
@alloc_e1630949b9d849760b6b976ddbdd44c3 = private unnamed_addr constant <{ [63 x i8] }> <{ [63 x i8] c"internal error: entered unreachable code: missing default value" }>, align 1
@alloc_0e2482d113fd99545cb6368cfdc15069 = private unnamed_addr constant <{ ptr, [8 x i8] }> <{ ptr @alloc_e1630949b9d849760b6b976ddbdd44c3, [8 x i8] c"?\00\00\00\00\00\00\00" }>, align 8
@alloc_3f0a22e20d212eb5910f2c04a0ab9fc0 = private unnamed_addr constant <{ ptr, [16 x i8] }> <{ ptr @alloc_aa6b4b9d9f321652a93dc78059dfdc0a, [16 x i8] c"\0E\00\00\00\00\00\00\00\16\00\00\00\09\00\00\00" }>, align 8

; <core::option::Option<T> as parking_lot_core::util::UncheckedOptionExt<T>>::unchecked_unwrap
; Function Attrs: inlinehint uwtable
define ptr @"_ZN101_$LT$core..option..Option$LT$T$GT$$u20$as$u20$parking_lot_core..util..UncheckedOptionExt$LT$T$GT$$GT$16unchecked_unwrap17hf4fa0fe7c54c87d4E"(i64 %0, ptr %1) unnamed_addr #0 !dbg !260 {
start:
  %x.dbg.spill = alloca ptr, align 8
  %self = alloca %"core::option::Option<parking_lot_core::thread_parker::imp::UnparkHandle>", align 8
  store i64 %0, ptr %self, align 8
  %2 = getelementptr inbounds i8, ptr %self, i64 8
  store ptr %1, ptr %2, align 8
  call void @llvm.dbg.declare(metadata ptr %self, metadata !330, metadata !DIExpression()), !dbg !333
  %_2 = load i64, ptr %self, align 8, !dbg !334, !range !335, !noundef !16
  %3 = icmp eq i64 %_2, 0, !dbg !336
  br i1 %3, label %bb2, label %bb3, !dbg !336

bb2:                                              ; preds = %start
; call parking_lot_core::util::unreachable
  call void @_ZN16parking_lot_core4util11unreachable17h9b8fd12fcb4faba6E() #19, !dbg !337
  unreachable, !dbg !337

bb3:                                              ; preds = %start
  %4 = getelementptr inbounds i8, ptr %self, i64 8, !dbg !338
  %x = load ptr, ptr %4, align 8, !dbg !338, !noundef !16
  store ptr %x, ptr %x.dbg.spill, align 8, !dbg !338
  call void @llvm.dbg.declare(metadata ptr %x.dbg.spill, metadata !331, metadata !DIExpression()), !dbg !339
  ret ptr %x, !dbg !340

bb1:                                              ; No predecessors!
  unreachable, !dbg !334
}

; <core::panic::unwind_safe::AssertUnwindSafe<F> as core::ops::function::FnOnce<()>>::call_once
; Function Attrs: inlinehint uwtable
define void @"_ZN115_$LT$core..panic..unwind_safe..AssertUnwindSafe$LT$F$GT$$u20$as$u20$core..ops..function..FnOnce$LT$$LP$$RP$$GT$$GT$9call_once17h4ce40e5b6b35d4cdE"(ptr align 8 %self) unnamed_addr #0 !dbg !341 {
start:
  %self.dbg.spill = alloca ptr, align 8
  %_2 = alloca {}, align 1
  %_args.dbg.spill = alloca {}, align 1
  call void @llvm.dbg.declare(metadata ptr %_args.dbg.spill, metadata !361, metadata !DIExpression()), !dbg !366
  store ptr %self, ptr %self.dbg.spill, align 8, !dbg !366
  call void @llvm.dbg.declare(metadata ptr %self.dbg.spill, metadata !360, metadata !DIExpression()), !dbg !367
  call void @llvm.dbg.declare(metadata ptr %_2, metadata !362, metadata !DIExpression()), !dbg !366
; call core::ops::function::FnOnce::call_once
  call void @_ZN4core3ops8function6FnOnce9call_once17h55afc3731cb72ffeE(ptr align 8 %self), !dbg !368
  ret void, !dbg !369
}

; <parking_lot_core::thread_parker::imp::ThreadParker as parking_lot_core::thread_parker::ThreadParkerT>::park_until
; Function Attrs: inlinehint uwtable
define internal zeroext i1 @"_ZN117_$LT$parking_lot_core..thread_parker..imp..ThreadParker$u20$as$u20$parking_lot_core..thread_parker..ThreadParkerT$GT$10park_until17hbadbb52380d86daaE"(ptr align 8 %self, i64 %0, i32 %1) unnamed_addr #0 !dbg !370 {
start:
  %self.dbg.spill.i25 = alloca ptr, align 8
  %self.dbg.spill.i24 = alloca ptr, align 8
  %self.dbg.spill.i23 = alloca ptr, align 8
  %self.dbg.spill.i22 = alloca ptr, align 8
  %self.dbg.spill.i21 = alloca ptr, align 8
  %self.dbg.spill.i20 = alloca ptr, align 8
  %self.dbg.spill.i = alloca ptr, align 8
  %right_val.dbg.spill19 = alloca ptr, align 8
  %left_val.dbg.spill17 = alloca ptr, align 8
  %right_val.dbg.spill15 = alloca ptr, align 8
  %left_val.dbg.spill13 = alloca ptr, align 8
  %r.dbg.spill = alloca i32, align 4
  %right_val.dbg.spill10 = alloca ptr, align 8
  %left_val.dbg.spill8 = alloca ptr, align 8
  %right_val.dbg.spill = alloca ptr, align 8
  %left_val.dbg.spill = alloca ptr, align 8
  %self.dbg.spill = alloca ptr, align 8
  %_88 = alloca %"core::option::Option<core::fmt::Arguments<'_>>", align 8
  %kind6 = alloca i8, align 1
  %_79 = alloca { ptr, ptr }, align 8
  %r5 = alloca i32, align 4
  %_74 = alloca %"core::option::Option<core::fmt::Arguments<'_>>", align 8
  %kind4 = alloca i8, align 1
  %_65 = alloca { ptr, ptr }, align 8
  %r3 = alloca i32, align 4
  %ts = alloca %"libc::unix::timespec", align 8
  %_37 = alloca %"core::option::Option<libc::unix::timespec>", align 8
  %_36 = alloca %"core::option::Option<core::fmt::Arguments<'_>>", align 8
  %kind2 = alloca i8, align 1
  %_27 = alloca { ptr, ptr }, align 8
  %r1 = alloca i32, align 4
  %now = alloca %"std::time::Instant", align 8
  %_16 = alloca %"core::option::Option<core::fmt::Arguments<'_>>", align 8
  %kind = alloca i8, align 1
  %_7 = alloca { ptr, ptr }, align 8
  %r = alloca i32, align 4
  %_0 = alloca i8, align 1
  %timeout = alloca %"std::time::Instant", align 8
  store i64 %0, ptr %timeout, align 8
  %2 = getelementptr inbounds i8, ptr %timeout, i64 8
  store i32 %1, ptr %2, align 8
  store ptr %self, ptr %self.dbg.spill, align 8
  call void @llvm.dbg.declare(metadata ptr %self.dbg.spill, metadata !395, metadata !DIExpression()), !dbg !446
  call void @llvm.dbg.declare(metadata ptr %timeout, metadata !396, metadata !DIExpression()), !dbg !447
  call void @llvm.dbg.declare(metadata ptr %r, metadata !397, metadata !DIExpression()), !dbg !448
  call void @llvm.dbg.declare(metadata ptr %kind, metadata !406, metadata !DIExpression()), !dbg !449
  call void @llvm.dbg.declare(metadata ptr %now, metadata !409, metadata !DIExpression()), !dbg !450
  call void @llvm.dbg.declare(metadata ptr %r1, metadata !411, metadata !DIExpression()), !dbg !451
  call void @llvm.dbg.declare(metadata ptr %kind2, metadata !417, metadata !DIExpression()), !dbg !452
  call void @llvm.dbg.declare(metadata ptr %ts, metadata !420, metadata !DIExpression()), !dbg !453
  call void @llvm.dbg.declare(metadata ptr %r3, metadata !428, metadata !DIExpression()), !dbg !454
  call void @llvm.dbg.declare(metadata ptr %kind4, metadata !434, metadata !DIExpression()), !dbg !455
  call void @llvm.dbg.declare(metadata ptr %r5, metadata !437, metadata !DIExpression()), !dbg !456
  call void @llvm.dbg.declare(metadata ptr %kind6, metadata !443, metadata !DIExpression()), !dbg !457
  store ptr %self, ptr %self.dbg.spill.i23, align 8
  call void @llvm.dbg.declare(metadata ptr %self.dbg.spill.i23, metadata !458, metadata !DIExpression()), !dbg !467
  %3 = call i32 @pthread_mutex_lock(ptr %self), !dbg !469
  store i32 %3, ptr %r, align 4, !dbg !469
  br label %bb3, !dbg !470

bb3:                                              ; preds = %start
  store ptr %r, ptr %_7, align 8, !dbg !470
  %4 = getelementptr inbounds i8, ptr %_7, i64 8, !dbg !470
  store ptr @alloc_83ea17bf0c4f4a5a5a13d3ae7955acd0, ptr %4, align 8, !dbg !470
  %left_val = load ptr, ptr %_7, align 8, !dbg !470, !nonnull !16, !align !471, !noundef !16
  store ptr %left_val, ptr %left_val.dbg.spill, align 8, !dbg !470
  call void @llvm.dbg.declare(metadata ptr %left_val.dbg.spill, metadata !400, metadata !DIExpression()), !dbg !472
  %5 = getelementptr inbounds i8, ptr %_7, i64 8, !dbg !470
  %right_val = load ptr, ptr %5, align 8, !dbg !470, !nonnull !16, !align !471, !noundef !16
  store ptr %right_val, ptr %right_val.dbg.spill, align 8, !dbg !470
  call void @llvm.dbg.declare(metadata ptr %right_val.dbg.spill, metadata !405, metadata !DIExpression()), !dbg !472
  %_12 = load i32, ptr %left_val, align 4, !dbg !472, !noundef !16
  %_13 = load i32, ptr %right_val, align 4, !dbg !472, !noundef !16
  %_11 = icmp eq i32 %_12, %_13, !dbg !472
  br i1 %_11, label %bb5.preheader, label %bb4, !dbg !472

bb5.preheader:                                    ; preds = %bb3
  br label %bb5, !dbg !473

bb4:                                              ; preds = %bb3
  store i8 0, ptr %kind, align 1, !dbg !472
  store ptr null, ptr %_16, align 8, !dbg !449
  %6 = load i8, ptr %kind, align 1, !dbg !449, !range !474, !noundef !16
; call core::panicking::assert_failed
  call void @_ZN4core9panicking13assert_failed17he50a567f8f315e49E(i8 %6, ptr align 4 %left_val, ptr align 4 %right_val, ptr align 8 %_16, ptr align 8 @alloc_91e30601a06b0c7730dfd71f24710563) #19, !dbg !449
  unreachable, !dbg !449

bb5:                                              ; preds = %bb5.backedge, %bb5.preheader
  %_18 = getelementptr inbounds i8, ptr %self, i64 112, !dbg !473
; call core::cell::Cell<T>::get
  %_17 = call zeroext i1 @"_ZN4core4cell13Cell$LT$T$GT$3get17h3cd954bcd46cee36E"(ptr align 1 %_18), !dbg !473
  br i1 %_17, label %bb7, label %bb38, !dbg !473

bb38:                                             ; preds = %bb5
  store ptr %self, ptr %self.dbg.spill.i22, align 8
  call void @llvm.dbg.declare(metadata ptr %self.dbg.spill.i22, metadata !458, metadata !DIExpression()), !dbg !475
  %7 = call i32 @pthread_mutex_unlock(ptr %self), !dbg !477
  store i32 %7, ptr %r5, align 4, !dbg !477
  br label %bb41, !dbg !478

bb7:                                              ; preds = %bb5
; call std::time::Instant::now
  %8 = call { i64, i32 } @_ZN3std4time7Instant3now17h3ce6b86a833f1105E(), !dbg !479
  %9 = extractvalue { i64, i32 } %8, 0, !dbg !479
  %10 = extractvalue { i64, i32 } %8, 1, !dbg !479
  store i64 %9, ptr %now, align 8, !dbg !479
  %11 = getelementptr inbounds i8, ptr %now, i64 8, !dbg !479
  store i32 %10, ptr %11, align 8, !dbg !479
; call core::cmp::PartialOrd::le
  %_20 = call zeroext i1 @_ZN4core3cmp10PartialOrd2le17h207467a4dbc7b46bE(ptr align 8 %timeout, ptr align 8 %now), !dbg !480
  br i1 %_20, label %bb10, label %bb16, !dbg !480

bb41:                                             ; preds = %bb38
  store ptr %r5, ptr %_79, align 8, !dbg !478
  %12 = getelementptr inbounds i8, ptr %_79, i64 8, !dbg !478
  store ptr @alloc_83ea17bf0c4f4a5a5a13d3ae7955acd0, ptr %12, align 8, !dbg !478
  %left_val7 = load ptr, ptr %_79, align 8, !dbg !478, !nonnull !16, !align !471, !noundef !16
  store ptr %left_val7, ptr %left_val.dbg.spill8, align 8, !dbg !478
  call void @llvm.dbg.declare(metadata ptr %left_val.dbg.spill8, metadata !439, metadata !DIExpression()), !dbg !481
  %13 = getelementptr inbounds i8, ptr %_79, i64 8, !dbg !478
  %right_val9 = load ptr, ptr %13, align 8, !dbg !478, !nonnull !16, !align !471, !noundef !16
  store ptr %right_val9, ptr %right_val.dbg.spill10, align 8, !dbg !478
  call void @llvm.dbg.declare(metadata ptr %right_val.dbg.spill10, metadata !442, metadata !DIExpression()), !dbg !481
  %_84 = load i32, ptr %left_val7, align 4, !dbg !481, !noundef !16
  %_85 = load i32, ptr %right_val9, align 4, !dbg !481, !noundef !16
  %_83 = icmp eq i32 %_84, %_85, !dbg !481
  br i1 %_83, label %bb43, label %bb42, !dbg !481

bb42:                                             ; preds = %bb41
  store i8 0, ptr %kind6, align 1, !dbg !481
  store ptr null, ptr %_88, align 8, !dbg !457
  %14 = load i8, ptr %kind6, align 1, !dbg !457, !range !474, !noundef !16
; call core::panicking::assert_failed
  call void @_ZN4core9panicking13assert_failed17he50a567f8f315e49E(i8 %14, ptr align 4 %left_val7, ptr align 4 %right_val9, ptr align 8 %_88, ptr align 8 @alloc_94e58ee801ced27922547c8083a41e92) #19, !dbg !457
  unreachable, !dbg !457

bb43:                                             ; preds = %bb41
  store i8 1, ptr %_0, align 1, !dbg !482
  br label %bb44, !dbg !483

bb44:                                             ; preds = %bb15, %bb43
  %15 = load i8, ptr %_0, align 1, !dbg !483, !range !484, !noundef !16
  %16 = trunc i8 %15 to i1, !dbg !483
  ret i1 %16, !dbg !483

bb16:                                             ; preds = %bb7
  %_39.0 = load i64, ptr %timeout, align 8, !dbg !485, !noundef !16
  %17 = getelementptr inbounds i8, ptr %timeout, i64 8, !dbg !485
  %_39.1 = load i32, ptr %17, align 8, !dbg !485, !range !486, !noundef !16
  %_40.0 = load i64, ptr %now, align 8, !dbg !487, !noundef !16
  %18 = getelementptr inbounds i8, ptr %now, i64 8, !dbg !487
  %_40.1 = load i32, ptr %18, align 8, !dbg !487, !range !486, !noundef !16
; call <std::time::Instant as core::ops::arith::Sub>::sub
  %19 = call { i64, i32 } @"_ZN60_$LT$std..time..Instant$u20$as$u20$core..ops..arith..Sub$GT$3sub17h3627160f60b15d56E"(i64 %_39.0, i32 %_39.1, i64 %_40.0, i32 %_40.1), !dbg !485
  %_38.0 = extractvalue { i64, i32 } %19, 0, !dbg !485
  %_38.1 = extractvalue { i64, i32 } %19, 1, !dbg !485
; call parking_lot_core::thread_parker::imp::timeout_to_timespec
  call void @_ZN16parking_lot_core13thread_parker3imp19timeout_to_timespec17hde848c3e5b2995faE(ptr sret(%"core::option::Option<libc::unix::timespec>") align 8 %_37, i64 %_38.0, i32 %_38.1), !dbg !488
  %_41 = load i64, ptr %_37, align 8, !dbg !489, !range !335, !noundef !16
  %20 = icmp eq i64 %_41, 1, !dbg !489
  br i1 %20, label %bb19, label %bb32, !dbg !489

bb10:                                             ; preds = %bb7
  store ptr %self, ptr %self.dbg.spill.i, align 8
  call void @llvm.dbg.declare(metadata ptr %self.dbg.spill.i, metadata !458, metadata !DIExpression()), !dbg !490
  %21 = call i32 @pthread_mutex_unlock(ptr %self), !dbg !492
  store i32 %21, ptr %r1, align 4, !dbg !492
  br label %bb13, !dbg !493

bb19:                                             ; preds = %bb16
  %22 = getelementptr inbounds i8, ptr %_37, i64 8, !dbg !453
  %23 = load i64, ptr %22, align 8, !dbg !453, !noundef !16
  %24 = getelementptr inbounds i8, ptr %22, i64 8, !dbg !453
  %25 = load i64, ptr %24, align 8, !dbg !453, !noundef !16
  store i64 %23, ptr %ts, align 8, !dbg !453
  %26 = getelementptr inbounds i8, ptr %ts, i64 8, !dbg !453
  store i64 %25, ptr %26, align 8, !dbg !453
  %_45 = getelementptr inbounds i8, ptr %self, i64 64, !dbg !494
  store ptr %_45, ptr %self.dbg.spill.i25, align 8
  call void @llvm.dbg.declare(metadata ptr %self.dbg.spill.i25, metadata !495, metadata !DIExpression()), !dbg !503
  store ptr %self, ptr %self.dbg.spill.i21, align 8
  call void @llvm.dbg.declare(metadata ptr %self.dbg.spill.i21, metadata !458, metadata !DIExpression()), !dbg !505
  %r11 = call i32 @pthread_cond_timedwait(ptr %_45, ptr %self, ptr %ts), !dbg !507
  store i32 %r11, ptr %r.dbg.spill, align 4, !dbg !507
  call void @llvm.dbg.declare(metadata ptr %r.dbg.spill, metadata !426, metadata !DIExpression()), !dbg !508
  %_51 = load i64, ptr %ts, align 8, !dbg !509, !noundef !16
  %_50 = icmp slt i64 %_51, 0, !dbg !509
  br i1 %_50, label %bb23, label %bb28, !dbg !509

bb32:                                             ; preds = %bb16
  %_61 = getelementptr inbounds i8, ptr %self, i64 64, !dbg !510
  store ptr %_61, ptr %self.dbg.spill.i24, align 8
  call void @llvm.dbg.declare(metadata ptr %self.dbg.spill.i24, metadata !495, metadata !DIExpression()), !dbg !511
  store ptr %self, ptr %self.dbg.spill.i20, align 8
  call void @llvm.dbg.declare(metadata ptr %self.dbg.spill.i20, metadata !458, metadata !DIExpression()), !dbg !513
  %27 = call i32 @pthread_cond_wait(ptr %_61, ptr %self), !dbg !515
  store i32 %27, ptr %r3, align 4, !dbg !515
  br label %bb36, !dbg !516

bb28:                                             ; preds = %bb19
  br label %bb29, !dbg !517

bb23:                                             ; preds = %bb19
  br label %bb24, !dbg !518

bb29:                                             ; preds = %bb28
  %28 = icmp eq i32 %r11, 0, !dbg !519
  br i1 %28, label %bb5.backedge, label %bb30, !dbg !519

bb5.backedge:                                     ; preds = %bb29, %bb30, %bb24, %bb25, %bb26, %bb36
  br label %bb5, !dbg !473

bb30:                                             ; preds = %bb29
  %_57 = icmp eq i32 %r11, 60, !dbg !520
  br i1 %_57, label %bb5.backedge, label %bb31, !dbg !520

bb31:                                             ; preds = %bb30
; call core::panicking::panic
  call void @_ZN4core9panicking5panic17h5884aad3a9044857E(ptr align 1 @alloc_52f02e54d24c6ccbbea337d92c46e415, i64 48, ptr align 8 @alloc_61ebb2013a1eaae86d31061e7a1573e3) #19, !dbg !517
  unreachable, !dbg !517

bb24:                                             ; preds = %bb23
  %29 = icmp eq i32 %r11, 0, !dbg !521
  br i1 %29, label %bb5.backedge, label %bb25, !dbg !521

bb25:                                             ; preds = %bb24
  %_53 = icmp eq i32 %r11, 60, !dbg !522
  br i1 %_53, label %bb5.backedge, label %bb26, !dbg !522

bb26:                                             ; preds = %bb25
  %_54 = icmp eq i32 %r11, 22, !dbg !523
  br i1 %_54, label %bb5.backedge, label %bb27, !dbg !523

bb27:                                             ; preds = %bb26
; call core::panicking::panic
  call void @_ZN4core9panicking5panic17h5884aad3a9044857E(ptr align 1 @alloc_5610e670986a4b615dfd0fbc4b34b6af, i64 69, ptr align 8 @alloc_8ed478f4f6c4534ed9bd2f873623dcf7) #19, !dbg !518
  unreachable, !dbg !518

bb36:                                             ; preds = %bb32
  store ptr %r3, ptr %_65, align 8, !dbg !516
  %30 = getelementptr inbounds i8, ptr %_65, i64 8, !dbg !516
  store ptr @alloc_83ea17bf0c4f4a5a5a13d3ae7955acd0, ptr %30, align 8, !dbg !516
  %left_val12 = load ptr, ptr %_65, align 8, !dbg !516, !nonnull !16, !align !471, !noundef !16
  store ptr %left_val12, ptr %left_val.dbg.spill13, align 8, !dbg !516
  call void @llvm.dbg.declare(metadata ptr %left_val.dbg.spill13, metadata !430, metadata !DIExpression()), !dbg !524
  %31 = getelementptr inbounds i8, ptr %_65, i64 8, !dbg !516
  %right_val14 = load ptr, ptr %31, align 8, !dbg !516, !nonnull !16, !align !471, !noundef !16
  store ptr %right_val14, ptr %right_val.dbg.spill15, align 8, !dbg !516
  call void @llvm.dbg.declare(metadata ptr %right_val.dbg.spill15, metadata !433, metadata !DIExpression()), !dbg !524
  %_70 = load i32, ptr %left_val12, align 4, !dbg !524, !noundef !16
  %_71 = load i32, ptr %right_val14, align 4, !dbg !524, !noundef !16
  %_69 = icmp eq i32 %_70, %_71, !dbg !524
  br i1 %_69, label %bb5.backedge, label %bb37, !dbg !524

bb37:                                             ; preds = %bb36
  %left_val12.lcssa = phi ptr [ %left_val12, %bb36 ], !dbg !516
  %right_val14.lcssa = phi ptr [ %right_val14, %bb36 ], !dbg !516
  store i8 0, ptr %kind4, align 1, !dbg !524
  store ptr null, ptr %_74, align 8, !dbg !455
  %32 = load i8, ptr %kind4, align 1, !dbg !455, !range !474, !noundef !16
; call core::panicking::assert_failed
  call void @_ZN4core9panicking13assert_failed17he50a567f8f315e49E(i8 %32, ptr align 4 %left_val12.lcssa, ptr align 4 %right_val14.lcssa, ptr align 8 %_74, ptr align 8 @alloc_2a3e365372d6a7e6c1e8fcf2e56ee623) #19, !dbg !455
  unreachable, !dbg !455

bb45:                                             ; No predecessors!
  unreachable, !dbg !525

bb13:                                             ; preds = %bb10
  store ptr %r1, ptr %_27, align 8, !dbg !493
  %33 = getelementptr inbounds i8, ptr %_27, i64 8, !dbg !493
  store ptr @alloc_83ea17bf0c4f4a5a5a13d3ae7955acd0, ptr %33, align 8, !dbg !493
  %left_val16 = load ptr, ptr %_27, align 8, !dbg !493, !nonnull !16, !align !471, !noundef !16
  store ptr %left_val16, ptr %left_val.dbg.spill17, align 8, !dbg !493
  call void @llvm.dbg.declare(metadata ptr %left_val.dbg.spill17, metadata !413, metadata !DIExpression()), !dbg !526
  %34 = getelementptr inbounds i8, ptr %_27, i64 8, !dbg !493
  %right_val18 = load ptr, ptr %34, align 8, !dbg !493, !nonnull !16, !align !471, !noundef !16
  store ptr %right_val18, ptr %right_val.dbg.spill19, align 8, !dbg !493
  call void @llvm.dbg.declare(metadata ptr %right_val.dbg.spill19, metadata !416, metadata !DIExpression()), !dbg !526
  %_32 = load i32, ptr %left_val16, align 4, !dbg !526, !noundef !16
  %_33 = load i32, ptr %right_val18, align 4, !dbg !526, !noundef !16
  %_31 = icmp eq i32 %_32, %_33, !dbg !526
  br i1 %_31, label %bb15, label %bb14, !dbg !526

bb14:                                             ; preds = %bb13
  store i8 0, ptr %kind2, align 1, !dbg !526
  store ptr null, ptr %_36, align 8, !dbg !452
  %35 = load i8, ptr %kind2, align 1, !dbg !452, !range !474, !noundef !16
; call core::panicking::assert_failed
  call void @_ZN4core9panicking13assert_failed17he50a567f8f315e49E(i8 %35, ptr align 4 %left_val16, ptr align 4 %right_val18, ptr align 8 %_36, ptr align 8 @alloc_8bef48ee8c8c794fb13e01d4bb9f90df) #19, !dbg !452
  unreachable, !dbg !452

bb15:                                             ; preds = %bb13
  store i8 0, ptr %_0, align 1, !dbg !527
  br label %bb44, !dbg !483
}

; <parking_lot_core::thread_parker::imp::ThreadParker as parking_lot_core::thread_parker::ThreadParkerT>::unpark_lock
; Function Attrs: inlinehint uwtable
define internal ptr @"_ZN117_$LT$parking_lot_core..thread_parker..imp..ThreadParker$u20$as$u20$parking_lot_core..thread_parker..ThreadParkerT$GT$11unpark_lock17ha287d5f135ea9f20E"(ptr align 8 %self) unnamed_addr #0 !dbg !528 {
start:
  %self.dbg.spill.i = alloca ptr, align 8
  %right_val.dbg.spill = alloca ptr, align 8
  %left_val.dbg.spill = alloca ptr, align 8
  %self.dbg.spill = alloca ptr, align 8
  %_15 = alloca %"core::option::Option<core::fmt::Arguments<'_>>", align 8
  %kind = alloca i8, align 1
  %_6 = alloca { ptr, ptr }, align 8
  %r = alloca i32, align 4
  %_0 = alloca ptr, align 8
  store ptr %self, ptr %self.dbg.spill, align 8
  call void @llvm.dbg.declare(metadata ptr %self.dbg.spill, metadata !532, metadata !DIExpression()), !dbg !542
  call void @llvm.dbg.declare(metadata ptr %r, metadata !533, metadata !DIExpression()), !dbg !543
  call void @llvm.dbg.declare(metadata ptr %kind, metadata !539, metadata !DIExpression()), !dbg !544
  store ptr %self, ptr %self.dbg.spill.i, align 8
  call void @llvm.dbg.declare(metadata ptr %self.dbg.spill.i, metadata !458, metadata !DIExpression()), !dbg !545
  %0 = call i32 @pthread_mutex_lock(ptr %self), !dbg !547
  store i32 %0, ptr %r, align 4, !dbg !547
  br label %bb3, !dbg !548

bb3:                                              ; preds = %start
  store ptr %r, ptr %_6, align 8, !dbg !548
  %1 = getelementptr inbounds i8, ptr %_6, i64 8, !dbg !548
  store ptr @alloc_83ea17bf0c4f4a5a5a13d3ae7955acd0, ptr %1, align 8, !dbg !548
  %left_val = load ptr, ptr %_6, align 8, !dbg !548, !nonnull !16, !align !471, !noundef !16
  store ptr %left_val, ptr %left_val.dbg.spill, align 8, !dbg !548
  call void @llvm.dbg.declare(metadata ptr %left_val.dbg.spill, metadata !535, metadata !DIExpression()), !dbg !549
  %2 = getelementptr inbounds i8, ptr %_6, i64 8, !dbg !548
  %right_val = load ptr, ptr %2, align 8, !dbg !548, !nonnull !16, !align !471, !noundef !16
  store ptr %right_val, ptr %right_val.dbg.spill, align 8, !dbg !548
  call void @llvm.dbg.declare(metadata ptr %right_val.dbg.spill, metadata !538, metadata !DIExpression()), !dbg !549
  %_11 = load i32, ptr %left_val, align 4, !dbg !549, !noundef !16
  %_12 = load i32, ptr %right_val, align 4, !dbg !549, !noundef !16
  %_10 = icmp eq i32 %_11, %_12, !dbg !549
  br i1 %_10, label %bb5, label %bb4, !dbg !549

bb4:                                              ; preds = %bb3
  store i8 0, ptr %kind, align 1, !dbg !549
  store ptr null, ptr %_15, align 8, !dbg !544
  %3 = load i8, ptr %kind, align 1, !dbg !544, !range !474, !noundef !16
; call core::panicking::assert_failed
  call void @_ZN4core9panicking13assert_failed17he50a567f8f315e49E(i8 %3, ptr align 4 %left_val, ptr align 4 %right_val, ptr align 8 %_15, ptr align 8 @alloc_301622c8fae3d7e2d34174e01fb08421) #19, !dbg !544
  unreachable, !dbg !544

bb5:                                              ; preds = %bb3
  store ptr %self, ptr %_0, align 8, !dbg !550
  %4 = load ptr, ptr %_0, align 8, !dbg !551, !noundef !16
  ret ptr %4, !dbg !551
}

; <parking_lot_core::thread_parker::imp::ThreadParker as parking_lot_core::thread_parker::ThreadParkerT>::prepare_park
; Function Attrs: inlinehint uwtable
define internal void @"_ZN117_$LT$parking_lot_core..thread_parker..imp..ThreadParker$u20$as$u20$parking_lot_core..thread_parker..ThreadParkerT$GT$12prepare_park17h6ca759dab5362d5aE"(ptr align 8 %self) unnamed_addr #0 !dbg !552 {
start:
  %self.dbg.spill = alloca ptr, align 8
  store ptr %self, ptr %self.dbg.spill, align 8
  call void @llvm.dbg.declare(metadata ptr %self.dbg.spill, metadata !556, metadata !DIExpression()), !dbg !557
  %_3 = getelementptr inbounds i8, ptr %self, i64 112, !dbg !558
; call core::cell::Cell<T>::set
  call void @"_ZN4core4cell13Cell$LT$T$GT$3set17hdf769f26f760c782E"(ptr align 1 %_3, i1 zeroext true), !dbg !558
  %_5 = getelementptr inbounds i8, ptr %self, i64 113, !dbg !559
; call core::cell::Cell<T>::get
  %_4 = call zeroext i1 @"_ZN4core4cell13Cell$LT$T$GT$3get17h3cd954bcd46cee36E"(ptr align 1 %_5), !dbg !559
  br i1 %_4, label %bb5, label %bb3, !dbg !559

bb3:                                              ; preds = %start
; call parking_lot_core::thread_parker::imp::ThreadParker::init
  call void @_ZN16parking_lot_core13thread_parker3imp12ThreadParker4init17h92a8689eaa305f7aE(ptr align 8 %self), !dbg !560
  %_8 = getelementptr inbounds i8, ptr %self, i64 113, !dbg !561
; call core::cell::Cell<T>::set
  call void @"_ZN4core4cell13Cell$LT$T$GT$3set17hdf769f26f760c782E"(ptr align 1 %_8, i1 zeroext true), !dbg !561
  br label %bb5, !dbg !561

bb5:                                              ; preds = %bb3, %start
  ret void, !dbg !562
}

; <parking_lot_core::thread_parker::imp::ThreadParker as parking_lot_core::thread_parker::ThreadParkerT>::park
; Function Attrs: inlinehint uwtable
define internal void @"_ZN117_$LT$parking_lot_core..thread_parker..imp..ThreadParker$u20$as$u20$parking_lot_core..thread_parker..ThreadParkerT$GT$4park17h618746e936b5e697E"(ptr align 8 %self) unnamed_addr #0 !dbg !563 {
start:
  %self.dbg.spill.i15 = alloca ptr, align 8
  %self.dbg.spill.i14 = alloca ptr, align 8
  %self.dbg.spill.i13 = alloca ptr, align 8
  %self.dbg.spill.i = alloca ptr, align 8
  %right_val.dbg.spill12 = alloca ptr, align 8
  %left_val.dbg.spill10 = alloca ptr, align 8
  %right_val.dbg.spill8 = alloca ptr, align 8
  %left_val.dbg.spill6 = alloca ptr, align 8
  %right_val.dbg.spill = alloca ptr, align 8
  %left_val.dbg.spill = alloca ptr, align 8
  %self.dbg.spill = alloca ptr, align 8
  %_47 = alloca %"core::option::Option<core::fmt::Arguments<'_>>", align 8
  %kind4 = alloca i8, align 1
  %_38 = alloca { ptr, ptr }, align 8
  %r3 = alloca i32, align 4
  %_33 = alloca %"core::option::Option<core::fmt::Arguments<'_>>", align 8
  %kind2 = alloca i8, align 1
  %_24 = alloca { ptr, ptr }, align 8
  %r1 = alloca i32, align 4
  %_15 = alloca %"core::option::Option<core::fmt::Arguments<'_>>", align 8
  %kind = alloca i8, align 1
  %_6 = alloca { ptr, ptr }, align 8
  %r = alloca i32, align 4
  store ptr %self, ptr %self.dbg.spill, align 8
  call void @llvm.dbg.declare(metadata ptr %self.dbg.spill, metadata !565, metadata !DIExpression()), !dbg !593
  call void @llvm.dbg.declare(metadata ptr %r, metadata !566, metadata !DIExpression()), !dbg !594
  call void @llvm.dbg.declare(metadata ptr %kind, metadata !572, metadata !DIExpression()), !dbg !595
  call void @llvm.dbg.declare(metadata ptr %r1, metadata !575, metadata !DIExpression()), !dbg !596
  call void @llvm.dbg.declare(metadata ptr %kind2, metadata !581, metadata !DIExpression()), !dbg !597
  call void @llvm.dbg.declare(metadata ptr %r3, metadata !584, metadata !DIExpression()), !dbg !598
  call void @llvm.dbg.declare(metadata ptr %kind4, metadata !590, metadata !DIExpression()), !dbg !599
  store ptr %self, ptr %self.dbg.spill.i14, align 8
  call void @llvm.dbg.declare(metadata ptr %self.dbg.spill.i14, metadata !458, metadata !DIExpression()), !dbg !600
  %0 = call i32 @pthread_mutex_lock(ptr %self), !dbg !602
  store i32 %0, ptr %r, align 4, !dbg !602
  br label %bb3, !dbg !603

bb3:                                              ; preds = %start
  store ptr %r, ptr %_6, align 8, !dbg !603
  %1 = getelementptr inbounds i8, ptr %_6, i64 8, !dbg !603
  store ptr @alloc_83ea17bf0c4f4a5a5a13d3ae7955acd0, ptr %1, align 8, !dbg !603
  %left_val = load ptr, ptr %_6, align 8, !dbg !603, !nonnull !16, !align !471, !noundef !16
  store ptr %left_val, ptr %left_val.dbg.spill, align 8, !dbg !603
  call void @llvm.dbg.declare(metadata ptr %left_val.dbg.spill, metadata !568, metadata !DIExpression()), !dbg !604
  %2 = getelementptr inbounds i8, ptr %_6, i64 8, !dbg !603
  %right_val = load ptr, ptr %2, align 8, !dbg !603, !nonnull !16, !align !471, !noundef !16
  store ptr %right_val, ptr %right_val.dbg.spill, align 8, !dbg !603
  call void @llvm.dbg.declare(metadata ptr %right_val.dbg.spill, metadata !571, metadata !DIExpression()), !dbg !604
  %_11 = load i32, ptr %left_val, align 4, !dbg !604, !noundef !16
  %_12 = load i32, ptr %right_val, align 4, !dbg !604, !noundef !16
  %_10 = icmp eq i32 %_11, %_12, !dbg !604
  br i1 %_10, label %bb5.preheader, label %bb4, !dbg !604

bb5.preheader:                                    ; preds = %bb3
  br label %bb5, !dbg !605

bb4:                                              ; preds = %bb3
  store i8 0, ptr %kind, align 1, !dbg !604
  store ptr null, ptr %_15, align 8, !dbg !595
  %3 = load i8, ptr %kind, align 1, !dbg !595, !range !474, !noundef !16
; call core::panicking::assert_failed
  call void @_ZN4core9panicking13assert_failed17he50a567f8f315e49E(i8 %3, ptr align 4 %left_val, ptr align 4 %right_val, ptr align 8 %_15, ptr align 8 @alloc_4a2ad986af2120545fff5117e148d037) #19, !dbg !595
  unreachable, !dbg !595

bb5:                                              ; preds = %bb5.preheader, %bb11
  %_17 = getelementptr inbounds i8, ptr %self, i64 112, !dbg !605
; call core::cell::Cell<T>::get
  %_16 = call zeroext i1 @"_ZN4core4cell13Cell$LT$T$GT$3get17h3cd954bcd46cee36E"(ptr align 1 %_17), !dbg !605
  br i1 %_16, label %bb7, label %bb13, !dbg !605

bb13:                                             ; preds = %bb5
  store ptr %self, ptr %self.dbg.spill.i13, align 8
  call void @llvm.dbg.declare(metadata ptr %self.dbg.spill.i13, metadata !458, metadata !DIExpression()), !dbg !606
  %4 = call i32 @pthread_mutex_unlock(ptr %self), !dbg !608
  store i32 %4, ptr %r3, align 4, !dbg !608
  br label %bb16, !dbg !609

bb7:                                              ; preds = %bb5
  %_20 = getelementptr inbounds i8, ptr %self, i64 64, !dbg !610
  store ptr %_20, ptr %self.dbg.spill.i15, align 8
  call void @llvm.dbg.declare(metadata ptr %self.dbg.spill.i15, metadata !495, metadata !DIExpression()), !dbg !611
  store ptr %self, ptr %self.dbg.spill.i, align 8
  call void @llvm.dbg.declare(metadata ptr %self.dbg.spill.i, metadata !458, metadata !DIExpression()), !dbg !613
  %5 = call i32 @pthread_cond_wait(ptr %_20, ptr %self), !dbg !615
  store i32 %5, ptr %r1, align 4, !dbg !615
  br label %bb11, !dbg !616

bb16:                                             ; preds = %bb13
  store ptr %r3, ptr %_38, align 8, !dbg !609
  %6 = getelementptr inbounds i8, ptr %_38, i64 8, !dbg !609
  store ptr @alloc_83ea17bf0c4f4a5a5a13d3ae7955acd0, ptr %6, align 8, !dbg !609
  %left_val5 = load ptr, ptr %_38, align 8, !dbg !609, !nonnull !16, !align !471, !noundef !16
  store ptr %left_val5, ptr %left_val.dbg.spill6, align 8, !dbg !609
  call void @llvm.dbg.declare(metadata ptr %left_val.dbg.spill6, metadata !586, metadata !DIExpression()), !dbg !617
  %7 = getelementptr inbounds i8, ptr %_38, i64 8, !dbg !609
  %right_val7 = load ptr, ptr %7, align 8, !dbg !609, !nonnull !16, !align !471, !noundef !16
  store ptr %right_val7, ptr %right_val.dbg.spill8, align 8, !dbg !609
  call void @llvm.dbg.declare(metadata ptr %right_val.dbg.spill8, metadata !589, metadata !DIExpression()), !dbg !617
  %_43 = load i32, ptr %left_val5, align 4, !dbg !617, !noundef !16
  %_44 = load i32, ptr %right_val7, align 4, !dbg !617, !noundef !16
  %_42 = icmp eq i32 %_43, %_44, !dbg !617
  br i1 %_42, label %bb18, label %bb17, !dbg !617

bb17:                                             ; preds = %bb16
  store i8 0, ptr %kind4, align 1, !dbg !617
  store ptr null, ptr %_47, align 8, !dbg !599
  %8 = load i8, ptr %kind4, align 1, !dbg !599, !range !474, !noundef !16
; call core::panicking::assert_failed
  call void @_ZN4core9panicking13assert_failed17he50a567f8f315e49E(i8 %8, ptr align 4 %left_val5, ptr align 4 %right_val7, ptr align 8 %_47, ptr align 8 @alloc_fd9b2f6720816e9f8a520249582fc420) #19, !dbg !599
  unreachable, !dbg !599

bb18:                                             ; preds = %bb16
  ret void, !dbg !618

bb11:                                             ; preds = %bb7
  store ptr %r1, ptr %_24, align 8, !dbg !616
  %9 = getelementptr inbounds i8, ptr %_24, i64 8, !dbg !616
  store ptr @alloc_83ea17bf0c4f4a5a5a13d3ae7955acd0, ptr %9, align 8, !dbg !616
  %left_val9 = load ptr, ptr %_24, align 8, !dbg !616, !nonnull !16, !align !471, !noundef !16
  store ptr %left_val9, ptr %left_val.dbg.spill10, align 8, !dbg !616
  call void @llvm.dbg.declare(metadata ptr %left_val.dbg.spill10, metadata !577, metadata !DIExpression()), !dbg !619
  %10 = getelementptr inbounds i8, ptr %_24, i64 8, !dbg !616
  %right_val11 = load ptr, ptr %10, align 8, !dbg !616, !nonnull !16, !align !471, !noundef !16
  store ptr %right_val11, ptr %right_val.dbg.spill12, align 8, !dbg !616
  call void @llvm.dbg.declare(metadata ptr %right_val.dbg.spill12, metadata !580, metadata !DIExpression()), !dbg !619
  %_29 = load i32, ptr %left_val9, align 4, !dbg !619, !noundef !16
  %_30 = load i32, ptr %right_val11, align 4, !dbg !619, !noundef !16
  %_28 = icmp eq i32 %_29, %_30, !dbg !619
  br i1 %_28, label %bb5, label %bb12, !dbg !619

bb12:                                             ; preds = %bb11
  %left_val9.lcssa = phi ptr [ %left_val9, %bb11 ], !dbg !616
  %right_val11.lcssa = phi ptr [ %right_val11, %bb11 ], !dbg !616
  store i8 0, ptr %kind2, align 1, !dbg !619
  store ptr null, ptr %_33, align 8, !dbg !597
  %11 = load i8, ptr %kind2, align 1, !dbg !597, !range !474, !noundef !16
; call core::panicking::assert_failed
  call void @_ZN4core9panicking13assert_failed17he50a567f8f315e49E(i8 %11, ptr align 4 %left_val9.lcssa, ptr align 4 %right_val11.lcssa, ptr align 8 %_33, ptr align 8 @alloc_7c8481acfec48c20c78637f83534acd1) #19, !dbg !597
  unreachable, !dbg !597
}

; <parking_lot_core::thread_parker::imp::ThreadParker as parking_lot_core::thread_parker::ThreadParkerT>::timed_out
; Function Attrs: inlinehint uwtable
define internal zeroext i1 @"_ZN117_$LT$parking_lot_core..thread_parker..imp..ThreadParker$u20$as$u20$parking_lot_core..thread_parker..ThreadParkerT$GT$9timed_out17hc284521255ef62dfE"(ptr align 8 %self) unnamed_addr #0 !dbg !620 {
start:
  %self.dbg.spill.i7 = alloca ptr, align 8
  %self.dbg.spill.i = alloca ptr, align 8
  %right_val.dbg.spill6 = alloca ptr, align 8
  %left_val.dbg.spill4 = alloca ptr, align 8
  %should_park.dbg.spill = alloca i8, align 1
  %right_val.dbg.spill = alloca ptr, align 8
  %left_val.dbg.spill = alloca ptr, align 8
  %self.dbg.spill = alloca ptr, align 8
  %_30 = alloca %"core::option::Option<core::fmt::Arguments<'_>>", align 8
  %kind2 = alloca i8, align 1
  %_21 = alloca { ptr, ptr }, align 8
  %r1 = alloca i32, align 4
  %_15 = alloca %"core::option::Option<core::fmt::Arguments<'_>>", align 8
  %kind = alloca i8, align 1
  %_6 = alloca { ptr, ptr }, align 8
  %r = alloca i32, align 4
  store ptr %self, ptr %self.dbg.spill, align 8
  call void @llvm.dbg.declare(metadata ptr %self.dbg.spill, metadata !624, metadata !DIExpression()), !dbg !645
  call void @llvm.dbg.declare(metadata ptr %r, metadata !625, metadata !DIExpression()), !dbg !646
  call void @llvm.dbg.declare(metadata ptr %kind, metadata !631, metadata !DIExpression()), !dbg !647
  call void @llvm.dbg.declare(metadata ptr %r1, metadata !636, metadata !DIExpression()), !dbg !648
  call void @llvm.dbg.declare(metadata ptr %kind2, metadata !642, metadata !DIExpression()), !dbg !649
  store ptr %self, ptr %self.dbg.spill.i7, align 8
  call void @llvm.dbg.declare(metadata ptr %self.dbg.spill.i7, metadata !458, metadata !DIExpression()), !dbg !650
  %0 = call i32 @pthread_mutex_lock(ptr %self), !dbg !652
  store i32 %0, ptr %r, align 4, !dbg !652
  br label %bb3, !dbg !653

bb3:                                              ; preds = %start
  store ptr %r, ptr %_6, align 8, !dbg !653
  %1 = getelementptr inbounds i8, ptr %_6, i64 8, !dbg !653
  store ptr @alloc_83ea17bf0c4f4a5a5a13d3ae7955acd0, ptr %1, align 8, !dbg !653
  %left_val = load ptr, ptr %_6, align 8, !dbg !653, !nonnull !16, !align !471, !noundef !16
  store ptr %left_val, ptr %left_val.dbg.spill, align 8, !dbg !653
  call void @llvm.dbg.declare(metadata ptr %left_val.dbg.spill, metadata !627, metadata !DIExpression()), !dbg !654
  %2 = getelementptr inbounds i8, ptr %_6, i64 8, !dbg !653
  %right_val = load ptr, ptr %2, align 8, !dbg !653, !nonnull !16, !align !471, !noundef !16
  store ptr %right_val, ptr %right_val.dbg.spill, align 8, !dbg !653
  call void @llvm.dbg.declare(metadata ptr %right_val.dbg.spill, metadata !630, metadata !DIExpression()), !dbg !654
  %_11 = load i32, ptr %left_val, align 4, !dbg !654, !noundef !16
  %_12 = load i32, ptr %right_val, align 4, !dbg !654, !noundef !16
  %_10 = icmp eq i32 %_11, %_12, !dbg !654
  br i1 %_10, label %bb5, label %bb4, !dbg !654

bb4:                                              ; preds = %bb3
  store i8 0, ptr %kind, align 1, !dbg !654
  store ptr null, ptr %_15, align 8, !dbg !647
  %3 = load i8, ptr %kind, align 1, !dbg !647, !range !474, !noundef !16
; call core::panicking::assert_failed
  call void @_ZN4core9panicking13assert_failed17he50a567f8f315e49E(i8 %3, ptr align 4 %left_val, ptr align 4 %right_val, ptr align 8 %_15, ptr align 8 @alloc_66db8b602202312650e3488eb361d074) #19, !dbg !647
  unreachable, !dbg !647

bb5:                                              ; preds = %bb3
  %_16 = getelementptr inbounds i8, ptr %self, i64 112, !dbg !655
; call core::cell::Cell<T>::get
  %should_park = call zeroext i1 @"_ZN4core4cell13Cell$LT$T$GT$3get17h3cd954bcd46cee36E"(ptr align 1 %_16), !dbg !655
  %4 = zext i1 %should_park to i8, !dbg !655
  store i8 %4, ptr %should_park.dbg.spill, align 1, !dbg !655
  call void @llvm.dbg.declare(metadata ptr %should_park.dbg.spill, metadata !634, metadata !DIExpression()), !dbg !656
  store ptr %self, ptr %self.dbg.spill.i, align 8
  call void @llvm.dbg.declare(metadata ptr %self.dbg.spill.i, metadata !458, metadata !DIExpression()), !dbg !657
  %5 = call i32 @pthread_mutex_unlock(ptr %self), !dbg !659
  store i32 %5, ptr %r1, align 4, !dbg !659
  br label %bb9, !dbg !660

bb9:                                              ; preds = %bb5
  store ptr %r1, ptr %_21, align 8, !dbg !660
  %6 = getelementptr inbounds i8, ptr %_21, i64 8, !dbg !660
  store ptr @alloc_83ea17bf0c4f4a5a5a13d3ae7955acd0, ptr %6, align 8, !dbg !660
  %left_val3 = load ptr, ptr %_21, align 8, !dbg !660, !nonnull !16, !align !471, !noundef !16
  store ptr %left_val3, ptr %left_val.dbg.spill4, align 8, !dbg !660
  call void @llvm.dbg.declare(metadata ptr %left_val.dbg.spill4, metadata !638, metadata !DIExpression()), !dbg !661
  %7 = getelementptr inbounds i8, ptr %_21, i64 8, !dbg !660
  %right_val5 = load ptr, ptr %7, align 8, !dbg !660, !nonnull !16, !align !471, !noundef !16
  store ptr %right_val5, ptr %right_val.dbg.spill6, align 8, !dbg !660
  call void @llvm.dbg.declare(metadata ptr %right_val.dbg.spill6, metadata !641, metadata !DIExpression()), !dbg !661
  %_26 = load i32, ptr %left_val3, align 4, !dbg !661, !noundef !16
  %_27 = load i32, ptr %right_val5, align 4, !dbg !661, !noundef !16
  %_25 = icmp eq i32 %_26, %_27, !dbg !661
  br i1 %_25, label %bb11, label %bb10, !dbg !661

bb10:                                             ; preds = %bb9
  store i8 0, ptr %kind2, align 1, !dbg !661
  store ptr null, ptr %_30, align 8, !dbg !649
  %8 = load i8, ptr %kind2, align 1, !dbg !649, !range !474, !noundef !16
; call core::panicking::assert_failed
  call void @_ZN4core9panicking13assert_failed17he50a567f8f315e49E(i8 %8, ptr align 4 %left_val3, ptr align 4 %right_val5, ptr align 8 %_30, ptr align 8 @alloc_8f738bc45c5cd28e882d8fba70c330ce) #19, !dbg !649
  unreachable, !dbg !649

bb11:                                             ; preds = %bb9
  ret i1 %should_park, !dbg !662
}

; <parking_lot_core::thread_parker::imp::UnparkHandle as parking_lot_core::thread_parker::UnparkHandleT>::unpark
; Function Attrs: inlinehint uwtable
define internal void @"_ZN117_$LT$parking_lot_core..thread_parker..imp..UnparkHandle$u20$as$u20$parking_lot_core..thread_parker..UnparkHandleT$GT$6unpark17ha69b71b87ae1f833E"(ptr %0) unnamed_addr #0 !dbg !663 {
start:
  %self.dbg.spill.i7 = alloca ptr, align 8
  %self.dbg.spill.i = alloca ptr, align 8
  %right_val.dbg.spill6 = alloca ptr, align 8
  %left_val.dbg.spill4 = alloca ptr, align 8
  %right_val.dbg.spill = alloca ptr, align 8
  %left_val.dbg.spill = alloca ptr, align 8
  %_31 = alloca %"core::option::Option<core::fmt::Arguments<'_>>", align 8
  %kind2 = alloca i8, align 1
  %_22 = alloca { ptr, ptr }, align 8
  %r1 = alloca i32, align 4
  %_17 = alloca %"core::option::Option<core::fmt::Arguments<'_>>", align 8
  %kind = alloca i8, align 1
  %_8 = alloca { ptr, ptr }, align 8
  %r = alloca i32, align 4
  %self = alloca ptr, align 8
  store ptr %0, ptr %self, align 8
  call void @llvm.dbg.declare(metadata ptr %self, metadata !668, metadata !DIExpression()), !dbg !687
  call void @llvm.dbg.declare(metadata ptr %r, metadata !669, metadata !DIExpression()), !dbg !688
  call void @llvm.dbg.declare(metadata ptr %kind, metadata !675, metadata !DIExpression()), !dbg !689
  call void @llvm.dbg.declare(metadata ptr %r1, metadata !678, metadata !DIExpression()), !dbg !690
  call void @llvm.dbg.declare(metadata ptr %kind2, metadata !684, metadata !DIExpression()), !dbg !691
  %_34 = load ptr, ptr %self, align 8, !dbg !692, !noundef !16
  %_3 = getelementptr inbounds i8, ptr %_34, i64 112, !dbg !692
; call core::cell::Cell<T>::set
  call void @"_ZN4core4cell13Cell$LT$T$GT$3set17hdf769f26f760c782E"(ptr align 1 %_3, i1 zeroext false), !dbg !692
  %_35 = load ptr, ptr %self, align 8, !dbg !693, !noundef !16
  %_6 = getelementptr inbounds i8, ptr %_35, i64 64, !dbg !693
  store ptr %_6, ptr %self.dbg.spill.i7, align 8
  call void @llvm.dbg.declare(metadata ptr %self.dbg.spill.i7, metadata !495, metadata !DIExpression()), !dbg !694
  %1 = call i32 @pthread_cond_signal(ptr %_6), !dbg !696
  store i32 %1, ptr %r, align 4, !dbg !696
  br label %bb4, !dbg !697

bb4:                                              ; preds = %start
  store ptr %r, ptr %_8, align 8, !dbg !697
  %2 = getelementptr inbounds i8, ptr %_8, i64 8, !dbg !697
  store ptr @alloc_83ea17bf0c4f4a5a5a13d3ae7955acd0, ptr %2, align 8, !dbg !697
  %left_val = load ptr, ptr %_8, align 8, !dbg !697, !nonnull !16, !align !471, !noundef !16
  store ptr %left_val, ptr %left_val.dbg.spill, align 8, !dbg !697
  call void @llvm.dbg.declare(metadata ptr %left_val.dbg.spill, metadata !671, metadata !DIExpression()), !dbg !698
  %3 = getelementptr inbounds i8, ptr %_8, i64 8, !dbg !697
  %right_val = load ptr, ptr %3, align 8, !dbg !697, !nonnull !16, !align !471, !noundef !16
  store ptr %right_val, ptr %right_val.dbg.spill, align 8, !dbg !697
  call void @llvm.dbg.declare(metadata ptr %right_val.dbg.spill, metadata !674, metadata !DIExpression()), !dbg !698
  %_13 = load i32, ptr %left_val, align 4, !dbg !698, !noundef !16
  %_14 = load i32, ptr %right_val, align 4, !dbg !698, !noundef !16
  %_12 = icmp eq i32 %_13, %_14, !dbg !698
  br i1 %_12, label %bb6, label %bb5, !dbg !698

bb5:                                              ; preds = %bb4
  store i8 0, ptr %kind, align 1, !dbg !698
  store ptr null, ptr %_17, align 8, !dbg !689
  %4 = load i8, ptr %kind, align 1, !dbg !689, !range !474, !noundef !16
; call core::panicking::assert_failed
  call void @_ZN4core9panicking13assert_failed17he50a567f8f315e49E(i8 %4, ptr align 4 %left_val, ptr align 4 %right_val, ptr align 8 %_17, ptr align 8 @alloc_70ae7af21cb4bd10ff4e286a7ea403a0) #19, !dbg !689
  unreachable, !dbg !689

bb6:                                              ; preds = %bb4
  %_36 = load ptr, ptr %self, align 8, !dbg !699, !noundef !16
  store ptr %_36, ptr %self.dbg.spill.i, align 8
  call void @llvm.dbg.declare(metadata ptr %self.dbg.spill.i, metadata !458, metadata !DIExpression()), !dbg !700
  %5 = call i32 @pthread_mutex_unlock(ptr %_36), !dbg !702
  store i32 %5, ptr %r1, align 4, !dbg !702
  br label %bb9, !dbg !703

bb9:                                              ; preds = %bb6
  store ptr %r1, ptr %_22, align 8, !dbg !703
  %6 = getelementptr inbounds i8, ptr %_22, i64 8, !dbg !703
  store ptr @alloc_83ea17bf0c4f4a5a5a13d3ae7955acd0, ptr %6, align 8, !dbg !703
  %left_val3 = load ptr, ptr %_22, align 8, !dbg !703, !nonnull !16, !align !471, !noundef !16
  store ptr %left_val3, ptr %left_val.dbg.spill4, align 8, !dbg !703
  call void @llvm.dbg.declare(metadata ptr %left_val.dbg.spill4, metadata !680, metadata !DIExpression()), !dbg !704
  %7 = getelementptr inbounds i8, ptr %_22, i64 8, !dbg !703
  %right_val5 = load ptr, ptr %7, align 8, !dbg !703, !nonnull !16, !align !471, !noundef !16
  store ptr %right_val5, ptr %right_val.dbg.spill6, align 8, !dbg !703
  call void @llvm.dbg.declare(metadata ptr %right_val.dbg.spill6, metadata !683, metadata !DIExpression()), !dbg !704
  %_27 = load i32, ptr %left_val3, align 4, !dbg !704, !noundef !16
  %_28 = load i32, ptr %right_val5, align 4, !dbg !704, !noundef !16
  %_26 = icmp eq i32 %_27, %_28, !dbg !704
  br i1 %_26, label %bb11, label %bb10, !dbg !704

bb10:                                             ; preds = %bb9
  store i8 0, ptr %kind2, align 1, !dbg !704
  store ptr null, ptr %_31, align 8, !dbg !691
  %8 = load i8, ptr %kind2, align 1, !dbg !691, !range !474, !noundef !16
; call core::panicking::assert_failed
  call void @_ZN4core9panicking13assert_failed17he50a567f8f315e49E(i8 %8, ptr align 4 %left_val3, ptr align 4 %right_val5, ptr align 8 %_31, ptr align 8 @alloc_f2c81229400c78747228bf5bff2a7ca7) #19, !dbg !691
  unreachable, !dbg !691

bb11:                                             ; preds = %bb9
  ret void, !dbg !705
}

; <core::result::Result<T,F> as core::ops::try_trait::FromResidual<core::result::Result<core::convert::Infallible,E>>>::from_residual
; Function Attrs: inlinehint uwtable
define { i64, i64 } @"_ZN153_$LT$core..result..Result$LT$T$C$F$GT$$u20$as$u20$core..ops..try_trait..FromResidual$LT$core..result..Result$LT$core..convert..Infallible$C$E$GT$$GT$$GT$13from_residual17h0e5691337dfd1b91E"(i64 %0, i64 %1, ptr align 8 %2) unnamed_addr #0 !dbg !706 {
start:
  %t.dbg.spill.i = alloca %"smallvec::CollectionAllocErr", align 8
  %e.dbg.spill = alloca %"smallvec::CollectionAllocErr", align 8
  %_0 = alloca %"core::result::Result<(), smallvec::CollectionAllocErr>", align 8
  %residual = alloca %"core::result::Result<core::convert::Infallible, smallvec::CollectionAllocErr>::Err", align 8
  store i64 %0, ptr %residual, align 8
  %3 = getelementptr inbounds i8, ptr %residual, i64 8
  store i64 %1, ptr %3, align 8
  call void @llvm.dbg.declare(metadata ptr %residual, metadata !759, metadata !DIExpression()), !dbg !764
  %e.0 = load i64, ptr %residual, align 8, !dbg !765, !range !766, !noundef !16
  %4 = getelementptr inbounds i8, ptr %residual, i64 8, !dbg !765
  %e.1 = load i64, ptr %4, align 8, !dbg !765
  store i64 %e.0, ptr %e.dbg.spill, align 8, !dbg !765
  %5 = getelementptr inbounds i8, ptr %e.dbg.spill, i64 8, !dbg !765
  store i64 %e.1, ptr %5, align 8, !dbg !765
  call void @llvm.dbg.declare(metadata ptr %e.dbg.spill, metadata !760, metadata !DIExpression()), !dbg !767
  store i64 %e.0, ptr %t.dbg.spill.i, align 8
  %6 = getelementptr inbounds i8, ptr %t.dbg.spill.i, i64 8
  store i64 %e.1, ptr %6, align 8
  call void @llvm.dbg.declare(metadata ptr %t.dbg.spill.i, metadata !768, metadata !DIExpression()), !dbg !777
  %7 = insertvalue { i64, i64 } poison, i64 %e.0, 0, !dbg !779
  %8 = insertvalue { i64, i64 } %7, i64 %e.1, 1, !dbg !779
  %_3.0 = extractvalue { i64, i64 } %8, 0, !dbg !780
  %_3.1 = extractvalue { i64, i64 } %8, 1, !dbg !780
  store i64 %_3.0, ptr %_0, align 8, !dbg !781
  %9 = getelementptr inbounds i8, ptr %_0, i64 8, !dbg !781
  store i64 %_3.1, ptr %9, align 8, !dbg !781
  %10 = load i64, ptr %_0, align 8, !dbg !782, !range !783, !noundef !16
  %11 = getelementptr inbounds i8, ptr %_0, i64 8, !dbg !782
  %12 = load i64, ptr %11, align 8, !dbg !782
  %13 = insertvalue { i64, i64 } poison, i64 %10, 0, !dbg !782
  %14 = insertvalue { i64, i64 } %13, i64 %12, 1, !dbg !782
  ret { i64, i64 } %14, !dbg !782
}

; <core::result::Result<T,F> as core::ops::try_trait::FromResidual<core::result::Result<core::convert::Infallible,E>>>::from_residual
; Function Attrs: inlinehint uwtable
define void @"_ZN153_$LT$core..result..Result$LT$T$C$F$GT$$u20$as$u20$core..ops..try_trait..FromResidual$LT$core..result..Result$LT$core..convert..Infallible$C$E$GT$$GT$$GT$13from_residual17hc3ab6306a27df99bE"(ptr sret(%"core::result::Result<core::alloc::layout::Layout, smallvec::CollectionAllocErr>") align 8 %_0, i64 %0, i64 %1, ptr align 8 %2) unnamed_addr #0 !dbg !784 {
start:
  %t.dbg.spill.i = alloca %"smallvec::CollectionAllocErr", align 8
  %e.dbg.spill = alloca %"smallvec::CollectionAllocErr", align 8
  %residual = alloca %"core::result::Result<core::convert::Infallible, smallvec::CollectionAllocErr>::Err", align 8
  store i64 %0, ptr %residual, align 8
  %3 = getelementptr inbounds i8, ptr %residual, i64 8
  store i64 %1, ptr %3, align 8
  call void @llvm.dbg.declare(metadata ptr %residual, metadata !803, metadata !DIExpression()), !dbg !807
  %e.0 = load i64, ptr %residual, align 8, !dbg !808, !range !766, !noundef !16
  %4 = getelementptr inbounds i8, ptr %residual, i64 8, !dbg !808
  %e.1 = load i64, ptr %4, align 8, !dbg !808
  store i64 %e.0, ptr %e.dbg.spill, align 8, !dbg !808
  %5 = getelementptr inbounds i8, ptr %e.dbg.spill, i64 8, !dbg !808
  store i64 %e.1, ptr %5, align 8, !dbg !808
  call void @llvm.dbg.declare(metadata ptr %e.dbg.spill, metadata !804, metadata !DIExpression()), !dbg !809
  store i64 %e.0, ptr %t.dbg.spill.i, align 8
  %6 = getelementptr inbounds i8, ptr %t.dbg.spill.i, i64 8
  store i64 %e.1, ptr %6, align 8
  call void @llvm.dbg.declare(metadata ptr %t.dbg.spill.i, metadata !768, metadata !DIExpression()), !dbg !810
  %7 = insertvalue { i64, i64 } poison, i64 %e.0, 0, !dbg !812
  %8 = insertvalue { i64, i64 } %7, i64 %e.1, 1, !dbg !812
  %_3.0 = extractvalue { i64, i64 } %8, 0, !dbg !813
  %_3.1 = extractvalue { i64, i64 } %8, 1, !dbg !813
  %9 = getelementptr inbounds i8, ptr %_0, i64 8, !dbg !814
  store i64 %_3.0, ptr %9, align 8, !dbg !814
  %10 = getelementptr inbounds i8, ptr %9, i64 8, !dbg !814
  store i64 %_3.1, ptr %10, align 8, !dbg !814
  store i64 1, ptr %_0, align 8, !dbg !814
  ret void, !dbg !815
}

; parking_lot_core::parking_lot::ParkResult::is_unparked
; Function Attrs: inlinehint uwtable
define internal zeroext i1 @_ZN16parking_lot_core11parking_lot10ParkResult11is_unparked17h0c5fe75c69cc963bE(i64 %0, i64 %1) unnamed_addr #0 !dbg !816 {
start:
  %self = alloca %"parking_lot_core::parking_lot::ParkResult", align 8
  store i64 %0, ptr %self, align 8
  %2 = getelementptr inbounds i8, ptr %self, i64 8
  store i64 %1, ptr %2, align 8
  call void @llvm.dbg.declare(metadata ptr %self, metadata !838, metadata !DIExpression()), !dbg !839
  %_2 = load i64, ptr %self, align 8, !dbg !840, !range !841, !noundef !16
  %_0 = icmp eq i64 %_2, 0, !dbg !842
  ret i1 %_0, !dbg !843
}

; parking_lot_core::parking_lot::unpark_all
; Function Attrs: inlinehint uwtable
define internal i64 @_ZN16parking_lot_core11parking_lot10unpark_all17h5e4f3aa24579fe86E(i64 %key, i64 %unpark_token) unnamed_addr #0 personality ptr @rust_eh_personality !dbg !844 {
start:
  %_2.i = alloca %"core::ptr::metadata::PtrComponents<parking_lot_core::parking_lot::ThreadData>", align 8
  %_1.i = alloca %"core::ptr::metadata::PtrRepr<parking_lot_core::parking_lot::ThreadData>", align 8
  %data_pointer.dbg.spill.i = alloca ptr, align 8
  %addr.dbg.spill.i = alloca i64, align 8
  %handle.dbg.spill = alloca ptr, align 8
  %num_threads.dbg.spill = alloca i64, align 8
  %next.dbg.spill = alloca ptr, align 8
  %0 = alloca { ptr, i32, [1 x i32] }, align 8
  %bucket.dbg.spill = alloca ptr, align 8
  %unpark_token.dbg.spill = alloca i64, align 8
  %key.dbg.spill = alloca i64, align 8
  %_48 = alloca i8, align 1
  %_43 = alloca %"core::option::Option<parking_lot_core::thread_parker::imp::UnparkHandle>", align 8
  %iter = alloca %"smallvec::IntoIter<[parking_lot_core::thread_parker::imp::UnparkHandle; 8]>", align 8
  %_41 = alloca %"smallvec::SmallVec<[parking_lot_core::thread_parker::imp::UnparkHandle; 8]>", align 8
  %_40 = alloca %"smallvec::IntoIter<[parking_lot_core::thread_parker::imp::UnparkHandle; 8]>", align 8
  %_39 = alloca %"smallvec::IntoIter<[parking_lot_core::thread_parker::imp::UnparkHandle; 8]>", align 8
  %_14 = alloca i8, align 1
  %threads = alloca %"smallvec::SmallVec<[parking_lot_core::thread_parker::imp::UnparkHandle; 8]>", align 8
  %previous = alloca ptr, align 8
  %current = alloca ptr, align 8
  %link = alloca ptr, align 8
  store i64 %key, ptr %key.dbg.spill, align 8
  call void @llvm.dbg.declare(metadata ptr %key.dbg.spill, metadata !848, metadata !DIExpression()), !dbg !978
  store i64 %unpark_token, ptr %unpark_token.dbg.spill, align 8
  call void @llvm.dbg.declare(metadata ptr %unpark_token.dbg.spill, metadata !849, metadata !DIExpression()), !dbg !979
  call void @llvm.dbg.declare(metadata ptr %link, metadata !916, metadata !DIExpression()), !dbg !980
  call void @llvm.dbg.declare(metadata ptr %current, metadata !919, metadata !DIExpression()), !dbg !981
  call void @llvm.dbg.declare(metadata ptr %previous, metadata !921, metadata !DIExpression()), !dbg !982
  call void @llvm.dbg.declare(metadata ptr %threads, metadata !923, metadata !DIExpression()), !dbg !983
  call void @llvm.dbg.declare(metadata ptr %iter, metadata !969, metadata !DIExpression()), !dbg !984
  store i8 0, ptr %_48, align 1, !dbg !985
; call parking_lot_core::parking_lot::lock_bucket
  %bucket = call align 64 ptr @_ZN16parking_lot_core11parking_lot11lock_bucket17he06184efefb13fe4E(i64 %key), !dbg !986
  store ptr %bucket, ptr %bucket.dbg.spill, align 8, !dbg !986
  call void @llvm.dbg.declare(metadata ptr %bucket.dbg.spill, metadata !850, metadata !DIExpression()), !dbg !987
  %1 = getelementptr inbounds i8, ptr %bucket, i64 8, !dbg !988
  store ptr %1, ptr %link, align 8, !dbg !988
  %_6 = getelementptr inbounds i8, ptr %bucket, i64 8, !dbg !989
; call core::cell::Cell<T>::get
  %2 = call ptr @"_ZN4core4cell13Cell$LT$T$GT$3get17he7b921a81563dd14E"(ptr align 8 %_6), !dbg !989
  store ptr %2, ptr %current, align 8, !dbg !989
  store i64 0, ptr %addr.dbg.spill.i, align 8, !dbg !990
  call void @llvm.dbg.declare(metadata ptr %addr.dbg.spill.i, metadata !997, metadata !DIExpression()), !dbg !990
  store ptr null, ptr %data_pointer.dbg.spill.i, align 8, !dbg !1006
  call void @llvm.dbg.declare(metadata ptr %data_pointer.dbg.spill.i, metadata !1014, metadata !DIExpression()), !dbg !1006
  call void @llvm.dbg.declare(metadata ptr undef, metadata !1015, metadata !DIExpression()), !dbg !1017
  store ptr null, ptr %_2.i, align 8, !dbg !1018
  call void @llvm.memcpy.p0.p0.i64(ptr align 8 %_1.i, ptr align 8 %_2.i, i64 8, i1 false), !dbg !1019
  %_0.i = load ptr, ptr %_1.i, align 8, !dbg !1019, !noundef !16
  store ptr %_0.i, ptr %previous, align 8, !dbg !1020
  store i8 1, ptr %_48, align 1, !dbg !1021
; call smallvec::SmallVec<A>::new
  call void @"_ZN8smallvec17SmallVec$LT$A$GT$3new17h723140dff6604469E"(ptr sret(%"smallvec::SmallVec<[parking_lot_core::thread_parker::imp::UnparkHandle; 8]>") align 8 %threads), !dbg !1021
  br label %bb4, !dbg !1021

bb4:                                              ; preds = %bb4.backedge, %start
  %_10 = load ptr, ptr %current, align 8, !dbg !1022, !noundef !16
; invoke core::ptr::const_ptr::<impl *const T>::is_null
  %_9 = invoke zeroext i1 @"_ZN4core3ptr9const_ptr33_$LT$impl$u20$$BP$const$u20$T$GT$7is_null17hd966cac06b4756c5E"(ptr %_10)
          to label %bb5 unwind label %cleanup.loopexit, !dbg !1022

bb33:                                             ; preds = %bb30, %cleanup
  %3 = load i8, ptr %_48, align 1, !dbg !1023, !range !484, !noundef !16
  %4 = trunc i8 %3 to i1, !dbg !1023
  br i1 %4, label %bb32, label %bb31, !dbg !1023

cleanup.loopexit:                                 ; preds = %bb4, %bb7, %bb18, %bb9, %bb10, %bb11, %bb13, %bb14, %bb15, %bb16
  %lpad.loopexit = landingpad { ptr, i32 }
          cleanup
  br label %cleanup

cleanup.loopexit.split-lp:                        ; preds = %bb6, %bb20, %bb21, %bb22, %bb28
  %lpad.loopexit.split-lp = landingpad { ptr, i32 }
          cleanup
  br label %cleanup

cleanup:                                          ; preds = %cleanup.loopexit.split-lp, %cleanup.loopexit
  %lpad.phi = phi { ptr, i32 } [ %lpad.loopexit, %cleanup.loopexit ], [ %lpad.loopexit.split-lp, %cleanup.loopexit.split-lp ]
  %5 = extractvalue { ptr, i32 } %lpad.phi, 0
  %6 = extractvalue { ptr, i32 } %lpad.phi, 1
  store ptr %5, ptr %0, align 8
  %7 = getelementptr inbounds i8, ptr %0, i64 8
  store i32 %6, ptr %7, align 8
  br label %bb33

bb5:                                              ; preds = %bb4
  br i1 %_9, label %bb6, label %bb7, !dbg !1022

bb7:                                              ; preds = %bb5
  %8 = load ptr, ptr %current, align 8, !dbg !1024, !noundef !16
  %_13 = getelementptr inbounds i8, ptr %8, i64 120, !dbg !1024
  store i8 0, ptr %_14, align 1, !dbg !1025
  %9 = load i8, ptr %_14, align 1, !dbg !1024, !range !1026, !noundef !16
; invoke core::sync::atomic::AtomicUsize::load
  %_12 = invoke i64 @_ZN4core4sync6atomic11AtomicUsize4load17he962fbd1baca4a17E(ptr align 8 %_13, i8 %9)
          to label %bb8 unwind label %cleanup.loopexit, !dbg !1024

bb6:                                              ; preds = %bb5
; invoke parking_lot_core::word_lock::WordLock::unlock
  invoke void @_ZN16parking_lot_core9word_lock8WordLock6unlock17h14f0196effeef5f9E(ptr align 8 %bucket)
          to label %bb20 unwind label %cleanup.loopexit.split-lp, !dbg !1027

bb8:                                              ; preds = %bb7
  %_11 = icmp eq i64 %_12, %key, !dbg !1024
  br i1 %_11, label %bb9, label %bb18, !dbg !1024

bb18:                                             ; preds = %bb8
  %10 = load ptr, ptr %current, align 8, !dbg !1028, !noundef !16
  %_32 = getelementptr inbounds i8, ptr %10, i64 128, !dbg !1028
  store ptr %_32, ptr %link, align 8, !dbg !1029
  %_33 = load ptr, ptr %current, align 8, !dbg !1030, !noundef !16
  store ptr %_33, ptr %previous, align 8, !dbg !1031
  %_35 = load ptr, ptr %link, align 8, !dbg !1032, !nonnull !16, !align !1033, !noundef !16
; invoke core::cell::Cell<T>::get
  %_34 = invoke ptr @"_ZN4core4cell13Cell$LT$T$GT$3get17he7b921a81563dd14E"(ptr align 8 %_35)
          to label %bb19 unwind label %cleanup.loopexit, !dbg !1032

bb9:                                              ; preds = %bb8
  %11 = load ptr, ptr %current, align 8, !dbg !1034, !noundef !16
  %_16 = getelementptr inbounds i8, ptr %11, i64 128, !dbg !1034
; invoke core::cell::Cell<T>::get
  %next = invoke ptr @"_ZN4core4cell13Cell$LT$T$GT$3get17he7b921a81563dd14E"(ptr align 8 %_16)
          to label %bb10 unwind label %cleanup.loopexit, !dbg !1034

bb19:                                             ; preds = %bb18
  store ptr %_34, ptr %current, align 8, !dbg !1035
  br label %bb4.backedge, !dbg !1036

bb4.backedge:                                     ; preds = %bb19, %bb17
  br label %bb4, !dbg !1022

bb10:                                             ; preds = %bb9
  store ptr %next, ptr %next.dbg.spill, align 8, !dbg !1034
  call void @llvm.dbg.declare(metadata ptr %next.dbg.spill, metadata !965, metadata !DIExpression()), !dbg !1037
  %_18 = load ptr, ptr %link, align 8, !dbg !1038, !nonnull !16, !align !1033, !noundef !16
; invoke core::cell::Cell<T>::set
  invoke void @"_ZN4core4cell13Cell$LT$T$GT$3set17h268728bb0395b6cbE"(ptr align 8 %_18, ptr %next)
          to label %bb11 unwind label %cleanup.loopexit, !dbg !1038

bb11:                                             ; preds = %bb10
  %_21 = getelementptr inbounds i8, ptr %bucket, i64 16, !dbg !1039
; invoke core::cell::Cell<T>::get
  %_20 = invoke ptr @"_ZN4core4cell13Cell$LT$T$GT$3get17he7b921a81563dd14E"(ptr align 8 %_21)
          to label %bb12 unwind label %cleanup.loopexit, !dbg !1039

bb12:                                             ; preds = %bb11
  %_22 = load ptr, ptr %current, align 8, !dbg !1040, !noundef !16
  %_19 = icmp eq ptr %_20, %_22, !dbg !1039
  br i1 %_19, label %bb13, label %bb14, !dbg !1039

bb14:                                             ; preds = %bb34, %bb12
  %12 = load ptr, ptr %current, align 8, !dbg !1041, !noundef !16
  %_27 = getelementptr inbounds i8, ptr %12, i64 136, !dbg !1041
; invoke core::cell::Cell<T>::set
  invoke void @"_ZN4core4cell13Cell$LT$T$GT$3set17hcc85a015c5c1b1f2E"(ptr align 8 %_27, i64 %unpark_token)
          to label %bb15 unwind label %cleanup.loopexit, !dbg !1041

bb13:                                             ; preds = %bb12
  %_24 = getelementptr inbounds i8, ptr %bucket, i64 16, !dbg !1042
  %_25 = load ptr, ptr %previous, align 8, !dbg !1043, !noundef !16
; invoke core::cell::Cell<T>::set
  invoke void @"_ZN4core4cell13Cell$LT$T$GT$3set17h268728bb0395b6cbE"(ptr align 8 %_24, ptr %_25)
          to label %bb34 unwind label %cleanup.loopexit, !dbg !1042

bb34:                                             ; preds = %bb13
  br label %bb14, !dbg !1042

bb15:                                             ; preds = %bb14
  %_31 = load ptr, ptr %current, align 8, !dbg !1044, !noundef !16
; invoke <parking_lot_core::thread_parker::imp::ThreadParker as parking_lot_core::thread_parker::ThreadParkerT>::unpark_lock
  %_30 = invoke ptr @"_ZN117_$LT$parking_lot_core..thread_parker..imp..ThreadParker$u20$as$u20$parking_lot_core..thread_parker..ThreadParkerT$GT$11unpark_lock17ha287d5f135ea9f20E"(ptr align 8 %_31)
          to label %bb16 unwind label %cleanup.loopexit, !dbg !1044

bb16:                                             ; preds = %bb15
; invoke smallvec::SmallVec<A>::push
  invoke void @"_ZN8smallvec17SmallVec$LT$A$GT$4push17h56778d4607e3668dE"(ptr align 8 %threads, ptr %_30)
          to label %bb17 unwind label %cleanup.loopexit, !dbg !1045

bb17:                                             ; preds = %bb16
  store ptr %next, ptr %current, align 8, !dbg !1046
  br label %bb4.backedge, !dbg !1036

bb20:                                             ; preds = %bb6
; invoke smallvec::SmallVec<A>::len
  %num_threads = invoke i64 @"_ZN8smallvec17SmallVec$LT$A$GT$3len17hb60f4b3e55b5fddfE"(ptr align 8 %threads)
          to label %bb21 unwind label %cleanup.loopexit.split-lp, !dbg !1047

bb21:                                             ; preds = %bb20
  store i64 %num_threads, ptr %num_threads.dbg.spill, align 8, !dbg !1047
  call void @llvm.dbg.declare(metadata ptr %num_threads.dbg.spill, metadata !967, metadata !DIExpression()), !dbg !1048
  store i8 0, ptr %_48, align 1, !dbg !1049
  call void @llvm.memcpy.p0.p0.i64(ptr align 8 %_41, ptr align 8 %threads, i64 80, i1 false), !dbg !1049
; invoke <smallvec::SmallVec<A> as core::iter::traits::collect::IntoIterator>::into_iter
  invoke void @"_ZN89_$LT$smallvec..SmallVec$LT$A$GT$$u20$as$u20$core..iter..traits..collect..IntoIterator$GT$9into_iter17h02bd0f25746e8eeeE"(ptr sret(%"smallvec::IntoIter<[parking_lot_core::thread_parker::imp::UnparkHandle; 8]>") align 8 %_40, ptr align 8 %_41)
          to label %bb22 unwind label %cleanup.loopexit.split-lp, !dbg !1049

bb22:                                             ; preds = %bb21
; invoke <I as core::iter::traits::collect::IntoIterator>::into_iter
  invoke void @"_ZN63_$LT$I$u20$as$u20$core..iter..traits..collect..IntoIterator$GT$9into_iter17h9a8cf6a4974ca10fE"(ptr sret(%"smallvec::IntoIter<[parking_lot_core::thread_parker::imp::UnparkHandle; 8]>") align 8 %_39, ptr align 8 %_40)
          to label %bb23 unwind label %cleanup.loopexit.split-lp, !dbg !1049

bb23:                                             ; preds = %bb22
  call void @llvm.memcpy.p0.p0.i64(ptr align 8 %iter, ptr align 8 %_39, i64 96, i1 false), !dbg !1049
  br label %bb24, !dbg !1050

bb24:                                             ; preds = %bb35, %bb23
; invoke <smallvec::IntoIter<A> as core::iter::traits::iterator::Iterator>::next
  %13 = invoke { i64, ptr } @"_ZN86_$LT$smallvec..IntoIter$LT$A$GT$$u20$as$u20$core..iter..traits..iterator..Iterator$GT$4next17hfbd5e4cd357fb523E"(ptr align 8 %iter)
          to label %bb25 unwind label %cleanup1, !dbg !984

bb30:                                             ; preds = %cleanup1
; invoke core::ptr::drop_in_place<smallvec::IntoIter<[parking_lot_core::thread_parker::imp::UnparkHandle; 8]>>
  invoke void @"_ZN4core3ptr118drop_in_place$LT$smallvec..IntoIter$LT$$u5b$parking_lot_core..thread_parker..imp..UnparkHandle$u3b$$u20$8$u5d$$GT$$GT$17h2efb88d13f88a538E"(ptr align 8 %iter) #20
          to label %bb33 unwind label %terminate, !dbg !1051

cleanup1:                                         ; preds = %bb27, %bb24
  %14 = landingpad { ptr, i32 }
          cleanup
  %15 = extractvalue { ptr, i32 } %14, 0
  %16 = extractvalue { ptr, i32 } %14, 1
  store ptr %15, ptr %0, align 8
  %17 = getelementptr inbounds i8, ptr %0, i64 8
  store i32 %16, ptr %17, align 8
  br label %bb30

bb25:                                             ; preds = %bb24
  %18 = extractvalue { i64, ptr } %13, 0, !dbg !984
  %19 = extractvalue { i64, ptr } %13, 1, !dbg !984
  store i64 %18, ptr %_43, align 8, !dbg !984
  %20 = getelementptr inbounds i8, ptr %_43, i64 8, !dbg !984
  store ptr %19, ptr %20, align 8, !dbg !984
  %_45 = load i64, ptr %_43, align 8, !dbg !984, !range !335, !noundef !16
  %21 = icmp eq i64 %_45, 0, !dbg !984
  br i1 %21, label %bb28, label %bb27, !dbg !984

bb28:                                             ; preds = %bb25
; invoke core::ptr::drop_in_place<smallvec::IntoIter<[parking_lot_core::thread_parker::imp::UnparkHandle; 8]>>
  invoke void @"_ZN4core3ptr118drop_in_place$LT$smallvec..IntoIter$LT$$u5b$parking_lot_core..thread_parker..imp..UnparkHandle$u3b$$u20$8$u5d$$GT$$GT$17h2efb88d13f88a538E"(ptr align 8 %iter)
          to label %bb29 unwind label %cleanup.loopexit.split-lp, !dbg !1051

bb27:                                             ; preds = %bb25
  %22 = getelementptr inbounds i8, ptr %_43, i64 8, !dbg !1052
  %handle = load ptr, ptr %22, align 8, !dbg !1052, !noundef !16
  store ptr %handle, ptr %handle.dbg.spill, align 8, !dbg !1052
  call void @llvm.dbg.declare(metadata ptr %handle.dbg.spill, metadata !976, metadata !DIExpression()), !dbg !1053
; invoke <parking_lot_core::thread_parker::imp::UnparkHandle as parking_lot_core::thread_parker::UnparkHandleT>::unpark
  invoke void @"_ZN117_$LT$parking_lot_core..thread_parker..imp..UnparkHandle$u20$as$u20$parking_lot_core..thread_parker..UnparkHandleT$GT$6unpark17ha69b71b87ae1f833E"(ptr %handle)
          to label %bb35 unwind label %cleanup1, !dbg !1054

bb29:                                             ; preds = %bb28
  store i8 0, ptr %_48, align 1, !dbg !1023
  ret i64 %num_threads, !dbg !1055

bb35:                                             ; preds = %bb27
  br label %bb24, !dbg !1054

bb26:                                             ; No predecessors!
  unreachable, !dbg !984

terminate:                                        ; preds = %bb32, %bb30
  %23 = landingpad { ptr, i32 }
          filter [0 x ptr] zeroinitializer
  %24 = extractvalue { ptr, i32 } %23, 0
  %25 = extractvalue { ptr, i32 } %23, 1
; call core::panicking::panic_in_cleanup
  call void @_ZN4core9panicking16panic_in_cleanup17hb45215b029b98411E() #21, !dbg !1056
  unreachable, !dbg !1056

bb31:                                             ; preds = %bb32, %bb33
  %26 = load ptr, ptr %0, align 8, !dbg !1056, !noundef !16
  %27 = getelementptr inbounds i8, ptr %0, i64 8, !dbg !1056
  %28 = load i32, ptr %27, align 8, !dbg !1056, !noundef !16
  %29 = insertvalue { ptr, i32 } poison, ptr %26, 0, !dbg !1056
  %30 = insertvalue { ptr, i32 } %29, i32 %28, 1, !dbg !1056
  resume { ptr, i32 } %30, !dbg !1056

bb32:                                             ; preds = %bb33
; invoke core::ptr::drop_in_place<smallvec::SmallVec<[parking_lot_core::thread_parker::imp::UnparkHandle; 8]>>
  invoke void @"_ZN4core3ptr118drop_in_place$LT$smallvec..SmallVec$LT$$u5b$parking_lot_core..thread_parker..imp..UnparkHandle$u3b$$u20$8$u5d$$GT$$GT$17h02911274b5a82f7eE"(ptr align 8 %threads) #20
          to label %bb31 unwind label %terminate, !dbg !1023
}

; parking_lot_core::parking_lot::unpark_one
; Function Attrs: inlinehint uwtable
define void @_ZN16parking_lot_core11parking_lot10unpark_one17h77672cbb5eb58da4E(ptr sret(%"parking_lot_core::parking_lot::UnparkResult") align 8 %_0, i64 %key, ptr align 1 %callback.0, ptr align 1 %callback.1) unnamed_addr #0 personality ptr @rust_eh_personality !dbg !1057 {
start:
  %self.dbg.spill.i = alloca ptr, align 8
  %_2.i = alloca %"core::ptr::metadata::PtrComponents<parking_lot_core::parking_lot::ThreadData>", align 8
  %_1.i = alloca %"core::ptr::metadata::PtrRepr<parking_lot_core::parking_lot::ThreadData>", align 8
  %data_pointer.dbg.spill.i = alloca ptr, align 8
  %addr.dbg.spill.i = alloca i64, align 8
  %handle.dbg.spill = alloca ptr, align 8
  %token.dbg.spill = alloca i64, align 8
  %next.dbg.spill = alloca ptr, align 8
  %bucket.dbg.spill = alloca ptr, align 8
  %0 = alloca { ptr, i32, [1 x i32] }, align 8
  %callback.dbg.spill = alloca %"{closure@src/raw_mutex.rs:296:24: 296:46}", align 8
  %key.dbg.spill = alloca i64, align 8
  %_60 = alloca i8, align 1
  %_57 = alloca %"parking_lot_core::parking_lot::UnparkResult", align 8
  %_56 = alloca { %"parking_lot_core::parking_lot::UnparkResult" }, align 8
  %_42 = alloca %"parking_lot_core::parking_lot::UnparkResult", align 8
  %_41 = alloca { %"parking_lot_core::parking_lot::UnparkResult" }, align 8
  %_32 = alloca i8, align 1
  %scan = alloca ptr, align 8
  %_14 = alloca i8, align 1
  %result = alloca %"parking_lot_core::parking_lot::UnparkResult", align 8
  %previous = alloca ptr, align 8
  %current = alloca ptr, align 8
  %link = alloca ptr, align 8
  store i64 %key, ptr %key.dbg.spill, align 8
  call void @llvm.dbg.declare(metadata ptr %key.dbg.spill, metadata !1086, metadata !DIExpression()), !dbg !1108
  store ptr %callback.0, ptr %callback.dbg.spill, align 8
  %1 = getelementptr inbounds i8, ptr %callback.dbg.spill, i64 8
  store ptr %callback.1, ptr %1, align 8
  call void @llvm.dbg.declare(metadata ptr %callback.dbg.spill, metadata !1087, metadata !DIExpression()), !dbg !1109
  call void @llvm.dbg.declare(metadata ptr %link, metadata !1090, metadata !DIExpression()), !dbg !1110
  call void @llvm.dbg.declare(metadata ptr %current, metadata !1092, metadata !DIExpression()), !dbg !1111
  call void @llvm.dbg.declare(metadata ptr %previous, metadata !1094, metadata !DIExpression()), !dbg !1112
  call void @llvm.dbg.declare(metadata ptr %result, metadata !1096, metadata !DIExpression()), !dbg !1113
  call void @llvm.dbg.declare(metadata ptr %scan, metadata !1100, metadata !DIExpression()), !dbg !1114
  store i8 0, ptr %_60, align 1, !dbg !1115
  store i8 1, ptr %_60, align 1, !dbg !1115
; invoke parking_lot_core::parking_lot::lock_bucket
  %bucket = invoke align 64 ptr @_ZN16parking_lot_core11parking_lot11lock_bucket17he06184efefb13fe4E(i64 %key)
          to label %bb1 unwind label %cleanup.loopexit.split-lp.loopexit.split-lp, !dbg !1116

bb37:                                             ; preds = %cleanup
  %2 = load i8, ptr %_60, align 1, !dbg !1117, !range !484, !noundef !16
  %3 = trunc i8 %2 to i1, !dbg !1117
  br i1 %3, label %bb36, label %bb35, !dbg !1117

cleanup.loopexit:                                 ; preds = %bb15, %bb17, %bb20
  %lpad.loopexit = landingpad { ptr, i32 }
          cleanup
  br label %cleanup

cleanup.loopexit.split-lp.loopexit:               ; preds = %bb30, %bb7, %bb4
  %lpad.loopexit1 = landingpad { ptr, i32 }
          cleanup
  br label %cleanup.loopexit.split-lp

cleanup.loopexit.split-lp.loopexit.split-lp:      ; preds = %bb32, %bb6, %bb28, %bb27, %bb26, %bb25, %bb24, %bb23, %bb13, %bb11, %bb10, %bb9, %bb3, %bb1, %start
  %lpad.loopexit.split-lp2 = landingpad { ptr, i32 }
          cleanup
  br label %cleanup.loopexit.split-lp

cleanup.loopexit.split-lp:                        ; preds = %cleanup.loopexit.split-lp.loopexit.split-lp, %cleanup.loopexit.split-lp.loopexit
  %lpad.phi3 = phi { ptr, i32 } [ %lpad.loopexit1, %cleanup.loopexit.split-lp.loopexit ], [ %lpad.loopexit.split-lp2, %cleanup.loopexit.split-lp.loopexit.split-lp ]
  br label %cleanup

cleanup:                                          ; preds = %cleanup.loopexit.split-lp, %cleanup.loopexit
  %lpad.phi = phi { ptr, i32 } [ %lpad.loopexit, %cleanup.loopexit ], [ %lpad.phi3, %cleanup.loopexit.split-lp ]
  %4 = extractvalue { ptr, i32 } %lpad.phi, 0
  %5 = extractvalue { ptr, i32 } %lpad.phi, 1
  store ptr %4, ptr %0, align 8
  %6 = getelementptr inbounds i8, ptr %0, i64 8
  store i32 %5, ptr %6, align 8
  br label %bb37

bb1:                                              ; preds = %start
  store ptr %bucket, ptr %bucket.dbg.spill, align 8, !dbg !1116
  call void @llvm.dbg.declare(metadata ptr %bucket.dbg.spill, metadata !1088, metadata !DIExpression()), !dbg !1118
  %7 = getelementptr inbounds i8, ptr %bucket, i64 8, !dbg !1119
  store ptr %7, ptr %link, align 8, !dbg !1119
  %_6 = getelementptr inbounds i8, ptr %bucket, i64 8, !dbg !1120
; invoke core::cell::Cell<T>::get
  %8 = invoke ptr @"_ZN4core4cell13Cell$LT$T$GT$3get17he7b921a81563dd14E"(ptr align 8 %_6)
          to label %bb2 unwind label %cleanup.loopexit.split-lp.loopexit.split-lp, !dbg !1120

bb2:                                              ; preds = %bb1
  store ptr %8, ptr %current, align 8, !dbg !1120
  store i64 0, ptr %addr.dbg.spill.i, align 8, !dbg !1121
  call void @llvm.dbg.declare(metadata ptr %addr.dbg.spill.i, metadata !997, metadata !DIExpression()), !dbg !1121
  store ptr null, ptr %data_pointer.dbg.spill.i, align 8, !dbg !1124
  call void @llvm.dbg.declare(metadata ptr %data_pointer.dbg.spill.i, metadata !1014, metadata !DIExpression()), !dbg !1124
  call void @llvm.dbg.declare(metadata ptr undef, metadata !1015, metadata !DIExpression()), !dbg !1126
  store ptr null, ptr %_2.i, align 8, !dbg !1127
  call void @llvm.memcpy.p0.p0.i64(ptr align 8 %_1.i, ptr align 8 %_2.i, i64 8, i1 false), !dbg !1128
  %_0.i = load ptr, ptr %_1.i, align 8, !dbg !1128, !noundef !16
  br label %bb3, !dbg !1129

bb3:                                              ; preds = %bb2
  store ptr %_0.i, ptr %previous, align 8, !dbg !1130
; invoke <parking_lot_core::parking_lot::UnparkResult as core::default::Default>::default
  invoke void @"_ZN86_$LT$parking_lot_core..parking_lot..UnparkResult$u20$as$u20$core..default..Default$GT$7default17hc79cce5b4711cb11E"(ptr sret(%"parking_lot_core::parking_lot::UnparkResult") align 8 %result)
          to label %bb38 unwind label %cleanup.loopexit.split-lp.loopexit.split-lp, !dbg !1131

bb38:                                             ; preds = %bb3
  br label %bb4, !dbg !1131

bb4:                                              ; preds = %bb31, %bb38
  %_10 = load ptr, ptr %current, align 8, !dbg !1132, !noundef !16
; invoke core::ptr::const_ptr::<impl *const T>::is_null
  %_9 = invoke zeroext i1 @"_ZN4core3ptr9const_ptr33_$LT$impl$u20$$BP$const$u20$T$GT$7is_null17hd966cac06b4756c5E"(ptr %_10)
          to label %bb5 unwind label %cleanup.loopexit.split-lp.loopexit, !dbg !1132

bb5:                                              ; preds = %bb4
  br i1 %_9, label %bb6, label %bb7, !dbg !1132

bb7:                                              ; preds = %bb5
  %9 = load ptr, ptr %current, align 8, !dbg !1133, !noundef !16
  %_13 = getelementptr inbounds i8, ptr %9, i64 120, !dbg !1133
  store i8 0, ptr %_14, align 1, !dbg !1134
  %10 = load i8, ptr %_14, align 1, !dbg !1133, !range !1026, !noundef !16
; invoke core::sync::atomic::AtomicUsize::load
  %_12 = invoke i64 @_ZN4core4sync6atomic11AtomicUsize4load17he962fbd1baca4a17E(ptr align 8 %_13, i8 %10)
          to label %bb8 unwind label %cleanup.loopexit.split-lp.loopexit, !dbg !1133

bb6:                                              ; preds = %bb5
  store i8 0, ptr %_60, align 1, !dbg !1135
  call void @llvm.memcpy.p0.p0.i64(ptr align 8 %_57, ptr align 8 %result, i64 24, i1 false), !dbg !1136
  call void @llvm.memcpy.p0.p0.i64(ptr align 8 %_56, ptr align 8 %_57, i64 24, i1 false), !dbg !1135
; invoke core::ops::function::FnOnce::call_once
  %_54 = invoke i64 @_ZN4core3ops8function6FnOnce9call_once17ha93b0ac028d85a47E(ptr align 1 %callback.0, ptr align 1 %callback.1, ptr align 8 %_56)
          to label %bb32 unwind label %cleanup.loopexit.split-lp.loopexit.split-lp, !dbg !1135

bb8:                                              ; preds = %bb7
  %_11 = icmp eq i64 %_12, %key, !dbg !1133
  br i1 %_11, label %bb9, label %bb30, !dbg !1133

bb30:                                             ; preds = %bb8
  %11 = load ptr, ptr %current, align 8, !dbg !1137, !noundef !16
  %_50 = getelementptr inbounds i8, ptr %11, i64 128, !dbg !1137
  store ptr %_50, ptr %link, align 8, !dbg !1138
  %_51 = load ptr, ptr %current, align 8, !dbg !1139, !noundef !16
  store ptr %_51, ptr %previous, align 8, !dbg !1140
  %_53 = load ptr, ptr %link, align 8, !dbg !1141, !nonnull !16, !align !1033, !noundef !16
; invoke core::cell::Cell<T>::get
  %_52 = invoke ptr @"_ZN4core4cell13Cell$LT$T$GT$3get17he7b921a81563dd14E"(ptr align 8 %_53)
          to label %bb31 unwind label %cleanup.loopexit.split-lp.loopexit, !dbg !1141

bb9:                                              ; preds = %bb8
  %12 = load ptr, ptr %current, align 8, !dbg !1142, !noundef !16
  %_16 = getelementptr inbounds i8, ptr %12, i64 128, !dbg !1142
; invoke core::cell::Cell<T>::get
  %next = invoke ptr @"_ZN4core4cell13Cell$LT$T$GT$3get17he7b921a81563dd14E"(ptr align 8 %_16)
          to label %bb10 unwind label %cleanup.loopexit.split-lp.loopexit.split-lp, !dbg !1142

bb31:                                             ; preds = %bb30
  store ptr %_52, ptr %current, align 8, !dbg !1143
  br label %bb4, !dbg !1144

bb10:                                             ; preds = %bb9
  store ptr %next, ptr %next.dbg.spill, align 8, !dbg !1142
  call void @llvm.dbg.declare(metadata ptr %next.dbg.spill, metadata !1098, metadata !DIExpression()), !dbg !1145
  %_18 = load ptr, ptr %link, align 8, !dbg !1146, !nonnull !16, !align !1033, !noundef !16
; invoke core::cell::Cell<T>::set
  invoke void @"_ZN4core4cell13Cell$LT$T$GT$3set17h268728bb0395b6cbE"(ptr align 8 %_18, ptr %next)
          to label %bb11 unwind label %cleanup.loopexit.split-lp.loopexit.split-lp, !dbg !1146

bb11:                                             ; preds = %bb10
  %_21 = getelementptr inbounds i8, ptr %bucket, i64 16, !dbg !1147
; invoke core::cell::Cell<T>::get
  %_20 = invoke ptr @"_ZN4core4cell13Cell$LT$T$GT$3get17he7b921a81563dd14E"(ptr align 8 %_21)
          to label %bb12 unwind label %cleanup.loopexit.split-lp.loopexit.split-lp, !dbg !1147

bb12:                                             ; preds = %bb11
  %_22 = load ptr, ptr %current, align 8, !dbg !1148, !noundef !16
  %_19 = icmp eq ptr %_20, %_22, !dbg !1147
  br i1 %_19, label %bb13, label %bb14, !dbg !1147

bb14:                                             ; preds = %bb12
  store ptr %next, ptr %scan, align 8, !dbg !1149
  br label %bb15, !dbg !1150

bb13:                                             ; preds = %bb12
  %_24 = getelementptr inbounds i8, ptr %bucket, i64 16, !dbg !1151
  %_25 = load ptr, ptr %previous, align 8, !dbg !1152, !noundef !16
; invoke core::cell::Cell<T>::set
  invoke void @"_ZN4core4cell13Cell$LT$T$GT$3set17h268728bb0395b6cbE"(ptr align 8 %_24, ptr %_25)
          to label %bb39 unwind label %cleanup.loopexit.split-lp.loopexit.split-lp, !dbg !1151

bb15:                                             ; preds = %bb21, %bb14
  %_28 = load ptr, ptr %scan, align 8, !dbg !1153, !noundef !16
; invoke core::ptr::const_ptr::<impl *const T>::is_null
  %_27 = invoke zeroext i1 @"_ZN4core3ptr9const_ptr33_$LT$impl$u20$$BP$const$u20$T$GT$7is_null17hd966cac06b4756c5E"(ptr %_28)
          to label %bb16 unwind label %cleanup.loopexit, !dbg !1153

bb16:                                             ; preds = %bb15
  br i1 %_27, label %bb22.loopexit, label %bb17, !dbg !1153

bb17:                                             ; preds = %bb16
  %13 = load ptr, ptr %scan, align 8, !dbg !1154, !noundef !16
  %_31 = getelementptr inbounds i8, ptr %13, i64 120, !dbg !1154
  store i8 0, ptr %_32, align 1, !dbg !1155
  %14 = load i8, ptr %_32, align 1, !dbg !1154, !range !1026, !noundef !16
; invoke core::sync::atomic::AtomicUsize::load
  %_30 = invoke i64 @_ZN4core4sync6atomic11AtomicUsize4load17he962fbd1baca4a17E(ptr align 8 %_31, i8 %14)
          to label %bb18 unwind label %cleanup.loopexit, !dbg !1154

bb22.loopexit:                                    ; preds = %bb16
  br label %bb22, !dbg !1156

bb22:                                             ; preds = %bb22.loopexit, %bb39, %bb19
  store i64 1, ptr %result, align 8, !dbg !1156
  %_38 = getelementptr inbounds i8, ptr %bucket, i64 24, !dbg !1157
  store ptr %_38, ptr %self.dbg.spill.i, align 8
  call void @llvm.dbg.declare(metadata ptr %self.dbg.spill.i, metadata !1158, metadata !DIExpression()), !dbg !1166
  br label %bb23, !dbg !1168

bb18:                                             ; preds = %bb17
  %_29 = icmp eq i64 %_30, %key, !dbg !1154
  br i1 %_29, label %bb19, label %bb20, !dbg !1154

bb20:                                             ; preds = %bb18
  %15 = load ptr, ptr %scan, align 8, !dbg !1169, !noundef !16
  %_34 = getelementptr inbounds i8, ptr %15, i64 128, !dbg !1169
; invoke core::cell::Cell<T>::get
  %_33 = invoke ptr @"_ZN4core4cell13Cell$LT$T$GT$3get17he7b921a81563dd14E"(ptr align 8 %_34)
          to label %bb21 unwind label %cleanup.loopexit, !dbg !1169

bb19:                                             ; preds = %bb18
  %16 = getelementptr inbounds i8, ptr %result, i64 16, !dbg !1170
  store i8 1, ptr %16, align 8, !dbg !1170
  br label %bb22, !dbg !1171

bb21:                                             ; preds = %bb20
  store ptr %_33, ptr %scan, align 8, !dbg !1174
  br label %bb15, !dbg !1150

bb39:                                             ; preds = %bb13
  br label %bb22, !dbg !1151

bb23:                                             ; preds = %bb22
; invoke parking_lot_core::parking_lot::FairTimeout::should_timeout
  %_35 = invoke zeroext i1 @_ZN16parking_lot_core11parking_lot11FairTimeout14should_timeout17hc1fc24ea9eb4d05cE(ptr align 8 %_38)
          to label %bb24 unwind label %cleanup.loopexit.split-lp.loopexit.split-lp, !dbg !1175

bb24:                                             ; preds = %bb23
  %17 = getelementptr inbounds i8, ptr %result, i64 17, !dbg !1176
  %18 = zext i1 %_35 to i8, !dbg !1176
  store i8 %18, ptr %17, align 1, !dbg !1176
  store i8 0, ptr %_60, align 1, !dbg !1177
  call void @llvm.memcpy.p0.p0.i64(ptr align 8 %_42, ptr align 8 %result, i64 24, i1 false), !dbg !1178
  call void @llvm.memcpy.p0.p0.i64(ptr align 8 %_41, ptr align 8 %_42, i64 24, i1 false), !dbg !1177
; invoke core::ops::function::FnOnce::call_once
  %token = invoke i64 @_ZN4core3ops8function6FnOnce9call_once17ha93b0ac028d85a47E(ptr align 1 %callback.0, ptr align 1 %callback.1, ptr align 8 %_41)
          to label %bb25 unwind label %cleanup.loopexit.split-lp.loopexit.split-lp, !dbg !1177

bb25:                                             ; preds = %bb24
  store i64 %token, ptr %token.dbg.spill, align 8, !dbg !1177
  call void @llvm.dbg.declare(metadata ptr %token.dbg.spill, metadata !1102, metadata !DIExpression()), !dbg !1179
  %19 = load ptr, ptr %current, align 8, !dbg !1180, !noundef !16
  %_44 = getelementptr inbounds i8, ptr %19, i64 136, !dbg !1180
; invoke core::cell::Cell<T>::set
  invoke void @"_ZN4core4cell13Cell$LT$T$GT$3set17hcc85a015c5c1b1f2E"(ptr align 8 %_44, i64 %token)
          to label %bb26 unwind label %cleanup.loopexit.split-lp.loopexit.split-lp, !dbg !1180

bb26:                                             ; preds = %bb25
  %_46 = load ptr, ptr %current, align 8, !dbg !1181, !noundef !16
; invoke <parking_lot_core::thread_parker::imp::ThreadParker as parking_lot_core::thread_parker::ThreadParkerT>::unpark_lock
  %handle = invoke ptr @"_ZN117_$LT$parking_lot_core..thread_parker..imp..ThreadParker$u20$as$u20$parking_lot_core..thread_parker..ThreadParkerT$GT$11unpark_lock17ha287d5f135ea9f20E"(ptr align 8 %_46)
          to label %bb27 unwind label %cleanup.loopexit.split-lp.loopexit.split-lp, !dbg !1181

bb27:                                             ; preds = %bb26
  store ptr %handle, ptr %handle.dbg.spill, align 8, !dbg !1181
  call void @llvm.dbg.declare(metadata ptr %handle.dbg.spill, metadata !1104, metadata !DIExpression()), !dbg !1182
; invoke parking_lot_core::word_lock::WordLock::unlock
  invoke void @_ZN16parking_lot_core9word_lock8WordLock6unlock17h14f0196effeef5f9E(ptr align 8 %bucket)
          to label %bb28 unwind label %cleanup.loopexit.split-lp.loopexit.split-lp, !dbg !1183

bb28:                                             ; preds = %bb27
; invoke <parking_lot_core::thread_parker::imp::UnparkHandle as parking_lot_core::thread_parker::UnparkHandleT>::unpark
  invoke void @"_ZN117_$LT$parking_lot_core..thread_parker..imp..UnparkHandle$u20$as$u20$parking_lot_core..thread_parker..UnparkHandleT$GT$6unpark17ha69b71b87ae1f833E"(ptr %handle)
          to label %bb29 unwind label %cleanup.loopexit.split-lp.loopexit.split-lp, !dbg !1184

bb29:                                             ; preds = %bb28
  call void @llvm.memcpy.p0.p0.i64(ptr align 8 %_0, ptr align 8 %result, i64 24, i1 false), !dbg !1185
  br label %bb34, !dbg !1117

bb34:                                             ; preds = %bb33, %bb29
  ret void, !dbg !1186

bb32:                                             ; preds = %bb6
; invoke parking_lot_core::word_lock::WordLock::unlock
  invoke void @_ZN16parking_lot_core9word_lock8WordLock6unlock17h14f0196effeef5f9E(ptr align 8 %bucket)
          to label %bb33 unwind label %cleanup.loopexit.split-lp.loopexit.split-lp, !dbg !1187

bb33:                                             ; preds = %bb32
  call void @llvm.memcpy.p0.p0.i64(ptr align 8 %_0, ptr align 8 %result, i64 24, i1 false), !dbg !1188
  br label %bb34, !dbg !1117

bb35:                                             ; preds = %bb36, %bb37
  %20 = load ptr, ptr %0, align 8, !dbg !1189, !noundef !16
  %21 = getelementptr inbounds i8, ptr %0, i64 8, !dbg !1189
  %22 = load i32, ptr %21, align 8, !dbg !1189, !noundef !16
  %23 = insertvalue { ptr, i32 } poison, ptr %20, 0, !dbg !1189
  %24 = insertvalue { ptr, i32 } %23, i32 %22, 1, !dbg !1189
  resume { ptr, i32 } %24, !dbg !1189

bb36:                                             ; preds = %bb37
  br label %bb35, !dbg !1117
}

; parking_lot_core::parking_lot::unpark_one
; Function Attrs: inlinehint uwtable
define void @_ZN16parking_lot_core11parking_lot10unpark_one17haa0cb2cef6c97878E(ptr sret(%"parking_lot_core::parking_lot::UnparkResult") align 8 %_0, i64 %key, ptr align 8 %callback) unnamed_addr #0 personality ptr @rust_eh_personality !dbg !1190 {
start:
  %self.dbg.spill.i = alloca ptr, align 8
  %_2.i = alloca %"core::ptr::metadata::PtrComponents<parking_lot_core::parking_lot::ThreadData>", align 8
  %_1.i = alloca %"core::ptr::metadata::PtrRepr<parking_lot_core::parking_lot::ThreadData>", align 8
  %data_pointer.dbg.spill.i = alloca ptr, align 8
  %addr.dbg.spill.i = alloca i64, align 8
  %handle.dbg.spill = alloca ptr, align 8
  %token.dbg.spill = alloca i64, align 8
  %next.dbg.spill = alloca ptr, align 8
  %bucket.dbg.spill = alloca ptr, align 8
  %0 = alloca { ptr, i32, [1 x i32] }, align 8
  %callback.dbg.spill = alloca ptr, align 8
  %key.dbg.spill = alloca i64, align 8
  %_60 = alloca i8, align 1
  %_57 = alloca %"parking_lot_core::parking_lot::UnparkResult", align 8
  %_56 = alloca { %"parking_lot_core::parking_lot::UnparkResult" }, align 8
  %_42 = alloca %"parking_lot_core::parking_lot::UnparkResult", align 8
  %_41 = alloca { %"parking_lot_core::parking_lot::UnparkResult" }, align 8
  %_32 = alloca i8, align 1
  %scan = alloca ptr, align 8
  %_14 = alloca i8, align 1
  %result = alloca %"parking_lot_core::parking_lot::UnparkResult", align 8
  %previous = alloca ptr, align 8
  %current = alloca ptr, align 8
  %link = alloca ptr, align 8
  store i64 %key, ptr %key.dbg.spill, align 8
  call void @llvm.dbg.declare(metadata ptr %key.dbg.spill, metadata !1204, metadata !DIExpression()), !dbg !1226
  store ptr %callback, ptr %callback.dbg.spill, align 8
  call void @llvm.dbg.declare(metadata ptr %callback.dbg.spill, metadata !1205, metadata !DIExpression()), !dbg !1227
  call void @llvm.dbg.declare(metadata ptr %link, metadata !1208, metadata !DIExpression()), !dbg !1228
  call void @llvm.dbg.declare(metadata ptr %current, metadata !1210, metadata !DIExpression()), !dbg !1229
  call void @llvm.dbg.declare(metadata ptr %previous, metadata !1212, metadata !DIExpression()), !dbg !1230
  call void @llvm.dbg.declare(metadata ptr %result, metadata !1214, metadata !DIExpression()), !dbg !1231
  call void @llvm.dbg.declare(metadata ptr %scan, metadata !1218, metadata !DIExpression()), !dbg !1232
  store i8 0, ptr %_60, align 1, !dbg !1233
  store i8 1, ptr %_60, align 1, !dbg !1233
; invoke parking_lot_core::parking_lot::lock_bucket
  %bucket = invoke align 64 ptr @_ZN16parking_lot_core11parking_lot11lock_bucket17he06184efefb13fe4E(i64 %key)
          to label %bb1 unwind label %cleanup.loopexit.split-lp.loopexit.split-lp, !dbg !1234

bb37:                                             ; preds = %cleanup
  %1 = load i8, ptr %_60, align 1, !dbg !1235, !range !484, !noundef !16
  %2 = trunc i8 %1 to i1, !dbg !1235
  br i1 %2, label %bb36, label %bb35, !dbg !1235

cleanup.loopexit:                                 ; preds = %bb15, %bb17, %bb20
  %lpad.loopexit = landingpad { ptr, i32 }
          cleanup
  br label %cleanup

cleanup.loopexit.split-lp.loopexit:               ; preds = %bb30, %bb7, %bb4
  %lpad.loopexit1 = landingpad { ptr, i32 }
          cleanup
  br label %cleanup.loopexit.split-lp

cleanup.loopexit.split-lp.loopexit.split-lp:      ; preds = %bb32, %bb6, %bb28, %bb27, %bb26, %bb25, %bb24, %bb23, %bb13, %bb11, %bb10, %bb9, %bb3, %bb1, %start
  %lpad.loopexit.split-lp2 = landingpad { ptr, i32 }
          cleanup
  br label %cleanup.loopexit.split-lp

cleanup.loopexit.split-lp:                        ; preds = %cleanup.loopexit.split-lp.loopexit.split-lp, %cleanup.loopexit.split-lp.loopexit
  %lpad.phi3 = phi { ptr, i32 } [ %lpad.loopexit1, %cleanup.loopexit.split-lp.loopexit ], [ %lpad.loopexit.split-lp2, %cleanup.loopexit.split-lp.loopexit.split-lp ]
  br label %cleanup

cleanup:                                          ; preds = %cleanup.loopexit.split-lp, %cleanup.loopexit
  %lpad.phi = phi { ptr, i32 } [ %lpad.loopexit, %cleanup.loopexit ], [ %lpad.phi3, %cleanup.loopexit.split-lp ]
  %3 = extractvalue { ptr, i32 } %lpad.phi, 0
  %4 = extractvalue { ptr, i32 } %lpad.phi, 1
  store ptr %3, ptr %0, align 8
  %5 = getelementptr inbounds i8, ptr %0, i64 8
  store i32 %4, ptr %5, align 8
  br label %bb37

bb1:                                              ; preds = %start
  store ptr %bucket, ptr %bucket.dbg.spill, align 8, !dbg !1234
  call void @llvm.dbg.declare(metadata ptr %bucket.dbg.spill, metadata !1206, metadata !DIExpression()), !dbg !1236
  %6 = getelementptr inbounds i8, ptr %bucket, i64 8, !dbg !1237
  store ptr %6, ptr %link, align 8, !dbg !1237
  %_6 = getelementptr inbounds i8, ptr %bucket, i64 8, !dbg !1238
; invoke core::cell::Cell<T>::get
  %7 = invoke ptr @"_ZN4core4cell13Cell$LT$T$GT$3get17he7b921a81563dd14E"(ptr align 8 %_6)
          to label %bb2 unwind label %cleanup.loopexit.split-lp.loopexit.split-lp, !dbg !1238

bb2:                                              ; preds = %bb1
  store ptr %7, ptr %current, align 8, !dbg !1238
  store i64 0, ptr %addr.dbg.spill.i, align 8, !dbg !1239
  call void @llvm.dbg.declare(metadata ptr %addr.dbg.spill.i, metadata !997, metadata !DIExpression()), !dbg !1239
  store ptr null, ptr %data_pointer.dbg.spill.i, align 8, !dbg !1242
  call void @llvm.dbg.declare(metadata ptr %data_pointer.dbg.spill.i, metadata !1014, metadata !DIExpression()), !dbg !1242
  call void @llvm.dbg.declare(metadata ptr undef, metadata !1015, metadata !DIExpression()), !dbg !1244
  store ptr null, ptr %_2.i, align 8, !dbg !1245
  call void @llvm.memcpy.p0.p0.i64(ptr align 8 %_1.i, ptr align 8 %_2.i, i64 8, i1 false), !dbg !1246
  %_0.i = load ptr, ptr %_1.i, align 8, !dbg !1246, !noundef !16
  br label %bb3, !dbg !1247

bb3:                                              ; preds = %bb2
  store ptr %_0.i, ptr %previous, align 8, !dbg !1248
; invoke <parking_lot_core::parking_lot::UnparkResult as core::default::Default>::default
  invoke void @"_ZN86_$LT$parking_lot_core..parking_lot..UnparkResult$u20$as$u20$core..default..Default$GT$7default17hc79cce5b4711cb11E"(ptr sret(%"parking_lot_core::parking_lot::UnparkResult") align 8 %result)
          to label %bb38 unwind label %cleanup.loopexit.split-lp.loopexit.split-lp, !dbg !1249

bb38:                                             ; preds = %bb3
  br label %bb4, !dbg !1249

bb4:                                              ; preds = %bb31, %bb38
  %_10 = load ptr, ptr %current, align 8, !dbg !1250, !noundef !16
; invoke core::ptr::const_ptr::<impl *const T>::is_null
  %_9 = invoke zeroext i1 @"_ZN4core3ptr9const_ptr33_$LT$impl$u20$$BP$const$u20$T$GT$7is_null17hd966cac06b4756c5E"(ptr %_10)
          to label %bb5 unwind label %cleanup.loopexit.split-lp.loopexit, !dbg !1250

bb5:                                              ; preds = %bb4
  br i1 %_9, label %bb6, label %bb7, !dbg !1250

bb7:                                              ; preds = %bb5
  %8 = load ptr, ptr %current, align 8, !dbg !1251, !noundef !16
  %_13 = getelementptr inbounds i8, ptr %8, i64 120, !dbg !1251
  store i8 0, ptr %_14, align 1, !dbg !1252
  %9 = load i8, ptr %_14, align 1, !dbg !1251, !range !1026, !noundef !16
; invoke core::sync::atomic::AtomicUsize::load
  %_12 = invoke i64 @_ZN4core4sync6atomic11AtomicUsize4load17he962fbd1baca4a17E(ptr align 8 %_13, i8 %9)
          to label %bb8 unwind label %cleanup.loopexit.split-lp.loopexit, !dbg !1251

bb6:                                              ; preds = %bb5
  store i8 0, ptr %_60, align 1, !dbg !1253
  call void @llvm.memcpy.p0.p0.i64(ptr align 8 %_57, ptr align 8 %result, i64 24, i1 false), !dbg !1254
  call void @llvm.memcpy.p0.p0.i64(ptr align 8 %_56, ptr align 8 %_57, i64 24, i1 false), !dbg !1253
; invoke core::ops::function::FnOnce::call_once
  %_54 = invoke i64 @_ZN4core3ops8function6FnOnce9call_once17h87eede0033c0648fE(ptr align 8 %callback, ptr align 8 %_56)
          to label %bb32 unwind label %cleanup.loopexit.split-lp.loopexit.split-lp, !dbg !1253

bb8:                                              ; preds = %bb7
  %_11 = icmp eq i64 %_12, %key, !dbg !1251
  br i1 %_11, label %bb9, label %bb30, !dbg !1251

bb30:                                             ; preds = %bb8
  %10 = load ptr, ptr %current, align 8, !dbg !1255, !noundef !16
  %_50 = getelementptr inbounds i8, ptr %10, i64 128, !dbg !1255
  store ptr %_50, ptr %link, align 8, !dbg !1256
  %_51 = load ptr, ptr %current, align 8, !dbg !1257, !noundef !16
  store ptr %_51, ptr %previous, align 8, !dbg !1258
  %_53 = load ptr, ptr %link, align 8, !dbg !1259, !nonnull !16, !align !1033, !noundef !16
; invoke core::cell::Cell<T>::get
  %_52 = invoke ptr @"_ZN4core4cell13Cell$LT$T$GT$3get17he7b921a81563dd14E"(ptr align 8 %_53)
          to label %bb31 unwind label %cleanup.loopexit.split-lp.loopexit, !dbg !1259

bb9:                                              ; preds = %bb8
  %11 = load ptr, ptr %current, align 8, !dbg !1260, !noundef !16
  %_16 = getelementptr inbounds i8, ptr %11, i64 128, !dbg !1260
; invoke core::cell::Cell<T>::get
  %next = invoke ptr @"_ZN4core4cell13Cell$LT$T$GT$3get17he7b921a81563dd14E"(ptr align 8 %_16)
          to label %bb10 unwind label %cleanup.loopexit.split-lp.loopexit.split-lp, !dbg !1260

bb31:                                             ; preds = %bb30
  store ptr %_52, ptr %current, align 8, !dbg !1261
  br label %bb4, !dbg !1262

bb10:                                             ; preds = %bb9
  store ptr %next, ptr %next.dbg.spill, align 8, !dbg !1260
  call void @llvm.dbg.declare(metadata ptr %next.dbg.spill, metadata !1216, metadata !DIExpression()), !dbg !1263
  %_18 = load ptr, ptr %link, align 8, !dbg !1264, !nonnull !16, !align !1033, !noundef !16
; invoke core::cell::Cell<T>::set
  invoke void @"_ZN4core4cell13Cell$LT$T$GT$3set17h268728bb0395b6cbE"(ptr align 8 %_18, ptr %next)
          to label %bb11 unwind label %cleanup.loopexit.split-lp.loopexit.split-lp, !dbg !1264

bb11:                                             ; preds = %bb10
  %_21 = getelementptr inbounds i8, ptr %bucket, i64 16, !dbg !1265
; invoke core::cell::Cell<T>::get
  %_20 = invoke ptr @"_ZN4core4cell13Cell$LT$T$GT$3get17he7b921a81563dd14E"(ptr align 8 %_21)
          to label %bb12 unwind label %cleanup.loopexit.split-lp.loopexit.split-lp, !dbg !1265

bb12:                                             ; preds = %bb11
  %_22 = load ptr, ptr %current, align 8, !dbg !1266, !noundef !16
  %_19 = icmp eq ptr %_20, %_22, !dbg !1265
  br i1 %_19, label %bb13, label %bb14, !dbg !1265

bb14:                                             ; preds = %bb12
  store ptr %next, ptr %scan, align 8, !dbg !1267
  br label %bb15, !dbg !1268

bb13:                                             ; preds = %bb12
  %_24 = getelementptr inbounds i8, ptr %bucket, i64 16, !dbg !1269
  %_25 = load ptr, ptr %previous, align 8, !dbg !1270, !noundef !16
; invoke core::cell::Cell<T>::set
  invoke void @"_ZN4core4cell13Cell$LT$T$GT$3set17h268728bb0395b6cbE"(ptr align 8 %_24, ptr %_25)
          to label %bb39 unwind label %cleanup.loopexit.split-lp.loopexit.split-lp, !dbg !1269

bb15:                                             ; preds = %bb21, %bb14
  %_28 = load ptr, ptr %scan, align 8, !dbg !1271, !noundef !16
; invoke core::ptr::const_ptr::<impl *const T>::is_null
  %_27 = invoke zeroext i1 @"_ZN4core3ptr9const_ptr33_$LT$impl$u20$$BP$const$u20$T$GT$7is_null17hd966cac06b4756c5E"(ptr %_28)
          to label %bb16 unwind label %cleanup.loopexit, !dbg !1271

bb16:                                             ; preds = %bb15
  br i1 %_27, label %bb22.loopexit, label %bb17, !dbg !1271

bb17:                                             ; preds = %bb16
  %12 = load ptr, ptr %scan, align 8, !dbg !1272, !noundef !16
  %_31 = getelementptr inbounds i8, ptr %12, i64 120, !dbg !1272
  store i8 0, ptr %_32, align 1, !dbg !1273
  %13 = load i8, ptr %_32, align 1, !dbg !1272, !range !1026, !noundef !16
; invoke core::sync::atomic::AtomicUsize::load
  %_30 = invoke i64 @_ZN4core4sync6atomic11AtomicUsize4load17he962fbd1baca4a17E(ptr align 8 %_31, i8 %13)
          to label %bb18 unwind label %cleanup.loopexit, !dbg !1272

bb22.loopexit:                                    ; preds = %bb16
  br label %bb22, !dbg !1274

bb22:                                             ; preds = %bb22.loopexit, %bb39, %bb19
  store i64 1, ptr %result, align 8, !dbg !1274
  %_38 = getelementptr inbounds i8, ptr %bucket, i64 24, !dbg !1275
  store ptr %_38, ptr %self.dbg.spill.i, align 8
  call void @llvm.dbg.declare(metadata ptr %self.dbg.spill.i, metadata !1158, metadata !DIExpression()), !dbg !1276
  br label %bb23, !dbg !1278

bb18:                                             ; preds = %bb17
  %_29 = icmp eq i64 %_30, %key, !dbg !1272
  br i1 %_29, label %bb19, label %bb20, !dbg !1272

bb20:                                             ; preds = %bb18
  %14 = load ptr, ptr %scan, align 8, !dbg !1279, !noundef !16
  %_34 = getelementptr inbounds i8, ptr %14, i64 128, !dbg !1279
; invoke core::cell::Cell<T>::get
  %_33 = invoke ptr @"_ZN4core4cell13Cell$LT$T$GT$3get17he7b921a81563dd14E"(ptr align 8 %_34)
          to label %bb21 unwind label %cleanup.loopexit, !dbg !1279

bb19:                                             ; preds = %bb18
  %15 = getelementptr inbounds i8, ptr %result, i64 16, !dbg !1280
  store i8 1, ptr %15, align 8, !dbg !1280
  br label %bb22, !dbg !1281

bb21:                                             ; preds = %bb20
  store ptr %_33, ptr %scan, align 8, !dbg !1283
  br label %bb15, !dbg !1268

bb39:                                             ; preds = %bb13
  br label %bb22, !dbg !1269

bb23:                                             ; preds = %bb22
; invoke parking_lot_core::parking_lot::FairTimeout::should_timeout
  %_35 = invoke zeroext i1 @_ZN16parking_lot_core11parking_lot11FairTimeout14should_timeout17hc1fc24ea9eb4d05cE(ptr align 8 %_38)
          to label %bb24 unwind label %cleanup.loopexit.split-lp.loopexit.split-lp, !dbg !1284

bb24:                                             ; preds = %bb23
  %16 = getelementptr inbounds i8, ptr %result, i64 17, !dbg !1285
  %17 = zext i1 %_35 to i8, !dbg !1285
  store i8 %17, ptr %16, align 1, !dbg !1285
  store i8 0, ptr %_60, align 1, !dbg !1286
  call void @llvm.memcpy.p0.p0.i64(ptr align 8 %_42, ptr align 8 %result, i64 24, i1 false), !dbg !1287
  call void @llvm.memcpy.p0.p0.i64(ptr align 8 %_41, ptr align 8 %_42, i64 24, i1 false), !dbg !1286
; invoke core::ops::function::FnOnce::call_once
  %token = invoke i64 @_ZN4core3ops8function6FnOnce9call_once17h87eede0033c0648fE(ptr align 8 %callback, ptr align 8 %_41)
          to label %bb25 unwind label %cleanup.loopexit.split-lp.loopexit.split-lp, !dbg !1286

bb25:                                             ; preds = %bb24
  store i64 %token, ptr %token.dbg.spill, align 8, !dbg !1286
  call void @llvm.dbg.declare(metadata ptr %token.dbg.spill, metadata !1220, metadata !DIExpression()), !dbg !1288
  %18 = load ptr, ptr %current, align 8, !dbg !1289, !noundef !16
  %_44 = getelementptr inbounds i8, ptr %18, i64 136, !dbg !1289
; invoke core::cell::Cell<T>::set
  invoke void @"_ZN4core4cell13Cell$LT$T$GT$3set17hcc85a015c5c1b1f2E"(ptr align 8 %_44, i64 %token)
          to label %bb26 unwind label %cleanup.loopexit.split-lp.loopexit.split-lp, !dbg !1289

bb26:                                             ; preds = %bb25
  %_46 = load ptr, ptr %current, align 8, !dbg !1290, !noundef !16
; invoke <parking_lot_core::thread_parker::imp::ThreadParker as parking_lot_core::thread_parker::ThreadParkerT>::unpark_lock
  %handle = invoke ptr @"_ZN117_$LT$parking_lot_core..thread_parker..imp..ThreadParker$u20$as$u20$parking_lot_core..thread_parker..ThreadParkerT$GT$11unpark_lock17ha287d5f135ea9f20E"(ptr align 8 %_46)
          to label %bb27 unwind label %cleanup.loopexit.split-lp.loopexit.split-lp, !dbg !1290

bb27:                                             ; preds = %bb26
  store ptr %handle, ptr %handle.dbg.spill, align 8, !dbg !1290
  call void @llvm.dbg.declare(metadata ptr %handle.dbg.spill, metadata !1222, metadata !DIExpression()), !dbg !1291
; invoke parking_lot_core::word_lock::WordLock::unlock
  invoke void @_ZN16parking_lot_core9word_lock8WordLock6unlock17h14f0196effeef5f9E(ptr align 8 %bucket)
          to label %bb28 unwind label %cleanup.loopexit.split-lp.loopexit.split-lp, !dbg !1292

bb28:                                             ; preds = %bb27
; invoke <parking_lot_core::thread_parker::imp::UnparkHandle as parking_lot_core::thread_parker::UnparkHandleT>::unpark
  invoke void @"_ZN117_$LT$parking_lot_core..thread_parker..imp..UnparkHandle$u20$as$u20$parking_lot_core..thread_parker..UnparkHandleT$GT$6unpark17ha69b71b87ae1f833E"(ptr %handle)
          to label %bb29 unwind label %cleanup.loopexit.split-lp.loopexit.split-lp, !dbg !1293

bb29:                                             ; preds = %bb28
  call void @llvm.memcpy.p0.p0.i64(ptr align 8 %_0, ptr align 8 %result, i64 24, i1 false), !dbg !1294
  br label %bb34, !dbg !1235

bb34:                                             ; preds = %bb33, %bb29
  ret void, !dbg !1295

bb32:                                             ; preds = %bb6
; invoke parking_lot_core::word_lock::WordLock::unlock
  invoke void @_ZN16parking_lot_core9word_lock8WordLock6unlock17h14f0196effeef5f9E(ptr align 8 %bucket)
          to label %bb33 unwind label %cleanup.loopexit.split-lp.loopexit.split-lp, !dbg !1296

bb33:                                             ; preds = %bb32
  call void @llvm.memcpy.p0.p0.i64(ptr align 8 %_0, ptr align 8 %result, i64 24, i1 false), !dbg !1297
  br label %bb34, !dbg !1235

bb35:                                             ; preds = %bb36, %bb37
  %19 = load ptr, ptr %0, align 8, !dbg !1298, !noundef !16
  %20 = getelementptr inbounds i8, ptr %0, i64 8, !dbg !1298
  %21 = load i32, ptr %20, align 8, !dbg !1298, !noundef !16
  %22 = insertvalue { ptr, i32 } poison, ptr %19, 0, !dbg !1298
  %23 = insertvalue { ptr, i32 } %22, i32 %21, 1, !dbg !1298
  resume { ptr, i32 } %23, !dbg !1298

bb36:                                             ; preds = %bb37
  br label %bb35, !dbg !1235
}

; parking_lot_core::parking_lot::FairTimeout::should_timeout
; Function Attrs: inlinehint uwtable
define internal zeroext i1 @_ZN16parking_lot_core11parking_lot11FairTimeout14should_timeout17hc1fc24ea9eb4d05cE(ptr align 8 %self) unnamed_addr #0 !dbg !1299 {
start:
  %nanos.dbg.spill = alloca i32, align 4
  %self.dbg.spill = alloca ptr, align 8
  %now = alloca %"std::time::Instant", align 8
  %_0 = alloca i8, align 1
  store ptr %self, ptr %self.dbg.spill, align 8
  call void @llvm.dbg.declare(metadata ptr %self.dbg.spill, metadata !1305, metadata !DIExpression()), !dbg !1310
  call void @llvm.dbg.declare(metadata ptr %now, metadata !1306, metadata !DIExpression()), !dbg !1311
; call std::time::Instant::now
  %0 = call { i64, i32 } @_ZN3std4time7Instant3now17h3ce6b86a833f1105E(), !dbg !1312
  %1 = extractvalue { i64, i32 } %0, 0, !dbg !1312
  %2 = extractvalue { i64, i32 } %0, 1, !dbg !1312
  store i64 %1, ptr %now, align 8, !dbg !1312
  %3 = getelementptr inbounds i8, ptr %now, i64 8, !dbg !1312
  store i32 %2, ptr %3, align 8, !dbg !1312
; call core::cmp::PartialOrd::gt
  %_3 = call zeroext i1 @_ZN4core3cmp10PartialOrd2gt17h31bdf7e38fd2b3c7E(ptr align 8 %now, ptr align 8 %self), !dbg !1313
  br i1 %_3, label %bb3, label %bb8, !dbg !1313

bb8:                                              ; preds = %start
  store i8 0, ptr %_0, align 1, !dbg !1314
  br label %bb9, !dbg !1315

bb3:                                              ; preds = %start
; call parking_lot_core::parking_lot::FairTimeout::gen_u32
  %_7 = call i32 @_ZN16parking_lot_core11parking_lot11FairTimeout7gen_u3217h2458e22cdfb34428E(ptr align 8 %self), !dbg !1316
  %nanos = urem i32 %_7, 1000000, !dbg !1316
  store i32 %nanos, ptr %nanos.dbg.spill, align 4, !dbg !1316
  call void @llvm.dbg.declare(metadata ptr %nanos.dbg.spill, metadata !1308, metadata !DIExpression()), !dbg !1317
  %_10.0 = load i64, ptr %now, align 8, !dbg !1318, !noundef !16
  %4 = getelementptr inbounds i8, ptr %now, i64 8, !dbg !1318
  %_10.1 = load i32, ptr %4, align 8, !dbg !1318, !range !486, !noundef !16
; call core::time::Duration::new
  %5 = call { i64, i32 } @_ZN4core4time8Duration3new17h31c77a2e06c88335E(i64 0, i32 %nanos), !dbg !1319
  %_11.0 = extractvalue { i64, i32 } %5, 0, !dbg !1319
  %_11.1 = extractvalue { i64, i32 } %5, 1, !dbg !1319
; call <std::time::Instant as core::ops::arith::Add<core::time::Duration>>::add
  %6 = call { i64, i32 } @"_ZN88_$LT$std..time..Instant$u20$as$u20$core..ops..arith..Add$LT$core..time..Duration$GT$$GT$3add17hd9f2a8cfd69ee90bE"(i64 %_10.0, i32 %_10.1, i64 %_11.0, i32 %_11.1), !dbg !1318
  %_9.0 = extractvalue { i64, i32 } %6, 0, !dbg !1318
  %_9.1 = extractvalue { i64, i32 } %6, 1, !dbg !1318
  store i64 %_9.0, ptr %self, align 8, !dbg !1320
  %7 = getelementptr inbounds i8, ptr %self, i64 8, !dbg !1320
  store i32 %_9.1, ptr %7, align 8, !dbg !1320
  store i8 1, ptr %_0, align 1, !dbg !1321
  br label %bb9, !dbg !1315

bb9:                                              ; preds = %bb3, %bb8
  %8 = load i8, ptr %_0, align 1, !dbg !1322, !range !484, !noundef !16
  %9 = trunc i8 %8 to i1, !dbg !1322
  ret i1 %9, !dbg !1322
}

; parking_lot_core::parking_lot::lock_bucket
; Function Attrs: inlinehint uwtable
define internal align 64 ptr @_ZN16parking_lot_core11parking_lot11lock_bucket17he06184efefb13fe4E(i64 %key) unnamed_addr #0 !dbg !1323 {
start:
  %bucket.dbg.spill = alloca ptr, align 8
  %hash.dbg.spill = alloca i64, align 8
  %hashtable.dbg.spill = alloca ptr, align 8
  %key.dbg.spill = alloca i64, align 8
  %_12 = alloca i8, align 1
  store i64 %key, ptr %key.dbg.spill, align 8
  call void @llvm.dbg.declare(metadata ptr %key.dbg.spill, metadata !1327, metadata !DIExpression()), !dbg !1346
  br label %bb1, !dbg !1347

bb1:                                              ; preds = %bb8, %start
; call parking_lot_core::parking_lot::get_hashtable
  %hashtable = call align 8 ptr @_ZN16parking_lot_core11parking_lot13get_hashtable17h5469f8e737f66560E(), !dbg !1348
  store ptr %hashtable, ptr %hashtable.dbg.spill, align 8, !dbg !1348
  call void @llvm.dbg.declare(metadata ptr %hashtable.dbg.spill, metadata !1328, metadata !DIExpression()), !dbg !1349
  %0 = getelementptr inbounds i8, ptr %hashtable, i64 24, !dbg !1350
  %_4 = load i32, ptr %0, align 8, !dbg !1350, !noundef !16
; call parking_lot_core::parking_lot::hash
  %hash = call i64 @_ZN16parking_lot_core11parking_lot4hash17h1286c764abc52e40E(i64 %key, i32 %_4), !dbg !1351
  store i64 %hash, ptr %hash.dbg.spill, align 8, !dbg !1351
  call void @llvm.dbg.declare(metadata ptr %hash.dbg.spill, metadata !1342, metadata !DIExpression()), !dbg !1352
  %_17.0 = load ptr, ptr %hashtable, align 8, !dbg !1353, !nonnull !16, !align !1354, !noundef !16
  %1 = getelementptr inbounds i8, ptr %hashtable, i64 8, !dbg !1353
  %_17.1 = load i64, ptr %1, align 8, !dbg !1353, !noundef !16
  %_6 = icmp ult i64 %hash, %_17.1, !dbg !1353
  %2 = call i1 @llvm.expect.i1(i1 %_6, i1 true), !dbg !1353
  br i1 %2, label %bb4, label %panic, !dbg !1353

bb4:                                              ; preds = %bb1
  %_18.0 = load ptr, ptr %hashtable, align 8, !dbg !1355, !nonnull !16, !align !1354, !noundef !16
  %3 = getelementptr inbounds i8, ptr %hashtable, i64 8, !dbg !1355
  %_18.1 = load i64, ptr %3, align 8, !dbg !1355, !noundef !16
  %bucket = getelementptr inbounds [0 x %"parking_lot_core::parking_lot::Bucket"], ptr %_18.0, i64 0, i64 %hash, !dbg !1355
  store ptr %bucket, ptr %bucket.dbg.spill, align 8, !dbg !1355
  call void @llvm.dbg.declare(metadata ptr %bucket.dbg.spill, metadata !1344, metadata !DIExpression()), !dbg !1356
; call parking_lot_core::word_lock::WordLock::lock
  call void @_ZN16parking_lot_core9word_lock8WordLock4lock17h906e3b4557fad170E(ptr align 8 %bucket), !dbg !1357
  store i8 0, ptr %_12, align 1, !dbg !1358
  %4 = load i8, ptr %_12, align 1, !dbg !1359, !range !1026, !noundef !16
; call core::sync::atomic::AtomicPtr<T>::load
  %_10 = call ptr @"_ZN4core4sync6atomic18AtomicPtr$LT$T$GT$4load17h67b6f13a275a7876E"(ptr align 8 @_ZN16parking_lot_core11parking_lot9HASHTABLE17hf1de9e36645b0103E, i8 %4), !dbg !1359
  %_9 = icmp eq ptr %_10, %hashtable, !dbg !1359
  br i1 %_9, label %bb7, label %bb8, !dbg !1359

panic:                                            ; preds = %bb1
  %hash.lcssa = phi i64 [ %hash, %bb1 ], !dbg !1351
  %_17.1.lcssa = phi i64 [ %_17.1, %bb1 ], !dbg !1353
; call core::panicking::panic_bounds_check
  call void @_ZN4core9panicking18panic_bounds_check17he946c798844ee491E(i64 %hash.lcssa, i64 %_17.1.lcssa, ptr align 8 @alloc_b49418e118df34fc881ed6c31d7808b9) #19, !dbg !1353
  unreachable, !dbg !1353

bb8:                                              ; preds = %bb4
; call parking_lot_core::word_lock::WordLock::unlock
  call void @_ZN16parking_lot_core9word_lock8WordLock6unlock17h14f0196effeef5f9E(ptr align 8 %bucket), !dbg !1360
  br label %bb1, !dbg !1360

bb7:                                              ; preds = %bb4
  %bucket.lcssa = phi ptr [ %bucket, %bb4 ], !dbg !1355
  ret ptr %bucket.lcssa, !dbg !1361
}

; parking_lot_core::parking_lot::get_hashtable
; Function Attrs: inlinehint uwtable
define internal align 8 ptr @_ZN16parking_lot_core11parking_lot13get_hashtable17h5469f8e737f66560E() unnamed_addr #0 !dbg !1362 {
start:
  %table.dbg.spill = alloca ptr, align 8
  %_3 = alloca i8, align 1
  %_0 = alloca ptr, align 8
  store i8 2, ptr %_3, align 1, !dbg !1369
  %0 = load i8, ptr %_3, align 1, !dbg !1370, !range !1026, !noundef !16
; call core::sync::atomic::AtomicPtr<T>::load
  %table = call ptr @"_ZN4core4sync6atomic18AtomicPtr$LT$T$GT$4load17h67b6f13a275a7876E"(ptr align 8 @_ZN16parking_lot_core11parking_lot9HASHTABLE17hf1de9e36645b0103E, i8 %0), !dbg !1370
  store ptr %table, ptr %table.dbg.spill, align 8, !dbg !1370
  call void @llvm.dbg.declare(metadata ptr %table.dbg.spill, metadata !1366, metadata !DIExpression()), !dbg !1371
; call core::ptr::mut_ptr::<impl *mut T>::is_null
  %_4 = call zeroext i1 @"_ZN4core3ptr7mut_ptr31_$LT$impl$u20$$BP$mut$u20$T$GT$7is_null17h76504b44107b93dbE"(ptr %table), !dbg !1372
  br i1 %_4, label %bb3, label %bb4, !dbg !1372

bb4:                                              ; preds = %start
  store ptr %table, ptr %_0, align 8, !dbg !1373
  br label %bb5, !dbg !1374

bb3:                                              ; preds = %start
; call parking_lot_core::parking_lot::create_hashtable
  %1 = call align 8 ptr @_ZN16parking_lot_core11parking_lot16create_hashtable17hfe1d45a4569e0fa7E(), !dbg !1375
  store ptr %1, ptr %_0, align 8, !dbg !1375
  br label %bb5, !dbg !1375

bb5:                                              ; preds = %bb3, %bb4
  %2 = load ptr, ptr %_0, align 8, !dbg !1376, !nonnull !16, !align !1033, !noundef !16
  ret ptr %2, !dbg !1376
}

; parking_lot_core::parking_lot::unpark_filter
; Function Attrs: inlinehint uwtable
define void @_ZN16parking_lot_core11parking_lot13unpark_filter17h098d0c0b2641c4fcE(ptr sret(%"parking_lot_core::parking_lot::UnparkResult") align 8 %_0, i64 %key, ptr align 8 %0, ptr align 8 %callback) unnamed_addr #0 personality ptr @rust_eh_personality !dbg !1377 {
start:
  %self.dbg.spill.i = alloca ptr, align 8
  %_2.i = alloca %"core::ptr::metadata::PtrComponents<parking_lot_core::parking_lot::ThreadData>", align 8
  %_1.i = alloca %"core::ptr::metadata::PtrRepr<parking_lot_core::parking_lot::ThreadData>", align 8
  %data_pointer.dbg.spill.i = alloca ptr, align 8
  %addr.dbg.spill.i = alloca i64, align 8
  %t.dbg.spill = alloca ptr, align 8
  %handle.dbg.spill = alloca %"core::option::Option<parking_lot_core::thread_parker::imp::UnparkHandle>", align 8
  %token.dbg.spill = alloca i64, align 8
  %next.dbg.spill = alloca ptr, align 8
  %bucket.dbg.spill = alloca ptr, align 8
  %1 = alloca { ptr, i32, [1 x i32] }, align 8
  %key.dbg.spill = alloca i64, align 8
  %_87 = alloca i8, align 1
  %_86 = alloca i8, align 1
  %_78 = alloca %"core::option::Option<(*const parking_lot_core::parking_lot::ThreadData, core::option::Option<parking_lot_core::thread_parker::imp::UnparkHandle>)>", align 8
  %iter1 = alloca %"smallvec::IntoIter<[(*const parking_lot_core::parking_lot::ThreadData, core::option::Option<parking_lot_core::thread_parker::imp::UnparkHandle>); 8]>", align 8
  %_76 = alloca %"smallvec::SmallVec<[(*const parking_lot_core::parking_lot::ThreadData, core::option::Option<parking_lot_core::thread_parker::imp::UnparkHandle>); 8]>", align 8
  %_75 = alloca %"smallvec::IntoIter<[(*const parking_lot_core::parking_lot::ThreadData, core::option::Option<parking_lot_core::thread_parker::imp::UnparkHandle>); 8]>", align 8
  %_74 = alloca %"smallvec::IntoIter<[(*const parking_lot_core::parking_lot::ThreadData, core::option::Option<parking_lot_core::thread_parker::imp::UnparkHandle>); 8]>", align 8
  %_69 = alloca %"core::option::Option<parking_lot_core::thread_parker::imp::UnparkHandle>", align 8
  %_63 = alloca ptr, align 8
  %iter = alloca %"core::slice::iter::IterMut<'_, (*const parking_lot_core::parking_lot::ThreadData, core::option::Option<parking_lot_core::thread_parker::imp::UnparkHandle>)>", align 8
  %_57 = alloca %"parking_lot_core::parking_lot::UnparkResult", align 8
  %_56 = alloca { %"parking_lot_core::parking_lot::UnparkResult" }, align 8
  %_55 = alloca %"{closure@src/raw_rwlock.rs:967:24: 967:32}", align 8
  %_38 = alloca %"core::option::Option<parking_lot_core::thread_parker::imp::UnparkHandle>", align 8
  %_36 = alloca { ptr, %"core::option::Option<parking_lot_core::thread_parker::imp::UnparkHandle>" }, align 8
  %_21 = alloca i64, align 8
  %_19 = alloca i8, align 1
  %_16 = alloca i8, align 1
  %result = alloca %"parking_lot_core::parking_lot::UnparkResult", align 8
  %threads = alloca %"smallvec::SmallVec<[(*const parking_lot_core::parking_lot::ThreadData, core::option::Option<parking_lot_core::thread_parker::imp::UnparkHandle>); 8]>", align 8
  %previous = alloca ptr, align 8
  %current = alloca ptr, align 8
  %link = alloca ptr, align 8
  %filter = alloca ptr, align 8
  store ptr %0, ptr %filter, align 8
  store i64 %key, ptr %key.dbg.spill, align 8
  call void @llvm.dbg.declare(metadata ptr %key.dbg.spill, metadata !1398, metadata !DIExpression()), !dbg !1486
  call void @llvm.dbg.declare(metadata ptr %filter, metadata !1399, metadata !DIExpression()), !dbg !1487
  call void @llvm.dbg.declare(metadata ptr %callback, metadata !1400, metadata !DIExpression()), !dbg !1488
  call void @llvm.dbg.declare(metadata ptr %link, metadata !1403, metadata !DIExpression()), !dbg !1489
  call void @llvm.dbg.declare(metadata ptr %current, metadata !1405, metadata !DIExpression()), !dbg !1490
  call void @llvm.dbg.declare(metadata ptr %previous, metadata !1407, metadata !DIExpression()), !dbg !1491
  call void @llvm.dbg.declare(metadata ptr %threads, metadata !1409, metadata !DIExpression()), !dbg !1492
  call void @llvm.dbg.declare(metadata ptr %result, metadata !1451, metadata !DIExpression()), !dbg !1493
  call void @llvm.dbg.declare(metadata ptr %iter, metadata !1457, metadata !DIExpression()), !dbg !1494
  call void @llvm.dbg.declare(metadata ptr %iter1, metadata !1474, metadata !DIExpression()), !dbg !1495
  store i8 0, ptr %_87, align 1, !dbg !1496
  store i8 0, ptr %_86, align 1, !dbg !1496
  store i8 1, ptr %_87, align 1, !dbg !1496
; invoke parking_lot_core::parking_lot::lock_bucket
  %bucket = invoke align 64 ptr @_ZN16parking_lot_core11parking_lot11lock_bucket17he06184efefb13fe4E(i64 %key)
          to label %bb1 unwind label %cleanup, !dbg !1497

bb57:                                             ; preds = %bb54, %bb55, %cleanup
  %2 = load i8, ptr %_87, align 1, !dbg !1498, !range !484, !noundef !16
  %3 = trunc i8 %2 to i1, !dbg !1498
  br i1 %3, label %bb56, label %bb52, !dbg !1498

cleanup:                                          ; preds = %bb3, %bb1, %start
  %4 = landingpad { ptr, i32 }
          cleanup
  %5 = extractvalue { ptr, i32 } %4, 0
  %6 = extractvalue { ptr, i32 } %4, 1
  store ptr %5, ptr %1, align 8
  %7 = getelementptr inbounds i8, ptr %1, i64 8
  store i32 %6, ptr %7, align 8
  br label %bb57

bb1:                                              ; preds = %start
  store ptr %bucket, ptr %bucket.dbg.spill, align 8, !dbg !1497
  call void @llvm.dbg.declare(metadata ptr %bucket.dbg.spill, metadata !1401, metadata !DIExpression()), !dbg !1499
  %8 = getelementptr inbounds i8, ptr %bucket, i64 8, !dbg !1500
  store ptr %8, ptr %link, align 8, !dbg !1500
  %_7 = getelementptr inbounds i8, ptr %bucket, i64 8, !dbg !1501
; invoke core::cell::Cell<T>::get
  %9 = invoke ptr @"_ZN4core4cell13Cell$LT$T$GT$3get17he7b921a81563dd14E"(ptr align 8 %_7)
          to label %bb2 unwind label %cleanup, !dbg !1501

bb2:                                              ; preds = %bb1
  store ptr %9, ptr %current, align 8, !dbg !1501
  store i64 0, ptr %addr.dbg.spill.i, align 8, !dbg !1502
  call void @llvm.dbg.declare(metadata ptr %addr.dbg.spill.i, metadata !997, metadata !DIExpression()), !dbg !1502
  store ptr null, ptr %data_pointer.dbg.spill.i, align 8, !dbg !1505
  call void @llvm.dbg.declare(metadata ptr %data_pointer.dbg.spill.i, metadata !1014, metadata !DIExpression()), !dbg !1505
  call void @llvm.dbg.declare(metadata ptr undef, metadata !1015, metadata !DIExpression()), !dbg !1507
  store ptr null, ptr %_2.i, align 8, !dbg !1508
  call void @llvm.memcpy.p0.p0.i64(ptr align 8 %_1.i, ptr align 8 %_2.i, i64 8, i1 false), !dbg !1509
  %_0.i = load ptr, ptr %_1.i, align 8, !dbg !1509, !noundef !16
  br label %bb3, !dbg !1510

bb3:                                              ; preds = %bb2
  store ptr %_0.i, ptr %previous, align 8, !dbg !1511
; invoke smallvec::SmallVec<A>::new
  invoke void @"_ZN8smallvec17SmallVec$LT$A$GT$3new17h6a29fa57a80ce3ffE"(ptr sret(%"smallvec::SmallVec<[(*const parking_lot_core::parking_lot::ThreadData, core::option::Option<parking_lot_core::thread_parker::imp::UnparkHandle>); 8]>") align 8 %threads)
          to label %bb4 unwind label %cleanup, !dbg !1512

bb4:                                              ; preds = %bb3
  store i8 1, ptr %_86, align 1, !dbg !1513
; invoke <parking_lot_core::parking_lot::UnparkResult as core::default::Default>::default
  invoke void @"_ZN86_$LT$parking_lot_core..parking_lot..UnparkResult$u20$as$u20$core..default..Default$GT$7default17hc79cce5b4711cb11E"(ptr sret(%"parking_lot_core::parking_lot::UnparkResult") align 8 %result)
          to label %bb58 unwind label %cleanup2.loopexit.split-lp.loopexit.split-lp, !dbg !1514

bb55:                                             ; preds = %bb51, %cleanup2
  %10 = load i8, ptr %_86, align 1, !dbg !1515, !range !484, !noundef !16
  %11 = trunc i8 %10 to i1, !dbg !1515
  br i1 %11, label %bb54, label %bb57, !dbg !1515

cleanup2.loopexit:                                ; preds = %bb35, %bb37, %bb39
  %lpad.loopexit = landingpad { ptr, i32 }
          cleanup
  br label %cleanup2

cleanup2.loopexit.split-lp.loopexit:              ; preds = %bb21, %bb19, %bb18, %bb16, %bb15, %bb11, %bb10, %bb9, %bb23, %bb7, %bb5
  %lpad.loopexit4 = landingpad { ptr, i32 }
          cleanup
  br label %cleanup2.loopexit.split-lp

cleanup2.loopexit.split-lp.loopexit.split-lp:     ; preds = %bb47, %bb42, %bb41, %bb38, %bb33, %bb32, %bb31, %bb30, %bb28, %bb25, %bb4
  %lpad.loopexit.split-lp5 = landingpad { ptr, i32 }
          cleanup
  br label %cleanup2.loopexit.split-lp

cleanup2.loopexit.split-lp:                       ; preds = %cleanup2.loopexit.split-lp.loopexit.split-lp, %cleanup2.loopexit.split-lp.loopexit
  %lpad.phi6 = phi { ptr, i32 } [ %lpad.loopexit4, %cleanup2.loopexit.split-lp.loopexit ], [ %lpad.loopexit.split-lp5, %cleanup2.loopexit.split-lp.loopexit.split-lp ]
  br label %cleanup2

cleanup2:                                         ; preds = %cleanup2.loopexit.split-lp, %cleanup2.loopexit
  %lpad.phi = phi { ptr, i32 } [ %lpad.loopexit, %cleanup2.loopexit ], [ %lpad.phi6, %cleanup2.loopexit.split-lp ]
  %12 = extractvalue { ptr, i32 } %lpad.phi, 0
  %13 = extractvalue { ptr, i32 } %lpad.phi, 1
  store ptr %12, ptr %1, align 8
  %14 = getelementptr inbounds i8, ptr %1, i64 8
  store i32 %13, ptr %14, align 8
  br label %bb55

bb58:                                             ; preds = %bb4
  br label %bb5, !dbg !1514

bb5:                                              ; preds = %bb5.backedge, %bb58
  %_12 = load ptr, ptr %current, align 8, !dbg !1516, !noundef !16
; invoke core::ptr::const_ptr::<impl *const T>::is_null
  %_11 = invoke zeroext i1 @"_ZN4core3ptr9const_ptr33_$LT$impl$u20$$BP$const$u20$T$GT$7is_null17hd966cac06b4756c5E"(ptr %_12)
          to label %bb6 unwind label %cleanup2.loopexit.split-lp.loopexit, !dbg !1516

bb6:                                              ; preds = %bb5
  br i1 %_11, label %bb25.loopexit, label %bb7, !dbg !1516

bb7:                                              ; preds = %bb6
  %15 = load ptr, ptr %current, align 8, !dbg !1517, !noundef !16
  %_15 = getelementptr inbounds i8, ptr %15, i64 120, !dbg !1517
  store i8 0, ptr %_16, align 1, !dbg !1518
  %16 = load i8, ptr %_16, align 1, !dbg !1517, !range !1026, !noundef !16
; invoke core::sync::atomic::AtomicUsize::load
  %_14 = invoke i64 @_ZN4core4sync6atomic11AtomicUsize4load17he962fbd1baca4a17E(ptr align 8 %_15, i8 %16)
          to label %bb8 unwind label %cleanup2.loopexit.split-lp.loopexit, !dbg !1517

bb25.loopexit:                                    ; preds = %bb6
  br label %bb25, !dbg !1519

bb25:                                             ; preds = %bb25.loopexit, %bb14
; invoke smallvec::SmallVec<A>::len
  %_47 = invoke i64 @"_ZN8smallvec17SmallVec$LT$A$GT$3len17h9e82e7a2c73f4d26E"(ptr align 8 %threads)
          to label %bb26 unwind label %cleanup2.loopexit.split-lp.loopexit.split-lp, !dbg !1519

bb8:                                              ; preds = %bb7
  %_13 = icmp eq i64 %_14, %key, !dbg !1517
  br i1 %_13, label %bb9, label %bb23, !dbg !1517

bb23:                                             ; preds = %bb8
  %17 = load ptr, ptr %current, align 8, !dbg !1520, !noundef !16
  %_43 = getelementptr inbounds i8, ptr %17, i64 128, !dbg !1520
  store ptr %_43, ptr %link, align 8, !dbg !1521
  %_44 = load ptr, ptr %current, align 8, !dbg !1522, !noundef !16
  store ptr %_44, ptr %previous, align 8, !dbg !1523
  %_46 = load ptr, ptr %link, align 8, !dbg !1524, !nonnull !16, !align !1033, !noundef !16
; invoke core::cell::Cell<T>::get
  %_45 = invoke ptr @"_ZN4core4cell13Cell$LT$T$GT$3get17he7b921a81563dd14E"(ptr align 8 %_46)
          to label %bb24 unwind label %cleanup2.loopexit.split-lp.loopexit, !dbg !1524

bb9:                                              ; preds = %bb8
  %18 = load ptr, ptr %current, align 8, !dbg !1525, !noundef !16
  %_18 = getelementptr inbounds i8, ptr %18, i64 128, !dbg !1525
; invoke core::cell::Cell<T>::get
  %next = invoke ptr @"_ZN4core4cell13Cell$LT$T$GT$3get17he7b921a81563dd14E"(ptr align 8 %_18)
          to label %bb10 unwind label %cleanup2.loopexit.split-lp.loopexit, !dbg !1525

bb24:                                             ; preds = %bb23
  store ptr %_45, ptr %current, align 8, !dbg !1526
  br label %bb5.backedge, !dbg !1527

bb5.backedge:                                     ; preds = %bb24, %bb20, %bb22
  br label %bb5, !dbg !1516

bb10:                                             ; preds = %bb9
  store ptr %next, ptr %next.dbg.spill, align 8, !dbg !1525
  call void @llvm.dbg.declare(metadata ptr %next.dbg.spill, metadata !1453, metadata !DIExpression()), !dbg !1528
  %19 = load ptr, ptr %current, align 8, !dbg !1529, !noundef !16
  %_23 = getelementptr inbounds i8, ptr %19, i64 144, !dbg !1529
; invoke core::cell::Cell<T>::get
  %_22 = invoke i64 @"_ZN4core4cell13Cell$LT$T$GT$3get17h6b481e49d8bdfb7fE"(ptr align 8 %_23)
          to label %bb11 unwind label %cleanup2.loopexit.split-lp.loopexit, !dbg !1529

bb11:                                             ; preds = %bb10
  store i64 %_22, ptr %_21, align 8, !dbg !1530
  %20 = load i64, ptr %_21, align 8, !dbg !1530, !noundef !16
; invoke parking_lot::raw_rwlock::RawRwLock::wake_parked_threads::{{closure}}
  %21 = invoke i8 @"_ZN11parking_lot10raw_rwlock9RawRwLock19wake_parked_threads28_$u7b$$u7b$closure$u7d$$u7d$17h2194953d6c338593E"(ptr align 8 %filter, i64 %20)
          to label %bb12 unwind label %cleanup2.loopexit.split-lp.loopexit, !dbg !1530, !range !474

bb12:                                             ; preds = %bb11
  store i8 %21, ptr %_19, align 1, !dbg !1530
  %22 = load i8, ptr %_19, align 1, !dbg !1530, !range !474, !noundef !16
  %_24 = zext i8 %22 to i64, !dbg !1530
  switch i64 %_24, label %bb13 [
    i64 0, label %bb15
    i64 1, label %bb21
    i64 2, label %bb14
  ], !dbg !1531

bb13:                                             ; preds = %bb12
  unreachable, !dbg !1530

bb15:                                             ; preds = %bb12
  %_26 = load ptr, ptr %link, align 8, !dbg !1532, !nonnull !16, !align !1033, !noundef !16
; invoke core::cell::Cell<T>::set
  invoke void @"_ZN4core4cell13Cell$LT$T$GT$3set17h268728bb0395b6cbE"(ptr align 8 %_26, ptr %next)
          to label %bb16 unwind label %cleanup2.loopexit.split-lp.loopexit, !dbg !1532

bb21:                                             ; preds = %bb12
  %23 = getelementptr inbounds i8, ptr %result, i64 16, !dbg !1533
  store i8 1, ptr %23, align 8, !dbg !1533
  %24 = load ptr, ptr %current, align 8, !dbg !1534, !noundef !16
  %_39 = getelementptr inbounds i8, ptr %24, i64 128, !dbg !1534
  store ptr %_39, ptr %link, align 8, !dbg !1535
  %_40 = load ptr, ptr %current, align 8, !dbg !1536, !noundef !16
  store ptr %_40, ptr %previous, align 8, !dbg !1537
  %_42 = load ptr, ptr %link, align 8, !dbg !1538, !nonnull !16, !align !1033, !noundef !16
; invoke core::cell::Cell<T>::get
  %_41 = invoke ptr @"_ZN4core4cell13Cell$LT$T$GT$3get17he7b921a81563dd14E"(ptr align 8 %_42)
          to label %bb22 unwind label %cleanup2.loopexit.split-lp.loopexit, !dbg !1538

bb14:                                             ; preds = %bb12
  %25 = getelementptr inbounds i8, ptr %result, i64 16, !dbg !1539
  store i8 1, ptr %25, align 8, !dbg !1539
  br label %bb25, !dbg !1540

bb16:                                             ; preds = %bb15
  %_29 = getelementptr inbounds i8, ptr %bucket, i64 16, !dbg !1542
; invoke core::cell::Cell<T>::get
  %_28 = invoke ptr @"_ZN4core4cell13Cell$LT$T$GT$3get17he7b921a81563dd14E"(ptr align 8 %_29)
          to label %bb17 unwind label %cleanup2.loopexit.split-lp.loopexit, !dbg !1542

bb17:                                             ; preds = %bb16
  %_30 = load ptr, ptr %current, align 8, !dbg !1543, !noundef !16
  %_27 = icmp eq ptr %_28, %_30, !dbg !1542
  br i1 %_27, label %bb18, label %bb19, !dbg !1542

bb19:                                             ; preds = %bb59, %bb17
  %_37 = load ptr, ptr %current, align 8, !dbg !1544, !noundef !16
  store i64 0, ptr %_38, align 8, !dbg !1545
  store ptr %_37, ptr %_36, align 8, !dbg !1546
  %26 = load i64, ptr %_38, align 8, !dbg !1546, !range !335, !noundef !16
  %27 = getelementptr inbounds i8, ptr %_38, i64 8, !dbg !1546
  %28 = load ptr, ptr %27, align 8, !dbg !1546
  %29 = getelementptr inbounds i8, ptr %_36, i64 8, !dbg !1546
  store i64 %26, ptr %29, align 8, !dbg !1546
  %30 = getelementptr inbounds i8, ptr %29, i64 8, !dbg !1546
  store ptr %28, ptr %30, align 8, !dbg !1546
; invoke smallvec::SmallVec<A>::push
  invoke void @"_ZN8smallvec17SmallVec$LT$A$GT$4push17ha305dd1ca6d9caffE"(ptr align 8 %threads, ptr align 8 %_36)
          to label %bb20 unwind label %cleanup2.loopexit.split-lp.loopexit, !dbg !1547

bb18:                                             ; preds = %bb17
  %_32 = getelementptr inbounds i8, ptr %bucket, i64 16, !dbg !1548
  %_33 = load ptr, ptr %previous, align 8, !dbg !1549, !noundef !16
; invoke core::cell::Cell<T>::set
  invoke void @"_ZN4core4cell13Cell$LT$T$GT$3set17h268728bb0395b6cbE"(ptr align 8 %_32, ptr %_33)
          to label %bb59 unwind label %cleanup2.loopexit.split-lp.loopexit, !dbg !1548

bb59:                                             ; preds = %bb18
  br label %bb19, !dbg !1548

bb20:                                             ; preds = %bb19
  store ptr %next, ptr %current, align 8, !dbg !1550
  br label %bb5.backedge, !dbg !1551

bb22:                                             ; preds = %bb21
  store ptr %_41, ptr %current, align 8, !dbg !1552
  br label %bb5.backedge, !dbg !1553

bb26:                                             ; preds = %bb25
  store i64 %_47, ptr %result, align 8, !dbg !1554
  %_49 = load i64, ptr %result, align 8, !dbg !1555, !noundef !16
  %31 = icmp eq i64 %_49, 0, !dbg !1555
  br i1 %31, label %bb30, label %bb27, !dbg !1555

bb30:                                             ; preds = %bb29, %bb26
  store i8 0, ptr %_87, align 1, !dbg !1556
  call void @llvm.memcpy.p0.p0.i64(ptr align 8 %_55, ptr align 8 %callback, i64 24, i1 false), !dbg !1556
  call void @llvm.memcpy.p0.p0.i64(ptr align 8 %_57, ptr align 8 %result, i64 24, i1 false), !dbg !1557
  call void @llvm.memcpy.p0.p0.i64(ptr align 8 %_56, ptr align 8 %_57, i64 24, i1 false), !dbg !1556
; invoke parking_lot::raw_rwlock::RawRwLock::wake_parked_threads::{{closure}}
  %token = invoke i64 @"_ZN11parking_lot10raw_rwlock9RawRwLock19wake_parked_threads28_$u7b$$u7b$closure$u7d$$u7d$17h9090ec605393a2c0E"(ptr align 8 %_55, ptr align 8 %_56)
          to label %bb31 unwind label %cleanup2.loopexit.split-lp.loopexit.split-lp, !dbg !1556

bb27:                                             ; preds = %bb26
  %_53 = getelementptr inbounds i8, ptr %bucket, i64 24, !dbg !1558
  store ptr %_53, ptr %self.dbg.spill.i, align 8
  call void @llvm.dbg.declare(metadata ptr %self.dbg.spill.i, metadata !1158, metadata !DIExpression()), !dbg !1559
  br label %bb28, !dbg !1561

bb28:                                             ; preds = %bb27
; invoke parking_lot_core::parking_lot::FairTimeout::should_timeout
  %_50 = invoke zeroext i1 @_ZN16parking_lot_core11parking_lot11FairTimeout14should_timeout17hc1fc24ea9eb4d05cE(ptr align 8 %_53)
          to label %bb29 unwind label %cleanup2.loopexit.split-lp.loopexit.split-lp, !dbg !1562

bb29:                                             ; preds = %bb28
  %32 = getelementptr inbounds i8, ptr %result, i64 17, !dbg !1563
  %33 = zext i1 %_50 to i8, !dbg !1563
  store i8 %33, ptr %32, align 1, !dbg !1563
  br label %bb30, !dbg !1564

bb31:                                             ; preds = %bb30
  store i64 %token, ptr %token.dbg.spill, align 8, !dbg !1556
  call void @llvm.dbg.declare(metadata ptr %token.dbg.spill, metadata !1455, metadata !DIExpression()), !dbg !1565
; invoke <smallvec::SmallVec<A> as core::ops::deref::DerefMut>::deref_mut
  %34 = invoke { ptr, i64 } @"_ZN74_$LT$smallvec..SmallVec$LT$A$GT$$u20$as$u20$core..ops..deref..DerefMut$GT$9deref_mut17hcce9cc2e0bd249f0E"(ptr align 8 %threads)
          to label %bb32 unwind label %cleanup2.loopexit.split-lp.loopexit.split-lp, !dbg !1566

bb32:                                             ; preds = %bb31
  %_60.0 = extractvalue { ptr, i64 } %34, 0, !dbg !1566
  %_60.1 = extractvalue { ptr, i64 } %34, 1, !dbg !1566
; invoke core::slice::<impl [T]>::iter_mut
  %35 = invoke { ptr, ptr } @"_ZN4core5slice29_$LT$impl$u20$$u5b$T$u5d$$GT$8iter_mut17hbd11936df1f98a25E"(ptr align 8 %_60.0, i64 %_60.1)
          to label %bb33 unwind label %cleanup2.loopexit.split-lp.loopexit.split-lp, !dbg !1566

bb33:                                             ; preds = %bb32
  %_59.0 = extractvalue { ptr, ptr } %35, 0, !dbg !1566
  %_59.1 = extractvalue { ptr, ptr } %35, 1, !dbg !1566
; invoke <I as core::iter::traits::collect::IntoIterator>::into_iter
  %36 = invoke { ptr, ptr } @"_ZN63_$LT$I$u20$as$u20$core..iter..traits..collect..IntoIterator$GT$9into_iter17hb1c28272e1c7e27aE"(ptr %_59.0, ptr %_59.1)
          to label %bb34 unwind label %cleanup2.loopexit.split-lp.loopexit.split-lp, !dbg !1566

bb34:                                             ; preds = %bb33
  %_58.0 = extractvalue { ptr, ptr } %36, 0, !dbg !1566
  %_58.1 = extractvalue { ptr, ptr } %36, 1, !dbg !1566
  store ptr %_58.0, ptr %iter, align 8, !dbg !1566
  %37 = getelementptr inbounds i8, ptr %iter, i64 8, !dbg !1566
  store ptr %_58.1, ptr %37, align 8, !dbg !1566
  br label %bb35, !dbg !1567

bb35:                                             ; preds = %bb40, %bb34
; invoke <core::slice::iter::IterMut<T> as core::iter::traits::iterator::Iterator>::next
  %38 = invoke align 8 ptr @"_ZN94_$LT$core..slice..iter..IterMut$LT$T$GT$$u20$as$u20$core..iter..traits..iterator..Iterator$GT$4next17haf21b06b989be8a3E"(ptr align 8 %iter)
          to label %bb36 unwind label %cleanup2.loopexit, !dbg !1494

bb36:                                             ; preds = %bb35
  store ptr %38, ptr %_63, align 8, !dbg !1494
  %39 = load ptr, ptr %_63, align 8, !dbg !1494, !noundef !16
  %40 = ptrtoint ptr %39 to i64, !dbg !1494
  %41 = icmp eq i64 %40, 0, !dbg !1494
  %_65 = select i1 %41, i64 0, i64 1, !dbg !1494
  %42 = icmp eq i64 %_65, 0, !dbg !1494
  br i1 %42, label %bb38, label %bb37, !dbg !1494

bb38:                                             ; preds = %bb36
; invoke parking_lot_core::word_lock::WordLock::unlock
  invoke void @_ZN16parking_lot_core9word_lock8WordLock6unlock17h14f0196effeef5f9E(ptr align 8 %bucket)
          to label %bb41 unwind label %cleanup2.loopexit.split-lp.loopexit.split-lp, !dbg !1568

bb37:                                             ; preds = %bb36
  %t = load ptr, ptr %_63, align 8, !dbg !1569, !nonnull !16, !align !1033, !noundef !16
  store ptr %t, ptr %t.dbg.spill, align 8, !dbg !1569
  call void @llvm.dbg.declare(metadata ptr %t.dbg.spill, metadata !1472, metadata !DIExpression()), !dbg !1570
  %_84 = load ptr, ptr %t, align 8, !dbg !1571, !noundef !16
  %_68 = getelementptr inbounds i8, ptr %_84, i64 136, !dbg !1571
; invoke core::cell::Cell<T>::set
  invoke void @"_ZN4core4cell13Cell$LT$T$GT$3set17hcc85a015c5c1b1f2E"(ptr align 8 %_68, i64 %token)
          to label %bb39 unwind label %cleanup2.loopexit, !dbg !1571

bb41:                                             ; preds = %bb38
  store i8 0, ptr %_86, align 1, !dbg !1572
  call void @llvm.memcpy.p0.p0.i64(ptr align 8 %_76, ptr align 8 %threads, i64 208, i1 false), !dbg !1572
; invoke <smallvec::SmallVec<A> as core::iter::traits::collect::IntoIterator>::into_iter
  invoke void @"_ZN89_$LT$smallvec..SmallVec$LT$A$GT$$u20$as$u20$core..iter..traits..collect..IntoIterator$GT$9into_iter17h385725497e268b76E"(ptr sret(%"smallvec::IntoIter<[(*const parking_lot_core::parking_lot::ThreadData, core::option::Option<parking_lot_core::thread_parker::imp::UnparkHandle>); 8]>") align 8 %_75, ptr align 8 %_76)
          to label %bb42 unwind label %cleanup2.loopexit.split-lp.loopexit.split-lp, !dbg !1572

bb42:                                             ; preds = %bb41
; invoke <I as core::iter::traits::collect::IntoIterator>::into_iter
  invoke void @"_ZN63_$LT$I$u20$as$u20$core..iter..traits..collect..IntoIterator$GT$9into_iter17h03e2c82a843faaa9E"(ptr sret(%"smallvec::IntoIter<[(*const parking_lot_core::parking_lot::ThreadData, core::option::Option<parking_lot_core::thread_parker::imp::UnparkHandle>); 8]>") align 8 %_74, ptr align 8 %_75)
          to label %bb43 unwind label %cleanup2.loopexit.split-lp.loopexit.split-lp, !dbg !1572

bb43:                                             ; preds = %bb42
  call void @llvm.memcpy.p0.p0.i64(ptr align 8 %iter1, ptr align 8 %_74, i64 224, i1 false), !dbg !1572
  br label %bb44, !dbg !1573

bb44:                                             ; preds = %bb60, %bb43
; invoke <smallvec::IntoIter<A> as core::iter::traits::iterator::Iterator>::next
  invoke void @"_ZN86_$LT$smallvec..IntoIter$LT$A$GT$$u20$as$u20$core..iter..traits..iterator..Iterator$GT$4next17he21285311c57124dE"(ptr sret(%"core::option::Option<(*const parking_lot_core::parking_lot::ThreadData, core::option::Option<parking_lot_core::thread_parker::imp::UnparkHandle>)>") align 8 %_78, ptr align 8 %iter1)
          to label %bb45 unwind label %cleanup3, !dbg !1495

bb51:                                             ; preds = %cleanup3
; invoke core::ptr::drop_in_place<smallvec::IntoIter<[(*const parking_lot_core::parking_lot::ThreadData,core::option::Option<parking_lot_core::thread_parker::imp::UnparkHandle>); 8]>>
  invoke void @"_ZN4core3ptr212drop_in_place$LT$smallvec..IntoIter$LT$$u5b$$LP$$BP$const$u20$parking_lot_core..parking_lot..ThreadData$C$core..option..Option$LT$parking_lot_core..thread_parker..imp..UnparkHandle$GT$$RP$$u3b$$u20$8$u5d$$GT$$GT$17h156e1e79658b0fe8E"(ptr align 8 %iter1) #20
          to label %bb55 unwind label %terminate, !dbg !1574

cleanup3:                                         ; preds = %bb48, %bb46, %bb44
  %43 = landingpad { ptr, i32 }
          cleanup
  %44 = extractvalue { ptr, i32 } %43, 0
  %45 = extractvalue { ptr, i32 } %43, 1
  store ptr %44, ptr %1, align 8
  %46 = getelementptr inbounds i8, ptr %1, i64 8
  store i32 %45, ptr %46, align 8
  br label %bb51

bb45:                                             ; preds = %bb44
  %47 = getelementptr inbounds i8, ptr %_78, i64 8, !dbg !1495
  %48 = load i64, ptr %47, align 8, !dbg !1495, !range !841, !noundef !16
  %49 = icmp eq i64 %48, 2, !dbg !1495
  %_80 = select i1 %49, i64 0, i64 1, !dbg !1495
  %50 = icmp eq i64 %_80, 0, !dbg !1495
  br i1 %50, label %bb47, label %bb46, !dbg !1495

bb47:                                             ; preds = %bb45
; invoke core::ptr::drop_in_place<smallvec::IntoIter<[(*const parking_lot_core::parking_lot::ThreadData,core::option::Option<parking_lot_core::thread_parker::imp::UnparkHandle>); 8]>>
  invoke void @"_ZN4core3ptr212drop_in_place$LT$smallvec..IntoIter$LT$$u5b$$LP$$BP$const$u20$parking_lot_core..parking_lot..ThreadData$C$core..option..Option$LT$parking_lot_core..thread_parker..imp..UnparkHandle$GT$$RP$$u3b$$u20$8$u5d$$GT$$GT$17h156e1e79658b0fe8E"(ptr align 8 %iter1)
          to label %bb49 unwind label %cleanup2.loopexit.split-lp.loopexit.split-lp, !dbg !1574

bb46:                                             ; preds = %bb45
  %51 = getelementptr inbounds i8, ptr %_78, i64 8, !dbg !1575
  %handle.0 = load i64, ptr %51, align 8, !dbg !1575, !range !335, !noundef !16
  %52 = getelementptr inbounds i8, ptr %51, i64 8, !dbg !1575
  %handle.1 = load ptr, ptr %52, align 8, !dbg !1575
  store i64 %handle.0, ptr %handle.dbg.spill, align 8, !dbg !1575
  %53 = getelementptr inbounds i8, ptr %handle.dbg.spill, i64 8, !dbg !1575
  store ptr %handle.1, ptr %53, align 8, !dbg !1575
  call void @llvm.dbg.declare(metadata ptr %handle.dbg.spill, metadata !1481, metadata !DIExpression()), !dbg !1576
; invoke <core::option::Option<T> as parking_lot_core::util::UncheckedOptionExt<T>>::unchecked_unwrap
  %_83 = invoke ptr @"_ZN101_$LT$core..option..Option$LT$T$GT$$u20$as$u20$parking_lot_core..util..UncheckedOptionExt$LT$T$GT$$GT$16unchecked_unwrap17hf4fa0fe7c54c87d4E"(i64 %handle.0, ptr %handle.1)
          to label %bb48 unwind label %cleanup3, !dbg !1577

bb49:                                             ; preds = %bb47
  call void @llvm.memcpy.p0.p0.i64(ptr align 8 %_0, ptr align 8 %result, i64 24, i1 false), !dbg !1578
  store i8 0, ptr %_86, align 1, !dbg !1515
  ret void, !dbg !1579

bb48:                                             ; preds = %bb46
; invoke <parking_lot_core::thread_parker::imp::UnparkHandle as parking_lot_core::thread_parker::UnparkHandleT>::unpark
  invoke void @"_ZN117_$LT$parking_lot_core..thread_parker..imp..UnparkHandle$u20$as$u20$parking_lot_core..thread_parker..UnparkHandleT$GT$6unpark17ha69b71b87ae1f833E"(ptr %_83)
          to label %bb60 unwind label %cleanup3, !dbg !1577

bb60:                                             ; preds = %bb48
  br label %bb44, !dbg !1577

terminate:                                        ; preds = %bb54, %bb51
  %54 = landingpad { ptr, i32 }
          filter [0 x ptr] zeroinitializer
  %55 = extractvalue { ptr, i32 } %54, 0
  %56 = extractvalue { ptr, i32 } %54, 1
; call core::panicking::panic_in_cleanup
  call void @_ZN4core9panicking16panic_in_cleanup17hb45215b029b98411E() #21, !dbg !1580
  unreachable, !dbg !1580

bb39:                                             ; preds = %bb37
  %_85 = load ptr, ptr %t, align 8, !dbg !1581, !noundef !16
; invoke <parking_lot_core::thread_parker::imp::ThreadParker as parking_lot_core::thread_parker::ThreadParkerT>::unpark_lock
  %_70 = invoke ptr @"_ZN117_$LT$parking_lot_core..thread_parker..imp..ThreadParker$u20$as$u20$parking_lot_core..thread_parker..ThreadParkerT$GT$11unpark_lock17ha287d5f135ea9f20E"(ptr align 8 %_85)
          to label %bb40 unwind label %cleanup2.loopexit, !dbg !1581

bb40:                                             ; preds = %bb39
  %57 = getelementptr inbounds i8, ptr %_69, i64 8, !dbg !1582
  store ptr %_70, ptr %57, align 8, !dbg !1582
  store i64 1, ptr %_69, align 8, !dbg !1582
  %58 = getelementptr inbounds i8, ptr %t, i64 8, !dbg !1583
  %59 = load i64, ptr %_69, align 8, !dbg !1583, !range !335, !noundef !16
  %60 = getelementptr inbounds i8, ptr %_69, i64 8, !dbg !1583
  %61 = load ptr, ptr %60, align 8, !dbg !1583
  store i64 %59, ptr %58, align 8, !dbg !1583
  %62 = getelementptr inbounds i8, ptr %58, i64 8, !dbg !1583
  store ptr %61, ptr %62, align 8, !dbg !1583
  br label %bb35, !dbg !1567

bb54:                                             ; preds = %bb55
; invoke core::ptr::drop_in_place<smallvec::SmallVec<[(*const parking_lot_core::parking_lot::ThreadData,core::option::Option<parking_lot_core::thread_parker::imp::UnparkHandle>); 8]>>
  invoke void @"_ZN4core3ptr212drop_in_place$LT$smallvec..SmallVec$LT$$u5b$$LP$$BP$const$u20$parking_lot_core..parking_lot..ThreadData$C$core..option..Option$LT$parking_lot_core..thread_parker..imp..UnparkHandle$GT$$RP$$u3b$$u20$8$u5d$$GT$$GT$17h10547d6c977d2c45E"(ptr align 8 %threads) #20
          to label %bb57 unwind label %terminate, !dbg !1515

bb52:                                             ; preds = %bb56, %bb57
  %63 = load ptr, ptr %1, align 8, !dbg !1580, !noundef !16
  %64 = getelementptr inbounds i8, ptr %1, i64 8, !dbg !1580
  %65 = load i32, ptr %64, align 8, !dbg !1580, !noundef !16
  %66 = insertvalue { ptr, i32 } poison, ptr %63, 0, !dbg !1580
  %67 = insertvalue { ptr, i32 } %66, i32 %65, 1, !dbg !1580
  resume { ptr, i32 } %67, !dbg !1580

bb56:                                             ; preds = %bb57
  br label %bb52, !dbg !1498
}

; parking_lot_core::parking_lot::unpark_filter
; Function Attrs: inlinehint uwtable
define void @_ZN16parking_lot_core11parking_lot13unpark_filter17h1d9a9fdc64166935E(ptr sret(%"parking_lot_core::parking_lot::UnparkResult") align 8 %_0, i64 %key, ptr align 8 %0, ptr align 8 %callback) unnamed_addr #0 personality ptr @rust_eh_personality !dbg !1584 {
start:
  %self.dbg.spill.i = alloca ptr, align 8
  %_2.i = alloca %"core::ptr::metadata::PtrComponents<parking_lot_core::parking_lot::ThreadData>", align 8
  %_1.i = alloca %"core::ptr::metadata::PtrRepr<parking_lot_core::parking_lot::ThreadData>", align 8
  %data_pointer.dbg.spill.i = alloca ptr, align 8
  %addr.dbg.spill.i = alloca i64, align 8
  %t.dbg.spill = alloca ptr, align 8
  %handle.dbg.spill = alloca %"core::option::Option<parking_lot_core::thread_parker::imp::UnparkHandle>", align 8
  %token.dbg.spill = alloca i64, align 8
  %next.dbg.spill = alloca ptr, align 8
  %bucket.dbg.spill = alloca ptr, align 8
  %1 = alloca { ptr, i32, [1 x i32] }, align 8
  %key.dbg.spill = alloca i64, align 8
  %_87 = alloca i8, align 1
  %_86 = alloca i8, align 1
  %_78 = alloca %"core::option::Option<(*const parking_lot_core::parking_lot::ThreadData, core::option::Option<parking_lot_core::thread_parker::imp::UnparkHandle>)>", align 8
  %iter1 = alloca %"smallvec::IntoIter<[(*const parking_lot_core::parking_lot::ThreadData, core::option::Option<parking_lot_core::thread_parker::imp::UnparkHandle>); 8]>", align 8
  %_76 = alloca %"smallvec::SmallVec<[(*const parking_lot_core::parking_lot::ThreadData, core::option::Option<parking_lot_core::thread_parker::imp::UnparkHandle>); 8]>", align 8
  %_75 = alloca %"smallvec::IntoIter<[(*const parking_lot_core::parking_lot::ThreadData, core::option::Option<parking_lot_core::thread_parker::imp::UnparkHandle>); 8]>", align 8
  %_74 = alloca %"smallvec::IntoIter<[(*const parking_lot_core::parking_lot::ThreadData, core::option::Option<parking_lot_core::thread_parker::imp::UnparkHandle>); 8]>", align 8
  %_69 = alloca %"core::option::Option<parking_lot_core::thread_parker::imp::UnparkHandle>", align 8
  %_63 = alloca ptr, align 8
  %iter = alloca %"core::slice::iter::IterMut<'_, (*const parking_lot_core::parking_lot::ThreadData, core::option::Option<parking_lot_core::thread_parker::imp::UnparkHandle>)>", align 8
  %_57 = alloca %"parking_lot_core::parking_lot::UnparkResult", align 8
  %_56 = alloca { %"parking_lot_core::parking_lot::UnparkResult" }, align 8
  %_55 = alloca %"{closure@src/raw_rwlock.rs:967:24: 967:32}.0", align 8
  %_38 = alloca %"core::option::Option<parking_lot_core::thread_parker::imp::UnparkHandle>", align 8
  %_36 = alloca { ptr, %"core::option::Option<parking_lot_core::thread_parker::imp::UnparkHandle>" }, align 8
  %_21 = alloca i64, align 8
  %_19 = alloca i8, align 1
  %_16 = alloca i8, align 1
  %result = alloca %"parking_lot_core::parking_lot::UnparkResult", align 8
  %threads = alloca %"smallvec::SmallVec<[(*const parking_lot_core::parking_lot::ThreadData, core::option::Option<parking_lot_core::thread_parker::imp::UnparkHandle>); 8]>", align 8
  %previous = alloca ptr, align 8
  %current = alloca ptr, align 8
  %link = alloca ptr, align 8
  %filter = alloca ptr, align 8
  store ptr %0, ptr %filter, align 8
  store i64 %key, ptr %key.dbg.spill, align 8
  call void @llvm.dbg.declare(metadata ptr %key.dbg.spill, metadata !1600, metadata !DIExpression()), !dbg !1630
  call void @llvm.dbg.declare(metadata ptr %filter, metadata !1601, metadata !DIExpression()), !dbg !1631
  call void @llvm.dbg.declare(metadata ptr %callback, metadata !1602, metadata !DIExpression()), !dbg !1632
  call void @llvm.dbg.declare(metadata ptr %link, metadata !1605, metadata !DIExpression()), !dbg !1633
  call void @llvm.dbg.declare(metadata ptr %current, metadata !1607, metadata !DIExpression()), !dbg !1634
  call void @llvm.dbg.declare(metadata ptr %previous, metadata !1609, metadata !DIExpression()), !dbg !1635
  call void @llvm.dbg.declare(metadata ptr %threads, metadata !1611, metadata !DIExpression()), !dbg !1636
  call void @llvm.dbg.declare(metadata ptr %result, metadata !1613, metadata !DIExpression()), !dbg !1637
  call void @llvm.dbg.declare(metadata ptr %iter, metadata !1619, metadata !DIExpression()), !dbg !1638
  call void @llvm.dbg.declare(metadata ptr %iter1, metadata !1623, metadata !DIExpression()), !dbg !1639
  store i8 0, ptr %_87, align 1, !dbg !1640
  store i8 0, ptr %_86, align 1, !dbg !1640
  store i8 1, ptr %_87, align 1, !dbg !1640
; invoke parking_lot_core::parking_lot::lock_bucket
  %bucket = invoke align 64 ptr @_ZN16parking_lot_core11parking_lot11lock_bucket17he06184efefb13fe4E(i64 %key)
          to label %bb1 unwind label %cleanup, !dbg !1641

bb57:                                             ; preds = %bb54, %bb55, %cleanup
  %2 = load i8, ptr %_87, align 1, !dbg !1642, !range !484, !noundef !16
  %3 = trunc i8 %2 to i1, !dbg !1642
  br i1 %3, label %bb56, label %bb52, !dbg !1642

cleanup:                                          ; preds = %bb3, %bb1, %start
  %4 = landingpad { ptr, i32 }
          cleanup
  %5 = extractvalue { ptr, i32 } %4, 0
  %6 = extractvalue { ptr, i32 } %4, 1
  store ptr %5, ptr %1, align 8
  %7 = getelementptr inbounds i8, ptr %1, i64 8
  store i32 %6, ptr %7, align 8
  br label %bb57

bb1:                                              ; preds = %start
  store ptr %bucket, ptr %bucket.dbg.spill, align 8, !dbg !1641
  call void @llvm.dbg.declare(metadata ptr %bucket.dbg.spill, metadata !1603, metadata !DIExpression()), !dbg !1643
  %8 = getelementptr inbounds i8, ptr %bucket, i64 8, !dbg !1644
  store ptr %8, ptr %link, align 8, !dbg !1644
  %_7 = getelementptr inbounds i8, ptr %bucket, i64 8, !dbg !1645
; invoke core::cell::Cell<T>::get
  %9 = invoke ptr @"_ZN4core4cell13Cell$LT$T$GT$3get17he7b921a81563dd14E"(ptr align 8 %_7)
          to label %bb2 unwind label %cleanup, !dbg !1645

bb2:                                              ; preds = %bb1
  store ptr %9, ptr %current, align 8, !dbg !1645
  store i64 0, ptr %addr.dbg.spill.i, align 8, !dbg !1646
  call void @llvm.dbg.declare(metadata ptr %addr.dbg.spill.i, metadata !997, metadata !DIExpression()), !dbg !1646
  store ptr null, ptr %data_pointer.dbg.spill.i, align 8, !dbg !1649
  call void @llvm.dbg.declare(metadata ptr %data_pointer.dbg.spill.i, metadata !1014, metadata !DIExpression()), !dbg !1649
  call void @llvm.dbg.declare(metadata ptr undef, metadata !1015, metadata !DIExpression()), !dbg !1651
  store ptr null, ptr %_2.i, align 8, !dbg !1652
  call void @llvm.memcpy.p0.p0.i64(ptr align 8 %_1.i, ptr align 8 %_2.i, i64 8, i1 false), !dbg !1653
  %_0.i = load ptr, ptr %_1.i, align 8, !dbg !1653, !noundef !16
  br label %bb3, !dbg !1654

bb3:                                              ; preds = %bb2
  store ptr %_0.i, ptr %previous, align 8, !dbg !1655
; invoke smallvec::SmallVec<A>::new
  invoke void @"_ZN8smallvec17SmallVec$LT$A$GT$3new17h6a29fa57a80ce3ffE"(ptr sret(%"smallvec::SmallVec<[(*const parking_lot_core::parking_lot::ThreadData, core::option::Option<parking_lot_core::thread_parker::imp::UnparkHandle>); 8]>") align 8 %threads)
          to label %bb4 unwind label %cleanup, !dbg !1656

bb4:                                              ; preds = %bb3
  store i8 1, ptr %_86, align 1, !dbg !1657
; invoke <parking_lot_core::parking_lot::UnparkResult as core::default::Default>::default
  invoke void @"_ZN86_$LT$parking_lot_core..parking_lot..UnparkResult$u20$as$u20$core..default..Default$GT$7default17hc79cce5b4711cb11E"(ptr sret(%"parking_lot_core::parking_lot::UnparkResult") align 8 %result)
          to label %bb58 unwind label %cleanup2.loopexit.split-lp.loopexit.split-lp, !dbg !1658

bb55:                                             ; preds = %bb51, %cleanup2
  %10 = load i8, ptr %_86, align 1, !dbg !1659, !range !484, !noundef !16
  %11 = trunc i8 %10 to i1, !dbg !1659
  br i1 %11, label %bb54, label %bb57, !dbg !1659

cleanup2.loopexit:                                ; preds = %bb35, %bb37, %bb39
  %lpad.loopexit = landingpad { ptr, i32 }
          cleanup
  br label %cleanup2

cleanup2.loopexit.split-lp.loopexit:              ; preds = %bb21, %bb19, %bb18, %bb16, %bb15, %bb11, %bb10, %bb9, %bb23, %bb7, %bb5
  %lpad.loopexit4 = landingpad { ptr, i32 }
          cleanup
  br label %cleanup2.loopexit.split-lp

cleanup2.loopexit.split-lp.loopexit.split-lp:     ; preds = %bb47, %bb42, %bb41, %bb38, %bb33, %bb32, %bb31, %bb30, %bb28, %bb25, %bb4
  %lpad.loopexit.split-lp5 = landingpad { ptr, i32 }
          cleanup
  br label %cleanup2.loopexit.split-lp

cleanup2.loopexit.split-lp:                       ; preds = %cleanup2.loopexit.split-lp.loopexit.split-lp, %cleanup2.loopexit.split-lp.loopexit
  %lpad.phi6 = phi { ptr, i32 } [ %lpad.loopexit4, %cleanup2.loopexit.split-lp.loopexit ], [ %lpad.loopexit.split-lp5, %cleanup2.loopexit.split-lp.loopexit.split-lp ]
  br label %cleanup2

cleanup2:                                         ; preds = %cleanup2.loopexit.split-lp, %cleanup2.loopexit
  %lpad.phi = phi { ptr, i32 } [ %lpad.loopexit, %cleanup2.loopexit ], [ %lpad.phi6, %cleanup2.loopexit.split-lp ]
  %12 = extractvalue { ptr, i32 } %lpad.phi, 0
  %13 = extractvalue { ptr, i32 } %lpad.phi, 1
  store ptr %12, ptr %1, align 8
  %14 = getelementptr inbounds i8, ptr %1, i64 8
  store i32 %13, ptr %14, align 8
  br label %bb55

bb58:                                             ; preds = %bb4
  br label %bb5, !dbg !1658

bb5:                                              ; preds = %bb5.backedge, %bb58
  %_12 = load ptr, ptr %current, align 8, !dbg !1660, !noundef !16
; invoke core::ptr::const_ptr::<impl *const T>::is_null
  %_11 = invoke zeroext i1 @"_ZN4core3ptr9const_ptr33_$LT$impl$u20$$BP$const$u20$T$GT$7is_null17hd966cac06b4756c5E"(ptr %_12)
          to label %bb6 unwind label %cleanup2.loopexit.split-lp.loopexit, !dbg !1660

bb6:                                              ; preds = %bb5
  br i1 %_11, label %bb25.loopexit, label %bb7, !dbg !1660

bb7:                                              ; preds = %bb6
  %15 = load ptr, ptr %current, align 8, !dbg !1661, !noundef !16
  %_15 = getelementptr inbounds i8, ptr %15, i64 120, !dbg !1661
  store i8 0, ptr %_16, align 1, !dbg !1662
  %16 = load i8, ptr %_16, align 1, !dbg !1661, !range !1026, !noundef !16
; invoke core::sync::atomic::AtomicUsize::load
  %_14 = invoke i64 @_ZN4core4sync6atomic11AtomicUsize4load17he962fbd1baca4a17E(ptr align 8 %_15, i8 %16)
          to label %bb8 unwind label %cleanup2.loopexit.split-lp.loopexit, !dbg !1661

bb25.loopexit:                                    ; preds = %bb6
  br label %bb25, !dbg !1663

bb25:                                             ; preds = %bb25.loopexit, %bb14
; invoke smallvec::SmallVec<A>::len
  %_47 = invoke i64 @"_ZN8smallvec17SmallVec$LT$A$GT$3len17h9e82e7a2c73f4d26E"(ptr align 8 %threads)
          to label %bb26 unwind label %cleanup2.loopexit.split-lp.loopexit.split-lp, !dbg !1663

bb8:                                              ; preds = %bb7
  %_13 = icmp eq i64 %_14, %key, !dbg !1661
  br i1 %_13, label %bb9, label %bb23, !dbg !1661

bb23:                                             ; preds = %bb8
  %17 = load ptr, ptr %current, align 8, !dbg !1664, !noundef !16
  %_43 = getelementptr inbounds i8, ptr %17, i64 128, !dbg !1664
  store ptr %_43, ptr %link, align 8, !dbg !1665
  %_44 = load ptr, ptr %current, align 8, !dbg !1666, !noundef !16
  store ptr %_44, ptr %previous, align 8, !dbg !1667
  %_46 = load ptr, ptr %link, align 8, !dbg !1668, !nonnull !16, !align !1033, !noundef !16
; invoke core::cell::Cell<T>::get
  %_45 = invoke ptr @"_ZN4core4cell13Cell$LT$T$GT$3get17he7b921a81563dd14E"(ptr align 8 %_46)
          to label %bb24 unwind label %cleanup2.loopexit.split-lp.loopexit, !dbg !1668

bb9:                                              ; preds = %bb8
  %18 = load ptr, ptr %current, align 8, !dbg !1669, !noundef !16
  %_18 = getelementptr inbounds i8, ptr %18, i64 128, !dbg !1669
; invoke core::cell::Cell<T>::get
  %next = invoke ptr @"_ZN4core4cell13Cell$LT$T$GT$3get17he7b921a81563dd14E"(ptr align 8 %_18)
          to label %bb10 unwind label %cleanup2.loopexit.split-lp.loopexit, !dbg !1669

bb24:                                             ; preds = %bb23
  store ptr %_45, ptr %current, align 8, !dbg !1670
  br label %bb5.backedge, !dbg !1671

bb5.backedge:                                     ; preds = %bb24, %bb20, %bb22
  br label %bb5, !dbg !1660

bb10:                                             ; preds = %bb9
  store ptr %next, ptr %next.dbg.spill, align 8, !dbg !1669
  call void @llvm.dbg.declare(metadata ptr %next.dbg.spill, metadata !1615, metadata !DIExpression()), !dbg !1672
  %19 = load ptr, ptr %current, align 8, !dbg !1673, !noundef !16
  %_23 = getelementptr inbounds i8, ptr %19, i64 144, !dbg !1673
; invoke core::cell::Cell<T>::get
  %_22 = invoke i64 @"_ZN4core4cell13Cell$LT$T$GT$3get17h6b481e49d8bdfb7fE"(ptr align 8 %_23)
          to label %bb11 unwind label %cleanup2.loopexit.split-lp.loopexit, !dbg !1673

bb11:                                             ; preds = %bb10
  store i64 %_22, ptr %_21, align 8, !dbg !1674
  %20 = load i64, ptr %_21, align 8, !dbg !1674, !noundef !16
; invoke parking_lot::raw_rwlock::RawRwLock::wake_parked_threads::{{closure}}
  %21 = invoke i8 @"_ZN11parking_lot10raw_rwlock9RawRwLock19wake_parked_threads28_$u7b$$u7b$closure$u7d$$u7d$17ha6c24ef5679706edE"(ptr align 8 %filter, i64 %20)
          to label %bb12 unwind label %cleanup2.loopexit.split-lp.loopexit, !dbg !1674, !range !474

bb12:                                             ; preds = %bb11
  store i8 %21, ptr %_19, align 1, !dbg !1674
  %22 = load i8, ptr %_19, align 1, !dbg !1674, !range !474, !noundef !16
  %_24 = zext i8 %22 to i64, !dbg !1674
  switch i64 %_24, label %bb13 [
    i64 0, label %bb15
    i64 1, label %bb21
    i64 2, label %bb14
  ], !dbg !1675

bb13:                                             ; preds = %bb12
  unreachable, !dbg !1674

bb15:                                             ; preds = %bb12
  %_26 = load ptr, ptr %link, align 8, !dbg !1676, !nonnull !16, !align !1033, !noundef !16
; invoke core::cell::Cell<T>::set
  invoke void @"_ZN4core4cell13Cell$LT$T$GT$3set17h268728bb0395b6cbE"(ptr align 8 %_26, ptr %next)
          to label %bb16 unwind label %cleanup2.loopexit.split-lp.loopexit, !dbg !1676

bb21:                                             ; preds = %bb12
  %23 = getelementptr inbounds i8, ptr %result, i64 16, !dbg !1677
  store i8 1, ptr %23, align 8, !dbg !1677
  %24 = load ptr, ptr %current, align 8, !dbg !1678, !noundef !16
  %_39 = getelementptr inbounds i8, ptr %24, i64 128, !dbg !1678
  store ptr %_39, ptr %link, align 8, !dbg !1679
  %_40 = load ptr, ptr %current, align 8, !dbg !1680, !noundef !16
  store ptr %_40, ptr %previous, align 8, !dbg !1681
  %_42 = load ptr, ptr %link, align 8, !dbg !1682, !nonnull !16, !align !1033, !noundef !16
; invoke core::cell::Cell<T>::get
  %_41 = invoke ptr @"_ZN4core4cell13Cell$LT$T$GT$3get17he7b921a81563dd14E"(ptr align 8 %_42)
          to label %bb22 unwind label %cleanup2.loopexit.split-lp.loopexit, !dbg !1682

bb14:                                             ; preds = %bb12
  %25 = getelementptr inbounds i8, ptr %result, i64 16, !dbg !1683
  store i8 1, ptr %25, align 8, !dbg !1683
  br label %bb25, !dbg !1684

bb16:                                             ; preds = %bb15
  %_29 = getelementptr inbounds i8, ptr %bucket, i64 16, !dbg !1686
; invoke core::cell::Cell<T>::get
  %_28 = invoke ptr @"_ZN4core4cell13Cell$LT$T$GT$3get17he7b921a81563dd14E"(ptr align 8 %_29)
          to label %bb17 unwind label %cleanup2.loopexit.split-lp.loopexit, !dbg !1686

bb17:                                             ; preds = %bb16
  %_30 = load ptr, ptr %current, align 8, !dbg !1687, !noundef !16
  %_27 = icmp eq ptr %_28, %_30, !dbg !1686
  br i1 %_27, label %bb18, label %bb19, !dbg !1686

bb19:                                             ; preds = %bb59, %bb17
  %_37 = load ptr, ptr %current, align 8, !dbg !1688, !noundef !16
  store i64 0, ptr %_38, align 8, !dbg !1689
  store ptr %_37, ptr %_36, align 8, !dbg !1690
  %26 = load i64, ptr %_38, align 8, !dbg !1690, !range !335, !noundef !16
  %27 = getelementptr inbounds i8, ptr %_38, i64 8, !dbg !1690
  %28 = load ptr, ptr %27, align 8, !dbg !1690
  %29 = getelementptr inbounds i8, ptr %_36, i64 8, !dbg !1690
  store i64 %26, ptr %29, align 8, !dbg !1690
  %30 = getelementptr inbounds i8, ptr %29, i64 8, !dbg !1690
  store ptr %28, ptr %30, align 8, !dbg !1690
; invoke smallvec::SmallVec<A>::push
  invoke void @"_ZN8smallvec17SmallVec$LT$A$GT$4push17ha305dd1ca6d9caffE"(ptr align 8 %threads, ptr align 8 %_36)
          to label %bb20 unwind label %cleanup2.loopexit.split-lp.loopexit, !dbg !1691

bb18:                                             ; preds = %bb17
  %_32 = getelementptr inbounds i8, ptr %bucket, i64 16, !dbg !1692
  %_33 = load ptr, ptr %previous, align 8, !dbg !1693, !noundef !16
; invoke core::cell::Cell<T>::set
  invoke void @"_ZN4core4cell13Cell$LT$T$GT$3set17h268728bb0395b6cbE"(ptr align 8 %_32, ptr %_33)
          to label %bb59 unwind label %cleanup2.loopexit.split-lp.loopexit, !dbg !1692

bb59:                                             ; preds = %bb18
  br label %bb19, !dbg !1692

bb20:                                             ; preds = %bb19
  store ptr %next, ptr %current, align 8, !dbg !1694
  br label %bb5.backedge, !dbg !1695

bb22:                                             ; preds = %bb21
  store ptr %_41, ptr %current, align 8, !dbg !1696
  br label %bb5.backedge, !dbg !1697

bb26:                                             ; preds = %bb25
  store i64 %_47, ptr %result, align 8, !dbg !1698
  %_49 = load i64, ptr %result, align 8, !dbg !1699, !noundef !16
  %31 = icmp eq i64 %_49, 0, !dbg !1699
  br i1 %31, label %bb30, label %bb27, !dbg !1699

bb30:                                             ; preds = %bb29, %bb26
  store i8 0, ptr %_87, align 1, !dbg !1700
  call void @llvm.memcpy.p0.p0.i64(ptr align 8 %_55, ptr align 8 %callback, i64 24, i1 false), !dbg !1700
  call void @llvm.memcpy.p0.p0.i64(ptr align 8 %_57, ptr align 8 %result, i64 24, i1 false), !dbg !1701
  call void @llvm.memcpy.p0.p0.i64(ptr align 8 %_56, ptr align 8 %_57, i64 24, i1 false), !dbg !1700
; invoke parking_lot::raw_rwlock::RawRwLock::wake_parked_threads::{{closure}}
  %token = invoke i64 @"_ZN11parking_lot10raw_rwlock9RawRwLock19wake_parked_threads28_$u7b$$u7b$closure$u7d$$u7d$17h9aaf9a3392c2bbceE"(ptr align 8 %_55, ptr align 8 %_56)
          to label %bb31 unwind label %cleanup2.loopexit.split-lp.loopexit.split-lp, !dbg !1700

bb27:                                             ; preds = %bb26
  %_53 = getelementptr inbounds i8, ptr %bucket, i64 24, !dbg !1702
  store ptr %_53, ptr %self.dbg.spill.i, align 8
  call void @llvm.dbg.declare(metadata ptr %self.dbg.spill.i, metadata !1158, metadata !DIExpression()), !dbg !1703
  br label %bb28, !dbg !1705

bb28:                                             ; preds = %bb27
; invoke parking_lot_core::parking_lot::FairTimeout::should_timeout
  %_50 = invoke zeroext i1 @_ZN16parking_lot_core11parking_lot11FairTimeout14should_timeout17hc1fc24ea9eb4d05cE(ptr align 8 %_53)
          to label %bb29 unwind label %cleanup2.loopexit.split-lp.loopexit.split-lp, !dbg !1706

bb29:                                             ; preds = %bb28
  %32 = getelementptr inbounds i8, ptr %result, i64 17, !dbg !1707
  %33 = zext i1 %_50 to i8, !dbg !1707
  store i8 %33, ptr %32, align 1, !dbg !1707
  br label %bb30, !dbg !1708

bb31:                                             ; preds = %bb30
  store i64 %token, ptr %token.dbg.spill, align 8, !dbg !1700
  call void @llvm.dbg.declare(metadata ptr %token.dbg.spill, metadata !1617, metadata !DIExpression()), !dbg !1709
; invoke <smallvec::SmallVec<A> as core::ops::deref::DerefMut>::deref_mut
  %34 = invoke { ptr, i64 } @"_ZN74_$LT$smallvec..SmallVec$LT$A$GT$$u20$as$u20$core..ops..deref..DerefMut$GT$9deref_mut17hcce9cc2e0bd249f0E"(ptr align 8 %threads)
          to label %bb32 unwind label %cleanup2.loopexit.split-lp.loopexit.split-lp, !dbg !1710

bb32:                                             ; preds = %bb31
  %_60.0 = extractvalue { ptr, i64 } %34, 0, !dbg !1710
  %_60.1 = extractvalue { ptr, i64 } %34, 1, !dbg !1710
; invoke core::slice::<impl [T]>::iter_mut
  %35 = invoke { ptr, ptr } @"_ZN4core5slice29_$LT$impl$u20$$u5b$T$u5d$$GT$8iter_mut17hbd11936df1f98a25E"(ptr align 8 %_60.0, i64 %_60.1)
          to label %bb33 unwind label %cleanup2.loopexit.split-lp.loopexit.split-lp, !dbg !1710

bb33:                                             ; preds = %bb32
  %_59.0 = extractvalue { ptr, ptr } %35, 0, !dbg !1710
  %_59.1 = extractvalue { ptr, ptr } %35, 1, !dbg !1710
; invoke <I as core::iter::traits::collect::IntoIterator>::into_iter
  %36 = invoke { ptr, ptr } @"_ZN63_$LT$I$u20$as$u20$core..iter..traits..collect..IntoIterator$GT$9into_iter17hb1c28272e1c7e27aE"(ptr %_59.0, ptr %_59.1)
          to label %bb34 unwind label %cleanup2.loopexit.split-lp.loopexit.split-lp, !dbg !1710

bb34:                                             ; preds = %bb33
  %_58.0 = extractvalue { ptr, ptr } %36, 0, !dbg !1710
  %_58.1 = extractvalue { ptr, ptr } %36, 1, !dbg !1710
  store ptr %_58.0, ptr %iter, align 8, !dbg !1710
  %37 = getelementptr inbounds i8, ptr %iter, i64 8, !dbg !1710
  store ptr %_58.1, ptr %37, align 8, !dbg !1710
  br label %bb35, !dbg !1711

bb35:                                             ; preds = %bb40, %bb34
; invoke <core::slice::iter::IterMut<T> as core::iter::traits::iterator::Iterator>::next
  %38 = invoke align 8 ptr @"_ZN94_$LT$core..slice..iter..IterMut$LT$T$GT$$u20$as$u20$core..iter..traits..iterator..Iterator$GT$4next17haf21b06b989be8a3E"(ptr align 8 %iter)
          to label %bb36 unwind label %cleanup2.loopexit, !dbg !1638

bb36:                                             ; preds = %bb35
  store ptr %38, ptr %_63, align 8, !dbg !1638
  %39 = load ptr, ptr %_63, align 8, !dbg !1638, !noundef !16
  %40 = ptrtoint ptr %39 to i64, !dbg !1638
  %41 = icmp eq i64 %40, 0, !dbg !1638
  %_65 = select i1 %41, i64 0, i64 1, !dbg !1638
  %42 = icmp eq i64 %_65, 0, !dbg !1638
  br i1 %42, label %bb38, label %bb37, !dbg !1638

bb38:                                             ; preds = %bb36
; invoke parking_lot_core::word_lock::WordLock::unlock
  invoke void @_ZN16parking_lot_core9word_lock8WordLock6unlock17h14f0196effeef5f9E(ptr align 8 %bucket)
          to label %bb41 unwind label %cleanup2.loopexit.split-lp.loopexit.split-lp, !dbg !1712

bb37:                                             ; preds = %bb36
  %t = load ptr, ptr %_63, align 8, !dbg !1713, !nonnull !16, !align !1033, !noundef !16
  store ptr %t, ptr %t.dbg.spill, align 8, !dbg !1713
  call void @llvm.dbg.declare(metadata ptr %t.dbg.spill, metadata !1621, metadata !DIExpression()), !dbg !1714
  %_84 = load ptr, ptr %t, align 8, !dbg !1715, !noundef !16
  %_68 = getelementptr inbounds i8, ptr %_84, i64 136, !dbg !1715
; invoke core::cell::Cell<T>::set
  invoke void @"_ZN4core4cell13Cell$LT$T$GT$3set17hcc85a015c5c1b1f2E"(ptr align 8 %_68, i64 %token)
          to label %bb39 unwind label %cleanup2.loopexit, !dbg !1715

bb41:                                             ; preds = %bb38
  store i8 0, ptr %_86, align 1, !dbg !1716
  call void @llvm.memcpy.p0.p0.i64(ptr align 8 %_76, ptr align 8 %threads, i64 208, i1 false), !dbg !1716
; invoke <smallvec::SmallVec<A> as core::iter::traits::collect::IntoIterator>::into_iter
  invoke void @"_ZN89_$LT$smallvec..SmallVec$LT$A$GT$$u20$as$u20$core..iter..traits..collect..IntoIterator$GT$9into_iter17h385725497e268b76E"(ptr sret(%"smallvec::IntoIter<[(*const parking_lot_core::parking_lot::ThreadData, core::option::Option<parking_lot_core::thread_parker::imp::UnparkHandle>); 8]>") align 8 %_75, ptr align 8 %_76)
          to label %bb42 unwind label %cleanup2.loopexit.split-lp.loopexit.split-lp, !dbg !1716

bb42:                                             ; preds = %bb41
; invoke <I as core::iter::traits::collect::IntoIterator>::into_iter
  invoke void @"_ZN63_$LT$I$u20$as$u20$core..iter..traits..collect..IntoIterator$GT$9into_iter17h03e2c82a843faaa9E"(ptr sret(%"smallvec::IntoIter<[(*const parking_lot_core::parking_lot::ThreadData, core::option::Option<parking_lot_core::thread_parker::imp::UnparkHandle>); 8]>") align 8 %_74, ptr align 8 %_75)
          to label %bb43 unwind label %cleanup2.loopexit.split-lp.loopexit.split-lp, !dbg !1716

bb43:                                             ; preds = %bb42
  call void @llvm.memcpy.p0.p0.i64(ptr align 8 %iter1, ptr align 8 %_74, i64 224, i1 false), !dbg !1716
  br label %bb44, !dbg !1717

bb44:                                             ; preds = %bb60, %bb43
; invoke <smallvec::IntoIter<A> as core::iter::traits::iterator::Iterator>::next
  invoke void @"_ZN86_$LT$smallvec..IntoIter$LT$A$GT$$u20$as$u20$core..iter..traits..iterator..Iterator$GT$4next17he21285311c57124dE"(ptr sret(%"core::option::Option<(*const parking_lot_core::parking_lot::ThreadData, core::option::Option<parking_lot_core::thread_parker::imp::UnparkHandle>)>") align 8 %_78, ptr align 8 %iter1)
          to label %bb45 unwind label %cleanup3, !dbg !1639

bb51:                                             ; preds = %cleanup3
; invoke core::ptr::drop_in_place<smallvec::IntoIter<[(*const parking_lot_core::parking_lot::ThreadData,core::option::Option<parking_lot_core::thread_parker::imp::UnparkHandle>); 8]>>
  invoke void @"_ZN4core3ptr212drop_in_place$LT$smallvec..IntoIter$LT$$u5b$$LP$$BP$const$u20$parking_lot_core..parking_lot..ThreadData$C$core..option..Option$LT$parking_lot_core..thread_parker..imp..UnparkHandle$GT$$RP$$u3b$$u20$8$u5d$$GT$$GT$17h156e1e79658b0fe8E"(ptr align 8 %iter1) #20
          to label %bb55 unwind label %terminate, !dbg !1718

cleanup3:                                         ; preds = %bb48, %bb46, %bb44
  %43 = landingpad { ptr, i32 }
          cleanup
  %44 = extractvalue { ptr, i32 } %43, 0
  %45 = extractvalue { ptr, i32 } %43, 1
  store ptr %44, ptr %1, align 8
  %46 = getelementptr inbounds i8, ptr %1, i64 8
  store i32 %45, ptr %46, align 8
  br label %bb51

bb45:                                             ; preds = %bb44
  %47 = getelementptr inbounds i8, ptr %_78, i64 8, !dbg !1639
  %48 = load i64, ptr %47, align 8, !dbg !1639, !range !841, !noundef !16
  %49 = icmp eq i64 %48, 2, !dbg !1639
  %_80 = select i1 %49, i64 0, i64 1, !dbg !1639
  %50 = icmp eq i64 %_80, 0, !dbg !1639
  br i1 %50, label %bb47, label %bb46, !dbg !1639

bb47:                                             ; preds = %bb45
; invoke core::ptr::drop_in_place<smallvec::IntoIter<[(*const parking_lot_core::parking_lot::ThreadData,core::option::Option<parking_lot_core::thread_parker::imp::UnparkHandle>); 8]>>
  invoke void @"_ZN4core3ptr212drop_in_place$LT$smallvec..IntoIter$LT$$u5b$$LP$$BP$const$u20$parking_lot_core..parking_lot..ThreadData$C$core..option..Option$LT$parking_lot_core..thread_parker..imp..UnparkHandle$GT$$RP$$u3b$$u20$8$u5d$$GT$$GT$17h156e1e79658b0fe8E"(ptr align 8 %iter1)
          to label %bb49 unwind label %cleanup2.loopexit.split-lp.loopexit.split-lp, !dbg !1718

bb46:                                             ; preds = %bb45
  %51 = getelementptr inbounds i8, ptr %_78, i64 8, !dbg !1719
  %handle.0 = load i64, ptr %51, align 8, !dbg !1719, !range !335, !noundef !16
  %52 = getelementptr inbounds i8, ptr %51, i64 8, !dbg !1719
  %handle.1 = load ptr, ptr %52, align 8, !dbg !1719
  store i64 %handle.0, ptr %handle.dbg.spill, align 8, !dbg !1719
  %53 = getelementptr inbounds i8, ptr %handle.dbg.spill, i64 8, !dbg !1719
  store ptr %handle.1, ptr %53, align 8, !dbg !1719
  call void @llvm.dbg.declare(metadata ptr %handle.dbg.spill, metadata !1625, metadata !DIExpression()), !dbg !1720
; invoke <core::option::Option<T> as parking_lot_core::util::UncheckedOptionExt<T>>::unchecked_unwrap
  %_83 = invoke ptr @"_ZN101_$LT$core..option..Option$LT$T$GT$$u20$as$u20$parking_lot_core..util..UncheckedOptionExt$LT$T$GT$$GT$16unchecked_unwrap17hf4fa0fe7c54c87d4E"(i64 %handle.0, ptr %handle.1)
          to label %bb48 unwind label %cleanup3, !dbg !1721

bb49:                                             ; preds = %bb47
  call void @llvm.memcpy.p0.p0.i64(ptr align 8 %_0, ptr align 8 %result, i64 24, i1 false), !dbg !1722
  store i8 0, ptr %_86, align 1, !dbg !1659
  ret void, !dbg !1723

bb48:                                             ; preds = %bb46
; invoke <parking_lot_core::thread_parker::imp::UnparkHandle as parking_lot_core::thread_parker::UnparkHandleT>::unpark
  invoke void @"_ZN117_$LT$parking_lot_core..thread_parker..imp..UnparkHandle$u20$as$u20$parking_lot_core..thread_parker..UnparkHandleT$GT$6unpark17ha69b71b87ae1f833E"(ptr %_83)
          to label %bb60 unwind label %cleanup3, !dbg !1721

bb60:                                             ; preds = %bb48
  br label %bb44, !dbg !1721

terminate:                                        ; preds = %bb54, %bb51
  %54 = landingpad { ptr, i32 }
          filter [0 x ptr] zeroinitializer
  %55 = extractvalue { ptr, i32 } %54, 0
  %56 = extractvalue { ptr, i32 } %54, 1
; call core::panicking::panic_in_cleanup
  call void @_ZN4core9panicking16panic_in_cleanup17hb45215b029b98411E() #21, !dbg !1724
  unreachable, !dbg !1724

bb39:                                             ; preds = %bb37
  %_85 = load ptr, ptr %t, align 8, !dbg !1725, !noundef !16
; invoke <parking_lot_core::thread_parker::imp::ThreadParker as parking_lot_core::thread_parker::ThreadParkerT>::unpark_lock
  %_70 = invoke ptr @"_ZN117_$LT$parking_lot_core..thread_parker..imp..ThreadParker$u20$as$u20$parking_lot_core..thread_parker..ThreadParkerT$GT$11unpark_lock17ha287d5f135ea9f20E"(ptr align 8 %_85)
          to label %bb40 unwind label %cleanup2.loopexit, !dbg !1725

bb40:                                             ; preds = %bb39
  %57 = getelementptr inbounds i8, ptr %_69, i64 8, !dbg !1726
  store ptr %_70, ptr %57, align 8, !dbg !1726
  store i64 1, ptr %_69, align 8, !dbg !1726
  %58 = getelementptr inbounds i8, ptr %t, i64 8, !dbg !1727
  %59 = load i64, ptr %_69, align 8, !dbg !1727, !range !335, !noundef !16
  %60 = getelementptr inbounds i8, ptr %_69, i64 8, !dbg !1727
  %61 = load ptr, ptr %60, align 8, !dbg !1727
  store i64 %59, ptr %58, align 8, !dbg !1727
  %62 = getelementptr inbounds i8, ptr %58, i64 8, !dbg !1727
  store ptr %61, ptr %62, align 8, !dbg !1727
  br label %bb35, !dbg !1711

bb54:                                             ; preds = %bb55
; invoke core::ptr::drop_in_place<smallvec::SmallVec<[(*const parking_lot_core::parking_lot::ThreadData,core::option::Option<parking_lot_core::thread_parker::imp::UnparkHandle>); 8]>>
  invoke void @"_ZN4core3ptr212drop_in_place$LT$smallvec..SmallVec$LT$$u5b$$LP$$BP$const$u20$parking_lot_core..parking_lot..ThreadData$C$core..option..Option$LT$parking_lot_core..thread_parker..imp..UnparkHandle$GT$$RP$$u3b$$u20$8$u5d$$GT$$GT$17h10547d6c977d2c45E"(ptr align 8 %threads) #20
          to label %bb57 unwind label %terminate, !dbg !1659

bb52:                                             ; preds = %bb56, %bb57
  %63 = load ptr, ptr %1, align 8, !dbg !1724, !noundef !16
  %64 = getelementptr inbounds i8, ptr %1, i64 8, !dbg !1724
  %65 = load i32, ptr %64, align 8, !dbg !1724, !noundef !16
  %66 = insertvalue { ptr, i32 } poison, ptr %63, 0, !dbg !1724
  %67 = insertvalue { ptr, i32 } %66, i32 %65, 1, !dbg !1724
  resume { ptr, i32 } %67, !dbg !1724

bb56:                                             ; preds = %bb57
  br label %bb52, !dbg !1642
}

; parking_lot_core::parking_lot::unpark_filter
; Function Attrs: inlinehint uwtable
define void @_ZN16parking_lot_core11parking_lot13unpark_filter17hadd5977369c5a95eE(ptr sret(%"parking_lot_core::parking_lot::UnparkResult") align 8 %_0, i64 %key, ptr align 8 %0, ptr align 8 %callback.0, ptr align 8 %callback.1) unnamed_addr #0 personality ptr @rust_eh_personality !dbg !1728 {
start:
  %self.dbg.spill.i = alloca ptr, align 8
  %_2.i = alloca %"core::ptr::metadata::PtrComponents<parking_lot_core::parking_lot::ThreadData>", align 8
  %_1.i = alloca %"core::ptr::metadata::PtrRepr<parking_lot_core::parking_lot::ThreadData>", align 8
  %data_pointer.dbg.spill.i = alloca ptr, align 8
  %addr.dbg.spill.i = alloca i64, align 8
  %t.dbg.spill = alloca ptr, align 8
  %handle.dbg.spill = alloca %"core::option::Option<parking_lot_core::thread_parker::imp::UnparkHandle>", align 8
  %token.dbg.spill = alloca i64, align 8
  %next.dbg.spill = alloca ptr, align 8
  %bucket.dbg.spill = alloca ptr, align 8
  %1 = alloca { ptr, i32, [1 x i32] }, align 8
  %callback.dbg.spill = alloca %"{closure@src/raw_rwlock.rs:967:24: 967:32}.1", align 8
  %key.dbg.spill = alloca i64, align 8
  %_87 = alloca i8, align 1
  %_86 = alloca i8, align 1
  %_78 = alloca %"core::option::Option<(*const parking_lot_core::parking_lot::ThreadData, core::option::Option<parking_lot_core::thread_parker::imp::UnparkHandle>)>", align 8
  %iter1 = alloca %"smallvec::IntoIter<[(*const parking_lot_core::parking_lot::ThreadData, core::option::Option<parking_lot_core::thread_parker::imp::UnparkHandle>); 8]>", align 8
  %_76 = alloca %"smallvec::SmallVec<[(*const parking_lot_core::parking_lot::ThreadData, core::option::Option<parking_lot_core::thread_parker::imp::UnparkHandle>); 8]>", align 8
  %_75 = alloca %"smallvec::IntoIter<[(*const parking_lot_core::parking_lot::ThreadData, core::option::Option<parking_lot_core::thread_parker::imp::UnparkHandle>); 8]>", align 8
  %_74 = alloca %"smallvec::IntoIter<[(*const parking_lot_core::parking_lot::ThreadData, core::option::Option<parking_lot_core::thread_parker::imp::UnparkHandle>); 8]>", align 8
  %_69 = alloca %"core::option::Option<parking_lot_core::thread_parker::imp::UnparkHandle>", align 8
  %_63 = alloca ptr, align 8
  %iter = alloca %"core::slice::iter::IterMut<'_, (*const parking_lot_core::parking_lot::ThreadData, core::option::Option<parking_lot_core::thread_parker::imp::UnparkHandle>)>", align 8
  %_57 = alloca %"parking_lot_core::parking_lot::UnparkResult", align 8
  %_56 = alloca { %"parking_lot_core::parking_lot::UnparkResult" }, align 8
  %_38 = alloca %"core::option::Option<parking_lot_core::thread_parker::imp::UnparkHandle>", align 8
  %_36 = alloca { ptr, %"core::option::Option<parking_lot_core::thread_parker::imp::UnparkHandle>" }, align 8
  %_21 = alloca i64, align 8
  %_19 = alloca i8, align 1
  %_16 = alloca i8, align 1
  %result = alloca %"parking_lot_core::parking_lot::UnparkResult", align 8
  %threads = alloca %"smallvec::SmallVec<[(*const parking_lot_core::parking_lot::ThreadData, core::option::Option<parking_lot_core::thread_parker::imp::UnparkHandle>); 8]>", align 8
  %previous = alloca ptr, align 8
  %current = alloca ptr, align 8
  %link = alloca ptr, align 8
  %filter = alloca ptr, align 8
  store ptr %0, ptr %filter, align 8
  store i64 %key, ptr %key.dbg.spill, align 8
  call void @llvm.dbg.declare(metadata ptr %key.dbg.spill, metadata !1743, metadata !DIExpression()), !dbg !1773
  call void @llvm.dbg.declare(metadata ptr %filter, metadata !1744, metadata !DIExpression()), !dbg !1774
  store ptr %callback.0, ptr %callback.dbg.spill, align 8
  %2 = getelementptr inbounds i8, ptr %callback.dbg.spill, i64 8
  store ptr %callback.1, ptr %2, align 8
  call void @llvm.dbg.declare(metadata ptr %callback.dbg.spill, metadata !1745, metadata !DIExpression()), !dbg !1775
  call void @llvm.dbg.declare(metadata ptr %link, metadata !1748, metadata !DIExpression()), !dbg !1776
  call void @llvm.dbg.declare(metadata ptr %current, metadata !1750, metadata !DIExpression()), !dbg !1777
  call void @llvm.dbg.declare(metadata ptr %previous, metadata !1752, metadata !DIExpression()), !dbg !1778
  call void @llvm.dbg.declare(metadata ptr %threads, metadata !1754, metadata !DIExpression()), !dbg !1779
  call void @llvm.dbg.declare(metadata ptr %result, metadata !1756, metadata !DIExpression()), !dbg !1780
  call void @llvm.dbg.declare(metadata ptr %iter, metadata !1762, metadata !DIExpression()), !dbg !1781
  call void @llvm.dbg.declare(metadata ptr %iter1, metadata !1766, metadata !DIExpression()), !dbg !1782
  store i8 0, ptr %_87, align 1, !dbg !1783
  store i8 0, ptr %_86, align 1, !dbg !1783
  store i8 1, ptr %_87, align 1, !dbg !1783
; invoke parking_lot_core::parking_lot::lock_bucket
  %bucket = invoke align 64 ptr @_ZN16parking_lot_core11parking_lot11lock_bucket17he06184efefb13fe4E(i64 %key)
          to label %bb1 unwind label %cleanup, !dbg !1784

bb57:                                             ; preds = %bb54, %bb55, %cleanup
  %3 = load i8, ptr %_87, align 1, !dbg !1785, !range !484, !noundef !16
  %4 = trunc i8 %3 to i1, !dbg !1785
  br i1 %4, label %bb56, label %bb52, !dbg !1785

cleanup:                                          ; preds = %bb3, %bb1, %start
  %5 = landingpad { ptr, i32 }
          cleanup
  %6 = extractvalue { ptr, i32 } %5, 0
  %7 = extractvalue { ptr, i32 } %5, 1
  store ptr %6, ptr %1, align 8
  %8 = getelementptr inbounds i8, ptr %1, i64 8
  store i32 %7, ptr %8, align 8
  br label %bb57

bb1:                                              ; preds = %start
  store ptr %bucket, ptr %bucket.dbg.spill, align 8, !dbg !1784
  call void @llvm.dbg.declare(metadata ptr %bucket.dbg.spill, metadata !1746, metadata !DIExpression()), !dbg !1786
  %9 = getelementptr inbounds i8, ptr %bucket, i64 8, !dbg !1787
  store ptr %9, ptr %link, align 8, !dbg !1787
  %_7 = getelementptr inbounds i8, ptr %bucket, i64 8, !dbg !1788
; invoke core::cell::Cell<T>::get
  %10 = invoke ptr @"_ZN4core4cell13Cell$LT$T$GT$3get17he7b921a81563dd14E"(ptr align 8 %_7)
          to label %bb2 unwind label %cleanup, !dbg !1788

bb2:                                              ; preds = %bb1
  store ptr %10, ptr %current, align 8, !dbg !1788
  store i64 0, ptr %addr.dbg.spill.i, align 8, !dbg !1789
  call void @llvm.dbg.declare(metadata ptr %addr.dbg.spill.i, metadata !997, metadata !DIExpression()), !dbg !1789
  store ptr null, ptr %data_pointer.dbg.spill.i, align 8, !dbg !1792
  call void @llvm.dbg.declare(metadata ptr %data_pointer.dbg.spill.i, metadata !1014, metadata !DIExpression()), !dbg !1792
  call void @llvm.dbg.declare(metadata ptr undef, metadata !1015, metadata !DIExpression()), !dbg !1794
  store ptr null, ptr %_2.i, align 8, !dbg !1795
  call void @llvm.memcpy.p0.p0.i64(ptr align 8 %_1.i, ptr align 8 %_2.i, i64 8, i1 false), !dbg !1796
  %_0.i = load ptr, ptr %_1.i, align 8, !dbg !1796, !noundef !16
  br label %bb3, !dbg !1797

bb3:                                              ; preds = %bb2
  store ptr %_0.i, ptr %previous, align 8, !dbg !1798
; invoke smallvec::SmallVec<A>::new
  invoke void @"_ZN8smallvec17SmallVec$LT$A$GT$3new17h6a29fa57a80ce3ffE"(ptr sret(%"smallvec::SmallVec<[(*const parking_lot_core::parking_lot::ThreadData, core::option::Option<parking_lot_core::thread_parker::imp::UnparkHandle>); 8]>") align 8 %threads)
          to label %bb4 unwind label %cleanup, !dbg !1799

bb4:                                              ; preds = %bb3
  store i8 1, ptr %_86, align 1, !dbg !1800
; invoke <parking_lot_core::parking_lot::UnparkResult as core::default::Default>::default
  invoke void @"_ZN86_$LT$parking_lot_core..parking_lot..UnparkResult$u20$as$u20$core..default..Default$GT$7default17hc79cce5b4711cb11E"(ptr sret(%"parking_lot_core::parking_lot::UnparkResult") align 8 %result)
          to label %bb58 unwind label %cleanup2.loopexit.split-lp.loopexit.split-lp, !dbg !1801

bb55:                                             ; preds = %bb51, %cleanup2
  %11 = load i8, ptr %_86, align 1, !dbg !1802, !range !484, !noundef !16
  %12 = trunc i8 %11 to i1, !dbg !1802
  br i1 %12, label %bb54, label %bb57, !dbg !1802

cleanup2.loopexit:                                ; preds = %bb35, %bb37, %bb39
  %lpad.loopexit = landingpad { ptr, i32 }
          cleanup
  br label %cleanup2

cleanup2.loopexit.split-lp.loopexit:              ; preds = %bb21, %bb19, %bb18, %bb16, %bb15, %bb11, %bb10, %bb9, %bb23, %bb7, %bb5
  %lpad.loopexit4 = landingpad { ptr, i32 }
          cleanup
  br label %cleanup2.loopexit.split-lp

cleanup2.loopexit.split-lp.loopexit.split-lp:     ; preds = %bb47, %bb42, %bb41, %bb38, %bb33, %bb32, %bb31, %bb30, %bb28, %bb25, %bb4
  %lpad.loopexit.split-lp5 = landingpad { ptr, i32 }
          cleanup
  br label %cleanup2.loopexit.split-lp

cleanup2.loopexit.split-lp:                       ; preds = %cleanup2.loopexit.split-lp.loopexit.split-lp, %cleanup2.loopexit.split-lp.loopexit
  %lpad.phi6 = phi { ptr, i32 } [ %lpad.loopexit4, %cleanup2.loopexit.split-lp.loopexit ], [ %lpad.loopexit.split-lp5, %cleanup2.loopexit.split-lp.loopexit.split-lp ]
  br label %cleanup2

cleanup2:                                         ; preds = %cleanup2.loopexit.split-lp, %cleanup2.loopexit
  %lpad.phi = phi { ptr, i32 } [ %lpad.loopexit, %cleanup2.loopexit ], [ %lpad.phi6, %cleanup2.loopexit.split-lp ]
  %13 = extractvalue { ptr, i32 } %lpad.phi, 0
  %14 = extractvalue { ptr, i32 } %lpad.phi, 1
  store ptr %13, ptr %1, align 8
  %15 = getelementptr inbounds i8, ptr %1, i64 8
  store i32 %14, ptr %15, align 8
  br label %bb55

bb58:                                             ; preds = %bb4
  br label %bb5, !dbg !1801

bb5:                                              ; preds = %bb5.backedge, %bb58
  %_12 = load ptr, ptr %current, align 8, !dbg !1803, !noundef !16
; invoke core::ptr::const_ptr::<impl *const T>::is_null
  %_11 = invoke zeroext i1 @"_ZN4core3ptr9const_ptr33_$LT$impl$u20$$BP$const$u20$T$GT$7is_null17hd966cac06b4756c5E"(ptr %_12)
          to label %bb6 unwind label %cleanup2.loopexit.split-lp.loopexit, !dbg !1803

bb6:                                              ; preds = %bb5
  br i1 %_11, label %bb25.loopexit, label %bb7, !dbg !1803

bb7:                                              ; preds = %bb6
  %16 = load ptr, ptr %current, align 8, !dbg !1804, !noundef !16
  %_15 = getelementptr inbounds i8, ptr %16, i64 120, !dbg !1804
  store i8 0, ptr %_16, align 1, !dbg !1805
  %17 = load i8, ptr %_16, align 1, !dbg !1804, !range !1026, !noundef !16
; invoke core::sync::atomic::AtomicUsize::load
  %_14 = invoke i64 @_ZN4core4sync6atomic11AtomicUsize4load17he962fbd1baca4a17E(ptr align 8 %_15, i8 %17)
          to label %bb8 unwind label %cleanup2.loopexit.split-lp.loopexit, !dbg !1804

bb25.loopexit:                                    ; preds = %bb6
  br label %bb25, !dbg !1806

bb25:                                             ; preds = %bb25.loopexit, %bb14
; invoke smallvec::SmallVec<A>::len
  %_47 = invoke i64 @"_ZN8smallvec17SmallVec$LT$A$GT$3len17h9e82e7a2c73f4d26E"(ptr align 8 %threads)
          to label %bb26 unwind label %cleanup2.loopexit.split-lp.loopexit.split-lp, !dbg !1806

bb8:                                              ; preds = %bb7
  %_13 = icmp eq i64 %_14, %key, !dbg !1804
  br i1 %_13, label %bb9, label %bb23, !dbg !1804

bb23:                                             ; preds = %bb8
  %18 = load ptr, ptr %current, align 8, !dbg !1807, !noundef !16
  %_43 = getelementptr inbounds i8, ptr %18, i64 128, !dbg !1807
  store ptr %_43, ptr %link, align 8, !dbg !1808
  %_44 = load ptr, ptr %current, align 8, !dbg !1809, !noundef !16
  store ptr %_44, ptr %previous, align 8, !dbg !1810
  %_46 = load ptr, ptr %link, align 8, !dbg !1811, !nonnull !16, !align !1033, !noundef !16
; invoke core::cell::Cell<T>::get
  %_45 = invoke ptr @"_ZN4core4cell13Cell$LT$T$GT$3get17he7b921a81563dd14E"(ptr align 8 %_46)
          to label %bb24 unwind label %cleanup2.loopexit.split-lp.loopexit, !dbg !1811

bb9:                                              ; preds = %bb8
  %19 = load ptr, ptr %current, align 8, !dbg !1812, !noundef !16
  %_18 = getelementptr inbounds i8, ptr %19, i64 128, !dbg !1812
; invoke core::cell::Cell<T>::get
  %next = invoke ptr @"_ZN4core4cell13Cell$LT$T$GT$3get17he7b921a81563dd14E"(ptr align 8 %_18)
          to label %bb10 unwind label %cleanup2.loopexit.split-lp.loopexit, !dbg !1812

bb24:                                             ; preds = %bb23
  store ptr %_45, ptr %current, align 8, !dbg !1813
  br label %bb5.backedge, !dbg !1814

bb5.backedge:                                     ; preds = %bb24, %bb20, %bb22
  br label %bb5, !dbg !1803

bb10:                                             ; preds = %bb9
  store ptr %next, ptr %next.dbg.spill, align 8, !dbg !1812
  call void @llvm.dbg.declare(metadata ptr %next.dbg.spill, metadata !1758, metadata !DIExpression()), !dbg !1815
  %20 = load ptr, ptr %current, align 8, !dbg !1816, !noundef !16
  %_23 = getelementptr inbounds i8, ptr %20, i64 144, !dbg !1816
; invoke core::cell::Cell<T>::get
  %_22 = invoke i64 @"_ZN4core4cell13Cell$LT$T$GT$3get17h6b481e49d8bdfb7fE"(ptr align 8 %_23)
          to label %bb11 unwind label %cleanup2.loopexit.split-lp.loopexit, !dbg !1816

bb11:                                             ; preds = %bb10
  store i64 %_22, ptr %_21, align 8, !dbg !1817
  %21 = load i64, ptr %_21, align 8, !dbg !1817, !noundef !16
; invoke parking_lot::raw_rwlock::RawRwLock::wake_parked_threads::{{closure}}
  %22 = invoke i8 @"_ZN11parking_lot10raw_rwlock9RawRwLock19wake_parked_threads28_$u7b$$u7b$closure$u7d$$u7d$17ha637eb7304573c4eE"(ptr align 8 %filter, i64 %21)
          to label %bb12 unwind label %cleanup2.loopexit.split-lp.loopexit, !dbg !1817, !range !474

bb12:                                             ; preds = %bb11
  store i8 %22, ptr %_19, align 1, !dbg !1817
  %23 = load i8, ptr %_19, align 1, !dbg !1817, !range !474, !noundef !16
  %_24 = zext i8 %23 to i64, !dbg !1817
  switch i64 %_24, label %bb13 [
    i64 0, label %bb15
    i64 1, label %bb21
    i64 2, label %bb14
  ], !dbg !1818

bb13:                                             ; preds = %bb12
  unreachable, !dbg !1817

bb15:                                             ; preds = %bb12
  %_26 = load ptr, ptr %link, align 8, !dbg !1819, !nonnull !16, !align !1033, !noundef !16
; invoke core::cell::Cell<T>::set
  invoke void @"_ZN4core4cell13Cell$LT$T$GT$3set17h268728bb0395b6cbE"(ptr align 8 %_26, ptr %next)
          to label %bb16 unwind label %cleanup2.loopexit.split-lp.loopexit, !dbg !1819

bb21:                                             ; preds = %bb12
  %24 = getelementptr inbounds i8, ptr %result, i64 16, !dbg !1820
  store i8 1, ptr %24, align 8, !dbg !1820
  %25 = load ptr, ptr %current, align 8, !dbg !1821, !noundef !16
  %_39 = getelementptr inbounds i8, ptr %25, i64 128, !dbg !1821
  store ptr %_39, ptr %link, align 8, !dbg !1822
  %_40 = load ptr, ptr %current, align 8, !dbg !1823, !noundef !16
  store ptr %_40, ptr %previous, align 8, !dbg !1824
  %_42 = load ptr, ptr %link, align 8, !dbg !1825, !nonnull !16, !align !1033, !noundef !16
; invoke core::cell::Cell<T>::get
  %_41 = invoke ptr @"_ZN4core4cell13Cell$LT$T$GT$3get17he7b921a81563dd14E"(ptr align 8 %_42)
          to label %bb22 unwind label %cleanup2.loopexit.split-lp.loopexit, !dbg !1825

bb14:                                             ; preds = %bb12
  %26 = getelementptr inbounds i8, ptr %result, i64 16, !dbg !1826
  store i8 1, ptr %26, align 8, !dbg !1826
  br label %bb25, !dbg !1827

bb16:                                             ; preds = %bb15
  %_29 = getelementptr inbounds i8, ptr %bucket, i64 16, !dbg !1829
; invoke core::cell::Cell<T>::get
  %_28 = invoke ptr @"_ZN4core4cell13Cell$LT$T$GT$3get17he7b921a81563dd14E"(ptr align 8 %_29)
          to label %bb17 unwind label %cleanup2.loopexit.split-lp.loopexit, !dbg !1829

bb17:                                             ; preds = %bb16
  %_30 = load ptr, ptr %current, align 8, !dbg !1830, !noundef !16
  %_27 = icmp eq ptr %_28, %_30, !dbg !1829
  br i1 %_27, label %bb18, label %bb19, !dbg !1829

bb19:                                             ; preds = %bb59, %bb17
  %_37 = load ptr, ptr %current, align 8, !dbg !1831, !noundef !16
