; ModuleID = '12xa34wcmc7wj7gn'
source_filename = "12xa34wcmc7wj7gn"
target datalayout = "e-m:o-i64:64-i128:128-n32:64-S128"
target triple = "arm64-apple-macosx11.0.0"

%"{closure@core::iter::adapters::map::map_fold<proc_macro2::TokenTree, proc_macro2::TokenTree, (), {closure@src/runtime.rs:277:22: 277:29}, {closure@core::iter::traits::iterator::Iterator::for_each::call<proc_macro2::TokenTree, {closure@<proc_macro2::fallback::TokenStream as core::iter::traits::collect::Extend<proc_macro2::TokenTree>>::extend<core::iter::adapters::map::Map<proc_macro2::token_stream::IntoIter, {closure@src/runtime.rs:277:22: 277:29}>>::{closure#0}}>::{closure#0}}>::{closure#0}}" = type { ptr, ptr }
%"proc_macro2::token_stream::IntoIter" = type { %"proc_macro2::imp::TokenTreeIter", %"proc_macro2::marker::ProcMacroAutoTraits" }
%"proc_macro2::imp::TokenTreeIter" = type { i64, [4 x i64] }
%"proc_macro2::marker::ProcMacroAutoTraits" = type { %"core::marker::PhantomData<alloc::rc::Rc<()>>" }
%"core::marker::PhantomData<alloc::rc::Rc<()>>" = type {}
%"{closure@<proc_macro2::TokenStream as core::iter::traits::collect::Extend<proc_macro2::TokenStream>>::extend<core::iter::sources::once::Once<proc_macro2::TokenStream>>::{closure#0}}" = type {}
%"core::iter::sources::once::Once<proc_macro2::TokenStream>" = type { %"core::option::IntoIter<proc_macro2::TokenStream>" }
%"core::option::IntoIter<proc_macro2::TokenStream>" = type { %"core::option::Item<proc_macro2::TokenStream>" }
%"core::option::Item<proc_macro2::TokenStream>" = type { %"core::option::Option<proc_macro2::TokenStream>" }
%"core::option::Option<proc_macro2::TokenStream>" = type { i64, [3 x i64] }
%"{closure@src/spanned.rs:29:43: 29:47}" = type {}
%"{closure@src/spanned.rs:36:21: 36:34}" = type {}
%"core::option::Option<proc_macro2::Span>" = type { i32, [1 x i32] }
%"core::iter::adapters::map::Map<proc_macro2::token_stream::IntoIter, {closure@src/runtime.rs:277:22: 277:29}>" = type { %"proc_macro2::token_stream::IntoIter", ptr }
%"{closure@core::iter::adapters::map::map_fold<proc_macro2::TokenTree, proc_macro2::TokenTree, (), {closure@src/runtime.rs:277:22: 277:29}, {closure@core::iter::adapters::map::map_fold<proc_macro2::TokenTree, proc_macro::TokenTree, (), fn(proc_macro2::TokenTree) -> proc_macro::TokenTree {proc_macro2::imp::into_compiler_token}, {closure@core::iter::traits::iterator::Iterator::for_each::call<proc_macro::TokenTree, {closure@<proc_macro::TokenStream as core::iter::traits::collect::FromIterator<proc_macro::TokenTree>>::from_iter<core::iter::adapters::map::Map<core::iter::adapters::map::Map<proc_macro2::token_stream::IntoIter, {closure@src/runtime.rs:277:22: 277:29}>, fn(proc_macro2::TokenTree) -> proc_macro::TokenTree {proc_macro2::imp::into_compiler_token}>>::{closure#0}}>::{closure#0}}>::{closure#0}}>::{closure#0}}" = type { ptr, ptr }
%"core::iter::adapters::map::Map<core::iter::sources::once::Once<proc_macro2::TokenStream>, {closure@<proc_macro2::TokenStream as core::iter::traits::collect::Extend<proc_macro2::TokenStream>>::extend<core::iter::sources::once::Once<proc_macro2::TokenStream>>::{closure#0}}>" = type { %"core::iter::sources::once::Once<proc_macro2::TokenStream>", %"{closure@<proc_macro2::TokenStream as core::iter::traits::collect::Extend<proc_macro2::TokenStream>>::extend<core::iter::sources::once::Once<proc_macro2::TokenStream>>::{closure#0}}" }
%"{closure@core::iter::adapters::map::map_fold<proc_macro2::TokenTree, proc_macro2::TokenTree, (), {closure@src/runtime.rs:267:37: 267:40}, {closure@core::iter::traits::iterator::Iterator::for_each::call<proc_macro2::TokenTree, {closure@<proc_macro2::fallback::TokenStream as core::iter::traits::collect::Extend<proc_macro2::TokenTree>>::extend<core::iter::adapters::map::Map<proc_macro2::token_stream::IntoIter, {closure@src/runtime.rs:267:37: 267:40}>>::{closure#0}}>::{closure#0}}>::{closure#0}}" = type { ptr, ptr }
%"core::option::Option<proc_macro2::TokenTree>" = type { i64, [3 x i64] }
%"proc_macro2::TokenTree" = type { i64, [3 x i64] }
%"core::option::Option<proc_macro2::imp::TokenStream>" = type { i64, [3 x i64] }
%"proc_macro2::TokenStream" = type { %"proc_macro2::imp::TokenStream", %"proc_macro2::marker::ProcMacroAutoTraits" }
%"proc_macro2::imp::TokenStream" = type { i64, [3 x i64] }
%"core::option::Option<usize>" = type { i64, [1 x i64] }
%"core::option::Option<core::convert::Infallible>::None" = type {}
%"proc_macro::ConcatStreamsHelper" = type { %"alloc::vec::Vec<proc_macro::bridge::client::TokenStream>" }
%"alloc::vec::Vec<proc_macro::bridge::client::TokenStream>" = type { %"alloc::raw_vec::RawVec<proc_macro::bridge::client::TokenStream>", i64 }
%"alloc::raw_vec::RawVec<proc_macro::bridge::client::TokenStream>" = type { i64, ptr, %"alloc::alloc::Global" }
%"alloc::alloc::Global" = type {}
%"core::iter::adapters::map::Map<core::iter::adapters::map::Map<core::iter::sources::once::Once<proc_macro2::TokenStream>, {closure@<proc_macro2::TokenStream as core::iter::traits::collect::Extend<proc_macro2::TokenStream>>::extend<core::iter::sources::once::Once<proc_macro2::TokenStream>>::{closure#0}}>, fn(proc_macro2::imp::TokenStream) -> proc_macro::TokenStream {proc_macro2::imp::TokenStream::unwrap_nightly}>" = type { %"core::iter::adapters::map::Map<core::iter::sources::once::Once<proc_macro2::TokenStream>, {closure@<proc_macro2::TokenStream as core::iter::traits::collect::Extend<proc_macro2::TokenStream>>::extend<core::iter::sources::once::Once<proc_macro2::TokenStream>>::{closure#0}}>", {} }
%"proc_macro::ConcatTreesHelper" = type { %"alloc::vec::Vec<proc_macro::bridge::TokenTree<proc_macro::bridge::client::TokenStream, proc_macro::bridge::client::Span, proc_macro::bridge::symbol::Symbol>>" }
%"alloc::vec::Vec<proc_macro::bridge::TokenTree<proc_macro::bridge::client::TokenStream, proc_macro::bridge::client::Span, proc_macro::bridge::symbol::Symbol>>" = type { %"alloc::raw_vec::RawVec<proc_macro::bridge::TokenTree<proc_macro::bridge::client::TokenStream, proc_macro::bridge::client::Span, proc_macro::bridge::symbol::Symbol>>", i64 }
%"alloc::raw_vec::RawVec<proc_macro::bridge::TokenTree<proc_macro::bridge::client::TokenStream, proc_macro::bridge::client::Span, proc_macro::bridge::symbol::Symbol>>" = type { i64, ptr, %"alloc::alloc::Global" }
%"core::iter::adapters::map::Map<core::iter::adapters::map::Map<proc_macro2::token_stream::IntoIter, {closure@src/runtime.rs:277:22: 277:29}>, fn(proc_macro2::TokenTree) -> proc_macro::TokenTree {proc_macro2::imp::into_compiler_token}>" = type { %"core::iter::adapters::map::Map<proc_macro2::token_stream::IntoIter, {closure@src/runtime.rs:277:22: 277:29}>", {} }
%"proc_macro::TokenTree" = type { [16 x i8], i8, [3 x i8] }
%"__private::push_lifetime::Lifetime<'_>" = type { { ptr, i64 }, i8, [7 x i8] }
%"__private::push_lifetime_spanned::Lifetime<'_>" = type { { ptr, i64 }, i32, i8, [3 x i8] }
%"core::iter::adapters::map::Map<proc_macro2::token_stream::IntoIter, {closure@src/runtime.rs:267:37: 267:40}>" = type { %"proc_macro2::token_stream::IntoIter", ptr }
%"core::iter::sources::once::Once<proc_macro2::TokenTree>" = type { %"core::option::IntoIter<proc_macro2::TokenTree>" }
%"core::option::IntoIter<proc_macro2::TokenTree>" = type { %"core::option::Item<proc_macro2::TokenTree>" }
%"core::option::Item<proc_macro2::TokenTree>" = type { %"core::option::Option<proc_macro2::TokenTree>" }
%"proc_macro2::rcvec::RcVecIntoIter<proc_macro2::TokenTree>" = type { %"alloc::vec::into_iter::IntoIter<proc_macro2::TokenTree>" }
%"alloc::vec::into_iter::IntoIter<proc_macro2::TokenTree>" = type { ptr, ptr, i64, ptr, %"core::marker::PhantomData<proc_macro2::TokenTree>", %"core::mem::manually_drop::ManuallyDrop<alloc::alloc::Global>" }
%"core::marker::PhantomData<proc_macro2::TokenTree>" = type {}
%"core::mem::manually_drop::ManuallyDrop<alloc::alloc::Global>" = type { %"alloc::alloc::Global" }
%"core::option::Option<proc_macro2::rcvec::RcVecIntoIter<proc_macro2::TokenTree>>" = type { ptr, [3 x i64] }
%"core::ops::control_flow::ControlFlow<core::option::Option<core::convert::Infallible>, usize>" = type { i64, [1 x i64] }
%"proc_macro2::imp::DeferredTokenStream" = type { %"alloc::vec::Vec<proc_macro::TokenTree>", i32, [1 x i32] }
%"alloc::vec::Vec<proc_macro::TokenTree>" = type { %"alloc::raw_vec::RawVec<proc_macro::TokenTree>", i64 }
%"alloc::raw_vec::RawVec<proc_macro::TokenTree>" = type { i64, ptr, %"alloc::alloc::Global" }
%"core::iter::adapters::map::Map<core::iter::adapters::map::Map<core::iter::sources::once::Once<proc_macro2::TokenStream>, {closure@<proc_macro2::TokenStream as core::iter::traits::collect::Extend<proc_macro2::TokenStream>>::extend<core::iter::sources::once::Once<proc_macro2::TokenStream>>::{closure#0}}>, fn(proc_macro2::imp::TokenStream) -> proc_macro2::fallback::TokenStream {proc_macro2::imp::TokenStream::unwrap_stable}>" = type { %"core::iter::adapters::map::Map<core::iter::sources::once::Once<proc_macro2::TokenStream>, {closure@<proc_macro2::TokenStream as core::iter::traits::collect::Extend<proc_macro2::TokenStream>>::extend<core::iter::sources::once::Once<proc_macro2::TokenStream>>::{closure#0}}>", {} }
%"core::iter::adapters::flatten::Flatten<core::iter::adapters::map::Map<core::iter::adapters::map::Map<core::iter::sources::once::Once<proc_macro2::TokenStream>, {closure@<proc_macro2::TokenStream as core::iter::traits::collect::Extend<proc_macro2::TokenStream>>::extend<core::iter::sources::once::Once<proc_macro2::TokenStream>>::{closure#0}}>, fn(proc_macro2::imp::TokenStream) -> proc_macro2::fallback::TokenStream {proc_macro2::imp::TokenStream::unwrap_stable}>>" = type { %"core::iter::adapters::flatten::FlattenCompat<core::iter::adapters::map::Map<core::iter::adapters::map::Map<core::iter::sources::once::Once<proc_macro2::TokenStream>, {closure@<proc_macro2::TokenStream as core::iter::traits::collect::Extend<proc_macro2::TokenStream>>::extend<core::iter::sources::once::Once<proc_macro2::TokenStream>>::{closure#0}}>, fn(proc_macro2::imp::TokenStream) -> proc_macro2::fallback::TokenStream {proc_macro2::imp::TokenStream::unwrap_stable}>, proc_macro2::rcvec::RcVecIntoIter<proc_macro2::TokenTree>>" }
%"core::iter::adapters::flatten::FlattenCompat<core::iter::adapters::map::Map<core::iter::adapters::map::Map<core::iter::sources::once::Once<proc_macro2::TokenStream>, {closure@<proc_macro2::TokenStream as core::iter::traits::collect::Extend<proc_macro2::TokenStream>>::extend<core::iter::sources::once::Once<proc_macro2::TokenStream>>::{closure#0}}>, fn(proc_macro2::imp::TokenStream) -> proc_macro2::fallback::TokenStream {proc_macro2::imp::TokenStream::unwrap_stable}>, proc_macro2::rcvec::RcVecIntoIter<proc_macro2::TokenTree>>" = type { %"core::iter::adapters::fuse::Fuse<core::iter::adapters::map::Map<core::iter::adapters::map::Map<core::iter::sources::once::Once<proc_macro2::TokenStream>, {closure@<proc_macro2::TokenStream as core::iter::traits::collect::Extend<proc_macro2::TokenStream>>::extend<core::iter::sources::once::Once<proc_macro2::TokenStream>>::{closure#0}}>, fn(proc_macro2::imp::TokenStream) -> proc_macro2::fallback::TokenStream {proc_macro2::imp::TokenStream::unwrap_stable}>>", %"core::option::Option<proc_macro2::rcvec::RcVecIntoIter<proc_macro2::TokenTree>>", %"core::option::Option<proc_macro2::rcvec::RcVecIntoIter<proc_macro2::TokenTree>>" }
%"core::iter::adapters::fuse::Fuse<core::iter::adapters::map::Map<core::iter::adapters::map::Map<core::iter::sources::once::Once<proc_macro2::TokenStream>, {closure@<proc_macro2::TokenStream as core::iter::traits::collect::Extend<proc_macro2::TokenStream>>::extend<core::iter::sources::once::Once<proc_macro2::TokenStream>>::{closure#0}}>, fn(proc_macro2::imp::TokenStream) -> proc_macro2::fallback::TokenStream {proc_macro2::imp::TokenStream::unwrap_stable}>>" = type { %"core::option::Option<core::iter::adapters::map::Map<core::iter::adapters::map::Map<core::iter::sources::once::Once<proc_macro2::TokenStream>, {closure@<proc_macro2::TokenStream as core::iter::traits::collect::Extend<proc_macro2::TokenStream>>::extend<core::iter::sources::once::Once<proc_macro2::TokenStream>>::{closure#0}}>, fn(proc_macro2::imp::TokenStream) -> proc_macro2::fallback::TokenStream {proc_macro2::imp::TokenStream::unwrap_stable}>>" }
%"core::option::Option<core::iter::adapters::map::Map<core::iter::adapters::map::Map<core::iter::sources::once::Once<proc_macro2::TokenStream>, {closure@<proc_macro2::TokenStream as core::iter::traits::collect::Extend<proc_macro2::TokenStream>>::extend<core::iter::sources::once::Once<proc_macro2::TokenStream>>::{closure#0}}>, fn(proc_macro2::imp::TokenStream) -> proc_macro2::fallback::TokenStream {proc_macro2::imp::TokenStream::unwrap_stable}>>" = type { i64, [3 x i64] }
%"core::fmt::Arguments<'_>" = type { { ptr, i64 }, { ptr, i64 }, %"core::option::Option<&[core::fmt::rt::Placeholder]>" }
%"core::option::Option<&[core::fmt::rt::Placeholder]>" = type { ptr, [1 x i64] }
%"core::result::Result<proc_macro2::TokenStream, proc_macro2::LexError>" = type { i64, [3 x i64] }
%"core::ops::range::Range<usize>" = type { i64, i64 }
%"core::ptr::metadata::PtrComponents<[u8]>" = type { ptr, i64 }
%"core::ptr::metadata::PtrRepr<[u8]>" = type { [2 x i64] }
%"core::ops::range::RangeFull" = type {}
%"core::iter::adapters::map::Map<proc_macro2::token_stream::IntoIter, {closure@src/spanned.rs:29:43: 29:47}>" = type { %"proc_macro2::token_stream::IntoIter", %"{closure@src/spanned.rs:29:43: 29:47}" }
%"{closure@core::iter::adapters::map::map_fold<proc_macro2::TokenTree, proc_macro2::Span, core::option::Option<proc_macro2::Span>, {closure@src/spanned.rs:29:43: 29:47}, {closure@src/spanned.rs:36:21: 36:34}>::{closure#0}}" = type { %"{closure@src/spanned.rs:36:21: 36:34}", %"{closure@src/spanned.rs:29:43: 29:47}" }
%"core::alloc::layout::Layout" = type { i64, i64 }
%"core::result::Result<core::alloc::layout::Layout, core::alloc::layout::LayoutError>" = type { i64, [1 x i64] }
%"alloc::vec::Vec<proc_macro2::TokenTree>" = type { %"alloc::raw_vec::RawVec<proc_macro2::TokenTree>", i64 }
%"alloc::raw_vec::RawVec<proc_macro2::TokenTree>" = type { i64, ptr, %"alloc::alloc::Global" }
%"core::option::Option<&str>" = type { ptr, [1 x i64] }
%"proc_macro::Group" = type { %"proc_macro::bridge::Group<proc_macro::bridge::client::TokenStream, proc_macro::bridge::client::Span>" }
%"proc_macro::bridge::Group<proc_macro::bridge::client::TokenStream, proc_macro::bridge::client::Span>" = type { %"proc_macro::bridge::DelimSpan<proc_macro::bridge::client::Span>", i32, i8, [3 x i8] }
%"proc_macro::bridge::DelimSpan<proc_macro::bridge::client::Span>" = type { i32, i32, i32 }
%"proc_macro::Ident" = type { %"proc_macro::bridge::Ident<proc_macro::bridge::client::Span, proc_macro::bridge::symbol::Symbol>" }
%"proc_macro::bridge::Ident<proc_macro::bridge::client::Span, proc_macro::bridge::symbol::Symbol>" = type { i32, i32, i8, [3 x i8] }
%"proc_macro2::Group" = type { %"proc_macro2::imp::Group" }
%"proc_macro2::imp::Group" = type { i32, [5 x i32] }
%"proc_macro2::Ident" = type { %"proc_macro2::imp::Ident", %"proc_macro2::marker::ProcMacroAutoTraits" }
%"proc_macro2::imp::Ident" = type { i64, [3 x i64] }
%"proc_macro2::Punct" = type { i32, i32, i8, [3 x i8] }
%"proc_macro::Literal" = type { %"proc_macro::bridge::Literal<proc_macro::bridge::client::Span, proc_macro::bridge::symbol::Symbol>" }
%"proc_macro::bridge::Literal<proc_macro::bridge::client::Span, proc_macro::bridge::symbol::Symbol>" = type { i32, i32, i32, %"proc_macro::bridge::LitKind", [2 x i8] }
%"proc_macro::bridge::LitKind" = type { i8, [1 x i8] }
%"proc_macro2::Literal" = type { %"proc_macro2::imp::Literal", %"proc_macro2::marker::ProcMacroAutoTraits" }
%"proc_macro2::imp::Literal" = type { i64, [2 x i64] }
%"core::result::Result<*mut alloc::rc::RcBox<core::mem::maybe_uninit::MaybeUninit<alloc::vec::Vec<proc_macro2::TokenTree>>>, core::alloc::AllocError>" = type { i64, [1 x i64] }
%"core::alloc::AllocError" = type {}
%"core::ptr::non_null::NonNull<[u8]>" = type { { ptr, i64 } }
%"core::result::Result<core::ptr::non_null::NonNull<[u8]>, core::alloc::AllocError>" = type { ptr, [1 x i64] }
%"core::ops::control_flow::ControlFlow<core::result::Result<core::convert::Infallible, core::alloc::AllocError>, core::ptr::non_null::NonNull<[u8]>>" = type { ptr, [1 x i64] }
%"core::result::Result<core::convert::Infallible, core::alloc::AllocError>::Err" = type { %"core::alloc::AllocError" }
%"alloc::collections::TryReserveError" = type { %"alloc::collections::TryReserveErrorKind" }
%"alloc::collections::TryReserveErrorKind" = type { i64, [1 x i64] }
%"core::result::Result<(), alloc::collections::TryReserveErrorKind>" = type { i64, [1 x i64] }
%"core::result::Result<(), alloc::collections::TryReserveError>" = type { i64, [1 x i64] }
%"{closure@alloc::raw_vec::handle_reserve::{closure#0}}" = type {}
%"core::option::Option<(core::ptr::non_null::NonNull<u8>, core::alloc::layout::Layout)>" = type { [1 x i64], i64, [1 x i64] }
%"core::result::Result<core::convert::Infallible, alloc::collections::TryReserveError>::Err" = type { %"alloc::collections::TryReserveError" }
%"core::result::Result<core::convert::Infallible, alloc::collections::TryReserveErrorKind>::Err" = type { %"alloc::collections::TryReserveErrorKind" }
%"core::result::Result<core::ptr::non_null::NonNull<[u8]>, alloc::collections::TryReserveError>" = type { i64, [2 x i64] }
%"core::ops::control_flow::ControlFlow<core::result::Result<core::convert::Infallible, alloc::collections::TryReserveError>, core::ptr::non_null::NonNull<[u8]>>" = type { i64, [2 x i64] }
%"core::result::Result<usize, alloc::collections::TryReserveErrorKind>" = type { i64, [1 x i64] }
%"core::ops::control_flow::ControlFlow<core::result::Result<core::convert::Infallible, alloc::collections::TryReserveErrorKind>, usize>" = type { i64, [1 x i64] }
%"proc_macro2::fallback::Ident" = type { %"alloc::string::String", i8, %"proc_macro2::fallback::Span", [7 x i8] }
%"alloc::string::String" = type { %"alloc::vec::Vec<u8>" }
%"alloc::vec::Vec<u8>" = type { %"alloc::raw_vec::RawVec<u8>", i64 }
%"alloc::raw_vec::RawVec<u8>" = type { i64, ptr, %"alloc::alloc::Global" }
%"proc_macro2::fallback::Span" = type {}
%"proc_macro2::fallback::Literal" = type { %"alloc::string::String", %"proc_macro2::fallback::Span" }
%"proc_macro2::fallback::Group" = type { ptr, i8, %"proc_macro2::fallback::Span", [7 x i8] }
%"core::ptr::metadata::PtrComponents<[proc_macro::bridge::client::TokenStream]>" = type { ptr, i64 }
%"core::ptr::metadata::PtrRepr<[proc_macro::bridge::client::TokenStream]>" = type { [2 x i64] }
%"__private::ThereIsNoIteratorInRepetition" = type {}
%"__private::HasIterator" = type {}

@0 = private unnamed_addr constant <{ [16 x i8] }> <{ [16 x i8] c"\01\00\00\00\00\00\00\00\00\00\00\00\00\00\00\00" }>, align 8
@1 = private unnamed_addr constant <{ [8 x i8], [8 x i8] }> <{ [8 x i8] zeroinitializer, [8 x i8] undef }>, align 8
@alloc_763310d78c99c2c1ad3f8a9821e942f3 = private unnamed_addr constant <{ [61 x i8] }> <{ [61 x i8] c"is_nonoverlapping: `size_of::<T>() * count` overflows a usize" }>, align 1
@alloc_8df0580a595a87d56789d20c7318e185 = private unnamed_addr constant <{ [166 x i8] }> <{ [166 x i8] c"unsafe precondition(s) violated: ptr::copy_nonoverlapping requires that both pointer arguments are aligned and non-null and the specified memory ranges do not overlap" }>, align 1
@alloc_fad0cd83b7d1858a846a172eb260e593 = private unnamed_addr constant <{ [42 x i8] }> <{ [42 x i8] c"is_aligned_to: align is not a power-of-two" }>, align 1
@alloc_041983ee8170efdaaf95ba67fd072d26 = private unnamed_addr constant <{ ptr, [8 x i8] }> <{ ptr @alloc_fad0cd83b7d1858a846a172eb260e593, [8 x i8] c"*\00\00\00\00\00\00\00" }>, align 8
@alloc_513570631223a12912d85da2bec3b15a = private unnamed_addr constant <{}> zeroinitializer, align 8
@alloc_f1802761b0cba8787ff63a6853b741ad = private unnamed_addr constant <{ [81 x i8] }> <{ [81 x i8] c"/rustc/46b180ec2452d388c5d9c14009442e2e0beb01d7/library/core/src/ptr/const_ptr.rs" }>, align 1
@alloc_33f991fa5bbac1da9d8a778b0f014caf = private unnamed_addr constant <{ ptr, [16 x i8] }> <{ ptr @alloc_f1802761b0cba8787ff63a6853b741ad, [16 x i8] c"Q\00\00\00\00\00\00\00T\06\00\00\0D\00\00\00" }>, align 8
@alloc_d4d2a2a8539eafc62756407d946babb3 = private unnamed_addr constant <{ [110 x i8] }> <{ [110 x i8] c"unsafe precondition(s) violated: ptr::read_volatile requires that the pointer argument is aligned and non-null" }>, align 1
@alloc_20b3d155afd5c58c42e598b7e6d186ef = private unnamed_addr constant <{ [93 x i8] }> <{ [93 x i8] c"unsafe precondition(s) violated: NonNull::new_unchecked requires that the pointer is non-null" }>, align 1
@alloc_b51e084ad98792f1063530f5eecbcef0 = private unnamed_addr constant <{ [69 x i8] }> <{ [69 x i8] c"str::get_unchecked requires that the range is within the string slice" }>, align 1
@alloc_ba0874c83e0d5d922dde9777ace7637c = private unnamed_addr constant <{ [80 x i8] }> <{ [80 x i8] c"/rustc/46b180ec2452d388c5d9c14009442e2e0beb01d7/library/core/src/alloc/layout.rs" }>, align 1
@alloc_f68de2cf1ceb450073519dc71a218631 = private unnamed_addr constant <{ ptr, [16 x i8] }> <{ ptr @alloc_ba0874c83e0d5d922dde9777ace7637c, [16 x i8] c"P\00\00\00\00\00\00\00\C1\01\00\00)\00\00\00" }>, align 8
@str.0 = internal unnamed_addr constant [25 x i8] c"attempt to divide by zero"
@alloc_81f9ea5ad36a4fd02db0f8c6040ce6ce = private unnamed_addr constant <{ [78 x i8] }> <{ [78 x i8] c"/rustc/46b180ec2452d388c5d9c14009442e2e0beb01d7/library/core/src/intrinsics.rs" }>, align 1
@alloc_3ddfd615a577a80e66751be046ca7362 = private unnamed_addr constant <{ ptr, [16 x i8] }> <{ ptr @alloc_81f9ea5ad36a4fd02db0f8c6040ce6ce, [16 x i8] c"N\00\00\00\00\00\00\00\E6\0A\00\006\00\00\00" }>, align 8
@alloc_11195730e5236cfdc15ea13be1c301f9 = private unnamed_addr constant <{ [162 x i8] }> <{ [162 x i8] c"unsafe precondition(s) violated: slice::from_raw_parts requires the pointer to be aligned and non-null, and the total size of the slice not to exceed `isize::MAX`" }>, align 1
@vtable.1 = private constant <{ ptr, [16 x i8], ptr }> <{ ptr @"_ZN4core3ptr42drop_in_place$LT$proc_macro2..LexError$GT$17h56851dbf9008f899E", [16 x i8] c"\01\00\00\00\00\00\00\00\01\00\00\00\00\00\00\00", ptr @"_ZN58_$LT$proc_macro2..LexError$u20$as$u20$core..fmt..Debug$GT$3fmt17hd3ac2d1596c32455E" }>, align 8, !dbg !0
@__rust_no_alloc_shim_is_unstable = external global i8
@2 = private unnamed_addr constant <{ [8 x i8], [8 x i8] }> <{ [8 x i8] c"\01\00\00\00\00\00\00\80", [8 x i8] undef }>, align 8
@3 = private unnamed_addr constant <{ [16 x i8] }> <{ [16 x i8] c"\01\00\00\00\00\00\00\00\01\00\00\00\00\00\00\00" }>, align 8
@alloc_86ecadf2d6178e13e7c4300de6e2a3da = private unnamed_addr constant <{ [10 x i8] }> <{ [10 x i8] c"src/ext.rs" }>, align 1
@alloc_d621533e2323e1e9f60bb705d60241ae = private unnamed_addr constant <{ ptr, [16 x i8] }> <{ ptr @alloc_86ecadf2d6178e13e7c4300de6e2a3da, [16 x i8] c"\0A\00\00\00\00\00\00\00@\00\00\00&\00\00\00" }>, align 8
@alloc_26741d7be2999f870b5ef1ed52a52387 = private unnamed_addr constant <{ [2 x i8] }> <{ [2 x i8] c"r#" }>, align 1
@alloc_72b9856c629bb273fef673d880793ac6 = private unnamed_addr constant <{ [21 x i8] }> <{ [21 x i8] c"src/ident_fragment.rs" }>, align 1
@alloc_1d2f4ae8a27702adb140547dfad7ff8b = private unnamed_addr constant <{ ptr, [16 x i8] }> <{ ptr @alloc_72b9856c629bb273fef673d880793ac6, [16 x i8] c"\15\00\00\00\00\00\00\007\00\00\00\22\00\00\00" }>, align 8
@alloc_6f4357e3a3c9006d5d6d935934a9de54 = private unnamed_addr constant <{ [5 x i8] }> <{ [5 x i8] c"false" }>, align 1
@alloc_c9ee9951a160df092319190fa06505e4 = private unnamed_addr constant <{ [4 x i8] }> <{ [4 x i8] c"true" }>, align 1
@alloc_98681d2ce8e749c59b835dcb044fc72a = private unnamed_addr constant <{ [16 x i8] }> <{ [16 x i8] c"src/to_tokens.rs" }>, align 1
@alloc_87af02fff42a0e12f5b1e38bcda81463 = private unnamed_addr constant <{ ptr, [16 x i8] }> <{ ptr @alloc_98681d2ce8e749c59b835dcb044fc72a, [16 x i8] c"\10\00\00\00\00\00\00\00\A7\00\00\00\17\00\00\00" }>, align 8
@alloc_34ccc9a2f61247d7615f0501afc88ea6 = private unnamed_addr constant <{ [20 x i8] }> <{ [20 x i8] c"invalid token stream" }>, align 1
@alloc_af1775c4015d0166664e61ab81f23b37 = private unnamed_addr constant <{ [14 x i8] }> <{ [14 x i8] c"src/runtime.rs" }>, align 1
@alloc_6517882b8aac0b88fc03a422db262c66 = private unnamed_addr constant <{ ptr, [16 x i8] }> <{ ptr @alloc_af1775c4015d0166664e61ab81f23b37, [16 x i8] c"\0E\00\00\00\00\00\00\00\04\01\00\00$\00\00\00" }>, align 8
@alloc_3b2c42780f80a5e66073437ce3ec769d = private unnamed_addr constant <{ ptr, [16 x i8] }> <{ ptr @alloc_af1775c4015d0166664e61ab81f23b37, [16 x i8] c"\0E\00\00\00\00\00\00\00\0A\01\00\00$\00\00\00" }>, align 8
@alloc_2aa5ca13261f43d2fc9997b684b5f187 = private unnamed_addr constant <{ ptr, [16 x i8] }> <{ ptr @alloc_af1775c4015d0166664e61ab81f23b37, [16 x i8] c"\0E\00\00\00\00\00\00\00D\01\00\00\18\00\00\00" }>, align 8
@alloc_860a06ba33bb7628fa778e15839cf5c2 = private unnamed_addr constant <{ ptr, [16 x i8] }> <{ ptr @alloc_af1775c4015d0166664e61ab81f23b37, [16 x i8] c"\0E\00\00\00\00\00\00\00<\01\00\00+\00\00\00" }>, align 8
@alloc_fa38fd988ff75c4294d7ab8213270e8b = private unnamed_addr constant <{ ptr, [16 x i8] }> <{ ptr @alloc_af1775c4015d0166664e61ab81f23b37, [16 x i8] c"\0E\00\00\00\00\00\00\00f\01\00\00\18\00\00\00" }>, align 8
@alloc_f0f05c5a30022e6c98fe533c8955452a = private unnamed_addr constant <{ ptr, [16 x i8] }> <{ ptr @alloc_af1775c4015d0166664e61ab81f23b37, [16 x i8] c"\0E\00\00\00\00\00\00\00^\01\00\00+\00\00\00" }>, align 8
@alloc_27cca3636828088e60ce450d2eca2060 = private unnamed_addr constant <{ [1 x i8] }> <{ [1 x i8] c"_" }>, align 1
@alloc_b62e3436170a2378ec824c03b5a1b2e2 = private unnamed_addr constant <{ ptr, [16 x i8] }> <{ ptr @alloc_af1775c4015d0166664e61ab81f23b37, [16 x i8] c"\0E\00\00\00\00\00\00\00\D3\01\00\00\13\00\00\00" }>, align 8
@alloc_ba46f0debe98ef2a8eeacff81a2edc6f = private unnamed_addr constant <{ ptr, [16 x i8] }> <{ ptr @alloc_af1775c4015d0166664e61ab81f23b37, [16 x i8] c"\0E\00\00\00\00\00\00\00\DA\01\00\00\15\00\00\00" }>, align 8
@alloc_80b8d49c206e505b85f3e41ab219eb4c = private unnamed_addr constant <{ ptr, [16 x i8] }> <{ ptr @alloc_af1775c4015d0166664e61ab81f23b37, [16 x i8] c"\0E\00\00\00\00\00\00\00\E0\01\00\00\09\00\00\00" }>, align 8
@alloc_4649f58519f0030e739dd98365929216 = private unnamed_addr constant <{ ptr, [16 x i8] }> <{ ptr @alloc_af1775c4015d0166664e61ab81f23b37, [16 x i8] c"\0E\00\00\00\00\00\00\00\E2\01\00\00\09\00\00\00" }>, align 8

; <core::iter::adapters::map::Map<I,F> as core::iter::traits::iterator::Iterator>::fold
; Function Attrs: uwtable
define void @"_ZN102_$LT$core..iter..adapters..map..Map$LT$I$C$F$GT$$u20$as$u20$core..iter..traits..iterator..Iterator$GT$4fold17h5bc4820989c0a316E"(ptr align 8 %self, ptr align 8 %g) unnamed_addr #0 !dbg !188 {
start:
  %f.dbg.spill = alloca ptr, align 8
  %g.dbg.spill = alloca ptr, align 8
  %init.dbg.spill = alloca {}, align 1
  %_5 = alloca %"{closure@core::iter::adapters::map::map_fold<proc_macro2::TokenTree, proc_macro2::TokenTree, (), {closure@src/runtime.rs:277:22: 277:29}, {closure@core::iter::traits::iterator::Iterator::for_each::call<proc_macro2::TokenTree, {closure@<proc_macro2::fallback::TokenStream as core::iter::traits::collect::Extend<proc_macro2::TokenTree>>::extend<core::iter::adapters::map::Map<proc_macro2::token_stream::IntoIter, {closure@src/runtime.rs:277:22: 277:29}>>::{closure#0}}>::{closure#0}}>::{closure#0}}", align 8
  %_4 = alloca %"proc_macro2::token_stream::IntoIter", align 8
  call void @llvm.dbg.declare(metadata ptr %self, metadata !626, metadata !DIExpression()), !dbg !633
  call void @llvm.dbg.declare(metadata ptr %init.dbg.spill, metadata !627, metadata !DIExpression()), !dbg !634
  store ptr %g, ptr %g.dbg.spill, align 8
  call void @llvm.dbg.declare(metadata ptr %g.dbg.spill, metadata !628, metadata !DIExpression()), !dbg !635
  call void @llvm.dbg.declare(metadata ptr %g.dbg.spill, metadata !636, metadata !DIExpression()), !dbg !651
  call void @llvm.memcpy.p0.p0.i64(ptr align 8 %_4, ptr align 8 %self, i64 40, i1 false), !dbg !653
  %0 = getelementptr inbounds i8, ptr %self, i64 40, !dbg !654
  %f = load ptr, ptr %0, align 8, !dbg !654, !nonnull !27, !align !655, !noundef !27
  store ptr %f, ptr %f.dbg.spill, align 8, !dbg !654
  call void @llvm.dbg.declare(metadata ptr %f.dbg.spill, metadata !647, metadata !DIExpression()), !dbg !656
  store ptr %g, ptr %_5, align 8, !dbg !657
  %1 = getelementptr inbounds i8, ptr %_5, i64 8, !dbg !657
  store ptr %f, ptr %1, align 8, !dbg !657
  %2 = load ptr, ptr %_5, align 8, !dbg !653, !nonnull !27, !align !658, !noundef !27
  %3 = getelementptr inbounds i8, ptr %_5, i64 8, !dbg !653
  %4 = load ptr, ptr %3, align 8, !dbg !653, !nonnull !27, !align !655, !noundef !27
; call core::iter::traits::iterator::Iterator::fold
  call void @_ZN4core4iter6traits8iterator8Iterator4fold17hd05fc34f6bd901dcE(ptr align 8 %_4, ptr align 8 %2, ptr align 4 %4), !dbg !653
  ret void, !dbg !659
}

; <core::iter::adapters::map::Map<I,F> as core::iter::traits::iterator::Iterator>::fold
; Function Attrs: uwtable
define void @"_ZN102_$LT$core..iter..adapters..map..Map$LT$I$C$F$GT$$u20$as$u20$core..iter..traits..iterator..Iterator$GT$4fold17h62c68dba7766851fE"(ptr align 8 %self, ptr align 8 %g) unnamed_addr #0 !dbg !660 {
start:
  %f.dbg.spill = alloca %"{closure@<proc_macro2::TokenStream as core::iter::traits::collect::Extend<proc_macro2::TokenStream>>::extend<core::iter::sources::once::Once<proc_macro2::TokenStream>>::{closure#0}}", align 1
  %g.dbg.spill = alloca ptr, align 8
  %init.dbg.spill = alloca {}, align 1
  %_5 = alloca ptr, align 8
  %_4 = alloca %"core::iter::sources::once::Once<proc_macro2::TokenStream>", align 8
  call void @llvm.dbg.declare(metadata ptr %self, metadata !807, metadata !DIExpression()), !dbg !813
  call void @llvm.dbg.declare(metadata ptr %init.dbg.spill, metadata !808, metadata !DIExpression()), !dbg !814
  store ptr %g, ptr %g.dbg.spill, align 8
  call void @llvm.dbg.declare(metadata ptr %g.dbg.spill, metadata !809, metadata !DIExpression()), !dbg !815
  call void @llvm.dbg.declare(metadata ptr %g.dbg.spill, metadata !816, metadata !DIExpression()), !dbg !830
  call void @llvm.dbg.declare(metadata ptr %f.dbg.spill, metadata !826, metadata !DIExpression()), !dbg !832
  call void @llvm.memcpy.p0.p0.i64(ptr align 8 %_4, ptr align 8 %self, i64 32, i1 false), !dbg !833
  store ptr %g, ptr %_5, align 8, !dbg !834
  %0 = load ptr, ptr %_5, align 8, !dbg !833, !nonnull !27, !align !658, !noundef !27
; call core::iter::traits::iterator::Iterator::fold
  call void @_ZN4core4iter6traits8iterator8Iterator4fold17hd03bd9dd0559816fE(ptr align 8 %_4, ptr align 8 %0), !dbg !833
  ret void, !dbg !835
}

; <core::iter::adapters::map::Map<I,F> as core::iter::traits::iterator::Iterator>::fold
; Function Attrs: uwtable
define { i32, i32 } @"_ZN102_$LT$core..iter..adapters..map..Map$LT$I$C$F$GT$$u20$as$u20$core..iter..traits..iterator..Iterator$GT$4fold17h6a9f4ae5cf37851aE"(ptr align 8 %self, i32 %init.0, i32 %init.1) unnamed_addr #0 !dbg !836 {
start:
  %f.dbg.spill = alloca %"{closure@src/spanned.rs:29:43: 29:47}", align 1
  %g.dbg.spill = alloca %"{closure@src/spanned.rs:36:21: 36:34}", align 1
  %init.dbg.spill = alloca %"core::option::Option<proc_macro2::Span>", align 4
  %_4 = alloca %"proc_macro2::token_stream::IntoIter", align 8
  call void @llvm.dbg.declare(metadata ptr %self, metadata !863, metadata !DIExpression()), !dbg !870
  store i32 %init.0, ptr %init.dbg.spill, align 4
  %0 = getelementptr inbounds i8, ptr %init.dbg.spill, i64 4
  store i32 %init.1, ptr %0, align 4
  call void @llvm.dbg.declare(metadata ptr %init.dbg.spill, metadata !864, metadata !DIExpression()), !dbg !871
  call void @llvm.dbg.declare(metadata ptr %g.dbg.spill, metadata !865, metadata !DIExpression()), !dbg !872
  call void @llvm.dbg.declare(metadata ptr %g.dbg.spill, metadata !873, metadata !DIExpression()), !dbg !883
  call void @llvm.dbg.declare(metadata ptr %f.dbg.spill, metadata !879, metadata !DIExpression()), !dbg !885
  call void @llvm.memcpy.p0.p0.i64(ptr align 8 %_4, ptr align 8 %self, i64 40, i1 false), !dbg !886
; call core::iter::traits::iterator::Iterator::fold
  %1 = call { i32, i32 } @_ZN4core4iter6traits8iterator8Iterator4fold17h95718ec12a6981a3E(ptr align 8 %_4, i32 %init.0, i32 %init.1), !dbg !886
  %_0.0 = extractvalue { i32, i32 } %1, 0, !dbg !886
  %_0.1 = extractvalue { i32, i32 } %1, 1, !dbg !886
  %2 = insertvalue { i32, i32 } poison, i32 %_0.0, 0, !dbg !887
  %3 = insertvalue { i32, i32 } %2, i32 %_0.1, 1, !dbg !887
  ret { i32, i32 } %3, !dbg !887
}

; <core::iter::adapters::map::Map<I,F> as core::iter::traits::iterator::Iterator>::fold
; Function Attrs: uwtable
define void @"_ZN102_$LT$core..iter..adapters..map..Map$LT$I$C$F$GT$$u20$as$u20$core..iter..traits..iterator..Iterator$GT$4fold17h99d3269c47d25b6bE"(ptr align 8 %self, ptr align 8 %g) unnamed_addr #0 !dbg !888 {
start:
  %f.dbg.spill = alloca {}, align 1
  %g.dbg.spill = alloca ptr, align 8
  %init.dbg.spill = alloca {}, align 1
  %_5 = alloca ptr, align 8
  %_4 = alloca %"core::iter::adapters::map::Map<proc_macro2::token_stream::IntoIter, {closure@src/runtime.rs:277:22: 277:29}>", align 8
  call void @llvm.dbg.declare(metadata ptr %self, metadata !927, metadata !DIExpression()), !dbg !933
  call void @llvm.dbg.declare(metadata ptr %init.dbg.spill, metadata !928, metadata !DIExpression()), !dbg !934
  store ptr %g, ptr %g.dbg.spill, align 8
  call void @llvm.dbg.declare(metadata ptr %g.dbg.spill, metadata !929, metadata !DIExpression()), !dbg !935
  call void @llvm.dbg.declare(metadata ptr %g.dbg.spill, metadata !936, metadata !DIExpression()), !dbg !950
  call void @llvm.dbg.declare(metadata ptr %f.dbg.spill, metadata !946, metadata !DIExpression()), !dbg !952
  call void @llvm.memcpy.p0.p0.i64(ptr align 8 %_4, ptr align 8 %self, i64 48, i1 false), !dbg !953
  store ptr %g, ptr %_5, align 8, !dbg !954
  %0 = load ptr, ptr %_5, align 8, !dbg !953, !nonnull !27, !align !658, !noundef !27
; call <core::iter::adapters::map::Map<I,F> as core::iter::traits::iterator::Iterator>::fold
  call void @"_ZN102_$LT$core..iter..adapters..map..Map$LT$I$C$F$GT$$u20$as$u20$core..iter..traits..iterator..Iterator$GT$4fold17hd145128468411124E"(ptr align 8 %_4, ptr align 8 %0), !dbg !953
  ret void, !dbg !955
}

; <core::iter::adapters::map::Map<I,F> as core::iter::traits::iterator::Iterator>::fold
; Function Attrs: uwtable
define void @"_ZN102_$LT$core..iter..adapters..map..Map$LT$I$C$F$GT$$u20$as$u20$core..iter..traits..iterator..Iterator$GT$4fold17hd145128468411124E"(ptr align 8 %self, ptr align 8 %g) unnamed_addr #0 !dbg !956 {
start:
  %f.dbg.spill = alloca ptr, align 8
  %g.dbg.spill = alloca ptr, align 8
  %init.dbg.spill = alloca {}, align 1
  %_5 = alloca %"{closure@core::iter::adapters::map::map_fold<proc_macro2::TokenTree, proc_macro2::TokenTree, (), {closure@src/runtime.rs:277:22: 277:29}, {closure@core::iter::adapters::map::map_fold<proc_macro2::TokenTree, proc_macro::TokenTree, (), fn(proc_macro2::TokenTree) -> proc_macro::TokenTree {proc_macro2::imp::into_compiler_token}, {closure@core::iter::traits::iterator::Iterator::for_each::call<proc_macro::TokenTree, {closure@<proc_macro::TokenStream as core::iter::traits::collect::FromIterator<proc_macro::TokenTree>>::from_iter<core::iter::adapters::map::Map<core::iter::adapters::map::Map<proc_macro2::token_stream::IntoIter, {closure@src/runtime.rs:277:22: 277:29}>, fn(proc_macro2::TokenTree) -> proc_macro::TokenTree {proc_macro2::imp::into_compiler_token}>>::{closure#0}}>::{closure#0}}>::{closure#0}}>::{closure#0}}", align 8
  %_4 = alloca %"proc_macro2::token_stream::IntoIter", align 8
  call void @llvm.dbg.declare(metadata ptr %self, metadata !960, metadata !DIExpression()), !dbg !965
  call void @llvm.dbg.declare(metadata ptr %init.dbg.spill, metadata !961, metadata !DIExpression()), !dbg !966
  store ptr %g, ptr %g.dbg.spill, align 8
  call void @llvm.dbg.declare(metadata ptr %g.dbg.spill, metadata !962, metadata !DIExpression()), !dbg !967
  call void @llvm.dbg.declare(metadata ptr %g.dbg.spill, metadata !968, metadata !DIExpression()), !dbg !981
  call void @llvm.memcpy.p0.p0.i64(ptr align 8 %_4, ptr align 8 %self, i64 40, i1 false), !dbg !983
  %0 = getelementptr inbounds i8, ptr %self, i64 40, !dbg !984
  %f = load ptr, ptr %0, align 8, !dbg !984, !nonnull !27, !align !655, !noundef !27
  store ptr %f, ptr %f.dbg.spill, align 8, !dbg !984
  call void @llvm.dbg.declare(metadata ptr %f.dbg.spill, metadata !978, metadata !DIExpression()), !dbg !985
  store ptr %g, ptr %_5, align 8, !dbg !986
  %1 = getelementptr inbounds i8, ptr %_5, i64 8, !dbg !986
  store ptr %f, ptr %1, align 8, !dbg !986
  %2 = load ptr, ptr %_5, align 8, !dbg !983, !nonnull !27, !align !658, !noundef !27
  %3 = getelementptr inbounds i8, ptr %_5, i64 8, !dbg !983
  %4 = load ptr, ptr %3, align 8, !dbg !983, !nonnull !27, !align !655, !noundef !27
; call core::iter::traits::iterator::Iterator::fold
  call void @_ZN4core4iter6traits8iterator8Iterator4fold17h8d659ecb3d782656E(ptr align 8 %_4, ptr align 8 %2, ptr align 4 %4), !dbg !983
  ret void, !dbg !987
}

; <core::iter::adapters::map::Map<I,F> as core::iter::traits::iterator::Iterator>::fold
; Function Attrs: uwtable
define void @"_ZN102_$LT$core..iter..adapters..map..Map$LT$I$C$F$GT$$u20$as$u20$core..iter..traits..iterator..Iterator$GT$4fold17he83d15ad33355dc1E"(ptr align 8 %self, ptr align 8 %g) unnamed_addr #0 !dbg !988 {
start:
  %f.dbg.spill = alloca {}, align 1
  %g.dbg.spill = alloca ptr, align 8
  %init.dbg.spill = alloca {}, align 1
  %_5 = alloca ptr, align 8
  %_4 = alloca %"core::iter::adapters::map::Map<core::iter::sources::once::Once<proc_macro2::TokenStream>, {closure@<proc_macro2::TokenStream as core::iter::traits::collect::Extend<proc_macro2::TokenStream>>::extend<core::iter::sources::once::Once<proc_macro2::TokenStream>>::{closure#0}}>", align 8
  call void @llvm.dbg.declare(metadata ptr %self, metadata !999, metadata !DIExpression()), !dbg !1005
  call void @llvm.dbg.declare(metadata ptr %init.dbg.spill, metadata !1000, metadata !DIExpression()), !dbg !1006
  store ptr %g, ptr %g.dbg.spill, align 8
  call void @llvm.dbg.declare(metadata ptr %g.dbg.spill, metadata !1001, metadata !DIExpression()), !dbg !1007
  call void @llvm.dbg.declare(metadata ptr %g.dbg.spill, metadata !1008, metadata !DIExpression()), !dbg !1019
  call void @llvm.dbg.declare(metadata ptr %f.dbg.spill, metadata !1014, metadata !DIExpression()), !dbg !1021
  call void @llvm.memcpy.p0.p0.i64(ptr align 8 %_4, ptr align 8 %self, i64 32, i1 false), !dbg !1022
  store ptr %g, ptr %_5, align 8, !dbg !1023
  %0 = load ptr, ptr %_5, align 8, !dbg !1022, !nonnull !27, !align !658, !noundef !27
; call <core::iter::adapters::map::Map<I,F> as core::iter::traits::iterator::Iterator>::fold
  call void @"_ZN102_$LT$core..iter..adapters..map..Map$LT$I$C$F$GT$$u20$as$u20$core..iter..traits..iterator..Iterator$GT$4fold17h62c68dba7766851fE"(ptr align 8 %_4, ptr align 8 %0), !dbg !1022
  ret void, !dbg !1024
}

; <core::iter::adapters::map::Map<I,F> as core::iter::traits::iterator::Iterator>::fold
; Function Attrs: uwtable
define void @"_ZN102_$LT$core..iter..adapters..map..Map$LT$I$C$F$GT$$u20$as$u20$core..iter..traits..iterator..Iterator$GT$4fold17he8ffe55a1b504702E"(ptr align 8 %self, ptr align 8 %g) unnamed_addr #0 !dbg !1025 {
start:
  %f.dbg.spill = alloca ptr, align 8
  %g.dbg.spill = alloca ptr, align 8
  %init.dbg.spill = alloca {}, align 1
  %_5 = alloca %"{closure@core::iter::adapters::map::map_fold<proc_macro2::TokenTree, proc_macro2::TokenTree, (), {closure@src/runtime.rs:267:37: 267:40}, {closure@core::iter::traits::iterator::Iterator::for_each::call<proc_macro2::TokenTree, {closure@<proc_macro2::fallback::TokenStream as core::iter::traits::collect::Extend<proc_macro2::TokenTree>>::extend<core::iter::adapters::map::Map<proc_macro2::token_stream::IntoIter, {closure@src/runtime.rs:267:37: 267:40}>>::{closure#0}}>::{closure#0}}>::{closure#0}}", align 8
  %_4 = alloca %"proc_macro2::token_stream::IntoIter", align 8
  call void @llvm.dbg.declare(metadata ptr %self, metadata !1045, metadata !DIExpression()), !dbg !1050
  call void @llvm.dbg.declare(metadata ptr %init.dbg.spill, metadata !1046, metadata !DIExpression()), !dbg !1051
  store ptr %g, ptr %g.dbg.spill, align 8
  call void @llvm.dbg.declare(metadata ptr %g.dbg.spill, metadata !1047, metadata !DIExpression()), !dbg !1052
  call void @llvm.dbg.declare(metadata ptr %g.dbg.spill, metadata !1053, metadata !DIExpression()), !dbg !1067
  call void @llvm.memcpy.p0.p0.i64(ptr align 8 %_4, ptr align 8 %self, i64 40, i1 false), !dbg !1069
  %0 = getelementptr inbounds i8, ptr %self, i64 40, !dbg !1070
  %f = load ptr, ptr %0, align 8, !dbg !1070, !nonnull !27, !align !655, !noundef !27
  store ptr %f, ptr %f.dbg.spill, align 8, !dbg !1070
  call void @llvm.dbg.declare(metadata ptr %f.dbg.spill, metadata !1063, metadata !DIExpression()), !dbg !1071
  store ptr %g, ptr %_5, align 8, !dbg !1072
  %1 = getelementptr inbounds i8, ptr %_5, i64 8, !dbg !1072
  store ptr %f, ptr %1, align 8, !dbg !1072
  %2 = load ptr, ptr %_5, align 8, !dbg !1069, !nonnull !27, !align !658, !noundef !27
  %3 = getelementptr inbounds i8, ptr %_5, i64 8, !dbg !1069
  %4 = load ptr, ptr %3, align 8, !dbg !1069, !nonnull !27, !align !655, !noundef !27
; call core::iter::traits::iterator::Iterator::fold
  call void @_ZN4core4iter6traits8iterator8Iterator4fold17h3369bd76d679286dE(ptr align 8 %_4, ptr align 8 %2, ptr align 4 %4), !dbg !1069
  ret void, !dbg !1073
}

; <core::iter::adapters::map::Map<I,F> as core::iter::traits::iterator::Iterator>::next
; Function Attrs: inlinehint uwtable
define void @"_ZN102_$LT$core..iter..adapters..map..Map$LT$I$C$F$GT$$u20$as$u20$core..iter..traits..iterator..Iterator$GT$4next17h11f66fe56b44f4d4E"(ptr sret(%"core::option::Option<proc_macro2::TokenTree>") align 8 %_0, ptr align 8 %self) unnamed_addr #1 !dbg !1074 {
start:
  %f.dbg.spill = alloca ptr, align 8
  %self.dbg.spill = alloca ptr, align 8
  %_8 = alloca { %"proc_macro2::TokenTree" }, align 8
  %_7 = alloca %"proc_macro2::TokenTree", align 8
  %x = alloca %"proc_macro2::TokenTree", align 8
  %self1 = alloca %"core::option::Option<proc_macro2::TokenTree>", align 8
  store ptr %self, ptr %self.dbg.spill, align 8
  call void @llvm.dbg.declare(metadata ptr %self.dbg.spill, metadata !1090, metadata !DIExpression()), !dbg !1092
  call void @llvm.dbg.declare(metadata ptr %self1, metadata !1093, metadata !DIExpression()), !dbg !1108
  call void @llvm.dbg.declare(metadata ptr %x, metadata !1106, metadata !DIExpression()), !dbg !1110
; call <proc_macro2::token_stream::IntoIter as core::iter::traits::iterator::Iterator>::next
  call void @"_ZN94_$LT$proc_macro2..token_stream..IntoIter$u20$as$u20$core..iter..traits..iterator..Iterator$GT$4next17h492c0852deda650dE"(ptr sret(%"core::option::Option<proc_macro2::TokenTree>") align 8 %self1, ptr align 8 %self), !dbg !1111
  %f = getelementptr inbounds i8, ptr %self, i64 40, !dbg !1112
  store ptr %f, ptr %f.dbg.spill, align 8, !dbg !1112
  call void @llvm.dbg.declare(metadata ptr %f.dbg.spill, metadata !1105, metadata !DIExpression()), !dbg !1113
  %0 = load i64, ptr %self1, align 8, !dbg !1114, !range !1115, !noundef !27
  %1 = icmp eq i64 %0, -9223372036854775803, !dbg !1114
  %_5 = select i1 %1, i64 0, i64 1, !dbg !1114
  %2 = icmp eq i64 %_5, 0, !dbg !1116
  br i1 %2, label %bb4, label %bb5, !dbg !1116

bb4:                                              ; preds = %start
  store i64 -9223372036854775803, ptr %_0, align 8, !dbg !1117
  br label %bb2, !dbg !1118

bb5:                                              ; preds = %start
  call void @llvm.memcpy.p0.p0.i64(ptr align 8 %x, ptr align 8 %self1, i64 32, i1 false), !dbg !1119
  call void @llvm.memcpy.p0.p0.i64(ptr align 8 %_8, ptr align 8 %x, i64 32, i1 false), !dbg !1120
; call core::ops::function::impls::<impl core::ops::function::FnOnce<A> for &mut F>::call_once
  call void @"_ZN4core3ops8function5impls80_$LT$impl$u20$core..ops..function..FnOnce$LT$A$GT$$u20$for$u20$$RF$mut$u20$F$GT$9call_once17h255f30b9d6374b72E"(ptr sret(%"proc_macro2::TokenTree") align 8 %_7, ptr align 8 %f, ptr align 8 %_8), !dbg !1120
  call void @llvm.memcpy.p0.p0.i64(ptr align 8 %_0, ptr align 8 %_7, i64 32, i1 false), !dbg !1121
  br label %bb2, !dbg !1122

bb2:                                              ; preds = %bb5, %bb4
  ret void, !dbg !1123

bb3:                                              ; No predecessors!
  unreachable, !dbg !1114
}

; <core::iter::adapters::map::Map<I,F> as core::iter::traits::iterator::Iterator>::next
; Function Attrs: inlinehint uwtable
define { i32, i32 } @"_ZN102_$LT$core..iter..adapters..map..Map$LT$I$C$F$GT$$u20$as$u20$core..iter..traits..iterator..Iterator$GT$4next17ha304ba1e090711cfE"(ptr align 8 %self) unnamed_addr #1 !dbg !1124 {
start:
  %f.dbg.spill = alloca ptr, align 8
  %self.dbg.spill = alloca ptr, align 8
  %_8 = alloca { %"proc_macro2::TokenTree" }, align 8
  %x = alloca %"proc_macro2::TokenTree", align 8
  %self1 = alloca %"core::option::Option<proc_macro2::TokenTree>", align 8
  %_0 = alloca %"core::option::Option<proc_macro2::Span>", align 4
  store ptr %self, ptr %self.dbg.spill, align 8
  call void @llvm.dbg.declare(metadata ptr %self.dbg.spill, metadata !1129, metadata !DIExpression()), !dbg !1131
  call void @llvm.dbg.declare(metadata ptr %self1, metadata !1132, metadata !DIExpression()), !dbg !1146
  call void @llvm.dbg.declare(metadata ptr %x, metadata !1144, metadata !DIExpression()), !dbg !1148
; call <proc_macro2::token_stream::IntoIter as core::iter::traits::iterator::Iterator>::next
  call void @"_ZN94_$LT$proc_macro2..token_stream..IntoIter$u20$as$u20$core..iter..traits..iterator..Iterator$GT$4next17h492c0852deda650dE"(ptr sret(%"core::option::Option<proc_macro2::TokenTree>") align 8 %self1, ptr align 8 %self), !dbg !1149
  %f = getelementptr inbounds i8, ptr %self, i64 40, !dbg !1150
  store ptr %f, ptr %f.dbg.spill, align 8, !dbg !1150
  call void @llvm.dbg.declare(metadata ptr %f.dbg.spill, metadata !1143, metadata !DIExpression()), !dbg !1151
  %0 = load i64, ptr %self1, align 8, !dbg !1152, !range !1115, !noundef !27
  %1 = icmp eq i64 %0, -9223372036854775803, !dbg !1152
  %_5 = select i1 %1, i64 0, i64 1, !dbg !1152
  %2 = icmp eq i64 %_5, 0, !dbg !1153
  br i1 %2, label %bb4, label %bb5, !dbg !1153

bb4:                                              ; preds = %start
  store i32 0, ptr %_0, align 4, !dbg !1154
  br label %bb2, !dbg !1155

bb5:                                              ; preds = %start
  call void @llvm.memcpy.p0.p0.i64(ptr align 8 %x, ptr align 8 %self1, i64 32, i1 false), !dbg !1156
  call void @llvm.memcpy.p0.p0.i64(ptr align 8 %_8, ptr align 8 %x, i64 32, i1 false), !dbg !1157
; call core::ops::function::impls::<impl core::ops::function::FnOnce<A> for &mut F>::call_once
  %_7 = call i32 @"_ZN4core3ops8function5impls80_$LT$impl$u20$core..ops..function..FnOnce$LT$A$GT$$u20$for$u20$$RF$mut$u20$F$GT$9call_once17hd30417c3e02634ecE"(ptr align 1 %f, ptr align 8 %_8), !dbg !1157
  %3 = getelementptr inbounds i8, ptr %_0, i64 4, !dbg !1158
  store i32 %_7, ptr %3, align 4, !dbg !1158
  store i32 1, ptr %_0, align 4, !dbg !1158
  br label %bb2, !dbg !1159

bb2:                                              ; preds = %bb5, %bb4
  %4 = load i32, ptr %_0, align 4, !dbg !1160, !range !1161, !noundef !27
  %5 = getelementptr inbounds i8, ptr %_0, i64 4, !dbg !1160
  %6 = load i32, ptr %5, align 4, !dbg !1160
  %7 = insertvalue { i32, i32 } poison, i32 %4, 0, !dbg !1160
  %8 = insertvalue { i32, i32 } %7, i32 %6, 1, !dbg !1160
  ret { i32, i32 } %8, !dbg !1160

bb3:                                              ; No predecessors!
  unreachable, !dbg !1152
}

; <core::iter::adapters::map::Map<I,F> as core::iter::traits::iterator::Iterator>::next
; Function Attrs: inlinehint uwtable
define void @"_ZN102_$LT$core..iter..adapters..map..Map$LT$I$C$F$GT$$u20$as$u20$core..iter..traits..iterator..Iterator$GT$4next17hbf6f44ccb8598857E"(ptr sret(%"core::option::Option<proc_macro2::imp::TokenStream>") align 8 %_0, ptr align 8 %self) unnamed_addr #1 !dbg !1162 {
start:
  %f.dbg.spill = alloca ptr, align 8
  %self.dbg.spill = alloca ptr, align 8
  %_8 = alloca { %"proc_macro2::TokenStream" }, align 8
  %_7 = alloca %"proc_macro2::imp::TokenStream", align 8
  %x = alloca %"proc_macro2::TokenStream", align 8
  %self1 = alloca %"core::option::Option<proc_macro2::TokenStream>", align 8
  store ptr %self, ptr %self.dbg.spill, align 8
  call void @llvm.dbg.declare(metadata ptr %self.dbg.spill, metadata !1179, metadata !DIExpression()), !dbg !1181
  call void @llvm.dbg.declare(metadata ptr %self1, metadata !1182, metadata !DIExpression()), !dbg !1196
  call void @llvm.dbg.declare(metadata ptr %x, metadata !1194, metadata !DIExpression()), !dbg !1198
; call <core::iter::sources::once::Once<T> as core::iter::traits::iterator::Iterator>::next
  call void @"_ZN99_$LT$core..iter..sources..once..Once$LT$T$GT$$u20$as$u20$core..iter..traits..iterator..Iterator$GT$4next17he2f8b4bf1045e910E"(ptr sret(%"core::option::Option<proc_macro2::TokenStream>") align 8 %self1, ptr align 8 %self), !dbg !1199
  %f = getelementptr inbounds i8, ptr %self, i64 32, !dbg !1200
  store ptr %f, ptr %f.dbg.spill, align 8, !dbg !1200
  call void @llvm.dbg.declare(metadata ptr %f.dbg.spill, metadata !1193, metadata !DIExpression()), !dbg !1201
  %0 = load i64, ptr %self1, align 8, !dbg !1202, !range !1203, !noundef !27
  %1 = icmp eq i64 %0, -9223372036854775807, !dbg !1202
  %_5 = select i1 %1, i64 0, i64 1, !dbg !1202
  %2 = icmp eq i64 %_5, 0, !dbg !1204
  br i1 %2, label %bb4, label %bb5, !dbg !1204

bb4:                                              ; preds = %start
  store i64 -9223372036854775807, ptr %_0, align 8, !dbg !1205
  br label %bb2, !dbg !1206

bb5:                                              ; preds = %start
  call void @llvm.memcpy.p0.p0.i64(ptr align 8 %x, ptr align 8 %self1, i64 32, i1 false), !dbg !1207
  call void @llvm.memcpy.p0.p0.i64(ptr align 8 %_8, ptr align 8 %x, i64 32, i1 false), !dbg !1208
; call core::ops::function::impls::<impl core::ops::function::FnOnce<A> for &mut F>::call_once
  call void @"_ZN4core3ops8function5impls80_$LT$impl$u20$core..ops..function..FnOnce$LT$A$GT$$u20$for$u20$$RF$mut$u20$F$GT$9call_once17hf941e8acd022838aE"(ptr sret(%"proc_macro2::imp::TokenStream") align 8 %_7, ptr align 1 %f, ptr align 8 %_8), !dbg !1208
  call void @llvm.memcpy.p0.p0.i64(ptr align 8 %_0, ptr align 8 %_7, i64 32, i1 false), !dbg !1209
  br label %bb2, !dbg !1210

bb2:                                              ; preds = %bb5, %bb4
  ret void, !dbg !1211

bb3:                                              ; No predecessors!
  unreachable, !dbg !1202
}

; <core::iter::adapters::map::Map<I,F> as core::iter::traits::iterator::Iterator>::next
; Function Attrs: inlinehint uwtable
define ptr @"_ZN102_$LT$core..iter..adapters..map..Map$LT$I$C$F$GT$$u20$as$u20$core..iter..traits..iterator..Iterator$GT$4next17hdd4d95048b749e63E"(ptr align 8 %self) unnamed_addr #1 !dbg !1212 {
start:
  %f.dbg.spill = alloca ptr, align 8
  %self.dbg.spill = alloca ptr, align 8
  %_8 = alloca { %"proc_macro2::imp::TokenStream" }, align 8
  %x = alloca %"proc_macro2::imp::TokenStream", align 8
  %self1 = alloca %"core::option::Option<proc_macro2::imp::TokenStream>", align 8
  %_0 = alloca ptr, align 8
  store ptr %self, ptr %self.dbg.spill, align 8
  call void @llvm.dbg.declare(metadata ptr %self.dbg.spill, metadata !1239, metadata !DIExpression()), !dbg !1242
  call void @llvm.dbg.declare(metadata ptr %self1, metadata !1243, metadata !DIExpression()), !dbg !1257
  call void @llvm.dbg.declare(metadata ptr %x, metadata !1255, metadata !DIExpression()), !dbg !1259
; call <core::iter::adapters::map::Map<I,F> as core::iter::traits::iterator::Iterator>::next
  call void @"_ZN102_$LT$core..iter..adapters..map..Map$LT$I$C$F$GT$$u20$as$u20$core..iter..traits..iterator..Iterator$GT$4next17hbf6f44ccb8598857E"(ptr sret(%"core::option::Option<proc_macro2::imp::TokenStream>") align 8 %self1, ptr align 8 %self), !dbg !1260
  %f = getelementptr inbounds i8, ptr %self, i64 32, !dbg !1261
  store ptr %f, ptr %f.dbg.spill, align 8, !dbg !1261
  call void @llvm.dbg.declare(metadata ptr %f.dbg.spill, metadata !1254, metadata !DIExpression()), !dbg !1262
  %0 = load i64, ptr %self1, align 8, !dbg !1263, !range !1203, !noundef !27
  %1 = icmp eq i64 %0, -9223372036854775807, !dbg !1263
  %_5 = select i1 %1, i64 0, i64 1, !dbg !1263
  %2 = icmp eq i64 %_5, 0, !dbg !1264
  br i1 %2, label %bb4, label %bb5, !dbg !1264

bb4:                                              ; preds = %start
  store ptr null, ptr %_0, align 8, !dbg !1265
  br label %bb2, !dbg !1266

bb5:                                              ; preds = %start
  call void @llvm.memcpy.p0.p0.i64(ptr align 8 %x, ptr align 8 %self1, i64 32, i1 false), !dbg !1267
  call void @llvm.memcpy.p0.p0.i64(ptr align 8 %_8, ptr align 8 %x, i64 32, i1 false), !dbg !1268
; call core::ops::function::impls::<impl core::ops::function::FnOnce<A> for &mut F>::call_once
  %_7 = call ptr @"_ZN4core3ops8function5impls80_$LT$impl$u20$core..ops..function..FnOnce$LT$A$GT$$u20$for$u20$$RF$mut$u20$F$GT$9call_once17h2bdfed4dc97fb597E"(ptr align 1 %f, ptr align 8 %_8), !dbg !1268
  store ptr %_7, ptr %_0, align 8, !dbg !1269
  br label %bb2, !dbg !1270

bb2:                                              ; preds = %bb5, %bb4
  %3 = load ptr, ptr %_0, align 8, !dbg !1271, !noundef !27
  ret ptr %3, !dbg !1271

bb3:                                              ; No predecessors!
  unreachable, !dbg !1263
}

; <core::iter::adapters::map::Map<I,F> as core::iter::traits::iterator::Iterator>::size_hint
; Function Attrs: inlinehint uwtable
define void @"_ZN102_$LT$core..iter..adapters..map..Map$LT$I$C$F$GT$$u20$as$u20$core..iter..traits..iterator..Iterator$GT$9size_hint17h03268ffe42a04bb1E"(ptr sret({ i64, %"core::option::Option<usize>" }) align 8 %_0, ptr align 8 %self) unnamed_addr #1 !dbg !1272 {
start:
  %self.dbg.spill = alloca ptr, align 8
  store ptr %self, ptr %self.dbg.spill, align 8
  call void @llvm.dbg.declare(metadata ptr %self.dbg.spill, metadata !1292, metadata !DIExpression()), !dbg !1294
; call <core::iter::adapters::map::Map<I,F> as core::iter::traits::iterator::Iterator>::size_hint
  call void @"_ZN102_$LT$core..iter..adapters..map..Map$LT$I$C$F$GT$$u20$as$u20$core..iter..traits..iterator..Iterator$GT$9size_hint17h5eaa73152e5a65f3E"(ptr sret({ i64, %"core::option::Option<usize>" }) align 8 %_0, ptr align 8 %self), !dbg !1295
  ret void, !dbg !1296
}

; <core::iter::adapters::map::Map<I,F> as core::iter::traits::iterator::Iterator>::size_hint
; Function Attrs: inlinehint uwtable
define void @"_ZN102_$LT$core..iter..adapters..map..Map$LT$I$C$F$GT$$u20$as$u20$core..iter..traits..iterator..Iterator$GT$9size_hint17h1d49c13527a99978E"(ptr sret({ i64, %"core::option::Option<usize>" }) align 8 %_0, ptr align 8 %self) unnamed_addr #1 !dbg !1297 {
start:
  %self.dbg.spill = alloca ptr, align 8
  store ptr %self, ptr %self.dbg.spill, align 8
  call void @llvm.dbg.declare(metadata ptr %self.dbg.spill, metadata !1302, metadata !DIExpression()), !dbg !1303
; call <core::iter::adapters::map::Map<I,F> as core::iter::traits::iterator::Iterator>::size_hint
  call void @"_ZN102_$LT$core..iter..adapters..map..Map$LT$I$C$F$GT$$u20$as$u20$core..iter..traits..iterator..Iterator$GT$9size_hint17h948a55e9b9174025E"(ptr sret({ i64, %"core::option::Option<usize>" }) align 8 %_0, ptr align 8 %self), !dbg !1304
  ret void, !dbg !1305
}

; <core::iter::adapters::map::Map<I,F> as core::iter::traits::iterator::Iterator>::size_hint
; Function Attrs: inlinehint uwtable
define void @"_ZN102_$LT$core..iter..adapters..map..Map$LT$I$C$F$GT$$u20$as$u20$core..iter..traits..iterator..Iterator$GT$9size_hint17h5eaa73152e5a65f3E"(ptr sret({ i64, %"core::option::Option<usize>" }) align 8 %_0, ptr align 8 %self) unnamed_addr #1 !dbg !1306 {
start:
  %self.dbg.spill = alloca ptr, align 8
  store ptr %self, ptr %self.dbg.spill, align 8
  call void @llvm.dbg.declare(metadata ptr %self.dbg.spill, metadata !1311, metadata !DIExpression()), !dbg !1313
; call <proc_macro2::token_stream::IntoIter as core::iter::traits::iterator::Iterator>::size_hint
  call void @"_ZN94_$LT$proc_macro2..token_stream..IntoIter$u20$as$u20$core..iter..traits..iterator..Iterator$GT$9size_hint17h9153b286b74ee002E"(ptr sret({ i64, %"core::option::Option<usize>" }) align 8 %_0, ptr align 8 %self), !dbg !1314
  ret void, !dbg !1315
}

; <core::iter::adapters::map::Map<I,F> as core::iter::traits::iterator::Iterator>::size_hint
; Function Attrs: inlinehint uwtable
define void @"_ZN102_$LT$core..iter..adapters..map..Map$LT$I$C$F$GT$$u20$as$u20$core..iter..traits..iterator..Iterator$GT$9size_hint17h948a55e9b9174025E"(ptr sret({ i64, %"core::option::Option<usize>" }) align 8 %_0, ptr align 8 %self) unnamed_addr #1 !dbg !1316 {
start:
  %self.dbg.spill = alloca ptr, align 8
  store ptr %self, ptr %self.dbg.spill, align 8
  call void @llvm.dbg.declare(metadata ptr %self.dbg.spill, metadata !1321, metadata !DIExpression()), !dbg !1322
; call <core::iter::sources::once::Once<T> as core::iter::traits::iterator::Iterator>::size_hint
  call void @"_ZN99_$LT$core..iter..sources..once..Once$LT$T$GT$$u20$as$u20$core..iter..traits..iterator..Iterator$GT$9size_hint17h890025a96b14a759E"(ptr sret({ i64, %"core::option::Option<usize>" }) align 8 %_0, ptr align 8 %self), !dbg !1323
  ret void, !dbg !1324
}

; <core::iter::adapters::map::Map<I,F> as core::iter::traits::iterator::Iterator>::size_hint
; Function Attrs: inlinehint uwtable
define void @"_ZN102_$LT$core..iter..adapters..map..Map$LT$I$C$F$GT$$u20$as$u20$core..iter..traits..iterator..Iterator$GT$9size_hint17hb391c00ee516bce1E"(ptr sret({ i64, %"core::option::Option<usize>" }) align 8 %_0, ptr align 8 %self) unnamed_addr #1 !dbg !1325 {
start:
  %self.dbg.spill = alloca ptr, align 8
  store ptr %self, ptr %self.dbg.spill, align 8
  call void @llvm.dbg.declare(metadata ptr %self.dbg.spill, metadata !1330, metadata !DIExpression()), !dbg !1332
; call <core::iter::adapters::map::Map<I,F> as core::iter::traits::iterator::Iterator>::size_hint
  call void @"_ZN102_$LT$core..iter..adapters..map..Map$LT$I$C$F$GT$$u20$as$u20$core..iter..traits..iterator..Iterator$GT$9size_hint17h948a55e9b9174025E"(ptr sret({ i64, %"core::option::Option<usize>" }) align 8 %_0, ptr align 8 %self), !dbg !1333
  ret void, !dbg !1334
}

; <core::iter::adapters::flatten::Flatten<I> as core::iter::traits::iterator::Iterator>::next
; Function Attrs: inlinehint uwtable
define void @"_ZN106_$LT$core..iter..adapters..flatten..Flatten$LT$I$GT$$u20$as$u20$core..iter..traits..iterator..Iterator$GT$4next17h2b5525ad20dd4610E"(ptr sret(%"core::option::Option<proc_macro2::TokenTree>") align 8 %_0, ptr align 8 %self) unnamed_addr #1 !dbg !1335 {
start:
  %self.dbg.spill = alloca ptr, align 8
  store ptr %self, ptr %self.dbg.spill, align 8
  call void @llvm.dbg.declare(metadata ptr %self.dbg.spill, metadata !1385, metadata !DIExpression()), !dbg !1386
; call <core::iter::adapters::flatten::FlattenCompat<I,U> as core::iter::traits::iterator::Iterator>::next
  call void @"_ZN116_$LT$core..iter..adapters..flatten..FlattenCompat$LT$I$C$U$GT$$u20$as$u20$core..iter..traits..iterator..Iterator$GT$4next17h2f73da4f31c35647E"(ptr sret(%"core::option::Option<proc_macro2::TokenTree>") align 8 %_0, ptr align 8 %self), !dbg !1387
  ret void, !dbg !1388
}

; <core::iter::adapters::flatten::Flatten<I> as core::iter::traits::iterator::Iterator>::size_hint
; Function Attrs: inlinehint uwtable
define void @"_ZN106_$LT$core..iter..adapters..flatten..Flatten$LT$I$GT$$u20$as$u20$core..iter..traits..iterator..Iterator$GT$9size_hint17h3c71b672b7f054dfE"(ptr sret({ i64, %"core::option::Option<usize>" }) align 8 %_0, ptr align 8 %self) unnamed_addr #1 !dbg !1389 {
start:
  %self.dbg.spill = alloca ptr, align 8
  store ptr %self, ptr %self.dbg.spill, align 8
  call void @llvm.dbg.declare(metadata ptr %self.dbg.spill, metadata !1394, metadata !DIExpression()), !dbg !1395
; call <core::iter::adapters::flatten::FlattenCompat<I,U> as core::iter::traits::iterator::Iterator>::size_hint
  call void @"_ZN116_$LT$core..iter..adapters..flatten..FlattenCompat$LT$I$C$U$GT$$u20$as$u20$core..iter..traits..iterator..Iterator$GT$9size_hint17h05d3c0083e6c4d02E"(ptr sret({ i64, %"core::option::Option<usize>" }) align 8 %_0, ptr align 8 %self), !dbg !1396
  ret void, !dbg !1397
}

; <core::iter::adapters::fuse::Fuse<I> as core::iter::adapters::fuse::FuseImpl<I>>::next
; Function Attrs: inlinehint uwtable
define ptr @"_ZN107_$LT$core..iter..adapters..fuse..Fuse$LT$I$GT$$u20$as$u20$core..iter..adapters..fuse..FuseImpl$LT$I$GT$$GT$4next17h1953c85beb402e71E"(ptr align 8 %self) unnamed_addr #1 !dbg !1398 {
start:
  %val.dbg.spill = alloca ptr, align 8
  %v.dbg.spill = alloca ptr, align 8
  %x.dbg.spill = alloca ptr, align 8
  %self.dbg.spill3 = alloca ptr, align 8
  %self.dbg.spill = alloca ptr, align 8
  %self2 = alloca ptr, align 8
  %_2 = alloca ptr, align 8
  %_0 = alloca ptr, align 8
  %residual.dbg.spill1 = alloca %"core::option::Option<core::convert::Infallible>::None", align 1
  %residual.dbg.spill = alloca %"core::option::Option<core::convert::Infallible>::None", align 1
  call void @llvm.dbg.declare(metadata ptr %residual.dbg.spill, metadata !1406, metadata !DIExpression()), !dbg !1426
  call void @llvm.dbg.declare(metadata ptr %residual.dbg.spill1, metadata !1427, metadata !DIExpression()), !dbg !1434
  store ptr %self, ptr %self.dbg.spill, align 8, !dbg !1434
  call void @llvm.dbg.declare(metadata ptr %self.dbg.spill, metadata !1405, metadata !DIExpression()), !dbg !1436
  call void @llvm.dbg.declare(metadata ptr %self2, metadata !1437, metadata !DIExpression()), !dbg !1477
  store ptr %self, ptr %self.dbg.spill3, align 8, !dbg !1478
  call void @llvm.dbg.declare(metadata ptr %self.dbg.spill3, metadata !1479, metadata !DIExpression()), !dbg !1489
  %0 = load i64, ptr %self, align 8, !dbg !1491, !range !1492, !noundef !27
  %1 = icmp eq i64 %0, -9223372036854775806, !dbg !1491
  %_6 = select i1 %1, i64 0, i64 1, !dbg !1491
  %2 = icmp eq i64 %_6, 0, !dbg !1493
  br i1 %2, label %bb4, label %bb5, !dbg !1493

bb4:                                              ; preds = %start
  store ptr null, ptr %self2, align 8, !dbg !1494
  store ptr null, ptr %_0, align 8, !dbg !1495
  br label %bb3, !dbg !1496

bb5:                                              ; preds = %start
  store ptr %self, ptr %x.dbg.spill, align 8, !dbg !1497
  call void @llvm.dbg.declare(metadata ptr %x.dbg.spill, metadata !1487, metadata !DIExpression()), !dbg !1498
  store ptr %self, ptr %self2, align 8, !dbg !1499
  %v = load ptr, ptr %self2, align 8, !dbg !1500, !nonnull !27, !align !658, !noundef !27
  store ptr %v, ptr %v.dbg.spill, align 8, !dbg !1500
  call void @llvm.dbg.declare(metadata ptr %v.dbg.spill, metadata !1475, metadata !DIExpression()), !dbg !1501
  store ptr %v, ptr %_2, align 8, !dbg !1502
  %val = load ptr, ptr %_2, align 8, !dbg !1478, !nonnull !27, !align !658, !noundef !27
  store ptr %val, ptr %val.dbg.spill, align 8, !dbg !1478
  call void @llvm.dbg.declare(metadata ptr %val.dbg.spill, metadata !1424, metadata !DIExpression()), !dbg !1503
; call <core::iter::adapters::map::Map<I,F> as core::iter::traits::iterator::Iterator>::next
  %3 = call ptr @"_ZN102_$LT$core..iter..adapters..map..Map$LT$I$C$F$GT$$u20$as$u20$core..iter..traits..iterator..Iterator$GT$4next17hdd4d95048b749e63E"(ptr align 8 %val), !dbg !1478
  store ptr %3, ptr %_0, align 8, !dbg !1478
  br label %bb3, !dbg !1496

bb3:                                              ; preds = %bb5, %bb4
  %4 = load ptr, ptr %_0, align 8, !dbg !1496, !noundef !27
  ret ptr %4, !dbg !1496

bb1:                                              ; No predecessors!
  unreachable, !dbg !1478
}

; <proc_macro::TokenStream as core::iter::traits::collect::Extend<proc_macro::TokenStream>>::extend
; Function Attrs: uwtable
define void @"_ZN110_$LT$proc_macro..TokenStream$u20$as$u20$core..iter..traits..collect..Extend$LT$proc_macro..TokenStream$GT$$GT$6extend17hc36ac98668590cb8E"(ptr align 4 %self, ptr align 8 %streams) unnamed_addr #0 personality ptr @rust_eh_personality !dbg !1504 {
start:
  %0 = alloca { ptr, i32, [1 x i32] }, align 8
  %self.dbg.spill = alloca ptr, align 8
  %_15 = alloca i8, align 1
  %_14 = alloca i8, align 1
  %_13 = alloca %"proc_macro::ConcatStreamsHelper", align 8
  %_10 = alloca ptr, align 8
  %_9 = alloca %"core::iter::adapters::map::Map<core::iter::adapters::map::Map<core::iter::sources::once::Once<proc_macro2::TokenStream>, {closure@<proc_macro2::TokenStream as core::iter::traits::collect::Extend<proc_macro2::TokenStream>>::extend<core::iter::sources::once::Once<proc_macro2::TokenStream>>::{closure#0}}>, fn(proc_macro2::imp::TokenStream) -> proc_macro::TokenStream {proc_macro2::imp::TokenStream::unwrap_nightly}>", align 8
  %_6 = alloca { i64, %"core::option::Option<usize>" }, align 8
  %builder = alloca %"proc_macro::ConcatStreamsHelper", align 8
  %iter = alloca %"core::iter::adapters::map::Map<core::iter::adapters::map::Map<core::iter::sources::once::Once<proc_macro2::TokenStream>, {closure@<proc_macro2::TokenStream as core::iter::traits::collect::Extend<proc_macro2::TokenStream>>::extend<core::iter::sources::once::Once<proc_macro2::TokenStream>>::{closure#0}}>, fn(proc_macro2::imp::TokenStream) -> proc_macro::TokenStream {proc_macro2::imp::TokenStream::unwrap_nightly}>", align 8
  store ptr %self, ptr %self.dbg.spill, align 8
  call void @llvm.dbg.declare(metadata ptr %self.dbg.spill, metadata !1510, metadata !DIExpression()), !dbg !1518
  call void @llvm.dbg.declare(metadata ptr %streams, metadata !1511, metadata !DIExpression()), !dbg !1519
  call void @llvm.dbg.declare(metadata ptr %iter, metadata !1512, metadata !DIExpression()), !dbg !1520
  call void @llvm.dbg.declare(metadata ptr %builder, metadata !1514, metadata !DIExpression()), !dbg !1521
; call <I as core::iter::traits::collect::IntoIterator>::into_iter
  call void @"_ZN63_$LT$I$u20$as$u20$core..iter..traits..collect..IntoIterator$GT$9into_iter17h7bdd7ed63aba80dfE"(ptr sret(%"core::iter::adapters::map::Map<core::iter::adapters::map::Map<core::iter::sources::once::Once<proc_macro2::TokenStream>, {closure@<proc_macro2::TokenStream as core::iter::traits::collect::Extend<proc_macro2::TokenStream>>::extend<core::iter::sources::once::Once<proc_macro2::TokenStream>>::{closure#0}}>, fn(proc_macro2::imp::TokenStream) -> proc_macro::TokenStream {proc_macro2::imp::TokenStream::unwrap_nightly}>") align 8 %iter, ptr align 8 %streams), !dbg !1522
  store i8 1, ptr %_15, align 1, !dbg !1523
; invoke <core::iter::adapters::map::Map<I,F> as core::iter::traits::iterator::Iterator>::size_hint
  invoke void @"_ZN102_$LT$core..iter..adapters..map..Map$LT$I$C$F$GT$$u20$as$u20$core..iter..traits..iterator..Iterator$GT$9size_hint17hb391c00ee516bce1E"(ptr sret({ i64, %"core::option::Option<usize>" }) align 8 %_6, ptr align 8 %iter)
          to label %bb2 unwind label %cleanup, !dbg !1524

bb10:                                             ; preds = %bb7, %bb8, %cleanup
  %1 = load i8, ptr %_15, align 1, !dbg !1525, !range !1526, !noundef !27
  %2 = trunc i8 %1 to i1, !dbg !1525
  br i1 %2, label %bb9, label %bb6, !dbg !1525

cleanup:                                          ; preds = %bb2, %start
  %3 = landingpad { ptr, i32 }
          cleanup
  %4 = extractvalue { ptr, i32 } %3, 0
  %5 = extractvalue { ptr, i32 } %3, 1
  store ptr %4, ptr %0, align 8
  %6 = getelementptr inbounds i8, ptr %0, i64 8
  store i32 %5, ptr %6, align 8
  br label %bb10

bb2:                                              ; preds = %start
  %_5 = load i64, ptr %_6, align 8, !dbg !1524, !noundef !27
; invoke proc_macro::ConcatStreamsHelper::new
  invoke void @_ZN10proc_macro19ConcatStreamsHelper3new17h4d7e78f4dfdc27fbE(ptr sret(%"proc_macro::ConcatStreamsHelper") align 8 %builder, i64 %_5)
          to label %bb3 unwind label %cleanup, !dbg !1527

bb3:                                              ; preds = %bb2
  store i8 1, ptr %_14, align 1, !dbg !1528
  store i8 0, ptr %_15, align 1, !dbg !1529
  call void @llvm.memcpy.p0.p0.i64(ptr align 8 %_9, ptr align 8 %iter, i64 32, i1 false), !dbg !1529
  store ptr %builder, ptr %_10, align 8, !dbg !1530
  %7 = load ptr, ptr %_10, align 8, !dbg !1529, !nonnull !27, !align !658, !noundef !27
; invoke core::iter::traits::iterator::Iterator::for_each
  invoke void @_ZN4core4iter6traits8iterator8Iterator8for_each17h1f4680faf581910dE(ptr align 8 %_9, ptr align 8 %7)
          to label %bb4 unwind label %cleanup1, !dbg !1529

bb8:                                              ; preds = %cleanup1
  %8 = load i8, ptr %_14, align 1, !dbg !1531, !range !1526, !noundef !27
  %9 = trunc i8 %8 to i1, !dbg !1531
  br i1 %9, label %bb7, label %bb10, !dbg !1531

cleanup1:                                         ; preds = %bb4, %bb3
  %10 = landingpad { ptr, i32 }
          cleanup
  %11 = extractvalue { ptr, i32 } %10, 0
  %12 = extractvalue { ptr, i32 } %10, 1
  store ptr %11, ptr %0, align 8
  %13 = getelementptr inbounds i8, ptr %0, i64 8
  store i32 %12, ptr %13, align 8
  br label %bb8

bb4:                                              ; preds = %bb3
  store i8 0, ptr %_14, align 1, !dbg !1532
  call void @llvm.memcpy.p0.p0.i64(ptr align 8 %_13, ptr align 8 %builder, i64 24, i1 false), !dbg !1532
; invoke proc_macro::ConcatStreamsHelper::append_to
  invoke void @_ZN10proc_macro19ConcatStreamsHelper9append_to17h1ae7e4894d4b604aE(ptr align 8 %_13, ptr align 4 %self)
          to label %bb5 unwind label %cleanup1, !dbg !1532

bb5:                                              ; preds = %bb4
  ret void, !dbg !1533

bb7:                                              ; preds = %bb8
; invoke core::ptr::drop_in_place<proc_macro::ConcatStreamsHelper>
  invoke void @"_ZN4core3ptr52drop_in_place$LT$proc_macro..ConcatStreamsHelper$GT$17h8e3027a1c8edec25E"(ptr align 8 %builder) #15
          to label %bb10 unwind label %terminate, !dbg !1531

terminate:                                        ; preds = %bb9, %bb7
  %14 = landingpad { ptr, i32 }
          filter [0 x ptr] zeroinitializer
  %15 = extractvalue { ptr, i32 } %14, 0
  %16 = extractvalue { ptr, i32 } %14, 1
; call core::panicking::panic_in_cleanup
  call void @_ZN4core9panicking16panic_in_cleanup17hb45215b029b98411E() #16, !dbg !1534
  unreachable, !dbg !1534

bb6:                                              ; preds = %bb9, %bb10
  %17 = load ptr, ptr %0, align 8, !dbg !1534, !noundef !27
  %18 = getelementptr inbounds i8, ptr %0, i64 8, !dbg !1534
  %19 = load i32, ptr %18, align 8, !dbg !1534, !noundef !27
  %20 = insertvalue { ptr, i32 } poison, ptr %17, 0, !dbg !1534
  %21 = insertvalue { ptr, i32 } %20, i32 %19, 1, !dbg !1534
  resume { ptr, i32 } %21, !dbg !1534

bb9:                                              ; preds = %bb10
; invoke core::ptr::drop_in_place<core::iter::adapters::map::Map<core::iter::adapters::map::Map<core::iter::sources::once::Once<proc_macro2::TokenStream>,<proc_macro2::TokenStream as core::iter::traits::collect::Extend<proc_macro2::TokenStream>>::extend<core::iter::sources::once::Once<proc_macro2::TokenStream>>::{{closure}}>,proc_macro2::imp::TokenStream::unwrap_nightly>>
  invoke void @"_ZN4core3ptr430drop_in_place$LT$core..iter..adapters..map..Map$LT$core..iter..adapters..map..Map$LT$core..iter..sources..once..Once$LT$proc_macro2..TokenStream$GT$$C$$LT$proc_macro2..TokenStream$u20$as$u20$core..iter..traits..collect..Extend$LT$proc_macro2..TokenStream$GT$$GT$..extend$LT$core..iter..sources..once..Once$LT$proc_macro2..TokenStream$GT$$GT$..$u7b$$u7b$closure$u7d$$u7d$$GT$$C$proc_macro2..imp..TokenStream..unwrap_nightly$GT$$GT$17hcc4e703f4b82672eE"(ptr align 8 %iter) #15
          to label %bb6 unwind label %terminate, !dbg !1525
}

; <proc_macro::TokenStream as core::iter::traits::collect::Extend<proc_macro::TokenStream>>::extend::{{closure}}
; Function Attrs: inlinehint uwtable
define void @"_ZN110_$LT$proc_macro..TokenStream$u20$as$u20$core..iter..traits..collect..Extend$LT$proc_macro..TokenStream$GT$$GT$6extend28_$u7b$$u7b$closure$u7d$$u7d$17h01d8fe2ab3ec22ffE"(ptr align 8 %_1, i32 %stream) unnamed_addr #1 !dbg !1535 {
start:
  %stream.dbg.spill = alloca i32, align 4
  %_1.dbg.spill = alloca ptr, align 8
  store ptr %_1, ptr %_1.dbg.spill, align 8
  call void @llvm.dbg.declare(metadata ptr %_1.dbg.spill, metadata !1541, metadata !DIExpression(DW_OP_deref, DW_OP_deref)), !dbg !1542
  store i32 %stream, ptr %stream.dbg.spill, align 4
  call void @llvm.dbg.declare(metadata ptr %stream.dbg.spill, metadata !1540, metadata !DIExpression()), !dbg !1543
  %_3 = load ptr, ptr %_1, align 8, !dbg !1544, !nonnull !27, !align !658, !noundef !27
; call proc_macro::ConcatStreamsHelper::push
  call void @_ZN10proc_macro19ConcatStreamsHelper4push17h97d9b33ce4936033E(ptr align 8 %_3, i32 %stream), !dbg !1544
  ret void, !dbg !1545
}

; <proc_macro2::TokenStream as core::iter::traits::collect::Extend<proc_macro2::TokenTree>>::extend
; Function Attrs: uwtable
define void @"_ZN110_$LT$proc_macro2..TokenStream$u20$as$u20$core..iter..traits..collect..Extend$LT$proc_macro2..TokenTree$GT$$GT$6extend17h515c50133ad54a2dE"(ptr align 8 %self, ptr align 8 %streams) unnamed_addr #0 !dbg !1546 {
start:
  %self.dbg.spill = alloca ptr, align 8
  store ptr %self, ptr %self.dbg.spill, align 8
  call void @llvm.dbg.declare(metadata ptr %self.dbg.spill, metadata !1563, metadata !DIExpression()), !dbg !1567
  call void @llvm.dbg.declare(metadata ptr %streams, metadata !1564, metadata !DIExpression()), !dbg !1568
; call <proc_macro2::imp::TokenStream as core::iter::traits::collect::Extend<proc_macro2::TokenTree>>::extend
  call void @"_ZN115_$LT$proc_macro2..imp..TokenStream$u20$as$u20$core..iter..traits..collect..Extend$LT$proc_macro2..TokenTree$GT$$GT$6extend17hb1bb90a7d4a48edbE"(ptr align 8 %self, ptr align 8 %streams), !dbg !1569
  ret void, !dbg !1570
}

; <proc_macro2::TokenStream as core::iter::traits::collect::Extend<proc_macro2::TokenTree>>::extend
; Function Attrs: uwtable
define void @"_ZN110_$LT$proc_macro2..TokenStream$u20$as$u20$core..iter..traits..collect..Extend$LT$proc_macro2..TokenTree$GT$$GT$6extend17h5d729eeb3271aa40E"(ptr align 8 %self, ptr align 8 %streams) unnamed_addr #0 !dbg !1571 {
start:
  %self.dbg.spill = alloca ptr, align 8
  store ptr %self, ptr %self.dbg.spill, align 8
  call void @llvm.dbg.declare(metadata ptr %self.dbg.spill, metadata !1581, metadata !DIExpression()), !dbg !1585
  call void @llvm.dbg.declare(metadata ptr %streams, metadata !1582, metadata !DIExpression()), !dbg !1586
; call <proc_macro2::imp::TokenStream as core::iter::traits::collect::Extend<proc_macro2::TokenTree>>::extend
  call void @"_ZN115_$LT$proc_macro2..imp..TokenStream$u20$as$u20$core..iter..traits..collect..Extend$LT$proc_macro2..TokenTree$GT$$GT$6extend17hdfb0f4437745e48aE"(ptr align 8 %self, ptr align 8 %streams), !dbg !1587
  ret void, !dbg !1588
}

; <proc_macro2::TokenStream as core::iter::traits::collect::Extend<proc_macro2::TokenTree>>::extend
; Function Attrs: uwtable
define void @"_ZN110_$LT$proc_macro2..TokenStream$u20$as$u20$core..iter..traits..collect..Extend$LT$proc_macro2..TokenTree$GT$$GT$6extend17h718d48ff4664c372E"(ptr align 8 %self, ptr align 8 %streams) unnamed_addr #0 !dbg !1589 {
start:
  %self.dbg.spill = alloca ptr, align 8
  store ptr %self, ptr %self.dbg.spill, align 8
  call void @llvm.dbg.declare(metadata ptr %self.dbg.spill, metadata !1593, metadata !DIExpression()), !dbg !1597
  call void @llvm.dbg.declare(metadata ptr %streams, metadata !1594, metadata !DIExpression()), !dbg !1598
; call <proc_macro2::imp::TokenStream as core::iter::traits::collect::Extend<proc_macro2::TokenTree>>::extend
  call void @"_ZN115_$LT$proc_macro2..imp..TokenStream$u20$as$u20$core..iter..traits..collect..Extend$LT$proc_macro2..TokenTree$GT$$GT$6extend17hea5940f78f4bb08cE"(ptr align 8 %self, ptr align 8 %streams), !dbg !1599
  ret void, !dbg !1600
}

; <proc_macro2::TokenStream as core::iter::traits::collect::Extend<proc_macro2::TokenTree>>::extend
; Function Attrs: uwtable
define void @"_ZN110_$LT$proc_macro2..TokenStream$u20$as$u20$core..iter..traits..collect..Extend$LT$proc_macro2..TokenTree$GT$$GT$6extend17ha4b074701672f690E"(ptr align 8 %self, ptr align 8 %streams) unnamed_addr #0 !dbg !1601 {
start:
  %self.dbg.spill = alloca ptr, align 8
  store ptr %self, ptr %self.dbg.spill, align 8
  call void @llvm.dbg.declare(metadata ptr %self.dbg.spill, metadata !1616, metadata !DIExpression()), !dbg !1620
  call void @llvm.dbg.declare(metadata ptr %streams, metadata !1617, metadata !DIExpression()), !dbg !1621
; call <proc_macro2::imp::TokenStream as core::iter::traits::collect::Extend<proc_macro2::TokenTree>>::extend
  call void @"_ZN115_$LT$proc_macro2..imp..TokenStream$u20$as$u20$core..iter..traits..collect..Extend$LT$proc_macro2..TokenTree$GT$$GT$6extend17hed19f3d95e9c3c4bE"(ptr align 8 %self, ptr align 8 %streams), !dbg !1622
  ret void, !dbg !1623
}

; <proc_macro2::TokenStream as core::iter::traits::collect::Extend<proc_macro2::TokenStream>>::extend
; Function Attrs: uwtable
define void @"_ZN112_$LT$proc_macro2..TokenStream$u20$as$u20$core..iter..traits..collect..Extend$LT$proc_macro2..TokenStream$GT$$GT$6extend17hfa8a7913f0b7b6b3E"(ptr align 8 %self, ptr align 8 %streams) unnamed_addr #0 !dbg !1624 {
start:
  %self.dbg.spill = alloca ptr, align 8
  %_6 = alloca %"core::iter::sources::once::Once<proc_macro2::TokenStream>", align 8
  %_5 = alloca %"core::iter::adapters::map::Map<core::iter::sources::once::Once<proc_macro2::TokenStream>, {closure@<proc_macro2::TokenStream as core::iter::traits::collect::Extend<proc_macro2::TokenStream>>::extend<core::iter::sources::once::Once<proc_macro2::TokenStream>>::{closure#0}}>", align 8
  store ptr %self, ptr %self.dbg.spill, align 8
  call void @llvm.dbg.declare(metadata ptr %self.dbg.spill, metadata !1628, metadata !DIExpression()), !dbg !1631
  call void @llvm.dbg.declare(metadata ptr %streams, metadata !1629, metadata !DIExpression()), !dbg !1632
; call <I as core::iter::traits::collect::IntoIterator>::into_iter
  call void @"_ZN63_$LT$I$u20$as$u20$core..iter..traits..collect..IntoIterator$GT$9into_iter17he7d8d009971d5b88E"(ptr sret(%"core::iter::sources::once::Once<proc_macro2::TokenStream>") align 8 %_6, ptr align 8 %streams), !dbg !1633
; call core::iter::traits::iterator::Iterator::map
  call void @_ZN4core4iter6traits8iterator8Iterator3map17h1741462f4ad9c0ccE(ptr sret(%"core::iter::adapters::map::Map<core::iter::sources::once::Once<proc_macro2::TokenStream>, {closure@<proc_macro2::TokenStream as core::iter::traits::collect::Extend<proc_macro2::TokenStream>>::extend<core::iter::sources::once::Once<proc_macro2::TokenStream>>::{closure#0}}>") align 8 %_5, ptr align 8 %_6), !dbg !1633
; call <proc_macro2::imp::TokenStream as core::iter::traits::collect::Extend<proc_macro2::imp::TokenStream>>::extend
  call void @"_ZN122_$LT$proc_macro2..imp..TokenStream$u20$as$u20$core..iter..traits..collect..Extend$LT$proc_macro2..imp..TokenStream$GT$$GT$6extend17h9a6ad62f2bfb1400E"(ptr align 8 %self, ptr align 8 %_5), !dbg !1634
  ret void, !dbg !1635
}

; <proc_macro2::TokenStream as core::iter::traits::collect::Extend<proc_macro2::TokenStream>>::extend::{{closure}}
; Function Attrs: inlinehint uwtable
define void @"_ZN112_$LT$proc_macro2..TokenStream$u20$as$u20$core..iter..traits..collect..Extend$LT$proc_macro2..TokenStream$GT$$GT$6extend28_$u7b$$u7b$closure$u7d$$u7d$17h0fc33ea7ed74b2a1E"(ptr sret(%"proc_macro2::imp::TokenStream") align 8 %_0, ptr align 1 %_1, ptr align 8 %stream) unnamed_addr #1 !dbg !1636 {
start:
  %_1.dbg.spill = alloca ptr, align 8
  store ptr %_1, ptr %_1.dbg.spill, align 8
  call void @llvm.dbg.declare(metadata ptr %_1.dbg.spill, metadata !1641, metadata !DIExpression()), !dbg !1642
  call void @llvm.dbg.declare(metadata ptr %stream, metadata !1640, metadata !DIExpression()), !dbg !1643
  call void @llvm.memcpy.p0.p0.i64(ptr align 8 %_0, ptr align 8 %stream, i64 32, i1 false), !dbg !1644
  ret void, !dbg !1645
}

; <proc_macro::TokenStream as core::iter::traits::collect::FromIterator<proc_macro::TokenTree>>::from_iter
; Function Attrs: uwtable
define i32 @"_ZN114_$LT$proc_macro..TokenStream$u20$as$u20$core..iter..traits..collect..FromIterator$LT$proc_macro..TokenTree$GT$$GT$9from_iter17hfe7866632215f1bfE"(ptr align 8 %trees) unnamed_addr #0 personality ptr @rust_eh_personality !dbg !1646 {
start:
  %0 = alloca { ptr, i32, [1 x i32] }, align 8
  %_13 = alloca i8, align 1
  %_12 = alloca i8, align 1
  %_11 = alloca %"proc_macro::ConcatTreesHelper", align 8
  %_9 = alloca ptr, align 8
  %_8 = alloca %"core::iter::adapters::map::Map<core::iter::adapters::map::Map<proc_macro2::token_stream::IntoIter, {closure@src/runtime.rs:277:22: 277:29}>, fn(proc_macro2::TokenTree) -> proc_macro::TokenTree {proc_macro2::imp::into_compiler_token}>", align 8
  %_5 = alloca { i64, %"core::option::Option<usize>" }, align 8
  %builder = alloca %"proc_macro::ConcatTreesHelper", align 8
  %iter = alloca %"core::iter::adapters::map::Map<core::iter::adapters::map::Map<proc_macro2::token_stream::IntoIter, {closure@src/runtime.rs:277:22: 277:29}>, fn(proc_macro2::TokenTree) -> proc_macro::TokenTree {proc_macro2::imp::into_compiler_token}>", align 8
  call void @llvm.dbg.declare(metadata ptr %trees, metadata !1650, metadata !DIExpression()), !dbg !1657
  call void @llvm.dbg.declare(metadata ptr %iter, metadata !1651, metadata !DIExpression()), !dbg !1658
  call void @llvm.dbg.declare(metadata ptr %builder, metadata !1653, metadata !DIExpression()), !dbg !1659
; call <I as core::iter::traits::collect::IntoIterator>::into_iter
  call void @"_ZN63_$LT$I$u20$as$u20$core..iter..traits..collect..IntoIterator$GT$9into_iter17h2a456a3be30a1eceE"(ptr sret(%"core::iter::adapters::map::Map<core::iter::adapters::map::Map<proc_macro2::token_stream::IntoIter, {closure@src/runtime.rs:277:22: 277:29}>, fn(proc_macro2::TokenTree) -> proc_macro::TokenTree {proc_macro2::imp::into_compiler_token}>") align 8 %iter, ptr align 8 %trees), !dbg !1660
  store i8 1, ptr %_13, align 1, !dbg !1661
; invoke <core::iter::adapters::map::Map<I,F> as core::iter::traits::iterator::Iterator>::size_hint
  invoke void @"_ZN102_$LT$core..iter..adapters..map..Map$LT$I$C$F$GT$$u20$as$u20$core..iter..traits..iterator..Iterator$GT$9size_hint17h03268ffe42a04bb1E"(ptr sret({ i64, %"core::option::Option<usize>" }) align 8 %_5, ptr align 8 %iter)
          to label %bb2 unwind label %cleanup, !dbg !1662

bb10:                                             ; preds = %bb7, %bb8, %cleanup
  %1 = load i8, ptr %_13, align 1, !dbg !1663, !range !1526, !noundef !27
  %2 = trunc i8 %1 to i1, !dbg !1663
  br i1 %2, label %bb9, label %bb6, !dbg !1663

cleanup:                                          ; preds = %bb2, %start
  %3 = landingpad { ptr, i32 }
          cleanup
  %4 = extractvalue { ptr, i32 } %3, 0
  %5 = extractvalue { ptr, i32 } %3, 1
  store ptr %4, ptr %0, align 8
  %6 = getelementptr inbounds i8, ptr %0, i64 8
  store i32 %5, ptr %6, align 8
  br label %bb10

bb2:                                              ; preds = %start
  %_4 = load i64, ptr %_5, align 8, !dbg !1662, !noundef !27
; invoke proc_macro::ConcatTreesHelper::new
  invoke void @_ZN10proc_macro17ConcatTreesHelper3new17hdee6525c384144b6E(ptr sret(%"proc_macro::ConcatTreesHelper") align 8 %builder, i64 %_4)
          to label %bb3 unwind label %cleanup, !dbg !1664

bb3:                                              ; preds = %bb2
  store i8 1, ptr %_12, align 1, !dbg !1665
  store i8 0, ptr %_13, align 1, !dbg !1666
  call void @llvm.memcpy.p0.p0.i64(ptr align 8 %_8, ptr align 8 %iter, i64 48, i1 false), !dbg !1666
  store ptr %builder, ptr %_9, align 8, !dbg !1667
  %7 = load ptr, ptr %_9, align 8, !dbg !1666, !nonnull !27, !align !658, !noundef !27
; invoke core::iter::traits::iterator::Iterator::for_each
  invoke void @_ZN4core4iter6traits8iterator8Iterator8for_each17he46672e18b66a678E(ptr align 8 %_8, ptr align 8 %7)
          to label %bb4 unwind label %cleanup1, !dbg !1666

bb8:                                              ; preds = %cleanup1
  %8 = load i8, ptr %_12, align 1, !dbg !1668, !range !1526, !noundef !27
  %9 = trunc i8 %8 to i1, !dbg !1668
  br i1 %9, label %bb7, label %bb10, !dbg !1668

cleanup1:                                         ; preds = %bb4, %bb3
  %10 = landingpad { ptr, i32 }
          cleanup
  %11 = extractvalue { ptr, i32 } %10, 0
  %12 = extractvalue { ptr, i32 } %10, 1
  store ptr %11, ptr %0, align 8
  %13 = getelementptr inbounds i8, ptr %0, i64 8
  store i32 %12, ptr %13, align 8
  br label %bb8

bb4:                                              ; preds = %bb3
  store i8 0, ptr %_12, align 1, !dbg !1669
  call void @llvm.memcpy.p0.p0.i64(ptr align 8 %_11, ptr align 8 %builder, i64 24, i1 false), !dbg !1669
; invoke proc_macro::ConcatTreesHelper::build
  %_0 = invoke i32 @_ZN10proc_macro17ConcatTreesHelper5build17h17cbc976dcdff11cE(ptr align 8 %_11)
          to label %bb5 unwind label %cleanup1, !dbg !1669

bb5:                                              ; preds = %bb4
  ret i32 %_0, !dbg !1670

bb7:                                              ; preds = %bb8
; invoke core::ptr::drop_in_place<proc_macro::ConcatTreesHelper>
  invoke void @"_ZN4core3ptr50drop_in_place$LT$proc_macro..ConcatTreesHelper$GT$17h9a44d10782956ceaE"(ptr align 8 %builder) #15
          to label %bb10 unwind label %terminate, !dbg !1668

terminate:                                        ; preds = %bb9, %bb7
  %14 = landingpad { ptr, i32 }
          filter [0 x ptr] zeroinitializer
  %15 = extractvalue { ptr, i32 } %14, 0
  %16 = extractvalue { ptr, i32 } %14, 1
; call core::panicking::panic_in_cleanup
  call void @_ZN4core9panicking16panic_in_cleanup17hb45215b029b98411E() #16, !dbg !1671
  unreachable, !dbg !1671

bb6:                                              ; preds = %bb9, %bb10
  %17 = load ptr, ptr %0, align 8, !dbg !1671, !noundef !27
  %18 = getelementptr inbounds i8, ptr %0, i64 8, !dbg !1671
  %19 = load i32, ptr %18, align 8, !dbg !1671, !noundef !27
  %20 = insertvalue { ptr, i32 } poison, ptr %17, 0, !dbg !1671
  %21 = insertvalue { ptr, i32 } %20, i32 %19, 1, !dbg !1671
  resume { ptr, i32 } %21, !dbg !1671

bb9:                                              ; preds = %bb10
; invoke core::ptr::drop_in_place<core::iter::adapters::map::Map<core::iter::adapters::map::Map<proc_macro2::token_stream::IntoIter,quote::__private::respan_token_tree::{{closure}}>,proc_macro2::imp::into_compiler_token>>
  invoke void @"_ZN4core3ptr239drop_in_place$LT$core..iter..adapters..map..Map$LT$core..iter..adapters..map..Map$LT$proc_macro2..token_stream..IntoIter$C$quote..__private..respan_token_tree..$u7b$$u7b$closure$u7d$$u7d$$GT$$C$proc_macro2..imp..into_compiler_token$GT$$GT$17hcea9b616994f80d8E"(ptr align 8 %iter) #15
          to label %bb6 unwind label %terminate, !dbg !1663
}

; <proc_macro::TokenStream as core::iter::traits::collect::FromIterator<proc_macro::TokenTree>>::from_iter::{{closure}}
; Function Attrs: inlinehint uwtable
define void @"_ZN114_$LT$proc_macro..TokenStream$u20$as$u20$core..iter..traits..collect..FromIterator$LT$proc_macro..TokenTree$GT$$GT$9from_iter28_$u7b$$u7b$closure$u7d$$u7d$17h442fd177adea216bE"(ptr align 8 %_1, ptr align 4 %tree) unnamed_addr #1 !dbg !1672 {
start:
  %_1.dbg.spill = alloca ptr, align 8
  store ptr %_1, ptr %_1.dbg.spill, align 8
  call void @llvm.dbg.declare(metadata ptr %_1.dbg.spill, metadata !1678, metadata !DIExpression(DW_OP_deref, DW_OP_deref)), !dbg !1679
  call void @llvm.dbg.declare(metadata ptr %tree, metadata !1677, metadata !DIExpression()), !dbg !1680
  %_3 = load ptr, ptr %_1, align 8, !dbg !1681, !nonnull !27, !align !658, !noundef !27
; call proc_macro::ConcatTreesHelper::push
  call void @_ZN10proc_macro17ConcatTreesHelper4push17h04c1d356bd817c35E(ptr align 8 %_3, ptr align 4 %tree), !dbg !1681
  ret void, !dbg !1682
}

; <proc_macro2::imp::TokenStream as core::iter::traits::collect::Extend<proc_macro2::TokenTree>>::extend
; Function Attrs: uwtable
define void @"_ZN115_$LT$proc_macro2..imp..TokenStream$u20$as$u20$core..iter..traits..collect..Extend$LT$proc_macro2..TokenTree$GT$$GT$6extend17hb1bb90a7d4a48edbE"(ptr align 8 %self, ptr align 8 %stream) unnamed_addr #0 personality ptr @rust_eh_personality !dbg !1683 {
start:
  %tts.dbg.spill1 = alloca ptr, align 8
  %0 = alloca { ptr, i32, [1 x i32] }, align 8
  %tts.dbg.spill = alloca ptr, align 8
  %self.dbg.spill = alloca ptr, align 8
  %_13 = alloca %"proc_macro::TokenTree", align 4
  %token = alloca %"proc_macro2::TokenTree", align 8
  %_7 = alloca %"core::option::Option<proc_macro2::TokenTree>", align 8
  %iter = alloca %"__private::push_lifetime::Lifetime<'_>", align 8
  %_5 = alloca %"__private::push_lifetime::Lifetime<'_>", align 8
  store ptr %self, ptr %self.dbg.spill, align 8
  call void @llvm.dbg.declare(metadata ptr %self.dbg.spill, metadata !1690, metadata !DIExpression()), !dbg !1702
  call void @llvm.dbg.declare(metadata ptr %stream, metadata !1691, metadata !DIExpression()), !dbg !1703
  call void @llvm.dbg.declare(metadata ptr %iter, metadata !1695, metadata !DIExpression()), !dbg !1704
  call void @llvm.dbg.declare(metadata ptr %token, metadata !1697, metadata !DIExpression()), !dbg !1705
  %1 = load i64, ptr %self, align 8, !dbg !1706, !range !1707, !noundef !27
  %2 = icmp eq i64 %1, -9223372036854775808, !dbg !1706
  %_3 = select i1 %2, i64 1, i64 0, !dbg !1706
  %3 = icmp eq i64 %_3, 0, !dbg !1708
  br i1 %3, label %bb3, label %bb2, !dbg !1708

bb3:                                              ; preds = %start
  store ptr %self, ptr %tts.dbg.spill, align 8, !dbg !1709
  call void @llvm.dbg.declare(metadata ptr %tts.dbg.spill, metadata !1692, metadata !DIExpression()), !dbg !1710
; call <I as core::iter::traits::collect::IntoIterator>::into_iter
  call void @"_ZN63_$LT$I$u20$as$u20$core..iter..traits..collect..IntoIterator$GT$9into_iter17h88e81a34ce2fd4b6E"(ptr sret(%"__private::push_lifetime::Lifetime<'_>") align 8 %_5, ptr align 8 %stream), !dbg !1711
  call void @llvm.memcpy.p0.p0.i64(ptr align 8 %iter, ptr align 8 %_5, i64 24, i1 false), !dbg !1711
  br label %bb5, !dbg !1712

bb2:                                              ; preds = %start
  %tts = getelementptr inbounds i8, ptr %self, i64 8, !dbg !1713
  store ptr %tts, ptr %tts.dbg.spill1, align 8, !dbg !1713
  call void @llvm.dbg.declare(metadata ptr %tts.dbg.spill1, metadata !1699, metadata !DIExpression()), !dbg !1714
; call <proc_macro2::fallback::TokenStream as core::iter::traits::collect::Extend<proc_macro2::TokenTree>>::extend
  call void @"_ZN120_$LT$proc_macro2..fallback..TokenStream$u20$as$u20$core..iter..traits..collect..Extend$LT$proc_macro2..TokenTree$GT$$GT$6extend17h8a079c855acd6a8fE"(ptr align 8 %tts, ptr align 8 %stream), !dbg !1715
  br label %bb10, !dbg !1715

bb5:                                              ; preds = %bb13, %bb3
; invoke <quote::__private::push_lifetime::Lifetime as core::iter::traits::iterator::Iterator>::next
  invoke void @"_ZN100_$LT$quote..__private..push_lifetime..Lifetime$u20$as$u20$core..iter..traits..iterator..Iterator$GT$4next17h3b613d85af978361E"(ptr sret(%"core::option::Option<proc_macro2::TokenTree>") align 8 %_7, ptr align 8 %iter)
          to label %bb6 unwind label %cleanup, !dbg !1704

bb11:                                             ; preds = %cleanup
  %4 = load ptr, ptr %0, align 8, !dbg !1716, !noundef !27
  %5 = getelementptr inbounds i8, ptr %0, i64 8, !dbg !1716
  %6 = load i32, ptr %5, align 8, !dbg !1716, !noundef !27
  %7 = insertvalue { ptr, i32 } poison, ptr %4, 0, !dbg !1716
  %8 = insertvalue { ptr, i32 } %7, i32 %6, 1, !dbg !1716
  resume { ptr, i32 } %8, !dbg !1716

cleanup:                                          ; preds = %bb9, %bb7, %bb5
  %9 = landingpad { ptr, i32 }
          cleanup
  %10 = extractvalue { ptr, i32 } %9, 0
  %11 = extractvalue { ptr, i32 } %9, 1
  store ptr %10, ptr %0, align 8
  %12 = getelementptr inbounds i8, ptr %0, i64 8
  store i32 %11, ptr %12, align 8
  br label %bb11

bb6:                                              ; preds = %bb5
  %13 = load i64, ptr %_7, align 8, !dbg !1704, !range !1115, !noundef !27
  %14 = icmp eq i64 %13, -9223372036854775803, !dbg !1704
  %_9 = select i1 %14, i64 0, i64 1, !dbg !1704
  %15 = icmp eq i64 %_9, 0, !dbg !1704
  br i1 %15, label %bb8, label %bb7, !dbg !1704

bb8:                                              ; preds = %bb6
  br label %bb10, !dbg !1717

bb7:                                              ; preds = %bb6
  call void @llvm.memcpy.p0.p0.i64(ptr align 8 %token, ptr align 8 %_7, i64 32, i1 false), !dbg !1718
; invoke proc_macro2::imp::into_compiler_token
  invoke void @_ZN11proc_macro23imp19into_compiler_token17ha1e36c67e0a8722dE(ptr sret(%"proc_macro::TokenTree") align 4 %_13, ptr align 8 %token)
          to label %bb9 unwind label %cleanup, !dbg !1719

bb10:                                             ; preds = %bb2, %bb8
  ret void, !dbg !1720

bb9:                                              ; preds = %bb7
; invoke alloc::vec::Vec<T,A>::push
  invoke void @"_ZN5alloc3vec16Vec$LT$T$C$A$GT$4push17hc5db873282e7634bE"(ptr align 8 %self, ptr align 4 %_13)
          to label %bb13 unwind label %cleanup, !dbg !1721

bb13:                                             ; preds = %bb9
  br label %bb5, !dbg !1721

bb1:                                              ; No predecessors!
  unreachable, !dbg !1706
}

; <proc_macro2::imp::TokenStream as core::iter::traits::collect::Extend<proc_macro2::TokenTree>>::extend
; Function Attrs: uwtable
define void @"_ZN115_$LT$proc_macro2..imp..TokenStream$u20$as$u20$core..iter..traits..collect..Extend$LT$proc_macro2..TokenTree$GT$$GT$6extend17hdfb0f4437745e48aE"(ptr align 8 %self, ptr align 8 %stream) unnamed_addr #0 personality ptr @rust_eh_personality !dbg !1722 {
start:
  %tts.dbg.spill1 = alloca ptr, align 8
  %0 = alloca { ptr, i32, [1 x i32] }, align 8
  %tts.dbg.spill = alloca ptr, align 8
  %self.dbg.spill = alloca ptr, align 8
  %_13 = alloca %"proc_macro::TokenTree", align 4
  %token = alloca %"proc_macro2::TokenTree", align 8
  %_7 = alloca %"core::option::Option<proc_macro2::TokenTree>", align 8
  %iter = alloca %"__private::push_lifetime_spanned::Lifetime<'_>", align 8
  %_5 = alloca %"__private::push_lifetime_spanned::Lifetime<'_>", align 8
  store ptr %self, ptr %self.dbg.spill, align 8
  call void @llvm.dbg.declare(metadata ptr %self.dbg.spill, metadata !1726, metadata !DIExpression()), !dbg !1736
  call void @llvm.dbg.declare(metadata ptr %stream, metadata !1727, metadata !DIExpression()), !dbg !1737
  call void @llvm.dbg.declare(metadata ptr %iter, metadata !1730, metadata !DIExpression()), !dbg !1738
  call void @llvm.dbg.declare(metadata ptr %token, metadata !1732, metadata !DIExpression()), !dbg !1739
  %1 = load i64, ptr %self, align 8, !dbg !1740, !range !1707, !noundef !27
  %2 = icmp eq i64 %1, -9223372036854775808, !dbg !1740
  %_3 = select i1 %2, i64 1, i64 0, !dbg !1740
  %3 = icmp eq i64 %_3, 0, !dbg !1741
  br i1 %3, label %bb3, label %bb2, !dbg !1741

bb3:                                              ; preds = %start
  store ptr %self, ptr %tts.dbg.spill, align 8, !dbg !1742
  call void @llvm.dbg.declare(metadata ptr %tts.dbg.spill, metadata !1728, metadata !DIExpression()), !dbg !1743
; call <I as core::iter::traits::collect::IntoIterator>::into_iter
  call void @"_ZN63_$LT$I$u20$as$u20$core..iter..traits..collect..IntoIterator$GT$9into_iter17h44e26dfcc3caf95dE"(ptr sret(%"__private::push_lifetime_spanned::Lifetime<'_>") align 8 %_5, ptr align 8 %stream), !dbg !1744
  call void @llvm.memcpy.p0.p0.i64(ptr align 8 %iter, ptr align 8 %_5, i64 24, i1 false), !dbg !1744
  br label %bb5, !dbg !1745

bb2:                                              ; preds = %start
  %tts = getelementptr inbounds i8, ptr %self, i64 8, !dbg !1746
  store ptr %tts, ptr %tts.dbg.spill1, align 8, !dbg !1746
  call void @llvm.dbg.declare(metadata ptr %tts.dbg.spill1, metadata !1734, metadata !DIExpression()), !dbg !1747
; call <proc_macro2::fallback::TokenStream as core::iter::traits::collect::Extend<proc_macro2::TokenTree>>::extend
  call void @"_ZN120_$LT$proc_macro2..fallback..TokenStream$u20$as$u20$core..iter..traits..collect..Extend$LT$proc_macro2..TokenTree$GT$$GT$6extend17h80a38b2d44cab533E"(ptr align 8 %tts, ptr align 8 %stream), !dbg !1748
  br label %bb10, !dbg !1748

bb5:                                              ; preds = %bb13, %bb3
; invoke <quote::__private::push_lifetime_spanned::Lifetime as core::iter::traits::iterator::Iterator>::next
  invoke void @"_ZN108_$LT$quote..__private..push_lifetime_spanned..Lifetime$u20$as$u20$core..iter..traits..iterator..Iterator$GT$4next17hcca85592b67725a9E"(ptr sret(%"core::option::Option<proc_macro2::TokenTree>") align 8 %_7, ptr align 8 %iter)
          to label %bb6 unwind label %cleanup, !dbg !1738

bb11:                                             ; preds = %cleanup
  %4 = load ptr, ptr %0, align 8, !dbg !1749, !noundef !27
  %5 = getelementptr inbounds i8, ptr %0, i64 8, !dbg !1749
  %6 = load i32, ptr %5, align 8, !dbg !1749, !noundef !27
  %7 = insertvalue { ptr, i32 } poison, ptr %4, 0, !dbg !1749
  %8 = insertvalue { ptr, i32 } %7, i32 %6, 1, !dbg !1749
  resume { ptr, i32 } %8, !dbg !1749

cleanup:                                          ; preds = %bb9, %bb7, %bb5
  %9 = landingpad { ptr, i32 }
          cleanup
  %10 = extractvalue { ptr, i32 } %9, 0
  %11 = extractvalue { ptr, i32 } %9, 1
  store ptr %10, ptr %0, align 8
  %12 = getelementptr inbounds i8, ptr %0, i64 8
  store i32 %11, ptr %12, align 8
  br label %bb11

bb6:                                              ; preds = %bb5
  %13 = load i64, ptr %_7, align 8, !dbg !1738, !range !1115, !noundef !27
  %14 = icmp eq i64 %13, -9223372036854775803, !dbg !1738
  %_9 = select i1 %14, i64 0, i64 1, !dbg !1738
  %15 = icmp eq i64 %_9, 0, !dbg !1738
  br i1 %15, label %bb8, label %bb7, !dbg !1738

bb8:                                              ; preds = %bb6
  br label %bb10, !dbg !1750

bb7:                                              ; preds = %bb6
  call void @llvm.memcpy.p0.p0.i64(ptr align 8 %token, ptr align 8 %_7, i64 32, i1 false), !dbg !1751
; invoke proc_macro2::imp::into_compiler_token
  invoke void @_ZN11proc_macro23imp19into_compiler_token17ha1e36c67e0a8722dE(ptr sret(%"proc_macro::TokenTree") align 4 %_13, ptr align 8 %token)
          to label %bb9 unwind label %cleanup, !dbg !1752

bb10:                                             ; preds = %bb2, %bb8
  ret void, !dbg !1753

bb9:                                              ; preds = %bb7
; invoke alloc::vec::Vec<T,A>::push
  invoke void @"_ZN5alloc3vec16Vec$LT$T$C$A$GT$4push17hc5db873282e7634bE"(ptr align 8 %self, ptr align 4 %_13)
          to label %bb13 unwind label %cleanup, !dbg !1754

bb13:                                             ; preds = %bb9
  br label %bb5, !dbg !1754

bb1:                                              ; No predecessors!
  unreachable, !dbg !1740
}

; <proc_macro2::imp::TokenStream as core::iter::traits::collect::Extend<proc_macro2::TokenTree>>::extend
; Function Attrs: uwtable
define void @"_ZN115_$LT$proc_macro2..imp..TokenStream$u20$as$u20$core..iter..traits..collect..Extend$LT$proc_macro2..TokenTree$GT$$GT$6extend17hea5940f78f4bb08cE"(ptr align 8 %self, ptr align 8 %stream) unnamed_addr #0 personality ptr @rust_eh_personality !dbg !1755 {
start:
  %tts.dbg.spill1 = alloca ptr, align 8
  %0 = alloca { ptr, i32, [1 x i32] }, align 8
  %tts.dbg.spill = alloca ptr, align 8
  %self.dbg.spill = alloca ptr, align 8
  %_13 = alloca %"proc_macro::TokenTree", align 4
  %token = alloca %"proc_macro2::TokenTree", align 8
  %_7 = alloca %"core::option::Option<proc_macro2::TokenTree>", align 8
  %iter = alloca %"core::iter::adapters::map::Map<proc_macro2::token_stream::IntoIter, {closure@src/runtime.rs:267:37: 267:40}>", align 8
  %_5 = alloca %"core::iter::adapters::map::Map<proc_macro2::token_stream::IntoIter, {closure@src/runtime.rs:267:37: 267:40}>", align 8
  store ptr %self, ptr %self.dbg.spill, align 8
  call void @llvm.dbg.declare(metadata ptr %self.dbg.spill, metadata !1759, metadata !DIExpression()), !dbg !1769
  call void @llvm.dbg.declare(metadata ptr %stream, metadata !1760, metadata !DIExpression()), !dbg !1770
  call void @llvm.dbg.declare(metadata ptr %iter, metadata !1763, metadata !DIExpression()), !dbg !1771
  call void @llvm.dbg.declare(metadata ptr %token, metadata !1765, metadata !DIExpression()), !dbg !1772
  %1 = load i64, ptr %self, align 8, !dbg !1773, !range !1707, !noundef !27
  %2 = icmp eq i64 %1, -9223372036854775808, !dbg !1773
  %_3 = select i1 %2, i64 1, i64 0, !dbg !1773
  %3 = icmp eq i64 %_3, 0, !dbg !1774
  br i1 %3, label %bb3, label %bb2, !dbg !1774

bb3:                                              ; preds = %start
  store ptr %self, ptr %tts.dbg.spill, align 8, !dbg !1775
  call void @llvm.dbg.declare(metadata ptr %tts.dbg.spill, metadata !1761, metadata !DIExpression()), !dbg !1776
; call <I as core::iter::traits::collect::IntoIterator>::into_iter
  call void @"_ZN63_$LT$I$u20$as$u20$core..iter..traits..collect..IntoIterator$GT$9into_iter17h5b920c8246b2fe5fE"(ptr sret(%"core::iter::adapters::map::Map<proc_macro2::token_stream::IntoIter, {closure@src/runtime.rs:267:37: 267:40}>") align 8 %_5, ptr align 8 %stream), !dbg !1777
  call void @llvm.memcpy.p0.p0.i64(ptr align 8 %iter, ptr align 8 %_5, i64 48, i1 false), !dbg !1777
  br label %bb5, !dbg !1778

bb2:                                              ; preds = %start
  %tts = getelementptr inbounds i8, ptr %self, i64 8, !dbg !1779
  store ptr %tts, ptr %tts.dbg.spill1, align 8, !dbg !1779
  call void @llvm.dbg.declare(metadata ptr %tts.dbg.spill1, metadata !1767, metadata !DIExpression()), !dbg !1780
; call <proc_macro2::fallback::TokenStream as core::iter::traits::collect::Extend<proc_macro2::TokenTree>>::extend
  call void @"_ZN120_$LT$proc_macro2..fallback..TokenStream$u20$as$u20$core..iter..traits..collect..Extend$LT$proc_macro2..TokenTree$GT$$GT$6extend17hf76fa1f98630b999E"(ptr align 8 %tts, ptr align 8 %stream), !dbg !1781
  br label %bb10, !dbg !1781

bb5:                                              ; preds = %bb13, %bb3
; invoke <core::iter::adapters::map::Map<I,F> as core::iter::traits::iterator::Iterator>::next
  invoke void @"_ZN102_$LT$core..iter..adapters..map..Map$LT$I$C$F$GT$$u20$as$u20$core..iter..traits..iterator..Iterator$GT$4next17h11f66fe56b44f4d4E"(ptr sret(%"core::option::Option<proc_macro2::TokenTree>") align 8 %_7, ptr align 8 %iter)
          to label %bb6 unwind label %cleanup, !dbg !1771

bb11:                                             ; preds = %cleanup
; invoke core::ptr::drop_in_place<core::iter::adapters::map::Map<proc_macro2::token_stream::IntoIter,quote::__private::parse_spanned::{{closure}}>>
  invoke void @"_ZN4core3ptr157drop_in_place$LT$core..iter..adapters..map..Map$LT$proc_macro2..token_stream..IntoIter$C$quote..__private..parse_spanned..$u7b$$u7b$closure$u7d$$u7d$$GT$$GT$17he03beab787d81663E"(ptr align 8 %iter) #15
          to label %bb12 unwind label %terminate, !dbg !1782

cleanup:                                          ; preds = %bb9, %bb7, %bb5
  %4 = landingpad { ptr, i32 }
          cleanup
  %5 = extractvalue { ptr, i32 } %4, 0
  %6 = extractvalue { ptr, i32 } %4, 1
  store ptr %5, ptr %0, align 8
  %7 = getelementptr inbounds i8, ptr %0, i64 8
  store i32 %6, ptr %7, align 8
  br label %bb11

bb6:                                              ; preds = %bb5
  %8 = load i64, ptr %_7, align 8, !dbg !1771, !range !1115, !noundef !27
  %9 = icmp eq i64 %8, -9223372036854775803, !dbg !1771
  %_9 = select i1 %9, i64 0, i64 1, !dbg !1771
  %10 = icmp eq i64 %_9, 0, !dbg !1771
  br i1 %10, label %bb8, label %bb7, !dbg !1771

bb8:                                              ; preds = %bb6
; call core::ptr::drop_in_place<core::iter::adapters::map::Map<proc_macro2::token_stream::IntoIter,quote::__private::parse_spanned::{{closure}}>>
  call void @"_ZN4core3ptr157drop_in_place$LT$core..iter..adapters..map..Map$LT$proc_macro2..token_stream..IntoIter$C$quote..__private..parse_spanned..$u7b$$u7b$closure$u7d$$u7d$$GT$$GT$17he03beab787d81663E"(ptr align 8 %iter), !dbg !1782
  br label %bb10, !dbg !1782

bb7:                                              ; preds = %bb6
  call void @llvm.memcpy.p0.p0.i64(ptr align 8 %token, ptr align 8 %_7, i64 32, i1 false), !dbg !1783
; invoke proc_macro2::imp::into_compiler_token
  invoke void @_ZN11proc_macro23imp19into_compiler_token17ha1e36c67e0a8722dE(ptr sret(%"proc_macro::TokenTree") align 4 %_13, ptr align 8 %token)
          to label %bb9 unwind label %cleanup, !dbg !1784

bb10:                                             ; preds = %bb2, %bb8
  ret void, !dbg !1785

bb9:                                              ; preds = %bb7
; invoke alloc::vec::Vec<T,A>::push
  invoke void @"_ZN5alloc3vec16Vec$LT$T$C$A$GT$4push17hc5db873282e7634bE"(ptr align 8 %self, ptr align 4 %_13)
          to label %bb13 unwind label %cleanup, !dbg !1786

bb13:                                             ; preds = %bb9
  br label %bb5, !dbg !1786

terminate:                                        ; preds = %bb11
  %11 = landingpad { ptr, i32 }
          filter [0 x ptr] zeroinitializer
  %12 = extractvalue { ptr, i32 } %11, 0
  %13 = extractvalue { ptr, i32 } %11, 1
; call core::panicking::panic_in_cleanup
  call void @_ZN4core9panicking16panic_in_cleanup17hb45215b029b98411E() #16, !dbg !1787
  unreachable, !dbg !1787

bb12:                                             ; preds = %bb11
  %14 = load ptr, ptr %0, align 8, !dbg !1787, !noundef !27
  %15 = getelementptr inbounds i8, ptr %0, i64 8, !dbg !1787
  %16 = load i32, ptr %15, align 8, !dbg !1787, !noundef !27
  %17 = insertvalue { ptr, i32 } poison, ptr %14, 0, !dbg !1787
  %18 = insertvalue { ptr, i32 } %17, i32 %16, 1, !dbg !1787
  resume { ptr, i32 } %18, !dbg !1787

bb1:                                              ; No predecessors!
  unreachable, !dbg !1773
}

; <proc_macro2::imp::TokenStream as core::iter::traits::collect::Extend<proc_macro2::TokenTree>>::extend
; Function Attrs: uwtable
define void @"_ZN115_$LT$proc_macro2..imp..TokenStream$u20$as$u20$core..iter..traits..collect..Extend$LT$proc_macro2..TokenTree$GT$$GT$6extend17hed19f3d95e9c3c4bE"(ptr align 8 %self, ptr align 8 %stream) unnamed_addr #0 personality ptr @rust_eh_personality !dbg !1788 {
start:
  %tts.dbg.spill1 = alloca ptr, align 8
  %0 = alloca { ptr, i32, [1 x i32] }, align 8
  %tts.dbg.spill = alloca ptr, align 8
  %self.dbg.spill = alloca ptr, align 8
  %_13 = alloca %"proc_macro::TokenTree", align 4
  %token = alloca %"proc_macro2::TokenTree", align 8
  %_7 = alloca %"core::option::Option<proc_macro2::TokenTree>", align 8
  %iter = alloca %"core::iter::sources::once::Once<proc_macro2::TokenTree>", align 8
  %_5 = alloca %"core::iter::sources::once::Once<proc_macro2::TokenTree>", align 8
  store ptr %self, ptr %self.dbg.spill, align 8
  call void @llvm.dbg.declare(metadata ptr %self.dbg.spill, metadata !1792, metadata !DIExpression()), !dbg !1802
  call void @llvm.dbg.declare(metadata ptr %stream, metadata !1793, metadata !DIExpression()), !dbg !1803
  call void @llvm.dbg.declare(metadata ptr %iter, metadata !1796, metadata !DIExpression()), !dbg !1804
  call void @llvm.dbg.declare(metadata ptr %token, metadata !1798, metadata !DIExpression()), !dbg !1805
  %1 = load i64, ptr %self, align 8, !dbg !1806, !range !1707, !noundef !27
  %2 = icmp eq i64 %1, -9223372036854775808, !dbg !1806
  %_3 = select i1 %2, i64 1, i64 0, !dbg !1806
  %3 = icmp eq i64 %_3, 0, !dbg !1807
  br i1 %3, label %bb3, label %bb2, !dbg !1807

bb3:                                              ; preds = %start
  store ptr %self, ptr %tts.dbg.spill, align 8, !dbg !1808
  call void @llvm.dbg.declare(metadata ptr %tts.dbg.spill, metadata !1794, metadata !DIExpression()), !dbg !1809
; call <I as core::iter::traits::collect::IntoIterator>::into_iter
  call void @"_ZN63_$LT$I$u20$as$u20$core..iter..traits..collect..IntoIterator$GT$9into_iter17hc49e7ce4a7eaa8d4E"(ptr sret(%"core::iter::sources::once::Once<proc_macro2::TokenTree>") align 8 %_5, ptr align 8 %stream), !dbg !1810
  call void @llvm.memcpy.p0.p0.i64(ptr align 8 %iter, ptr align 8 %_5, i64 32, i1 false), !dbg !1810
  br label %bb5, !dbg !1811

bb2:                                              ; preds = %start
  %tts = getelementptr inbounds i8, ptr %self, i64 8, !dbg !1812
  store ptr %tts, ptr %tts.dbg.spill1, align 8, !dbg !1812
  call void @llvm.dbg.declare(metadata ptr %tts.dbg.spill1, metadata !1800, metadata !DIExpression()), !dbg !1813
; call <proc_macro2::fallback::TokenStream as core::iter::traits::collect::Extend<proc_macro2::TokenTree>>::extend
  call void @"_ZN120_$LT$proc_macro2..fallback..TokenStream$u20$as$u20$core..iter..traits..collect..Extend$LT$proc_macro2..TokenTree$GT$$GT$6extend17h23bbb1a41468f314E"(ptr align 8 %tts, ptr align 8 %stream), !dbg !1814
  br label %bb10, !dbg !1814

bb5:                                              ; preds = %bb13, %bb3
; invoke <core::iter::sources::once::Once<T> as core::iter::traits::iterator::Iterator>::next
  invoke void @"_ZN99_$LT$core..iter..sources..once..Once$LT$T$GT$$u20$as$u20$core..iter..traits..iterator..Iterator$GT$4next17h6b4d85b99a825666E"(ptr sret(%"core::option::Option<proc_macro2::TokenTree>") align 8 %_7, ptr align 8 %iter)
          to label %bb6 unwind label %cleanup, !dbg !1804

bb11:                                             ; preds = %cleanup
; invoke core::ptr::drop_in_place<core::iter::sources::once::Once<proc_macro2::TokenTree>>
  invoke void @"_ZN4core3ptr82drop_in_place$LT$core..iter..sources..once..Once$LT$proc_macro2..TokenTree$GT$$GT$17h1916aab0fb9c32ebE"(ptr align 8 %iter) #15
          to label %bb12 unwind label %terminate, !dbg !1815

cleanup:                                          ; preds = %bb9, %bb7, %bb5
  %4 = landingpad { ptr, i32 }
          cleanup
  %5 = extractvalue { ptr, i32 } %4, 0
  %6 = extractvalue { ptr, i32 } %4, 1
  store ptr %5, ptr %0, align 8
  %7 = getelementptr inbounds i8, ptr %0, i64 8
  store i32 %6, ptr %7, align 8
  br label %bb11

bb6:                                              ; preds = %bb5
  %8 = load i64, ptr %_7, align 8, !dbg !1804, !range !1115, !noundef !27
  %9 = icmp eq i64 %8, -9223372036854775803, !dbg !1804
  %_9 = select i1 %9, i64 0, i64 1, !dbg !1804
  %10 = icmp eq i64 %_9, 0, !dbg !1804
  br i1 %10, label %bb8, label %bb7, !dbg !1804

bb8:                                              ; preds = %bb6
; call core::ptr::drop_in_place<core::iter::sources::once::Once<proc_macro2::TokenTree>>
  call void @"_ZN4core3ptr82drop_in_place$LT$core..iter..sources..once..Once$LT$proc_macro2..TokenTree$GT$$GT$17h1916aab0fb9c32ebE"(ptr align 8 %iter), !dbg !1815
  br label %bb10, !dbg !1815

bb7:                                              ; preds = %bb6
  call void @llvm.memcpy.p0.p0.i64(ptr align 8 %token, ptr align 8 %_7, i64 32, i1 false), !dbg !1816
; invoke proc_macro2::imp::into_compiler_token
  invoke void @_ZN11proc_macro23imp19into_compiler_token17ha1e36c67e0a8722dE(ptr sret(%"proc_macro::TokenTree") align 4 %_13, ptr align 8 %token)
          to label %bb9 unwind label %cleanup, !dbg !1817

bb10:                                             ; preds = %bb2, %bb8
  ret void, !dbg !1818

bb9:                                              ; preds = %bb7
; invoke alloc::vec::Vec<T,A>::push
  invoke void @"_ZN5alloc3vec16Vec$LT$T$C$A$GT$4push17hc5db873282e7634bE"(ptr align 8 %self, ptr align 4 %_13)
          to label %bb13 unwind label %cleanup, !dbg !1819

bb13:                                             ; preds = %bb9
  br label %bb5, !dbg !1819

terminate:                                        ; preds = %bb11
  %11 = landingpad { ptr, i32 }
          filter [0 x ptr] zeroinitializer
  %12 = extractvalue { ptr, i32 } %11, 0
  %13 = extractvalue { ptr, i32 } %11, 1
; call core::panicking::panic_in_cleanup
  call void @_ZN4core9panicking16panic_in_cleanup17hb45215b029b98411E() #16, !dbg !1820
  unreachable, !dbg !1820

bb12:                                             ; preds = %bb11
  %14 = load ptr, ptr %0, align 8, !dbg !1820, !noundef !27
  %15 = getelementptr inbounds i8, ptr %0, i64 8, !dbg !1820
  %16 = load i32, ptr %15, align 8, !dbg !1820, !noundef !27
  %17 = insertvalue { ptr, i32 } poison, ptr %14, 0, !dbg !1820
  %18 = insertvalue { ptr, i32 } %17, i32 %16, 1, !dbg !1820
  resume { ptr, i32 } %18, !dbg !1820

bb1:                                              ; No predecessors!
  unreachable, !dbg !1806
}

; <core::iter::adapters::flatten::FlattenCompat<I,U> as core::iter::traits::iterator::Iterator>::next
; Function Attrs: inlinehint uwtable
define void @"_ZN116_$LT$core..iter..adapters..flatten..FlattenCompat$LT$I$C$U$GT$$u20$as$u20$core..iter..traits..iterator..Iterator$GT$4next17h2f73da4f31c35647E"(ptr sret(%"core::option::Option<proc_macro2::TokenTree>") align 8 %_0, ptr align 8 %self) unnamed_addr #1 personality ptr @rust_eh_personality !dbg !1821 {
start:
  %0 = alloca { ptr, i32, [1 x i32] }, align 8
  %inner.dbg.spill = alloca ptr, align 8
  %self.dbg.spill1 = alloca ptr, align 8
  %self.dbg.spill = alloca ptr, align 8
  %_12 = alloca %"proc_macro2::rcvec::RcVecIntoIter<proc_macro2::TokenTree>", align 8
  %_11 = alloca %"core::option::Option<proc_macro2::rcvec::RcVecIntoIter<proc_macro2::TokenTree>>", align 8
  %_6 = alloca ptr, align 8
  %elt = alloca %"core::option::Option<proc_macro2::TokenTree>", align 8
  %_2 = alloca %"core::option::Option<proc_macro2::TokenTree>", align 8
  store ptr %self, ptr %self.dbg.spill, align 8
  call void @llvm.dbg.declare(metadata ptr %self.dbg.spill, metadata !1827, metadata !DIExpression()), !dbg !1832
  call void @llvm.dbg.declare(metadata ptr %elt, metadata !1828, metadata !DIExpression()), !dbg !1833
  br label %bb1, !dbg !1834

bb1:                                              ; preds = %bb11, %start
  %_3 = getelementptr inbounds i8, ptr %self, i64 32, !dbg !1835
; call core::iter::adapters::flatten::and_then_or_clear
  call void @_ZN4core4iter8adapters7flatten17and_then_or_clear17hed4d13bc6ca0f7c7E(ptr sret(%"core::option::Option<proc_macro2::TokenTree>") align 8 %_2, ptr align 8 %_3), !dbg !1836
  %1 = load i64, ptr %_2, align 8, !dbg !1833, !range !1115, !noundef !27
  %2 = icmp eq i64 %1, -9223372036854775803, !dbg !1833
  %_4 = select i1 %2, i64 0, i64 1, !dbg !1833
  %3 = icmp eq i64 %_4, 1, !dbg !1833
  br i1 %3, label %bb3, label %bb4, !dbg !1833

bb3:                                              ; preds = %bb1
  call void @llvm.memcpy.p0.p0.i64(ptr align 8 %elt, ptr align 8 %_2, i64 32, i1 false), !dbg !1833
  call void @llvm.memcpy.p0.p0.i64(ptr align 8 %_0, ptr align 8 %elt, i64 32, i1 false), !dbg !1837
  br label %bb13, !dbg !1838

bb4:                                              ; preds = %bb1
; call core::ptr::drop_in_place<core::option::Option<proc_macro2::TokenTree>>
  call void @"_ZN4core3ptr71drop_in_place$LT$core..option..Option$LT$proc_macro2..TokenTree$GT$$GT$17hd77719e9e551f05eE"(ptr align 8 %_2), !dbg !1841
  store ptr %self, ptr %self.dbg.spill1, align 8, !dbg !1842
  call void @llvm.dbg.declare(metadata ptr %self.dbg.spill1, metadata !1843, metadata !DIExpression()), !dbg !1848
; call <core::iter::adapters::fuse::Fuse<I> as core::iter::adapters::fuse::FuseImpl<I>>::next
  %4 = call ptr @"_ZN107_$LT$core..iter..adapters..fuse..Fuse$LT$I$GT$$u20$as$u20$core..iter..adapters..fuse..FuseImpl$LT$I$GT$$GT$4next17h1953c85beb402e71E"(ptr align 8 %self), !dbg !1850
  store ptr %4, ptr %_6, align 8, !dbg !1850
  %5 = load ptr, ptr %_6, align 8, !dbg !1842, !noundef !27
  %6 = ptrtoint ptr %5 to i64, !dbg !1842
  %7 = icmp eq i64 %6, 0, !dbg !1842
  %_8 = select i1 %7, i64 0, i64 1, !dbg !1842
  %8 = icmp eq i64 %_8, 0, !dbg !1851
  br i1 %8, label %bb8, label %bb7, !dbg !1851

bb13:                                             ; preds = %bb8, %bb3
  ret void, !dbg !1852

bb8:                                              ; preds = %bb4
  %_9 = getelementptr inbounds i8, ptr %self, i64 64, !dbg !1853
; call core::iter::adapters::flatten::and_then_or_clear
  call void @_ZN4core4iter8adapters7flatten17and_then_or_clear17hed4d13bc6ca0f7c7E(ptr sret(%"core::option::Option<proc_macro2::TokenTree>") align 8 %_0, ptr align 8 %_9), !dbg !1854
  br label %bb13, !dbg !1838

bb7:                                              ; preds = %bb4
  %inner = load ptr, ptr %_6, align 8, !dbg !1855, !nonnull !27, !noundef !27
  store ptr %inner, ptr %inner.dbg.spill, align 8, !dbg !1855
  call void @llvm.dbg.declare(metadata ptr %inner.dbg.spill, metadata !1830, metadata !DIExpression()), !dbg !1856
; call <proc_macro2::fallback::TokenStream as core::iter::traits::collect::IntoIterator>::into_iter
  call void @"_ZN96_$LT$proc_macro2..fallback..TokenStream$u20$as$u20$core..iter..traits..collect..IntoIterator$GT$9into_iter17h63bebdea6a263805E"(ptr sret(%"proc_macro2::rcvec::RcVecIntoIter<proc_macro2::TokenTree>") align 8 %_12, ptr %inner), !dbg !1857
  call void @llvm.memcpy.p0.p0.i64(ptr align 8 %_11, ptr align 8 %_12, i64 32, i1 false), !dbg !1858
  %9 = getelementptr inbounds i8, ptr %self, i64 32, !dbg !1859
; invoke core::ptr::drop_in_place<core::option::Option<proc_macro2::rcvec::RcVecIntoIter<proc_macro2::TokenTree>>>
  invoke void @"_ZN4core3ptr112drop_in_place$LT$core..option..Option$LT$proc_macro2..rcvec..RcVecIntoIter$LT$proc_macro2..TokenTree$GT$$GT$$GT$17h785133827892e723E"(ptr align 8 %9)
          to label %bb11 unwind label %cleanup, !dbg !1859

bb12:                                             ; preds = %cleanup
  %10 = getelementptr inbounds i8, ptr %self, i64 32, !dbg !1859
  call void @llvm.memcpy.p0.p0.i64(ptr align 8 %10, ptr align 8 %_11, i64 32, i1 false), !dbg !1859
  %11 = load ptr, ptr %0, align 8, !dbg !1860, !noundef !27
  %12 = getelementptr inbounds i8, ptr %0, i64 8, !dbg !1860
  %13 = load i32, ptr %12, align 8, !dbg !1860, !noundef !27
  %14 = insertvalue { ptr, i32 } poison, ptr %11, 0, !dbg !1860
  %15 = insertvalue { ptr, i32 } %14, i32 %13, 1, !dbg !1860
  resume { ptr, i32 } %15, !dbg !1860

cleanup:                                          ; preds = %bb7
  %16 = landingpad { ptr, i32 }
          cleanup
  %17 = extractvalue { ptr, i32 } %16, 0
  %18 = extractvalue { ptr, i32 } %16, 1
  store ptr %17, ptr %0, align 8
  %19 = getelementptr inbounds i8, ptr %0, i64 8
  store i32 %18, ptr %19, align 8
  br label %bb12

bb11:                                             ; preds = %bb7
  %20 = getelementptr inbounds i8, ptr %self, i64 32, !dbg !1859
  call void @llvm.memcpy.p0.p0.i64(ptr align 8 %20, ptr align 8 %_11, i64 32, i1 false), !dbg !1859
  br label %bb1, !dbg !1834

bb6:                                              ; No predecessors!
  unreachable, !dbg !1842
}

; <core::iter::adapters::flatten::FlattenCompat<I,U> as core::iter::traits::iterator::Iterator>::size_hint
; Function Attrs: inlinehint uwtable
define void @"_ZN116_$LT$core..iter..adapters..flatten..FlattenCompat$LT$I$C$U$GT$$u20$as$u20$core..iter..traits..iterator..Iterator$GT$9size_hint17h05d3c0083e6c4d02E"(ptr sret({ i64, %"core::option::Option<usize>" }) align 8 %_0, ptr align 8 %self) unnamed_addr #1 !dbg !1861 {
start:
  %0 = alloca i8, align 1
  %a.dbg.spill62 = alloca i64, align 8
  %b.dbg.spill61 = alloca i8, align 1
  %a.dbg.spill60 = alloca i64, align 8
  %b.dbg.spill59 = alloca i64, align 8
  %a.dbg.spill58 = alloca i64, align 8
  %iter.dbg.spill57 = alloca ptr, align 8
  %self.dbg.spill56 = alloca ptr, align 8
  %val.dbg.spill55 = alloca i64, align 8
  %v.dbg.spill53 = alloca i64, align 8
  %1 = alloca i8, align 1
  %a.dbg.spill51 = alloca i64, align 8
  %b.dbg.spill50 = alloca i8, align 1
  %a.dbg.spill49 = alloca i64, align 8
  %val.dbg.spill48 = alloca i64, align 8
  %v.dbg.spill46 = alloca i64, align 8
  %2 = alloca i8, align 1
  %a.dbg.spill44 = alloca i64, align 8
  %b.dbg.spill43 = alloca i8, align 1
  %a.dbg.spill42 = alloca i64, align 8
  %val.dbg.spill41 = alloca i64, align 8
  %v.dbg.spill39 = alloca i64, align 8
  %val.dbg.spill37 = alloca i64, align 8
  %v.dbg.spill35 = alloca i64, align 8
  %3 = alloca i8, align 1
  %a.dbg.spill33 = alloca i64, align 8
  %b.dbg.spill32 = alloca i8, align 1
  %a.dbg.spill31 = alloca i64, align 8
  %val.dbg.spill30 = alloca i64, align 8
  %v.dbg.spill28 = alloca i64, align 8
  %val.dbg.spill = alloca i64, align 8
  %v.dbg.spill = alloca i64, align 8
  %lower.dbg.spill26 = alloca i64, align 8
  %4 = alloca i64, align 8
  %5 = alloca i8, align 1
  %x.dbg.spill24 = alloca i64, align 8
  %b.dbg.spill = alloca i8, align 1
  %a.dbg.spill = alloca i64, align 8
  %lower.dbg.spill = alloca i64, align 8
  %iter.dbg.spill = alloca ptr, align 8
  %self.dbg.spill23 = alloca ptr, align 8
  %fixed_size.dbg.spill = alloca i64, align 8
  %lo.dbg.spill = alloca i64, align 8
  %6 = alloca i64, align 8
  %blo.dbg.spill = alloca i64, align 8
  %x.dbg.spill22 = alloca ptr, align 8
  %self.dbg.spill20 = alloca ptr, align 8
  %flo.dbg.spill = alloca i64, align 8
  %7 = alloca { i64, %"core::option::Option<usize>" }, align 8
  %x.dbg.spill = alloca ptr, align 8
  %self.dbg.spill18 = alloca ptr, align 8
  %self.dbg.spill = alloca ptr, align 8
  %_104 = alloca %"core::option::Option<usize>", align 8
  %_47 = alloca %"core::option::Option<usize>", align 8
  %_40 = alloca { i64, %"core::option::Option<usize>" }, align 8
  %_35 = alloca %"core::ops::control_flow::ControlFlow<core::option::Option<core::convert::Infallible>, usize>", align 8
  %self16 = alloca %"core::option::Option<usize>", align 8
  %_33 = alloca %"core::ops::control_flow::ControlFlow<core::option::Option<core::convert::Infallible>, usize>", align 8
  %_30 = alloca %"core::ops::control_flow::ControlFlow<core::option::Option<core::convert::Infallible>, usize>", align 8
  %_28 = alloca %"core::ops::control_flow::ControlFlow<core::option::Option<core::convert::Infallible>, usize>", align 8
  %self15 = alloca %"core::option::Option<usize>", align 8
  %_26 = alloca %"core::ops::control_flow::ControlFlow<core::option::Option<core::convert::Infallible>, usize>", align 8
  %self14 = alloca %"core::option::Option<usize>", align 8
  %_24 = alloca %"core::ops::control_flow::ControlFlow<core::option::Option<core::convert::Infallible>, usize>", align 8
  %upper13 = alloca %"core::option::Option<usize>", align 8
  %self12 = alloca i64, align 8
  %_19 = alloca { i64, %"core::option::Option<usize>" }, align 8
  %upper = alloca %"core::option::Option<usize>", align 8
  %_14 = alloca %"core::option::Option<usize>", align 8
  %_11 = alloca ptr, align 8
  %_10 = alloca { i64, %"core::option::Option<usize>" }, align 8
  %bhi = alloca %"core::option::Option<usize>", align 8
  %_7 = alloca { i64, %"core::option::Option<usize>" }, align 8
  %_5 = alloca ptr, align 8
  %_4 = alloca { i64, %"core::option::Option<usize>" }, align 8
  %fhi = alloca %"core::option::Option<usize>", align 8
  %residual.dbg.spill11 = alloca %"core::option::Option<core::convert::Infallible>::None", align 1
  %residual.dbg.spill10 = alloca %"core::option::Option<core::convert::Infallible>::None", align 1
  %residual.dbg.spill9 = alloca %"core::option::Option<core::convert::Infallible>::None", align 1
  %residual.dbg.spill8 = alloca %"core::option::Option<core::convert::Infallible>::None", align 1
  %residual.dbg.spill7 = alloca %"core::option::Option<core::convert::Infallible>::None", align 1
  %residual.dbg.spill6 = alloca %"core::option::Option<core::convert::Infallible>::None", align 1
  %residual.dbg.spill5 = alloca %"core::option::Option<core::convert::Infallible>::None", align 1
  %residual.dbg.spill4 = alloca %"core::option::Option<core::convert::Infallible>::None", align 1
  %residual.dbg.spill3 = alloca %"core::option::Option<core::convert::Infallible>::None", align 1
  %residual.dbg.spill2 = alloca %"core::option::Option<core::convert::Infallible>::None", align 1
  %residual.dbg.spill1 = alloca %"core::option::Option<core::convert::Infallible>::None", align 1
  %residual.dbg.spill = alloca %"core::option::Option<core::convert::Infallible>::None", align 1
  call void @llvm.dbg.declare(metadata ptr %residual.dbg.spill, metadata !1884, metadata !DIExpression()), !dbg !1911
  call void @llvm.dbg.declare(metadata ptr %residual.dbg.spill1, metadata !1888, metadata !DIExpression()), !dbg !1912
  call void @llvm.dbg.declare(metadata ptr %residual.dbg.spill2, metadata !1892, metadata !DIExpression()), !dbg !1913
  call void @llvm.dbg.declare(metadata ptr %residual.dbg.spill3, metadata !1896, metadata !DIExpression()), !dbg !1914
  call void @llvm.dbg.declare(metadata ptr %residual.dbg.spill4, metadata !1900, metadata !DIExpression()), !dbg !1915
  call void @llvm.dbg.declare(metadata ptr %residual.dbg.spill5, metadata !1904, metadata !DIExpression()), !dbg !1916
  call void @llvm.dbg.declare(metadata ptr %residual.dbg.spill6, metadata !1917, metadata !DIExpression()), !dbg !1933
  call void @llvm.dbg.declare(metadata ptr %residual.dbg.spill7, metadata !1923, metadata !DIExpression()), !dbg !1935
  call void @llvm.dbg.declare(metadata ptr %residual.dbg.spill8, metadata !1925, metadata !DIExpression()), !dbg !1937
  call void @llvm.dbg.declare(metadata ptr %residual.dbg.spill9, metadata !1927, metadata !DIExpression()), !dbg !1939
  call void @llvm.dbg.declare(metadata ptr %residual.dbg.spill10, metadata !1929, metadata !DIExpression()), !dbg !1941
  call void @llvm.dbg.declare(metadata ptr %residual.dbg.spill11, metadata !1931, metadata !DIExpression()), !dbg !1943
  store ptr %self, ptr %self.dbg.spill, align 8, !dbg !1943
  call void @llvm.dbg.declare(metadata ptr %self.dbg.spill, metadata !1866, metadata !DIExpression()), !dbg !1945
  call void @llvm.dbg.declare(metadata ptr %fhi, metadata !1869, metadata !DIExpression()), !dbg !1946
  call void @llvm.dbg.declare(metadata ptr %fhi, metadata !1947, metadata !DIExpression()), !dbg !1990
  call void @llvm.dbg.declare(metadata ptr %bhi, metadata !1872, metadata !DIExpression()), !dbg !1992
  call void @llvm.dbg.declare(metadata ptr %bhi, metadata !1970, metadata !DIExpression()), !dbg !1993
  call void @llvm.dbg.declare(metadata ptr %upper, metadata !1879, metadata !DIExpression()), !dbg !1995
  call void @llvm.dbg.declare(metadata ptr %upper, metadata !1978, metadata !DIExpression()), !dbg !1996
  call void @llvm.dbg.declare(metadata ptr %self12, metadata !1998, metadata !DIExpression()), !dbg !2013
  call void @llvm.dbg.declare(metadata ptr %upper13, metadata !1882, metadata !DIExpression()), !dbg !2015
  call void @llvm.dbg.declare(metadata ptr %self14, metadata !1986, metadata !DIExpression()), !dbg !2016
  call void @llvm.dbg.declare(metadata ptr %self15, metadata !1974, metadata !DIExpression()), !dbg !2017
  call void @llvm.dbg.declare(metadata ptr %self16, metadata !1982, metadata !DIExpression()), !dbg !2018
  %self17 = getelementptr inbounds i8, ptr %self, i64 32, !dbg !2020
  store ptr %self17, ptr %self.dbg.spill18, align 8, !dbg !2020
  call void @llvm.dbg.declare(metadata ptr %self.dbg.spill18, metadata !2021, metadata !DIExpression()), !dbg !2049
  %8 = getelementptr inbounds i8, ptr %self, i64 32, !dbg !2051
  %9 = load ptr, ptr %8, align 8, !dbg !2051, !noundef !27
  %10 = ptrtoint ptr %9 to i64, !dbg !2051
  %11 = icmp eq i64 %10, 0, !dbg !2051
  %_48 = select i1 %11, i64 0, i64 1, !dbg !2051
  %12 = icmp eq i64 %_48, 0, !dbg !2052
  br i1 %12, label %bb21, label %bb22, !dbg !2052

bb21:                                             ; preds = %start
  store ptr null, ptr %_5, align 8, !dbg !2053
  br label %bb20, !dbg !2053

bb22:                                             ; preds = %start
  %x = getelementptr inbounds i8, ptr %self, i64 32, !dbg !2054
  store ptr %x, ptr %x.dbg.spill, align 8, !dbg !2054
  call void @llvm.dbg.declare(metadata ptr %x.dbg.spill, metadata !2043, metadata !DIExpression()), !dbg !2055
  %_50 = getelementptr inbounds i8, ptr %self, i64 32, !dbg !2056
  store ptr %_50, ptr %_5, align 8, !dbg !2057
  br label %bb20, !dbg !2058

bb20:                                             ; preds = %bb22, %bb21
  store i64 0, ptr %_7, align 8, !dbg !2059
  %13 = load i64, ptr @0, align 8, !dbg !2059, !range !2060, !noundef !27
  %14 = load i64, ptr getelementptr inbounds (i8, ptr @0, i64 8), align 8, !dbg !2059
  %15 = getelementptr inbounds i8, ptr %_7, i64 8, !dbg !2059
  store i64 %13, ptr %15, align 8, !dbg !2059
  %16 = getelementptr inbounds i8, ptr %15, i64 8, !dbg !2059
  store i64 %14, ptr %16, align 8, !dbg !2059
  %17 = load ptr, ptr %_5, align 8, !dbg !2020, !align !658, !noundef !27
  call void @llvm.memcpy.p0.p0.i64(ptr align 8 %7, ptr align 8 %_7, i64 24, i1 false), !dbg !2020
; call core::option::Option<T>::map_or
  call void @"_ZN4core6option15Option$LT$T$GT$6map_or17hf7314ba0de452d9eE"(ptr sret({ i64, %"core::option::Option<usize>" }) align 8 %_4, ptr align 8 %17, ptr align 8 %7), !dbg !2020
  %flo = load i64, ptr %_4, align 8, !dbg !2061, !noundef !27
  store i64 %flo, ptr %flo.dbg.spill, align 8, !dbg !2061
  call void @llvm.dbg.declare(metadata ptr %flo.dbg.spill, metadata !1867, metadata !DIExpression()), !dbg !2062
  call void @llvm.dbg.declare(metadata ptr %flo.dbg.spill, metadata !2008, metadata !DIExpression()), !dbg !2063
  %18 = getelementptr inbounds i8, ptr %_4, i64 8, !dbg !2065
  %19 = load i64, ptr %18, align 8, !dbg !2065, !range !2060, !noundef !27
  %20 = getelementptr inbounds i8, ptr %18, i64 8, !dbg !2065
  %21 = load i64, ptr %20, align 8, !dbg !2065
  store i64 %19, ptr %fhi, align 8, !dbg !2065
  %22 = getelementptr inbounds i8, ptr %fhi, i64 8, !dbg !2065
  store i64 %21, ptr %22, align 8, !dbg !2065
  %self19 = getelementptr inbounds i8, ptr %self, i64 64, !dbg !2066
  store ptr %self19, ptr %self.dbg.spill20, align 8, !dbg !2066
  call void @llvm.dbg.declare(metadata ptr %self.dbg.spill20, metadata !2045, metadata !DIExpression()), !dbg !2067
  %23 = getelementptr inbounds i8, ptr %self, i64 64, !dbg !2069
  %24 = load ptr, ptr %23, align 8, !dbg !2069, !noundef !27
  %25 = ptrtoint ptr %24 to i64, !dbg !2069
  %26 = icmp eq i64 %25, 0, !dbg !2069
  %_51 = select i1 %26, i64 0, i64 1, !dbg !2069
  %27 = icmp eq i64 %_51, 0, !dbg !2070
  br i1 %27, label %bb24, label %bb25, !dbg !2070

bb24:                                             ; preds = %bb20
  store ptr null, ptr %_11, align 8, !dbg !2071
  br label %bb23, !dbg !2071

bb25:                                             ; preds = %bb20
  %x21 = getelementptr inbounds i8, ptr %self, i64 64, !dbg !2072
  store ptr %x21, ptr %x.dbg.spill22, align 8, !dbg !2072
  call void @llvm.dbg.declare(metadata ptr %x.dbg.spill22, metadata !2047, metadata !DIExpression()), !dbg !2073
  %_53 = getelementptr inbounds i8, ptr %self, i64 64, !dbg !2074
  store ptr %_53, ptr %_11, align 8, !dbg !2075
  br label %bb23, !dbg !2076

bb23:                                             ; preds = %bb25, %bb24
  %28 = load ptr, ptr %_11, align 8, !dbg !2066, !align !658, !noundef !27
; call core::option::Option<T>::map_or
  call void @"_ZN4core6option15Option$LT$T$GT$6map_or17hf7314ba0de452d9eE"(ptr sret({ i64, %"core::option::Option<usize>" }) align 8 %_10, ptr align 8 %28, ptr align 8 %_7), !dbg !2066
  %blo = load i64, ptr %_10, align 8, !dbg !2077, !noundef !27
  store i64 %blo, ptr %blo.dbg.spill, align 8, !dbg !2077
  call void @llvm.dbg.declare(metadata ptr %blo.dbg.spill, metadata !1870, metadata !DIExpression()), !dbg !2078
  call void @llvm.dbg.declare(metadata ptr %blo.dbg.spill, metadata !2011, metadata !DIExpression()), !dbg !2063
  %29 = getelementptr inbounds i8, ptr %_10, i64 8, !dbg !2079
  %30 = load i64, ptr %29, align 8, !dbg !2079, !range !2060, !noundef !27
  %31 = getelementptr inbounds i8, ptr %29, i64 8, !dbg !2079
  %32 = load i64, ptr %31, align 8, !dbg !2079
  store i64 %30, ptr %bhi, align 8, !dbg !2079
  %33 = getelementptr inbounds i8, ptr %bhi, i64 8, !dbg !2079
  store i64 %32, ptr %33, align 8, !dbg !2079
  %34 = call i64 @llvm.uadd.sat.i64(i64 %flo, i64 %blo), !dbg !2063
  store i64 %34, ptr %6, align 8, !dbg !2063
  %lo = load i64, ptr %6, align 8, !dbg !2063, !noundef !27
  store i64 %lo, ptr %lo.dbg.spill, align 8, !dbg !2063
  call void @llvm.dbg.declare(metadata ptr %lo.dbg.spill, metadata !1873, metadata !DIExpression()), !dbg !2080
  call void @llvm.dbg.declare(metadata ptr %lo.dbg.spill, metadata !2012, metadata !DIExpression()), !dbg !2013
; call <T as core::iter::adapters::flatten::ConstSizeIntoIterator>::size
  %35 = call { i64, i64 } @"_ZN74_$LT$T$u20$as$u20$core..iter..adapters..flatten..ConstSizeIntoIterator$GT$4size17hc16bf9bf1888a39aE"(), !dbg !2081
  %36 = extractvalue { i64, i64 } %35, 0, !dbg !2081
  %37 = extractvalue { i64, i64 } %35, 1, !dbg !2081
  store i64 %36, ptr %_14, align 8, !dbg !2081
  %38 = getelementptr inbounds i8, ptr %_14, i64 8, !dbg !2081
  store i64 %37, ptr %38, align 8, !dbg !2081
  %_15 = load i64, ptr %_14, align 8, !dbg !2082, !range !2060, !noundef !27
  %39 = icmp eq i64 %_15, 1, !dbg !2082
  br i1 %39, label %bb4, label %bb11, !dbg !2082

bb4:                                              ; preds = %bb23
  %40 = getelementptr inbounds i8, ptr %_14, i64 8, !dbg !2083
  %fixed_size = load i64, ptr %40, align 8, !dbg !2083, !noundef !27
  store i64 %fixed_size, ptr %fixed_size.dbg.spill, align 8, !dbg !2083
  call void @llvm.dbg.declare(metadata ptr %fixed_size.dbg.spill, metadata !1875, metadata !DIExpression()), !dbg !2083
  call void @llvm.dbg.declare(metadata ptr %fixed_size.dbg.spill, metadata !2084, metadata !DIExpression()), !dbg !2093
  call void @llvm.dbg.declare(metadata ptr %fixed_size.dbg.spill, metadata !2095, metadata !DIExpression()), !dbg !2115
  call void @llvm.dbg.declare(metadata ptr %fixed_size.dbg.spill, metadata !2117, metadata !DIExpression()), !dbg !2141
  call void @llvm.dbg.declare(metadata ptr %fixed_size.dbg.spill, metadata !2107, metadata !DIExpression()), !dbg !2143
  call void @llvm.dbg.declare(metadata ptr %fixed_size.dbg.spill, metadata !2133, metadata !DIExpression()), !dbg !2145
  store ptr %self, ptr %self.dbg.spill23, align 8, !dbg !2147
  call void @llvm.dbg.declare(metadata ptr %self.dbg.spill23, metadata !2148, metadata !DIExpression()), !dbg !2161
  %41 = load i64, ptr %self, align 8, !dbg !2163, !range !1492, !noundef !27
  %42 = icmp eq i64 %41, -9223372036854775806, !dbg !2163
  %_54 = select i1 %42, i64 0, i64 1, !dbg !2163
  %43 = icmp eq i64 %_54, 0, !dbg !2164
  br i1 %43, label %bb28, label %bb29, !dbg !2164

bb11:                                             ; preds = %bb23
  store ptr %self, ptr %self.dbg.spill56, align 8, !dbg !2165
  call void @llvm.dbg.declare(metadata ptr %self.dbg.spill56, metadata !2157, metadata !DIExpression()), !dbg !2166
  %44 = load i64, ptr %self, align 8, !dbg !2168, !range !1492, !noundef !27
  %45 = icmp eq i64 %44, -9223372036854775806, !dbg !2168
  %_93 = select i1 %45, i64 0, i64 1, !dbg !2168
  %46 = icmp eq i64 %_93, 0, !dbg !2169
  br i1 %46, label %bb52, label %bb53, !dbg !2169

bb28:                                             ; preds = %bb4
  store i64 0, ptr %_19, align 8, !dbg !2170
  %47 = load i64, ptr @0, align 8, !dbg !2170, !range !2060, !noundef !27
  %48 = load i64, ptr getelementptr inbounds (i8, ptr @0, i64 8), align 8, !dbg !2170
  %49 = getelementptr inbounds i8, ptr %_19, i64 8, !dbg !2170
  store i64 %47, ptr %49, align 8, !dbg !2170
  %50 = getelementptr inbounds i8, ptr %49, i64 8, !dbg !2170
  store i64 %48, ptr %50, align 8, !dbg !2170
  br label %bb27, !dbg !2171

bb29:                                             ; preds = %bb4
  store ptr %self, ptr %iter.dbg.spill, align 8, !dbg !2172
  call void @llvm.dbg.declare(metadata ptr %iter.dbg.spill, metadata !2155, metadata !DIExpression()), !dbg !2173
; call <core::iter::adapters::map::Map<I,F> as core::iter::traits::iterator::Iterator>::size_hint
  call void @"_ZN102_$LT$core..iter..adapters..map..Map$LT$I$C$F$GT$$u20$as$u20$core..iter..traits..iterator..Iterator$GT$9size_hint17h1d49c13527a99978E"(ptr sret({ i64, %"core::option::Option<usize>" }) align 8 %_19, ptr align 8 %self), !dbg !2174
  br label %bb27, !dbg !2175

bb27:                                             ; preds = %bb29, %bb28
  %lower = load i64, ptr %_19, align 8, !dbg !2176, !noundef !27
  store i64 %lower, ptr %lower.dbg.spill, align 8, !dbg !2176
  call void @llvm.dbg.declare(metadata ptr %lower.dbg.spill, metadata !1877, metadata !DIExpression()), !dbg !2177
  call void @llvm.dbg.declare(metadata ptr %lower.dbg.spill, metadata !2089, metadata !DIExpression()), !dbg !2093
  call void @llvm.dbg.declare(metadata ptr %lower.dbg.spill, metadata !2102, metadata !DIExpression()), !dbg !2115
  call void @llvm.dbg.declare(metadata ptr %lower.dbg.spill, metadata !2128, metadata !DIExpression()), !dbg !2141
  %51 = getelementptr inbounds i8, ptr %_19, i64 8, !dbg !2178
  %52 = load i64, ptr %51, align 8, !dbg !2178, !range !2060, !noundef !27
  %53 = getelementptr inbounds i8, ptr %51, i64 8, !dbg !2178
  %54 = load i64, ptr %53, align 8, !dbg !2178
  store i64 %52, ptr %upper, align 8, !dbg !2178
  %55 = getelementptr inbounds i8, ptr %upper, i64 8, !dbg !2178
  store i64 %54, ptr %55, align 8, !dbg !2178
  %56 = call { i64, i1 } @llvm.umul.with.overflow.i64(i64 %lower, i64 %fixed_size), !dbg !2141
  %_60.0 = extractvalue { i64, i1 } %56, 0, !dbg !2141
  %_60.1 = extractvalue { i64, i1 } %56, 1, !dbg !2141
  store i64 %_60.0, ptr %a.dbg.spill, align 8, !dbg !2141
  call void @llvm.dbg.declare(metadata ptr %a.dbg.spill, metadata !2129, metadata !DIExpression()), !dbg !2179
  %57 = zext i1 %_60.1 to i8, !dbg !2141
  store i8 %57, ptr %b.dbg.spill, align 1, !dbg !2141
  call void @llvm.dbg.declare(metadata ptr %b.dbg.spill, metadata !2106, metadata !DIExpression()), !dbg !2180
  call void @llvm.dbg.declare(metadata ptr %b.dbg.spill, metadata !2132, metadata !DIExpression()), !dbg !2179
  store i64 %_60.0, ptr %x.dbg.spill24, align 8, !dbg !2179
  call void @llvm.dbg.declare(metadata ptr %x.dbg.spill24, metadata !2090, metadata !DIExpression()), !dbg !2181
  call void @llvm.dbg.declare(metadata ptr %x.dbg.spill24, metadata !2103, metadata !DIExpression()), !dbg !2180
  %58 = call i1 @llvm.expect.i1(i1 %_60.1, i1 false), !dbg !2180
  %59 = zext i1 %58 to i8, !dbg !2180
  store i8 %59, ptr %5, align 1, !dbg !2180
  %60 = load i8, ptr %5, align 1, !dbg !2180, !range !1526, !noundef !27
  %_57 = trunc i8 %60 to i1, !dbg !2180
  br i1 %_57, label %bb33, label %bb34, !dbg !2180

bb34:                                             ; preds = %bb27
  store i64 %_60.0, ptr %self12, align 8, !dbg !2181
  br label %bb31, !dbg !2093

bb33:                                             ; preds = %bb27
  store i64 -1, ptr %self12, align 8, !dbg !2093
  br label %bb31, !dbg !2093

bb31:                                             ; preds = %bb33, %bb34
  %61 = load i64, ptr %self12, align 8, !dbg !2013, !noundef !27
  %62 = call i64 @llvm.uadd.sat.i64(i64 %61, i64 %lo), !dbg !2013
  store i64 %62, ptr %4, align 8, !dbg !2013
  %lower25 = load i64, ptr %4, align 8, !dbg !2013, !noundef !27
  store i64 %lower25, ptr %lower.dbg.spill26, align 8, !dbg !2013
  call void @llvm.dbg.declare(metadata ptr %lower.dbg.spill26, metadata !1880, metadata !DIExpression()), !dbg !2182
  %_64 = load i64, ptr %fhi, align 8, !dbg !2183, !range !2060, !noundef !27
  %63 = icmp eq i64 %_64, 0, !dbg !2184
  br i1 %63, label %bb36, label %bb37, !dbg !2184

bb36:                                             ; preds = %bb31
  %64 = load i64, ptr @1, align 8, !dbg !2185, !range !2060, !noundef !27
  %65 = load i64, ptr getelementptr inbounds (i8, ptr @1, i64 8), align 8, !dbg !2185
  store i64 %64, ptr %upper13, align 8, !dbg !2185
  %66 = getelementptr inbounds i8, ptr %upper13, i64 8, !dbg !2185
  store i64 %65, ptr %66, align 8, !dbg !2185
  br label %bb7, !dbg !2186

bb37:                                             ; preds = %bb31
  %67 = getelementptr inbounds i8, ptr %fhi, i64 8, !dbg !2188
  %v = load i64, ptr %67, align 8, !dbg !2188, !noundef !27
  store i64 %v, ptr %v.dbg.spill, align 8, !dbg !2188
  call void @llvm.dbg.declare(metadata ptr %v.dbg.spill, metadata !1968, metadata !DIExpression()), !dbg !2189
  %68 = getelementptr inbounds i8, ptr %_28, i64 8, !dbg !2190
  store i64 %v, ptr %68, align 8, !dbg !2190
  store i64 0, ptr %_28, align 8, !dbg !2190
  %69 = getelementptr inbounds i8, ptr %_28, i64 8, !dbg !1991
  %val = load i64, ptr %69, align 8, !dbg !1991, !noundef !27
  store i64 %val, ptr %val.dbg.spill, align 8, !dbg !1991
  call void @llvm.dbg.declare(metadata ptr %val.dbg.spill, metadata !1886, metadata !DIExpression()), !dbg !2191
  call void @llvm.dbg.declare(metadata ptr %val.dbg.spill, metadata !2192, metadata !DIExpression()), !dbg !2218
  call void @llvm.dbg.declare(metadata ptr %val.dbg.spill, metadata !2220, metadata !DIExpression()), !dbg !2246
  %_66 = load i64, ptr %bhi, align 8, !dbg !2248, !range !2060, !noundef !27
  %70 = icmp eq i64 %_66, 0, !dbg !2249
  br i1 %70, label %bb38, label %bb39, !dbg !2249

bb7:                                              ; preds = %bb38, %bb36
  br label %bb8, !dbg !2186

bb38:                                             ; preds = %bb37
  %71 = load i64, ptr @1, align 8, !dbg !2250, !range !2060, !noundef !27
  %72 = load i64, ptr getelementptr inbounds (i8, ptr @1, i64 8), align 8, !dbg !2250
  store i64 %71, ptr %upper13, align 8, !dbg !2250
  %73 = getelementptr inbounds i8, ptr %upper13, i64 8, !dbg !2250
  store i64 %72, ptr %73, align 8, !dbg !2250
  br label %bb7, !dbg !2186

bb39:                                             ; preds = %bb37
  %74 = getelementptr inbounds i8, ptr %bhi, i64 8, !dbg !2251
  %v27 = load i64, ptr %74, align 8, !dbg !2251, !noundef !27
  store i64 %v27, ptr %v.dbg.spill28, align 8, !dbg !2251
  call void @llvm.dbg.declare(metadata ptr %v.dbg.spill28, metadata !1972, metadata !DIExpression()), !dbg !2252
  %75 = getelementptr inbounds i8, ptr %_30, i64 8, !dbg !2253
  store i64 %v27, ptr %75, align 8, !dbg !2253
  store i64 0, ptr %_30, align 8, !dbg !2253
  %76 = getelementptr inbounds i8, ptr %_30, i64 8, !dbg !1994
  %val29 = load i64, ptr %76, align 8, !dbg !1994, !noundef !27
  store i64 %val29, ptr %val.dbg.spill30, align 8, !dbg !1994
  call void @llvm.dbg.declare(metadata ptr %val.dbg.spill30, metadata !1890, metadata !DIExpression()), !dbg !2254
  call void @llvm.dbg.declare(metadata ptr %val.dbg.spill30, metadata !2197, metadata !DIExpression()), !dbg !2218
  call void @llvm.dbg.declare(metadata ptr %val.dbg.spill30, metadata !2225, metadata !DIExpression()), !dbg !2246
  %77 = call { i64, i1 } @llvm.uadd.with.overflow.i64(i64 %val, i64 %val29), !dbg !2246
  %_71.0 = extractvalue { i64, i1 } %77, 0, !dbg !2246
  %_71.1 = extractvalue { i64, i1 } %77, 1, !dbg !2246
  store i64 %_71.0, ptr %a.dbg.spill31, align 8, !dbg !2246
  call void @llvm.dbg.declare(metadata ptr %a.dbg.spill31, metadata !2226, metadata !DIExpression()), !dbg !2255
  %78 = zext i1 %_71.1 to i8, !dbg !2246
  store i8 %78, ptr %b.dbg.spill32, align 1, !dbg !2246
  call void @llvm.dbg.declare(metadata ptr %b.dbg.spill32, metadata !2201, metadata !DIExpression()), !dbg !2256
  call void @llvm.dbg.declare(metadata ptr %b.dbg.spill32, metadata !2229, metadata !DIExpression()), !dbg !2255
  store i64 %_71.0, ptr %a.dbg.spill33, align 8, !dbg !2255
  call void @llvm.dbg.declare(metadata ptr %a.dbg.spill33, metadata !2198, metadata !DIExpression()), !dbg !2256
  %79 = call i1 @llvm.expect.i1(i1 %_71.1, i1 false), !dbg !2256
  %80 = zext i1 %79 to i8, !dbg !2256
  store i8 %80, ptr %3, align 1, !dbg !2256
  %81 = load i8, ptr %3, align 1, !dbg !2256, !range !1526, !noundef !27
  %_68 = trunc i8 %81 to i1, !dbg !2256
  br i1 %_68, label %bb41, label %bb42, !dbg !2256

bb8:                                              ; preds = %bb41, %bb6, %bb7
  br label %bb9, !dbg !2186

bb42:                                             ; preds = %bb39
  %82 = getelementptr inbounds i8, ptr %self15, i64 8, !dbg !2256
  store i64 %_71.0, ptr %82, align 8, !dbg !2256
  store i64 1, ptr %self15, align 8, !dbg !2256
  %83 = getelementptr inbounds i8, ptr %self15, i64 8, !dbg !2257
  %v34 = load i64, ptr %83, align 8, !dbg !2257, !noundef !27
  store i64 %v34, ptr %v.dbg.spill35, align 8, !dbg !2257
  call void @llvm.dbg.declare(metadata ptr %v.dbg.spill35, metadata !1976, metadata !DIExpression()), !dbg !2258
  %84 = getelementptr inbounds i8, ptr %_26, i64 8, !dbg !2259
  store i64 %v34, ptr %84, align 8, !dbg !2259
  store i64 0, ptr %_26, align 8, !dbg !2259
  %85 = getelementptr inbounds i8, ptr %_26, i64 8, !dbg !1991
  %val36 = load i64, ptr %85, align 8, !dbg !1991, !noundef !27
  store i64 %val36, ptr %val.dbg.spill37, align 8, !dbg !1991
  call void @llvm.dbg.declare(metadata ptr %val.dbg.spill37, metadata !1894, metadata !DIExpression()), !dbg !2260
  call void @llvm.dbg.declare(metadata ptr %val.dbg.spill37, metadata !2202, metadata !DIExpression()), !dbg !2261
  call void @llvm.dbg.declare(metadata ptr %val.dbg.spill37, metadata !2230, metadata !DIExpression()), !dbg !2263
  %_76 = load i64, ptr %upper, align 8, !dbg !2265, !range !2060, !noundef !27
  %86 = icmp eq i64 %_76, 0, !dbg !2266
  br i1 %86, label %bb43, label %bb44, !dbg !2266

bb41:                                             ; preds = %bb39
  %87 = load i64, ptr @1, align 8, !dbg !2256, !range !2060, !noundef !27
  %88 = load i64, ptr getelementptr inbounds (i8, ptr @1, i64 8), align 8, !dbg !2256
  store i64 %87, ptr %self15, align 8, !dbg !2256
  %89 = getelementptr inbounds i8, ptr %self15, i64 8, !dbg !2256
  store i64 %88, ptr %89, align 8, !dbg !2256
  %90 = load i64, ptr @1, align 8, !dbg !2267, !range !2060, !noundef !27
  %91 = load i64, ptr getelementptr inbounds (i8, ptr @1, i64 8), align 8, !dbg !2267
  store i64 %90, ptr %upper13, align 8, !dbg !2267
  %92 = getelementptr inbounds i8, ptr %upper13, i64 8, !dbg !2267
  store i64 %91, ptr %92, align 8, !dbg !2267
  br label %bb8, !dbg !2186

bb43:                                             ; preds = %bb42
  %93 = load i64, ptr @1, align 8, !dbg !2268, !range !2060, !noundef !27
  %94 = load i64, ptr getelementptr inbounds (i8, ptr @1, i64 8), align 8, !dbg !2268
  store i64 %93, ptr %upper13, align 8, !dbg !2268
  %95 = getelementptr inbounds i8, ptr %upper13, i64 8, !dbg !2268
  store i64 %94, ptr %95, align 8, !dbg !2268
  br label %bb6, !dbg !2186

bb44:                                             ; preds = %bb42
  %96 = getelementptr inbounds i8, ptr %upper, i64 8, !dbg !2269
  %v38 = load i64, ptr %96, align 8, !dbg !2269, !noundef !27
  store i64 %v38, ptr %v.dbg.spill39, align 8, !dbg !2269
  call void @llvm.dbg.declare(metadata ptr %v.dbg.spill39, metadata !1980, metadata !DIExpression()), !dbg !2270
  %97 = getelementptr inbounds i8, ptr %_35, i64 8, !dbg !2271
  store i64 %v38, ptr %97, align 8, !dbg !2271
  store i64 0, ptr %_35, align 8, !dbg !2271
  %98 = getelementptr inbounds i8, ptr %_35, i64 8, !dbg !1997
  %val40 = load i64, ptr %98, align 8, !dbg !1997, !noundef !27
  store i64 %val40, ptr %val.dbg.spill41, align 8, !dbg !1997
  call void @llvm.dbg.declare(metadata ptr %val.dbg.spill41, metadata !1898, metadata !DIExpression()), !dbg !2272
  call void @llvm.dbg.declare(metadata ptr %val.dbg.spill41, metadata !2110, metadata !DIExpression()), !dbg !2143
  call void @llvm.dbg.declare(metadata ptr %val.dbg.spill41, metadata !2136, metadata !DIExpression()), !dbg !2145
  %99 = call { i64, i1 } @llvm.umul.with.overflow.i64(i64 %fixed_size, i64 %val40), !dbg !2145
  %_81.0 = extractvalue { i64, i1 } %99, 0, !dbg !2145
  %_81.1 = extractvalue { i64, i1 } %99, 1, !dbg !2145
  store i64 %_81.0, ptr %a.dbg.spill42, align 8, !dbg !2145
  call void @llvm.dbg.declare(metadata ptr %a.dbg.spill42, metadata !2137, metadata !DIExpression()), !dbg !2273
  %100 = zext i1 %_81.1 to i8, !dbg !2145
  store i8 %100, ptr %b.dbg.spill43, align 1, !dbg !2145
  call void @llvm.dbg.declare(metadata ptr %b.dbg.spill43, metadata !2114, metadata !DIExpression()), !dbg !2274
  call void @llvm.dbg.declare(metadata ptr %b.dbg.spill43, metadata !2140, metadata !DIExpression()), !dbg !2273
  store i64 %_81.0, ptr %a.dbg.spill44, align 8, !dbg !2273
  call void @llvm.dbg.declare(metadata ptr %a.dbg.spill44, metadata !2111, metadata !DIExpression()), !dbg !2274
  %101 = call i1 @llvm.expect.i1(i1 %_81.1, i1 false), !dbg !2274
  %102 = zext i1 %101 to i8, !dbg !2274
  store i8 %102, ptr %2, align 1, !dbg !2274
  %103 = load i8, ptr %2, align 1, !dbg !2274, !range !1526, !noundef !27
  %_78 = trunc i8 %103 to i1, !dbg !2274
  br i1 %_78, label %bb46, label %bb47, !dbg !2274

bb6:                                              ; preds = %bb46, %bb43
  br label %bb8, !dbg !2186

bb47:                                             ; preds = %bb44
  %104 = getelementptr inbounds i8, ptr %self16, i64 8, !dbg !2274
  store i64 %_81.0, ptr %104, align 8, !dbg !2274
  store i64 1, ptr %self16, align 8, !dbg !2274
  %105 = getelementptr inbounds i8, ptr %self16, i64 8, !dbg !2275
  %v45 = load i64, ptr %105, align 8, !dbg !2275, !noundef !27
  store i64 %v45, ptr %v.dbg.spill46, align 8, !dbg !2275
  call void @llvm.dbg.declare(metadata ptr %v.dbg.spill46, metadata !1984, metadata !DIExpression()), !dbg !2276
  %106 = getelementptr inbounds i8, ptr %_33, i64 8, !dbg !2277
  store i64 %v45, ptr %106, align 8, !dbg !2277
  store i64 0, ptr %_33, align 8, !dbg !2277
  %107 = getelementptr inbounds i8, ptr %_33, i64 8, !dbg !2019
  %val47 = load i64, ptr %107, align 8, !dbg !2019, !noundef !27
  store i64 %val47, ptr %val.dbg.spill48, align 8, !dbg !2019
  call void @llvm.dbg.declare(metadata ptr %val.dbg.spill48, metadata !1902, metadata !DIExpression()), !dbg !2278
  call void @llvm.dbg.declare(metadata ptr %val.dbg.spill48, metadata !2205, metadata !DIExpression()), !dbg !2261
  call void @llvm.dbg.declare(metadata ptr %val.dbg.spill48, metadata !2233, metadata !DIExpression()), !dbg !2263
  %108 = call { i64, i1 } @llvm.uadd.with.overflow.i64(i64 %val36, i64 %val47), !dbg !2263
  %_88.0 = extractvalue { i64, i1 } %108, 0, !dbg !2263
  %_88.1 = extractvalue { i64, i1 } %108, 1, !dbg !2263
  store i64 %_88.0, ptr %a.dbg.spill49, align 8, !dbg !2263
  call void @llvm.dbg.declare(metadata ptr %a.dbg.spill49, metadata !2234, metadata !DIExpression()), !dbg !2279
  %109 = zext i1 %_88.1 to i8, !dbg !2263
  store i8 %109, ptr %b.dbg.spill50, align 1, !dbg !2263
  call void @llvm.dbg.declare(metadata ptr %b.dbg.spill50, metadata !2209, metadata !DIExpression()), !dbg !2280
  call void @llvm.dbg.declare(metadata ptr %b.dbg.spill50, metadata !2237, metadata !DIExpression()), !dbg !2279
  store i64 %_88.0, ptr %a.dbg.spill51, align 8, !dbg !2279
  call void @llvm.dbg.declare(metadata ptr %a.dbg.spill51, metadata !2206, metadata !DIExpression()), !dbg !2280
  %110 = call i1 @llvm.expect.i1(i1 %_88.1, i1 false), !dbg !2280
  %111 = zext i1 %110 to i8, !dbg !2280
  store i8 %111, ptr %1, align 1, !dbg !2280
  %112 = load i8, ptr %1, align 1, !dbg !2280, !range !1526, !noundef !27
  %_85 = trunc i8 %112 to i1, !dbg !2280
  br i1 %_85, label %bb49, label %bb50, !dbg !2280

bb46:                                             ; preds = %bb44
  %113 = load i64, ptr @1, align 8, !dbg !2274, !range !2060, !noundef !27
  %114 = load i64, ptr getelementptr inbounds (i8, ptr @1, i64 8), align 8, !dbg !2274
  store i64 %113, ptr %self16, align 8, !dbg !2274
  %115 = getelementptr inbounds i8, ptr %self16, i64 8, !dbg !2274
  store i64 %114, ptr %115, align 8, !dbg !2274
  %116 = load i64, ptr @1, align 8, !dbg !2281, !range !2060, !noundef !27
  %117 = load i64, ptr getelementptr inbounds (i8, ptr @1, i64 8), align 8, !dbg !2281
  store i64 %116, ptr %upper13, align 8, !dbg !2281
  %118 = getelementptr inbounds i8, ptr %upper13, i64 8, !dbg !2281
  store i64 %117, ptr %118, align 8, !dbg !2281
  br label %bb6, !dbg !2186

bb50:                                             ; preds = %bb47
  %119 = getelementptr inbounds i8, ptr %self14, i64 8, !dbg !2280
  store i64 %_88.0, ptr %119, align 8, !dbg !2280
  store i64 1, ptr %self14, align 8, !dbg !2280
  %120 = getelementptr inbounds i8, ptr %self14, i64 8, !dbg !2282
  %v52 = load i64, ptr %120, align 8, !dbg !2282, !noundef !27
  store i64 %v52, ptr %v.dbg.spill53, align 8, !dbg !2282
  call void @llvm.dbg.declare(metadata ptr %v.dbg.spill53, metadata !1988, metadata !DIExpression()), !dbg !2283
  %121 = getelementptr inbounds i8, ptr %_24, i64 8, !dbg !2284
  store i64 %v52, ptr %121, align 8, !dbg !2284
  store i64 0, ptr %_24, align 8, !dbg !2284
  %122 = getelementptr inbounds i8, ptr %_24, i64 8, !dbg !1991
  %val54 = load i64, ptr %122, align 8, !dbg !1991, !noundef !27
  store i64 %val54, ptr %val.dbg.spill55, align 8, !dbg !1991
  call void @llvm.dbg.declare(metadata ptr %val.dbg.spill55, metadata !1906, metadata !DIExpression()), !dbg !2285
  call void @llvm.dbg.declare(metadata ptr %val.dbg.spill55, metadata !2286, metadata !DIExpression()), !dbg !2292
  %123 = getelementptr inbounds i8, ptr %upper13, i64 8, !dbg !2293
  store i64 %val54, ptr %123, align 8, !dbg !2293
  store i64 1, ptr %upper13, align 8, !dbg !2293
  br label %bb10, !dbg !2294

bb49:                                             ; preds = %bb47
  %124 = load i64, ptr @1, align 8, !dbg !2280, !range !2060, !noundef !27
  %125 = load i64, ptr getelementptr inbounds (i8, ptr @1, i64 8), align 8, !dbg !2280
  store i64 %124, ptr %self14, align 8, !dbg !2280
  %126 = getelementptr inbounds i8, ptr %self14, i64 8, !dbg !2280
  store i64 %125, ptr %126, align 8, !dbg !2280
  %127 = load i64, ptr @1, align 8, !dbg !2295, !range !2060, !noundef !27
  %128 = load i64, ptr getelementptr inbounds (i8, ptr @1, i64 8), align 8, !dbg !2295
  store i64 %127, ptr %upper13, align 8, !dbg !2295
  %129 = getelementptr inbounds i8, ptr %upper13, i64 8, !dbg !2295
  store i64 %128, ptr %129, align 8, !dbg !2295
  br label %bb9, !dbg !2186

bb10:                                             ; preds = %bb9, %bb50
  %_39.0 = load i64, ptr %upper13, align 8, !dbg !2296, !range !2060, !noundef !27
  %130 = getelementptr inbounds i8, ptr %upper13, i64 8, !dbg !2296
  %_39.1 = load i64, ptr %130, align 8, !dbg !2296
  store i64 %lower25, ptr %_0, align 8, !dbg !2297
  %131 = getelementptr inbounds i8, ptr %_0, i64 8, !dbg !2297
  store i64 %_39.0, ptr %131, align 8, !dbg !2297
  %132 = getelementptr inbounds i8, ptr %131, i64 8, !dbg !2297
  store i64 %_39.1, ptr %132, align 8, !dbg !2297
  br label %bb19, !dbg !2298

bb9:                                              ; preds = %bb8, %bb49
  br label %bb10, !dbg !2294

bb19:                                             ; preds = %bb18, %bb10
  ret void, !dbg !2298

bb52:                                             ; preds = %bb11
  store i64 0, ptr %_40, align 8, !dbg !2299
  %133 = load i64, ptr @0, align 8, !dbg !2299, !range !2060, !noundef !27
  %134 = load i64, ptr getelementptr inbounds (i8, ptr @0, i64 8), align 8, !dbg !2299
  %135 = getelementptr inbounds i8, ptr %_40, i64 8, !dbg !2299
  store i64 %133, ptr %135, align 8, !dbg !2299
  %136 = getelementptr inbounds i8, ptr %135, i64 8, !dbg !2299
  store i64 %134, ptr %136, align 8, !dbg !2299
  br label %bb51, !dbg !2300

bb53:                                             ; preds = %bb11
  store ptr %self, ptr %iter.dbg.spill57, align 8, !dbg !2301
  call void @llvm.dbg.declare(metadata ptr %iter.dbg.spill57, metadata !2159, metadata !DIExpression()), !dbg !2302
; call <core::iter::adapters::map::Map<I,F> as core::iter::traits::iterator::Iterator>::size_hint
  call void @"_ZN102_$LT$core..iter..adapters..map..Map$LT$I$C$F$GT$$u20$as$u20$core..iter..traits..iterator..Iterator$GT$9size_hint17h1d49c13527a99978E"(ptr sret({ i64, %"core::option::Option<usize>" }) align 8 %_40, ptr align 8 %self), !dbg !2303
  br label %bb51, !dbg !2304

bb51:                                             ; preds = %bb53, %bb52
  %_103 = load i64, ptr %_40, align 8, !dbg !2305, !noundef !27
  %137 = getelementptr inbounds i8, ptr %_40, i64 8, !dbg !2305
  %138 = load i64, ptr %137, align 8, !dbg !2305, !range !2060, !noundef !27
  %139 = getelementptr inbounds i8, ptr %137, i64 8, !dbg !2305
  %140 = load i64, ptr %139, align 8, !dbg !2305
  store i64 %138, ptr %_104, align 8, !dbg !2305
  %141 = getelementptr inbounds i8, ptr %_104, i64 8, !dbg !2305
  store i64 %140, ptr %141, align 8, !dbg !2305
  %142 = icmp eq i64 %_103, 0, !dbg !2306
  br i1 %142, label %bb13, label %bb12, !dbg !2306

bb13:                                             ; preds = %bb51
  %_44 = load i64, ptr %_104, align 8, !dbg !2305, !range !2060, !noundef !27
  %143 = icmp eq i64 %_44, 1, !dbg !2306
  br i1 %143, label %bb14, label %bb12, !dbg !2306

bb12:                                             ; preds = %bb16, %bb15, %bb14, %bb13, %bb51
  store i64 %lo, ptr %_0, align 8, !dbg !2307
  %144 = load i64, ptr @1, align 8, !dbg !2307, !range !2060, !noundef !27
  %145 = load i64, ptr getelementptr inbounds (i8, ptr @1, i64 8), align 8, !dbg !2307
  %146 = getelementptr inbounds i8, ptr %_0, i64 8, !dbg !2307
  store i64 %144, ptr %146, align 8, !dbg !2307
  %147 = getelementptr inbounds i8, ptr %146, i64 8, !dbg !2307
  store i64 %145, ptr %147, align 8, !dbg !2307
  br label %bb18, !dbg !2308

bb14:                                             ; preds = %bb13
  %_43 = load i64, ptr %fhi, align 8, !dbg !2305, !range !2060, !noundef !27
  %148 = icmp eq i64 %_43, 1, !dbg !2306
  br i1 %148, label %bb15, label %bb12, !dbg !2306

bb15:                                             ; preds = %bb14
  %_42 = load i64, ptr %bhi, align 8, !dbg !2305, !range !2060, !noundef !27
  %149 = icmp eq i64 %_42, 1, !dbg !2306
  br i1 %149, label %bb16, label %bb12, !dbg !2306

bb16:                                             ; preds = %bb15
  %150 = getelementptr inbounds i8, ptr %_104, i64 8, !dbg !2306
  %151 = load i64, ptr %150, align 8, !dbg !2306, !noundef !27
  %152 = icmp eq i64 %151, 0, !dbg !2306
  br i1 %152, label %bb17, label %bb12, !dbg !2306

bb17:                                             ; preds = %bb16
  %153 = getelementptr inbounds i8, ptr %fhi, i64 8, !dbg !2309
  %a = load i64, ptr %153, align 8, !dbg !2309, !noundef !27
  store i64 %a, ptr %a.dbg.spill58, align 8, !dbg !2309
  call void @llvm.dbg.declare(metadata ptr %a.dbg.spill58, metadata !1908, metadata !DIExpression()), !dbg !2310
  call void @llvm.dbg.declare(metadata ptr %a.dbg.spill58, metadata !2210, metadata !DIExpression()), !dbg !2311
  call void @llvm.dbg.declare(metadata ptr %a.dbg.spill58, metadata !2238, metadata !DIExpression()), !dbg !2313
  %154 = getelementptr inbounds i8, ptr %bhi, i64 8, !dbg !2315
  %b = load i64, ptr %154, align 8, !dbg !2315, !noundef !27
  store i64 %b, ptr %b.dbg.spill59, align 8, !dbg !2315
  call void @llvm.dbg.declare(metadata ptr %b.dbg.spill59, metadata !1910, metadata !DIExpression()), !dbg !2316
  call void @llvm.dbg.declare(metadata ptr %b.dbg.spill59, metadata !2213, metadata !DIExpression()), !dbg !2311
  call void @llvm.dbg.declare(metadata ptr %b.dbg.spill59, metadata !2241, metadata !DIExpression()), !dbg !2313
  %155 = call { i64, i1 } @llvm.uadd.with.overflow.i64(i64 %a, i64 %b), !dbg !2313
  %_99.0 = extractvalue { i64, i1 } %155, 0, !dbg !2313
  %_99.1 = extractvalue { i64, i1 } %155, 1, !dbg !2313
  store i64 %_99.0, ptr %a.dbg.spill60, align 8, !dbg !2313
  call void @llvm.dbg.declare(metadata ptr %a.dbg.spill60, metadata !2242, metadata !DIExpression()), !dbg !2317
  %156 = zext i1 %_99.1 to i8, !dbg !2313
  store i8 %156, ptr %b.dbg.spill61, align 1, !dbg !2313
  call void @llvm.dbg.declare(metadata ptr %b.dbg.spill61, metadata !2217, metadata !DIExpression()), !dbg !2318
  call void @llvm.dbg.declare(metadata ptr %b.dbg.spill61, metadata !2245, metadata !DIExpression()), !dbg !2317
  store i64 %_99.0, ptr %a.dbg.spill62, align 8, !dbg !2317
  call void @llvm.dbg.declare(metadata ptr %a.dbg.spill62, metadata !2214, metadata !DIExpression()), !dbg !2318
  %157 = call i1 @llvm.expect.i1(i1 %_99.1, i1 false), !dbg !2318
  %158 = zext i1 %157 to i8, !dbg !2318
  store i8 %158, ptr %0, align 1, !dbg !2318
  %159 = load i8, ptr %0, align 1, !dbg !2318, !range !1526, !noundef !27
  %_96 = trunc i8 %159 to i1, !dbg !2318
  br i1 %_96, label %bb56, label %bb57, !dbg !2318

bb57:                                             ; preds = %bb17
  %160 = getelementptr inbounds i8, ptr %_47, i64 8, !dbg !2318
  store i64 %_99.0, ptr %160, align 8, !dbg !2318
  store i64 1, ptr %_47, align 8, !dbg !2318
  br label %bb58, !dbg !2318

bb56:                                             ; preds = %bb17
  %161 = load i64, ptr @1, align 8, !dbg !2318, !range !2060, !noundef !27
  %162 = load i64, ptr getelementptr inbounds (i8, ptr @1, i64 8), align 8, !dbg !2318
  store i64 %161, ptr %_47, align 8, !dbg !2318
  %163 = getelementptr inbounds i8, ptr %_47, i64 8, !dbg !2318
  store i64 %162, ptr %163, align 8, !dbg !2318
  br label %bb58, !dbg !2318

bb58:                                             ; preds = %bb56, %bb57
  store i64 %lo, ptr %_0, align 8, !dbg !2319
  %164 = load i64, ptr %_47, align 8, !dbg !2319, !range !2060, !noundef !27
  %165 = getelementptr inbounds i8, ptr %_47, i64 8, !dbg !2319
  %166 = load i64, ptr %165, align 8, !dbg !2319
  %167 = getelementptr inbounds i8, ptr %_0, i64 8, !dbg !2319
  store i64 %164, ptr %167, align 8, !dbg !2319
  %168 = getelementptr inbounds i8, ptr %167, i64 8, !dbg !2319
  store i64 %166, ptr %168, align 8, !dbg !2319
  br label %bb18, !dbg !2320

bb18:                                             ; preds = %bb12, %bb58
  br label %bb19, !dbg !2298

bb5:                                              ; No predecessors!
  unreachable, !dbg !1991
}

; <proc_macro2::TokenStream as core::iter::traits::collect::FromIterator<proc_macro2::TokenTree>>::from_iter
; Function Attrs: uwtable
define void @"_ZN116_$LT$proc_macro2..TokenStream$u20$as$u20$core..iter..traits..collect..FromIterator$LT$proc_macro2..TokenTree$GT$$GT$9from_iter17ha6f63a23d482315fE"(ptr sret(%"proc_macro2::TokenStream") align 8 %_0, ptr align 8 %streams) unnamed_addr #0 !dbg !2321 {
start:
  %_3 = alloca %"core::iter::adapters::map::Map<proc_macro2::token_stream::IntoIter, {closure@src/runtime.rs:277:22: 277:29}>", align 8
  %_2 = alloca %"proc_macro2::imp::TokenStream", align 8
  call void @llvm.dbg.declare(metadata ptr %streams, metadata !2326, metadata !DIExpression()), !dbg !2328
; call <I as core::iter::traits::collect::IntoIterator>::into_iter
  call void @"_ZN63_$LT$I$u20$as$u20$core..iter..traits..collect..IntoIterator$GT$9into_iter17hafa10b8ec40a1433E"(ptr sret(%"core::iter::adapters::map::Map<proc_macro2::token_stream::IntoIter, {closure@src/runtime.rs:277:22: 277:29}>") align 8 %_3, ptr align 8 %streams), !dbg !2329
; call core::iter::traits::iterator::Iterator::collect
  call void @_ZN4core4iter6traits8iterator8Iterator7collect17h02cd4fa3231a18f1E(ptr sret(%"proc_macro2::imp::TokenStream") align 8 %_2, ptr align 8 %_3), !dbg !2329
; call proc_macro2::TokenStream::_new
  call void @_ZN11proc_macro211TokenStream4_new17h2a4e0b847e178771E(ptr sret(%"proc_macro2::TokenStream") align 8 %_0, ptr align 8 %_2), !dbg !2330
  ret void, !dbg !2331
}

; proc_macro2::rcvec::RcVec<T>::make_mut
; Function Attrs: uwtable
define align 8 ptr @"_ZN11proc_macro25rcvec14RcVec$LT$T$GT$8make_mut17h97584c588031b354E"(ptr align 8 %self) unnamed_addr #0 !dbg !2332 {
start:
  %self.dbg.spill = alloca ptr, align 8
  %_0 = alloca ptr, align 8
  store ptr %self, ptr %self.dbg.spill, align 8
  call void @llvm.dbg.declare(metadata ptr %self.dbg.spill, metadata !2339, metadata !DIExpression()), !dbg !2340
; call alloc::rc::Rc<T,A>::make_mut
  %_2 = call align 8 ptr @"_ZN5alloc2rc15Rc$LT$T$C$A$GT$8make_mut17h80abb1dbc6485b78E"(ptr align 8 %self), !dbg !2341
  store ptr %_2, ptr %_0, align 8, !dbg !2342
  %0 = load ptr, ptr %_0, align 8, !dbg !2343, !nonnull !27, !align !658, !noundef !27
  ret ptr %0, !dbg !2343
}

; proc_macro2::rcvec::RcVecMut<T>::as_mut
; Function Attrs: uwtable
define align 8 ptr @"_ZN11proc_macro25rcvec17RcVecMut$LT$T$GT$6as_mut17h43f59b73fb122e0aE"(ptr align 8 %self) unnamed_addr #0 !dbg !2344 {
start:
  %self.dbg.spill = alloca ptr, align 8
  %_0 = alloca ptr, align 8
  store ptr %self, ptr %self.dbg.spill, align 8
  call void @llvm.dbg.declare(metadata ptr %self.dbg.spill, metadata !2349, metadata !DIExpression()), !dbg !2350
  %_2 = load ptr, ptr %self, align 8, !dbg !2351, !nonnull !27, !align !658, !noundef !27
  store ptr %_2, ptr %_0, align 8, !dbg !2352
  %0 = load ptr, ptr %_0, align 8, !dbg !2353, !nonnull !27, !align !658, !noundef !27
  ret ptr %0, !dbg !2353
}

; proc_macro2::rcvec::RcVecMut<T>::extend
; Function Attrs: uwtable
define void @"_ZN11proc_macro25rcvec17RcVecMut$LT$T$GT$6extend17hb3c4e0c66fba15c2E"(ptr align 8 %self, ptr align 8 %iter) unnamed_addr #0 !dbg !2354 {
start:
  %self.dbg.spill = alloca ptr, align 8
  store ptr %self, ptr %self.dbg.spill, align 8
  call void @llvm.dbg.declare(metadata ptr %self.dbg.spill, metadata !2361, metadata !DIExpression()), !dbg !2363
  call void @llvm.dbg.declare(metadata ptr %iter, metadata !2362, metadata !DIExpression()), !dbg !2364
  %_4 = load ptr, ptr %self, align 8, !dbg !2365, !nonnull !27, !align !658, !noundef !27
; call <alloc::vec::Vec<T,A> as core::iter::traits::collect::Extend<T>>::extend
  call void @"_ZN93_$LT$alloc..vec..Vec$LT$T$C$A$GT$$u20$as$u20$core..iter..traits..collect..Extend$LT$T$GT$$GT$6extend17h046e329c915d29a0E"(ptr align 8 %_4, ptr align 8 %iter), !dbg !2365
  ret void, !dbg !2366
}

; <proc_macro2::fallback::TokenStream as core::iter::traits::collect::Extend<proc_macro2::TokenTree>>::extend
; Function Attrs: uwtable
define void @"_ZN120_$LT$proc_macro2..fallback..TokenStream$u20$as$u20$core..iter..traits..collect..Extend$LT$proc_macro2..TokenTree$GT$$GT$6extend17h23bbb1a41468f314E"(ptr align 8 %self, ptr align 8 %tokens) unnamed_addr #0 personality ptr @rust_eh_personality !dbg !2367 {
start:
  %0 = alloca { ptr, i32, [1 x i32] }, align 8
  %self.dbg.spill = alloca ptr, align 8
  %_10 = alloca i8, align 1
  %_8 = alloca ptr, align 8
  %_7 = alloca %"core::iter::sources::once::Once<proc_macro2::TokenTree>", align 8
  %_6 = alloca %"core::iter::sources::once::Once<proc_macro2::TokenTree>", align 8
  %vec = alloca ptr, align 8
  store ptr %self, ptr %self.dbg.spill, align 8
  call void @llvm.dbg.declare(metadata ptr %self.dbg.spill, metadata !2372, metadata !DIExpression()), !dbg !2376
  call void @llvm.dbg.declare(metadata ptr %tokens, metadata !2373, metadata !DIExpression()), !dbg !2377
  call void @llvm.dbg.declare(metadata ptr %vec, metadata !2374, metadata !DIExpression()), !dbg !2378
  store i8 0, ptr %_10, align 1, !dbg !2379
  store i8 1, ptr %_10, align 1, !dbg !2379
; invoke proc_macro2::rcvec::RcVec<T>::make_mut
  %1 = invoke align 8 ptr @"_ZN11proc_macro25rcvec14RcVec$LT$T$GT$8make_mut17h97584c588031b354E"(ptr align 8 %self)
          to label %bb1 unwind label %cleanup, !dbg !2380

bb6:                                              ; preds = %cleanup
  %2 = load i8, ptr %_10, align 1, !dbg !2381, !range !1526, !noundef !27
  %3 = trunc i8 %2 to i1, !dbg !2381
  br i1 %3, label %bb5, label %bb4, !dbg !2381

cleanup:                                          ; preds = %bb2, %bb1, %start
  %4 = landingpad { ptr, i32 }
          cleanup
  %5 = extractvalue { ptr, i32 } %4, 0
  %6 = extractvalue { ptr, i32 } %4, 1
  store ptr %5, ptr %0, align 8
  %7 = getelementptr inbounds i8, ptr %0, i64 8
  store i32 %6, ptr %7, align 8
  br label %bb6

bb1:                                              ; preds = %start
  store ptr %1, ptr %vec, align 8, !dbg !2380
  store i8 0, ptr %_10, align 1, !dbg !2382
  call void @llvm.memcpy.p0.p0.i64(ptr align 8 %_7, ptr align 8 %tokens, i64 32, i1 false), !dbg !2382
; invoke <I as core::iter::traits::collect::IntoIterator>::into_iter
  invoke void @"_ZN63_$LT$I$u20$as$u20$core..iter..traits..collect..IntoIterator$GT$9into_iter17hc49e7ce4a7eaa8d4E"(ptr sret(%"core::iter::sources::once::Once<proc_macro2::TokenTree>") align 8 %_6, ptr align 8 %_7)
          to label %bb2 unwind label %cleanup, !dbg !2382

bb2:                                              ; preds = %bb1
  store ptr %vec, ptr %_8, align 8, !dbg !2383
  %8 = load ptr, ptr %_8, align 8, !dbg !2382, !nonnull !27, !align !658, !noundef !27
; invoke core::iter::traits::iterator::Iterator::for_each
  invoke void @_ZN4core4iter6traits8iterator8Iterator8for_each17h08d4fc4ddb26672bE(ptr align 8 %_6, ptr align 8 %8)
          to label %bb3 unwind label %cleanup, !dbg !2382

bb3:                                              ; preds = %bb2
  ret void, !dbg !2384

bb4:                                              ; preds = %bb5, %bb6
  %9 = load ptr, ptr %0, align 8, !dbg !2385, !noundef !27
  %10 = getelementptr inbounds i8, ptr %0, i64 8, !dbg !2385
  %11 = load i32, ptr %10, align 8, !dbg !2385, !noundef !27
  %12 = insertvalue { ptr, i32 } poison, ptr %9, 0, !dbg !2385
  %13 = insertvalue { ptr, i32 } %12, i32 %11, 1, !dbg !2385
  resume { ptr, i32 } %13, !dbg !2385

bb5:                                              ; preds = %bb6
; invoke core::ptr::drop_in_place<core::iter::sources::once::Once<proc_macro2::TokenTree>>
  invoke void @"_ZN4core3ptr82drop_in_place$LT$core..iter..sources..once..Once$LT$proc_macro2..TokenTree$GT$$GT$17h1916aab0fb9c32ebE"(ptr align 8 %tokens) #15
          to label %bb4 unwind label %terminate, !dbg !2381

terminate:                                        ; preds = %bb5
  %14 = landingpad { ptr, i32 }
          filter [0 x ptr] zeroinitializer
  %15 = extractvalue { ptr, i32 } %14, 0
  %16 = extractvalue { ptr, i32 } %14, 1
; call core::panicking::panic_in_cleanup
  call void @_ZN4core9panicking16panic_in_cleanup17hb45215b029b98411E() #16, !dbg !2385
  unreachable, !dbg !2385
}

; <proc_macro2::fallback::TokenStream as core::iter::traits::collect::Extend<proc_macro2::TokenTree>>::extend
; Function Attrs: uwtable
define void @"_ZN120_$LT$proc_macro2..fallback..TokenStream$u20$as$u20$core..iter..traits..collect..Extend$LT$proc_macro2..TokenTree$GT$$GT$6extend17h53cd0b518a553824E"(ptr align 8 %self, ptr align 8 %tokens) unnamed_addr #0 personality ptr @rust_eh_personality !dbg !2386 {
start:
  %0 = alloca { ptr, i32, [1 x i32] }, align 8
  %self.dbg.spill = alloca ptr, align 8
  %_10 = alloca i8, align 1
  %_8 = alloca ptr, align 8
  %_7 = alloca %"core::iter::adapters::map::Map<proc_macro2::token_stream::IntoIter, {closure@src/runtime.rs:277:22: 277:29}>", align 8
  %_6 = alloca %"core::iter::adapters::map::Map<proc_macro2::token_stream::IntoIter, {closure@src/runtime.rs:277:22: 277:29}>", align 8
  %vec = alloca ptr, align 8
  store ptr %self, ptr %self.dbg.spill, align 8
  call void @llvm.dbg.declare(metadata ptr %self.dbg.spill, metadata !2390, metadata !DIExpression()), !dbg !2394
  call void @llvm.dbg.declare(metadata ptr %tokens, metadata !2391, metadata !DIExpression()), !dbg !2395
  call void @llvm.dbg.declare(metadata ptr %vec, metadata !2392, metadata !DIExpression()), !dbg !2396
  store i8 0, ptr %_10, align 1, !dbg !2397
  store i8 1, ptr %_10, align 1, !dbg !2397
; invoke proc_macro2::rcvec::RcVec<T>::make_mut
  %1 = invoke align 8 ptr @"_ZN11proc_macro25rcvec14RcVec$LT$T$GT$8make_mut17h97584c588031b354E"(ptr align 8 %self)
          to label %bb1 unwind label %cleanup, !dbg !2398

bb6:                                              ; preds = %cleanup
  %2 = load i8, ptr %_10, align 1, !dbg !2399, !range !1526, !noundef !27
  %3 = trunc i8 %2 to i1, !dbg !2399
  br i1 %3, label %bb5, label %bb4, !dbg !2399

cleanup:                                          ; preds = %bb2, %bb1, %start
  %4 = landingpad { ptr, i32 }
          cleanup
  %5 = extractvalue { ptr, i32 } %4, 0
  %6 = extractvalue { ptr, i32 } %4, 1
  store ptr %5, ptr %0, align 8
  %7 = getelementptr inbounds i8, ptr %0, i64 8
  store i32 %6, ptr %7, align 8
  br label %bb6

bb1:                                              ; preds = %start
  store ptr %1, ptr %vec, align 8, !dbg !2398
  store i8 0, ptr %_10, align 1, !dbg !2400
  call void @llvm.memcpy.p0.p0.i64(ptr align 8 %_7, ptr align 8 %tokens, i64 48, i1 false), !dbg !2400
; invoke <I as core::iter::traits::collect::IntoIterator>::into_iter
  invoke void @"_ZN63_$LT$I$u20$as$u20$core..iter..traits..collect..IntoIterator$GT$9into_iter17hafa10b8ec40a1433E"(ptr sret(%"core::iter::adapters::map::Map<proc_macro2::token_stream::IntoIter, {closure@src/runtime.rs:277:22: 277:29}>") align 8 %_6, ptr align 8 %_7)
          to label %bb2 unwind label %cleanup, !dbg !2400

bb2:                                              ; preds = %bb1
  store ptr %vec, ptr %_8, align 8, !dbg !2401
  %8 = load ptr, ptr %_8, align 8, !dbg !2400, !nonnull !27, !align !658, !noundef !27
; invoke core::iter::traits::iterator::Iterator::for_each
  invoke void @_ZN4core4iter6traits8iterator8Iterator8for_each17hb9e281576fb501b7E(ptr align 8 %_6, ptr align 8 %8)
          to label %bb3 unwind label %cleanup, !dbg !2400

bb3:                                              ; preds = %bb2
  ret void, !dbg !2402

bb4:                                              ; preds = %bb5, %bb6
  %9 = load ptr, ptr %0, align 8, !dbg !2403, !noundef !27
  %10 = getelementptr inbounds i8, ptr %0, i64 8, !dbg !2403
  %11 = load i32, ptr %10, align 8, !dbg !2403, !noundef !27
  %12 = insertvalue { ptr, i32 } poison, ptr %9, 0, !dbg !2403
  %13 = insertvalue { ptr, i32 } %12, i32 %11, 1, !dbg !2403
  resume { ptr, i32 } %13, !dbg !2403

bb5:                                              ; preds = %bb6
; invoke core::ptr::drop_in_place<core::iter::adapters::map::Map<proc_macro2::token_stream::IntoIter,quote::__private::respan_token_tree::{{closure}}>>
  invoke void @"_ZN4core3ptr161drop_in_place$LT$core..iter..adapters..map..Map$LT$proc_macro2..token_stream..IntoIter$C$quote..__private..respan_token_tree..$u7b$$u7b$closure$u7d$$u7d$$GT$$GT$17h3ac115cdeb076074E"(ptr align 8 %tokens) #15
          to label %bb4 unwind label %terminate, !dbg !2399

terminate:                                        ; preds = %bb5
  %14 = landingpad { ptr, i32 }
          filter [0 x ptr] zeroinitializer
  %15 = extractvalue { ptr, i32 } %14, 0
  %16 = extractvalue { ptr, i32 } %14, 1
; call core::panicking::panic_in_cleanup
  call void @_ZN4core9panicking16panic_in_cleanup17hb45215b029b98411E() #16, !dbg !2403
  unreachable, !dbg !2403
}

; <proc_macro2::fallback::TokenStream as core::iter::traits::collect::Extend<proc_macro2::TokenTree>>::extend
; Function Attrs: uwtable
define void @"_ZN120_$LT$proc_macro2..fallback..TokenStream$u20$as$u20$core..iter..traits..collect..Extend$LT$proc_macro2..TokenTree$GT$$GT$6extend17h80a38b2d44cab533E"(ptr align 8 %self, ptr align 8 %tokens) unnamed_addr #0 personality ptr @rust_eh_personality !dbg !2404 {
start:
  %0 = alloca { ptr, i32, [1 x i32] }, align 8
  %self.dbg.spill = alloca ptr, align 8
  %_10 = alloca i8, align 1
  %_8 = alloca ptr, align 8
  %_7 = alloca %"__private::push_lifetime_spanned::Lifetime<'_>", align 8
  %_6 = alloca %"__private::push_lifetime_spanned::Lifetime<'_>", align 8
  %vec = alloca ptr, align 8
  store ptr %self, ptr %self.dbg.spill, align 8
  call void @llvm.dbg.declare(metadata ptr %self.dbg.spill, metadata !2408, metadata !DIExpression()), !dbg !2412
  call void @llvm.dbg.declare(metadata ptr %tokens, metadata !2409, metadata !DIExpression()), !dbg !2413
  call void @llvm.dbg.declare(metadata ptr %vec, metadata !2410, metadata !DIExpression()), !dbg !2414
  store i8 0, ptr %_10, align 1, !dbg !2415
  store i8 1, ptr %_10, align 1, !dbg !2415
; invoke proc_macro2::rcvec::RcVec<T>::make_mut
  %1 = invoke align 8 ptr @"_ZN11proc_macro25rcvec14RcVec$LT$T$GT$8make_mut17h97584c588031b354E"(ptr align 8 %self)
          to label %bb1 unwind label %cleanup, !dbg !2416

bb6:                                              ; preds = %cleanup
  %2 = load i8, ptr %_10, align 1, !dbg !2417, !range !1526, !noundef !27
  %3 = trunc i8 %2 to i1, !dbg !2417
  br i1 %3, label %bb5, label %bb4, !dbg !2417

cleanup:                                          ; preds = %bb2, %bb1, %start
  %4 = landingpad { ptr, i32 }
          cleanup
  %5 = extractvalue { ptr, i32 } %4, 0
  %6 = extractvalue { ptr, i32 } %4, 1
  store ptr %5, ptr %0, align 8
  %7 = getelementptr inbounds i8, ptr %0, i64 8
  store i32 %6, ptr %7, align 8
  br label %bb6

bb1:                                              ; preds = %start
  store ptr %1, ptr %vec, align 8, !dbg !2416
  store i8 0, ptr %_10, align 1, !dbg !2418
  call void @llvm.memcpy.p0.p0.i64(ptr align 8 %_7, ptr align 8 %tokens, i64 24, i1 false), !dbg !2418
; invoke <I as core::iter::traits::collect::IntoIterator>::into_iter
  invoke void @"_ZN63_$LT$I$u20$as$u20$core..iter..traits..collect..IntoIterator$GT$9into_iter17h44e26dfcc3caf95dE"(ptr sret(%"__private::push_lifetime_spanned::Lifetime<'_>") align 8 %_6, ptr align 8 %_7)
          to label %bb2 unwind label %cleanup, !dbg !2418

bb2:                                              ; preds = %bb1
  store ptr %vec, ptr %_8, align 8, !dbg !2419
  %8 = load ptr, ptr %_8, align 8, !dbg !2418, !nonnull !27, !align !658, !noundef !27
; invoke core::iter::traits::iterator::Iterator::for_each
  invoke void @_ZN4core4iter6traits8iterator8Iterator8for_each17hcd6e981a07eef28cE(ptr align 8 %_6, ptr align 8 %8)
          to label %bb3 unwind label %cleanup, !dbg !2418

bb3:                                              ; preds = %bb2
  ret void, !dbg !2420

bb4:                                              ; preds = %bb5, %bb6
  %9 = load ptr, ptr %0, align 8, !dbg !2421, !noundef !27
  %10 = getelementptr inbounds i8, ptr %0, i64 8, !dbg !2421
  %11 = load i32, ptr %10, align 8, !dbg !2421, !noundef !27
  %12 = insertvalue { ptr, i32 } poison, ptr %9, 0, !dbg !2421
  %13 = insertvalue { ptr, i32 } %12, i32 %11, 1, !dbg !2421
  resume { ptr, i32 } %13, !dbg !2421

bb5:                                              ; preds = %bb6
  br label %bb4, !dbg !2417
}

; <proc_macro2::fallback::TokenStream as core::iter::traits::collect::Extend<proc_macro2::TokenTree>>::extend
; Function Attrs: uwtable
define void @"_ZN120_$LT$proc_macro2..fallback..TokenStream$u20$as$u20$core..iter..traits..collect..Extend$LT$proc_macro2..TokenTree$GT$$GT$6extend17h8a079c855acd6a8fE"(ptr align 8 %self, ptr align 8 %tokens) unnamed_addr #0 personality ptr @rust_eh_personality !dbg !2422 {
start:
  %0 = alloca { ptr, i32, [1 x i32] }, align 8
  %self.dbg.spill = alloca ptr, align 8
  %_10 = alloca i8, align 1
  %_8 = alloca ptr, align 8
  %_7 = alloca %"__private::push_lifetime::Lifetime<'_>", align 8
  %_6 = alloca %"__private::push_lifetime::Lifetime<'_>", align 8
  %vec = alloca ptr, align 8
  store ptr %self, ptr %self.dbg.spill, align 8
  call void @llvm.dbg.declare(metadata ptr %self.dbg.spill, metadata !2426, metadata !DIExpression()), !dbg !2430
  call void @llvm.dbg.declare(metadata ptr %tokens, metadata !2427, metadata !DIExpression()), !dbg !2431
  call void @llvm.dbg.declare(metadata ptr %vec, metadata !2428, metadata !DIExpression()), !dbg !2432
  store i8 0, ptr %_10, align 1, !dbg !2433
  store i8 1, ptr %_10, align 1, !dbg !2433
; invoke proc_macro2::rcvec::RcVec<T>::make_mut
  %1 = invoke align 8 ptr @"_ZN11proc_macro25rcvec14RcVec$LT$T$GT$8make_mut17h97584c588031b354E"(ptr align 8 %self)
          to label %bb1 unwind label %cleanup, !dbg !2434

bb6:                                              ; preds = %cleanup
  %2 = load i8, ptr %_10, align 1, !dbg !2435, !range !1526, !noundef !27
  %3 = trunc i8 %2 to i1, !dbg !2435
  br i1 %3, label %bb5, label %bb4, !dbg !2435

cleanup:                                          ; preds = %bb2, %bb1, %start
  %4 = landingpad { ptr, i32 }
          cleanup
  %5 = extractvalue { ptr, i32 } %4, 0
  %6 = extractvalue { ptr, i32 } %4, 1
  store ptr %5, ptr %0, align 8
  %7 = getelementptr inbounds i8, ptr %0, i64 8
  store i32 %6, ptr %7, align 8
  br label %bb6

bb1:                                              ; preds = %start
  store ptr %1, ptr %vec, align 8, !dbg !2434
  store i8 0, ptr %_10, align 1, !dbg !2436
  call void @llvm.memcpy.p0.p0.i64(ptr align 8 %_7, ptr align 8 %tokens, i64 24, i1 false), !dbg !2436
; invoke <I as core::iter::traits::collect::IntoIterator>::into_iter
  invoke void @"_ZN63_$LT$I$u20$as$u20$core..iter..traits..collect..IntoIterator$GT$9into_iter17h88e81a34ce2fd4b6E"(ptr sret(%"__private::push_lifetime::Lifetime<'_>") align 8 %_6, ptr align 8 %_7)
          to label %bb2 unwind label %cleanup, !dbg !2436

bb2:                                              ; preds = %bb1
  store ptr %vec, ptr %_8, align 8, !dbg !2437
  %8 = load ptr, ptr %_8, align 8, !dbg !2436, !nonnull !27, !align !658, !noundef !27
; invoke core::iter::traits::iterator::Iterator::for_each
  invoke void @_ZN4core4iter6traits8iterator8Iterator8for_each17h54098670fb0f7217E(ptr align 8 %_6, ptr align 8 %8)
          to label %bb3 unwind label %cleanup, !dbg !2436

bb3:                                              ; preds = %bb2
  ret void, !dbg !2438

bb4:                                              ; preds = %bb5, %bb6
  %9 = load ptr, ptr %0, align 8, !dbg !2439, !noundef !27
  %10 = getelementptr inbounds i8, ptr %0, i64 8, !dbg !2439
  %11 = load i32, ptr %10, align 8, !dbg !2439, !noundef !27
  %12 = insertvalue { ptr, i32 } poison, ptr %9, 0, !dbg !2439
  %13 = insertvalue { ptr, i32 } %12, i32 %11, 1, !dbg !2439
  resume { ptr, i32 } %13, !dbg !2439

bb5:                                              ; preds = %bb6
  br label %bb4, !dbg !2435
}

; <proc_macro2::fallback::TokenStream as core::iter::traits::collect::Extend<proc_macro2::TokenTree>>::extend
; Function Attrs: uwtable
define void @"_ZN120_$LT$proc_macro2..fallback..TokenStream$u20$as$u20$core..iter..traits..collect..Extend$LT$proc_macro2..TokenTree$GT$$GT$6extend17hf76fa1f98630b999E"(ptr align 8 %self, ptr align 8 %tokens) unnamed_addr #0 personality ptr @rust_eh_personality !dbg !2440 {
start:
  %0 = alloca { ptr, i32, [1 x i32] }, align 8
  %self.dbg.spill = alloca ptr, align 8
  %_10 = alloca i8, align 1
  %_8 = alloca ptr, align 8
  %_7 = alloca %"core::iter::adapters::map::Map<proc_macro2::token_stream::IntoIter, {closure@src/runtime.rs:267:37: 267:40}>", align 8
  %_6 = alloca %"core::iter::adapters::map::Map<proc_macro2::token_stream::IntoIter, {closure@src/runtime.rs:267:37: 267:40}>", align 8
  %vec = alloca ptr, align 8
  store ptr %self, ptr %self.dbg.spill, align 8
  call void @llvm.dbg.declare(metadata ptr %self.dbg.spill, metadata !2444, metadata !DIExpression()), !dbg !2448
  call void @llvm.dbg.declare(metadata ptr %tokens, metadata !2445, metadata !DIExpression()), !dbg !2449
  call void @llvm.dbg.declare(metadata ptr %vec, metadata !2446, metadata !DIExpression()), !dbg !2450
  store i8 0, ptr %_10, align 1, !dbg !2451
  store i8 1, ptr %_10, align 1, !dbg !2451
; invoke proc_macro2::rcvec::RcVec<T>::make_mut
  %1 = invoke align 8 ptr @"_ZN11proc_macro25rcvec14RcVec$LT$T$GT$8make_mut17h97584c588031b354E"(ptr align 8 %self)
          to label %bb1 unwind label %cleanup, !dbg !2452

bb6:                                              ; preds = %cleanup
  %2 = load i8, ptr %_10, align 1, !dbg !2453, !range !1526, !noundef !27
  %3 = trunc i8 %2 to i1, !dbg !2453
  br i1 %3, label %bb5, label %bb4, !dbg !2453

cleanup:                                          ; preds = %bb2, %bb1, %start
  %4 = landingpad { ptr, i32 }
          cleanup
  %5 = extractvalue { ptr, i32 } %4, 0
  %6 = extractvalue { ptr, i32 } %4, 1
  store ptr %5, ptr %0, align 8
  %7 = getelementptr inbounds i8, ptr %0, i64 8
  store i32 %6, ptr %7, align 8
  br label %bb6

bb1:                                              ; preds = %start
  store ptr %1, ptr %vec, align 8, !dbg !2452
  store i8 0, ptr %_10, align 1, !dbg !2454
  call void @llvm.memcpy.p0.p0.i64(ptr align 8 %_7, ptr align 8 %tokens, i64 48, i1 false), !dbg !2454
; invoke <I as core::iter::traits::collect::IntoIterator>::into_iter
  invoke void @"_ZN63_$LT$I$u20$as$u20$core..iter..traits..collect..IntoIterator$GT$9into_iter17h5b920c8246b2fe5fE"(ptr sret(%"core::iter::adapters::map::Map<proc_macro2::token_stream::IntoIter, {closure@src/runtime.rs:267:37: 267:40}>") align 8 %_6, ptr align 8 %_7)
          to label %bb2 unwind label %cleanup, !dbg !2454

bb2:                                              ; preds = %bb1
  store ptr %vec, ptr %_8, align 8, !dbg !2455
  %8 = load ptr, ptr %_8, align 8, !dbg !2454, !nonnull !27, !align !658, !noundef !27
; invoke core::iter::traits::iterator::Iterator::for_each
  invoke void @_ZN4core4iter6traits8iterator8Iterator8for_each17he3079bf7a2e7be4eE(ptr align 8 %_6, ptr align 8 %8)
          to label %bb3 unwind label %cleanup, !dbg !2454

bb3:                                              ; preds = %bb2
  ret void, !dbg !2456

bb4:                                              ; preds = %bb5, %bb6
  %9 = load ptr, ptr %0, align 8, !dbg !2457, !noundef !27
  %10 = getelementptr inbounds i8, ptr %0, i64 8, !dbg !2457
  %11 = load i32, ptr %10, align 8, !dbg !2457, !noundef !27
  %12 = insertvalue { ptr, i32 } poison, ptr %9, 0, !dbg !2457
  %13 = insertvalue { ptr, i32 } %12, i32 %11, 1, !dbg !2457
  resume { ptr, i32 } %13, !dbg !2457

bb5:                                              ; preds = %bb6
; invoke core::ptr::drop_in_place<core::iter::adapters::map::Map<proc_macro2::token_stream::IntoIter,quote::__private::parse_spanned::{{closure}}>>
  invoke void @"_ZN4core3ptr157drop_in_place$LT$core..iter..adapters..map..Map$LT$proc_macro2..token_stream..IntoIter$C$quote..__private..parse_spanned..$u7b$$u7b$closure$u7d$$u7d$$GT$$GT$17he03beab787d81663E"(ptr align 8 %tokens) #15
          to label %bb4 unwind label %terminate, !dbg !2453

terminate:                                        ; preds = %bb5
  %14 = landingpad { ptr, i32 }
          filter [0 x ptr] zeroinitializer
  %15 = extractvalue { ptr, i32 } %14, 0
  %16 = extractvalue { ptr, i32 } %14, 1
; call core::panicking::panic_in_cleanup
  call void @_ZN4core9panicking16panic_in_cleanup17hb45215b029b98411E() #16, !dbg !2457
  unreachable, !dbg !2457
}

; <proc_macro2::fallback::TokenStream as core::iter::traits::collect::Extend<proc_macro2::TokenTree>>::extend::{{closure}}
; Function Attrs: inlinehint uwtable
define void @"_ZN120_$LT$proc_macro2..fallback..TokenStream$u20$as$u20$core..iter..traits..collect..Extend$LT$proc_macro2..TokenTree$GT$$GT$6extend28_$u7b$$u7b$closure$u7d$$u7d$17h6dde1d7a8e02b1f3E"(ptr align 8 %_1, ptr align 8 %token) unnamed_addr #1 personality ptr @rust_eh_personality !dbg !2458 {
start:
  %0 = alloca { ptr, i32, [1 x i32] }, align 8
  %_1.dbg.spill = alloca ptr, align 8
  %_6 = alloca i8, align 1
  %_4 = alloca %"proc_macro2::TokenTree", align 8
  store ptr %_1, ptr %_1.dbg.spill, align 8
  call void @llvm.dbg.declare(metadata ptr %_1.dbg.spill, metadata !2467, metadata !DIExpression(DW_OP_deref, DW_OP_deref)), !dbg !2468
  call void @llvm.dbg.declare(metadata ptr %token, metadata !2466, metadata !DIExpression()), !dbg !2469
  store i8 0, ptr %_6, align 1, !dbg !2470
  store i8 1, ptr %_6, align 1, !dbg !2470
  %_5 = load ptr, ptr %_1, align 8, !dbg !2470, !nonnull !27, !align !658, !noundef !27
; invoke proc_macro2::rcvec::RcVecMut<T>::as_mut
  %_3 = invoke align 8 ptr @"_ZN11proc_macro25rcvec17RcVecMut$LT$T$GT$6as_mut17h43f59b73fb122e0aE"(ptr align 8 %_5)
          to label %bb1 unwind label %cleanup, !dbg !2470

bb5:                                              ; preds = %cleanup
  %1 = load i8, ptr %_6, align 1, !dbg !2471, !range !1526, !noundef !27
  %2 = trunc i8 %1 to i1, !dbg !2471
  br i1 %2, label %bb4, label %bb3, !dbg !2471

cleanup:                                          ; preds = %bb1, %start
  %3 = landingpad { ptr, i32 }
          cleanup
  %4 = extractvalue { ptr, i32 } %3, 0
  %5 = extractvalue { ptr, i32 } %3, 1
  store ptr %4, ptr %0, align 8
  %6 = getelementptr inbounds i8, ptr %0, i64 8
  store i32 %5, ptr %6, align 8
  br label %bb5

bb1:                                              ; preds = %start
  store i8 0, ptr %_6, align 1, !dbg !2472
  call void @llvm.memcpy.p0.p0.i64(ptr align 8 %_4, ptr align 8 %token, i64 32, i1 false), !dbg !2472
; invoke proc_macro2::fallback::push_token_from_proc_macro
  invoke void @_ZN11proc_macro28fallback26push_token_from_proc_macro17h57cfd55a68264625E(ptr align 8 %_3, ptr align 8 %_4)
          to label %bb2 unwind label %cleanup, !dbg !2473

bb2:                                              ; preds = %bb1
  ret void, !dbg !2474

bb3:                                              ; preds = %bb4, %bb5
  %7 = load ptr, ptr %0, align 8, !dbg !2475, !noundef !27
  %8 = getelementptr inbounds i8, ptr %0, i64 8, !dbg !2475
  %9 = load i32, ptr %8, align 8, !dbg !2475, !noundef !27
  %10 = insertvalue { ptr, i32 } poison, ptr %7, 0, !dbg !2475
  %11 = insertvalue { ptr, i32 } %10, i32 %9, 1, !dbg !2475
  resume { ptr, i32 } %11, !dbg !2475

bb4:                                              ; preds = %bb5
; invoke core::ptr::drop_in_place<proc_macro2::TokenTree>
  invoke void @"_ZN4core3ptr43drop_in_place$LT$proc_macro2..TokenTree$GT$17hc5e45371dff69412E"(ptr align 8 %token) #15
          to label %bb3 unwind label %terminate, !dbg !2471

terminate:                                        ; preds = %bb4
  %12 = landingpad { ptr, i32 }
          filter [0 x ptr] zeroinitializer
  %13 = extractvalue { ptr, i32 } %12, 0
  %14 = extractvalue { ptr, i32 } %12, 1
; call core::panicking::panic_in_cleanup
  call void @_ZN4core9panicking16panic_in_cleanup17hb45215b029b98411E() #16, !dbg !2475
  unreachable, !dbg !2475
}

; <proc_macro2::fallback::TokenStream as core::iter::traits::collect::Extend<proc_macro2::TokenTree>>::extend::{{closure}}
; Function Attrs: inlinehint uwtable
define void @"_ZN120_$LT$proc_macro2..fallback..TokenStream$u20$as$u20$core..iter..traits..collect..Extend$LT$proc_macro2..TokenTree$GT$$GT$6extend28_$u7b$$u7b$closure$u7d$$u7d$17h6fa74f0d967abbf7E"(ptr align 8 %_1, ptr align 8 %token) unnamed_addr #1 personality ptr @rust_eh_personality !dbg !2476 {
start:
  %0 = alloca { ptr, i32, [1 x i32] }, align 8
  %_1.dbg.spill = alloca ptr, align 8
  %_6 = alloca i8, align 1
  %_4 = alloca %"proc_macro2::TokenTree", align 8
  store ptr %_1, ptr %_1.dbg.spill, align 8
  call void @llvm.dbg.declare(metadata ptr %_1.dbg.spill, metadata !2485, metadata !DIExpression(DW_OP_deref, DW_OP_deref)), !dbg !2486
  call void @llvm.dbg.declare(metadata ptr %token, metadata !2484, metadata !DIExpression()), !dbg !2487
  store i8 0, ptr %_6, align 1, !dbg !2488
  store i8 1, ptr %_6, align 1, !dbg !2488
  %_5 = load ptr, ptr %_1, align 8, !dbg !2488, !nonnull !27, !align !658, !noundef !27
; invoke proc_macro2::rcvec::RcVecMut<T>::as_mut
  %_3 = invoke align 8 ptr @"_ZN11proc_macro25rcvec17RcVecMut$LT$T$GT$6as_mut17h43f59b73fb122e0aE"(ptr align 8 %_5)
          to label %bb1 unwind label %cleanup, !dbg !2488

bb5:                                              ; preds = %cleanup
  %1 = load i8, ptr %_6, align 1, !dbg !2489, !range !1526, !noundef !27
  %2 = trunc i8 %1 to i1, !dbg !2489
  br i1 %2, label %bb4, label %bb3, !dbg !2489

cleanup:                                          ; preds = %bb1, %start
  %3 = landingpad { ptr, i32 }
          cleanup
  %4 = extractvalue { ptr, i32 } %3, 0
  %5 = extractvalue { ptr, i32 } %3, 1
  store ptr %4, ptr %0, align 8
  %6 = getelementptr inbounds i8, ptr %0, i64 8
  store i32 %5, ptr %6, align 8
  br label %bb5

bb1:                                              ; preds = %start
  store i8 0, ptr %_6, align 1, !dbg !2490
  call void @llvm.memcpy.p0.p0.i64(ptr align 8 %_4, ptr align 8 %token, i64 32, i1 false), !dbg !2490
; invoke proc_macro2::fallback::push_token_from_proc_macro
  invoke void @_ZN11proc_macro28fallback26push_token_from_proc_macro17h57cfd55a68264625E(ptr align 8 %_3, ptr align 8 %_4)
          to label %bb2 unwind label %cleanup, !dbg !2491

bb2:                                              ; preds = %bb1
  ret void, !dbg !2492

bb3:                                              ; preds = %bb4, %bb5
  %7 = load ptr, ptr %0, align 8, !dbg !2493, !noundef !27
  %8 = getelementptr inbounds i8, ptr %0, i64 8, !dbg !2493
  %9 = load i32, ptr %8, align 8, !dbg !2493, !noundef !27
  %10 = insertvalue { ptr, i32 } poison, ptr %7, 0, !dbg !2493
  %11 = insertvalue { ptr, i32 } %10, i32 %9, 1, !dbg !2493
  resume { ptr, i32 } %11, !dbg !2493

bb4:                                              ; preds = %bb5
; invoke core::ptr::drop_in_place<proc_macro2::TokenTree>
  invoke void @"_ZN4core3ptr43drop_in_place$LT$proc_macro2..TokenTree$GT$17hc5e45371dff69412E"(ptr align 8 %token) #15
          to label %bb3 unwind label %terminate, !dbg !2489

terminate:                                        ; preds = %bb4
  %12 = landingpad { ptr, i32 }
          filter [0 x ptr] zeroinitializer
  %13 = extractvalue { ptr, i32 } %12, 0
  %14 = extractvalue { ptr, i32 } %12, 1
; call core::panicking::panic_in_cleanup
  call void @_ZN4core9panicking16panic_in_cleanup17hb45215b029b98411E() #16, !dbg !2493
  unreachable, !dbg !2493
}

; <proc_macro2::fallback::TokenStream as core::iter::traits::collect::Extend<proc_macro2::TokenTree>>::extend::{{closure}}
; Function Attrs: inlinehint uwtable
define void @"_ZN120_$LT$proc_macro2..fallback..TokenStream$u20$as$u20$core..iter..traits..collect..Extend$LT$proc_macro2..TokenTree$GT$$GT$6extend28_$u7b$$u7b$closure$u7d$$u7d$17hb8d6227aa1c48315E"(ptr align 8 %_1, ptr align 8 %token) unnamed_addr #1 personality ptr @rust_eh_personality !dbg !2494 {
start:
  %0 = alloca { ptr, i32, [1 x i32] }, align 8
  %_1.dbg.spill = alloca ptr, align 8
  %_6 = alloca i8, align 1
  %_4 = alloca %"proc_macro2::TokenTree", align 8
  store ptr %_1, ptr %_1.dbg.spill, align 8
  call void @llvm.dbg.declare(metadata ptr %_1.dbg.spill, metadata !2500, metadata !DIExpression(DW_OP_deref, DW_OP_deref)), !dbg !2501
  call void @llvm.dbg.declare(metadata ptr %token, metadata !2499, metadata !DIExpression()), !dbg !2502
  store i8 0, ptr %_6, align 1, !dbg !2503
  store i8 1, ptr %_6, align 1, !dbg !2503
  %_5 = load ptr, ptr %_1, align 8, !dbg !2503, !nonnull !27, !align !658, !noundef !27
; invoke proc_macro2::rcvec::RcVecMut<T>::as_mut
  %_3 = invoke align 8 ptr @"_ZN11proc_macro25rcvec17RcVecMut$LT$T$GT$6as_mut17h43f59b73fb122e0aE"(ptr align 8 %_5)
          to label %bb1 unwind label %cleanup, !dbg !2503

bb5:                                              ; preds = %cleanup
  %1 = load i8, ptr %_6, align 1, !dbg !2504, !range !1526, !noundef !27
  %2 = trunc i8 %1 to i1, !dbg !2504
  br i1 %2, label %bb4, label %bb3, !dbg !2504

cleanup:                                          ; preds = %bb1, %start
  %3 = landingpad { ptr, i32 }
          cleanup
  %4 = extractvalue { ptr, i32 } %3, 0
  %5 = extractvalue { ptr, i32 } %3, 1
  store ptr %4, ptr %0, align 8
  %6 = getelementptr inbounds i8, ptr %0, i64 8
  store i32 %5, ptr %6, align 8
  br label %bb5

bb1:                                              ; preds = %start
  store i8 0, ptr %_6, align 1, !dbg !2505
  call void @llvm.memcpy.p0.p0.i64(ptr align 8 %_4, ptr align 8 %token, i64 32, i1 false), !dbg !2505
; invoke proc_macro2::fallback::push_token_from_proc_macro
  invoke void @_ZN11proc_macro28fallback26push_token_from_proc_macro17h57cfd55a68264625E(ptr align 8 %_3, ptr align 8 %_4)
          to label %bb2 unwind label %cleanup, !dbg !2506

bb2:                                              ; preds = %bb1
  ret void, !dbg !2507

bb3:                                              ; preds = %bb4, %bb5
  %7 = load ptr, ptr %0, align 8, !dbg !2508, !noundef !27
  %8 = getelementptr inbounds i8, ptr %0, i64 8, !dbg !2508
  %9 = load i32, ptr %8, align 8, !dbg !2508, !noundef !27
  %10 = insertvalue { ptr, i32 } poison, ptr %7, 0, !dbg !2508
  %11 = insertvalue { ptr, i32 } %10, i32 %9, 1, !dbg !2508
  resume { ptr, i32 } %11, !dbg !2508

bb4:                                              ; preds = %bb5
; invoke core::ptr::drop_in_place<proc_macro2::TokenTree>
  invoke void @"_ZN4core3ptr43drop_in_place$LT$proc_macro2..TokenTree$GT$17hc5e45371dff69412E"(ptr align 8 %token) #15
          to label %bb3 unwind label %terminate, !dbg !2504

terminate:                                        ; preds = %bb4
  %12 = landingpad { ptr, i32 }
          filter [0 x ptr] zeroinitializer
  %13 = extractvalue { ptr, i32 } %12, 0
  %14 = extractvalue { ptr, i32 } %12, 1
; call core::panicking::panic_in_cleanup
  call void @_ZN4core9panicking16panic_in_cleanup17hb45215b029b98411E() #16, !dbg !2508
  unreachable, !dbg !2508
}

; <proc_macro2::fallback::TokenStream as core::iter::traits::collect::Extend<proc_macro2::TokenTree>>::extend::{{closure}}
; Function Attrs: inlinehint uwtable
define void @"_ZN120_$LT$proc_macro2..fallback..TokenStream$u20$as$u20$core..iter..traits..collect..Extend$LT$proc_macro2..TokenTree$GT$$GT$6extend28_$u7b$$u7b$closure$u7d$$u7d$17hbf57cda533440aafE"(ptr align 8 %_1, ptr align 8 %token) unnamed_addr #1 personality ptr @rust_eh_personality !dbg !2509 {
start:
  %0 = alloca { ptr, i32, [1 x i32] }, align 8
  %_1.dbg.spill = alloca ptr, align 8
  %_6 = alloca i8, align 1
  %_4 = alloca %"proc_macro2::TokenTree", align 8
  store ptr %_1, ptr %_1.dbg.spill, align 8
  call void @llvm.dbg.declare(metadata ptr %_1.dbg.spill, metadata !2518, metadata !DIExpression(DW_OP_deref, DW_OP_deref)), !dbg !2519
  call void @llvm.dbg.declare(metadata ptr %token, metadata !2517, metadata !DIExpression()), !dbg !2520
  store i8 0, ptr %_6, align 1, !dbg !2521
  store i8 1, ptr %_6, align 1, !dbg !2521
  %_5 = load ptr, ptr %_1, align 8, !dbg !2521, !nonnull !27, !align !658, !noundef !27
; invoke proc_macro2::rcvec::RcVecMut<T>::as_mut
  %_3 = invoke align 8 ptr @"_ZN11proc_macro25rcvec17RcVecMut$LT$T$GT$6as_mut17h43f59b73fb122e0aE"(ptr align 8 %_5)
          to label %bb1 unwind label %cleanup, !dbg !2521

bb5:                                              ; preds = %cleanup
  %1 = load i8, ptr %_6, align 1, !dbg !2522, !range !1526, !noundef !27
  %2 = trunc i8 %1 to i1, !dbg !2522
  br i1 %2, label %bb4, label %bb3, !dbg !2522

cleanup:                                          ; preds = %bb1, %start
  %3 = landingpad { ptr, i32 }
          cleanup
  %4 = extractvalue { ptr, i32 } %3, 0
  %5 = extractvalue { ptr, i32 } %3, 1
  store ptr %4, ptr %0, align 8
  %6 = getelementptr inbounds i8, ptr %0, i64 8
  store i32 %5, ptr %6, align 8
  br label %bb5

bb1:                                              ; preds = %start
  store i8 0, ptr %_6, align 1, !dbg !2523
  call void @llvm.memcpy.p0.p0.i64(ptr align 8 %_4, ptr align 8 %token, i64 32, i1 false), !dbg !2523
; invoke proc_macro2::fallback::push_token_from_proc_macro
  invoke void @_ZN11proc_macro28fallback26push_token_from_proc_macro17h57cfd55a68264625E(ptr align 8 %_3, ptr align 8 %_4)
          to label %bb2 unwind label %cleanup, !dbg !2524

bb2:                                              ; preds = %bb1
  ret void, !dbg !2525

bb3:                                              ; preds = %bb4, %bb5
  %7 = load ptr, ptr %0, align 8, !dbg !2526, !noundef !27
  %8 = getelementptr inbounds i8, ptr %0, i64 8, !dbg !2526
  %9 = load i32, ptr %8, align 8, !dbg !2526, !noundef !27
  %10 = insertvalue { ptr, i32 } poison, ptr %7, 0, !dbg !2526
  %11 = insertvalue { ptr, i32 } %10, i32 %9, 1, !dbg !2526
  resume { ptr, i32 } %11, !dbg !2526

bb4:                                              ; preds = %bb5
; invoke core::ptr::drop_in_place<proc_macro2::TokenTree>
  invoke void @"_ZN4core3ptr43drop_in_place$LT$proc_macro2..TokenTree$GT$17hc5e45371dff69412E"(ptr align 8 %token) #15
          to label %bb3 unwind label %terminate, !dbg !2522

terminate:                                        ; preds = %bb4
  %12 = landingpad { ptr, i32 }
          filter [0 x ptr] zeroinitializer
  %13 = extractvalue { ptr, i32 } %12, 0
  %14 = extractvalue { ptr, i32 } %12, 1
; call core::panicking::panic_in_cleanup
  call void @_ZN4core9panicking16panic_in_cleanup17hb45215b029b98411E() #16, !dbg !2526
  unreachable, !dbg !2526
}

; <proc_macro2::fallback::TokenStream as core::iter::traits::collect::Extend<proc_macro2::TokenTree>>::extend::{{closure}}
; Function Attrs: inlinehint uwtable
define void @"_ZN120_$LT$proc_macro2..fallback..TokenStream$u20$as$u20$core..iter..traits..collect..Extend$LT$proc_macro2..TokenTree$GT$$GT$6extend28_$u7b$$u7b$closure$u7d$$u7d$17hd47a42aca9642d5aE"(ptr align 8 %_1, ptr align 8 %token) unnamed_addr #1 personality ptr @rust_eh_personality !dbg !2527 {
start:
  %0 = alloca { ptr, i32, [1 x i32] }, align 8
  %_1.dbg.spill = alloca ptr, align 8
  %_6 = alloca i8, align 1
  %_4 = alloca %"proc_macro2::TokenTree", align 8
  store ptr %_1, ptr %_1.dbg.spill, align 8
  call void @llvm.dbg.declare(metadata ptr %_1.dbg.spill, metadata !2533, metadata !DIExpression(DW_OP_deref, DW_OP_deref)), !dbg !2534
  call void @llvm.dbg.declare(metadata ptr %token, metadata !2532, metadata !DIExpression()), !dbg !2535
  store i8 0, ptr %_6, align 1, !dbg !2536
  store i8 1, ptr %_6, align 1, !dbg !2536
  %_5 = load ptr, ptr %_1, align 8, !dbg !2536, !nonnull !27, !align !658, !noundef !27
; invoke proc_macro2::rcvec::RcVecMut<T>::as_mut
  %_3 = invoke align 8 ptr @"_ZN11proc_macro25rcvec17RcVecMut$LT$T$GT$6as_mut17h43f59b73fb122e0aE"(ptr align 8 %_5)
          to label %bb1 unwind label %cleanup, !dbg !2536

bb5:                                              ; preds = %cleanup
  %1 = load i8, ptr %_6, align 1, !dbg !2537, !range !1526, !noundef !27
  %2 = trunc i8 %1 to i1, !dbg !2537
  br i1 %2, label %bb4, label %bb3, !dbg !2537

cleanup:                                          ; preds = %bb1, %start
  %3 = landingpad { ptr, i32 }
          cleanup
  %4 = extractvalue { ptr, i32 } %3, 0
  %5 = extractvalue { ptr, i32 } %3, 1
  store ptr %4, ptr %0, align 8
  %6 = getelementptr inbounds i8, ptr %0, i64 8
  store i32 %5, ptr %6, align 8
  br label %bb5

bb1:                                              ; preds = %start
  store i8 0, ptr %_6, align 1, !dbg !2538
  call void @llvm.memcpy.p0.p0.i64(ptr align 8 %_4, ptr align 8 %token, i64 32, i1 false), !dbg !2538
; invoke proc_macro2::fallback::push_token_from_proc_macro
  invoke void @_ZN11proc_macro28fallback26push_token_from_proc_macro17h57cfd55a68264625E(ptr align 8 %_3, ptr align 8 %_4)
          to label %bb2 unwind label %cleanup, !dbg !2539

bb2:                                              ; preds = %bb1
  ret void, !dbg !2540

bb3:                                              ; preds = %bb4, %bb5
  %7 = load ptr, ptr %0, align 8, !dbg !2541, !noundef !27
  %8 = getelementptr inbounds i8, ptr %0, i64 8, !dbg !2541
  %9 = load i32, ptr %8, align 8, !dbg !2541, !noundef !27
  %10 = insertvalue { ptr, i32 } poison, ptr %7, 0, !dbg !2541
  %11 = insertvalue { ptr, i32 } %10, i32 %9, 1, !dbg !2541
  resume { ptr, i32 } %11, !dbg !2541

bb4:                                              ; preds = %bb5
; invoke core::ptr::drop_in_place<proc_macro2::TokenTree>
  invoke void @"_ZN4core3ptr43drop_in_place$LT$proc_macro2..TokenTree$GT$17hc5e45371dff69412E"(ptr align 8 %token) #15
          to label %bb3 unwind label %terminate, !dbg !2537

terminate:                                        ; preds = %bb4
  %12 = landingpad { ptr, i32 }
          filter [0 x ptr] zeroinitializer
  %13 = extractvalue { ptr, i32 } %12, 0
  %14 = extractvalue { ptr, i32 } %12, 1
; call core::panicking::panic_in_cleanup
  call void @_ZN4core9panicking16panic_in_cleanup17hb45215b029b98411E() #16, !dbg !2541
  unreachable, !dbg !2541
}

; <proc_macro2::imp::TokenStream as core::iter::traits::collect::FromIterator<proc_macro2::TokenTree>>::from_iter
; Function Attrs: uwtable
define void @"_ZN121_$LT$proc_macro2..imp..TokenStream$u20$as$u20$core..iter..traits..collect..FromIterator$LT$proc_macro2..TokenTree$GT$$GT$9from_iter17h082b2a92593aec1dE"(ptr sret(%"proc_macro2::imp::TokenStream") align 8 %_0, ptr align 8 %trees) unnamed_addr #0 personality ptr @rust_eh_personality !dbg !2542 {
start:
  %0 = alloca { ptr, i32, [1 x i32] }, align 8
  %_11 = alloca i8, align 1
  %_10 = alloca %"core::iter::adapters::map::Map<proc_macro2::token_stream::IntoIter, {closure@src/runtime.rs:277:22: 277:29}>", align 8
  %_9 = alloca %"core::iter::adapters::map::Map<proc_macro2::token_stream::IntoIter, {closure@src/runtime.rs:277:22: 277:29}>", align 8
  %_7 = alloca %"core::iter::adapters::map::Map<proc_macro2::token_stream::IntoIter, {closure@src/runtime.rs:277:22: 277:29}>", align 8
  %_6 = alloca %"core::iter::adapters::map::Map<proc_macro2::token_stream::IntoIter, {closure@src/runtime.rs:277:22: 277:29}>", align 8
  %_5 = alloca %"core::iter::adapters::map::Map<core::iter::adapters::map::Map<proc_macro2::token_stream::IntoIter, {closure@src/runtime.rs:277:22: 277:29}>, fn(proc_macro2::TokenTree) -> proc_macro::TokenTree {proc_macro2::imp::into_compiler_token}>", align 8
  %_3 = alloca %"proc_macro2::imp::DeferredTokenStream", align 8
  call void @llvm.dbg.declare(metadata ptr %trees, metadata !2547, metadata !DIExpression()), !dbg !2548
  store i8 0, ptr %_11, align 1, !dbg !2549
  store i8 1, ptr %_11, align 1, !dbg !2549
; invoke proc_macro2::detection::inside_proc_macro
  %_2 = invoke zeroext i1 @_ZN11proc_macro29detection17inside_proc_macro17h799bb97e1ce1a5c4E()
          to label %bb1 unwind label %cleanup, !dbg !2549

bb13:                                             ; preds = %cleanup
  %1 = load i8, ptr %_11, align 1, !dbg !2550, !range !1526, !noundef !27
  %2 = trunc i8 %1 to i1, !dbg !2550
  br i1 %2, label %bb12, label %bb11, !dbg !2550

cleanup:                                          ; preds = %bb5, %bb4, %bb3, %bb2, %bb8, %bb7, %start
  %3 = landingpad { ptr, i32 }
          cleanup
  %4 = extractvalue { ptr, i32 } %3, 0
  %5 = extractvalue { ptr, i32 } %3, 1
  store ptr %4, ptr %0, align 8
  %6 = getelementptr inbounds i8, ptr %0, i64 8
  store i32 %5, ptr %6, align 8
  br label %bb13

bb1:                                              ; preds = %start
  br i1 %_2, label %bb2, label %bb7, !dbg !2549

bb7:                                              ; preds = %bb1
  store i8 0, ptr %_11, align 1, !dbg !2551
  call void @llvm.memcpy.p0.p0.i64(ptr align 8 %_10, ptr align 8 %trees, i64 48, i1 false), !dbg !2551
; invoke <I as core::iter::traits::collect::IntoIterator>::into_iter
  invoke void @"_ZN63_$LT$I$u20$as$u20$core..iter..traits..collect..IntoIterator$GT$9into_iter17hafa10b8ec40a1433E"(ptr sret(%"core::iter::adapters::map::Map<proc_macro2::token_stream::IntoIter, {closure@src/runtime.rs:277:22: 277:29}>") align 8 %_9, ptr align 8 %_10)
          to label %bb8 unwind label %cleanup, !dbg !2551

bb2:                                              ; preds = %bb1
  store i8 0, ptr %_11, align 1, !dbg !2552
  call void @llvm.memcpy.p0.p0.i64(ptr align 8 %_7, ptr align 8 %trees, i64 48, i1 false), !dbg !2552
; invoke <I as core::iter::traits::collect::IntoIterator>::into_iter
  invoke void @"_ZN63_$LT$I$u20$as$u20$core..iter..traits..collect..IntoIterator$GT$9into_iter17hafa10b8ec40a1433E"(ptr sret(%"core::iter::adapters::map::Map<proc_macro2::token_stream::IntoIter, {closure@src/runtime.rs:277:22: 277:29}>") align 8 %_6, ptr align 8 %_7)
          to label %bb3 unwind label %cleanup, !dbg !2552

bb8:                                              ; preds = %bb7
; invoke core::iter::traits::iterator::Iterator::collect
  %_8 = invoke ptr @_ZN4core4iter6traits8iterator8Iterator7collect17hab1994ac6a29c8c0E(ptr align 8 %_9)
          to label %bb9 unwind label %cleanup, !dbg !2551

bb9:                                              ; preds = %bb8
  %7 = getelementptr inbounds i8, ptr %_0, i64 8, !dbg !2553
  store ptr %_8, ptr %7, align 8, !dbg !2553
  store i64 -9223372036854775808, ptr %_0, align 8, !dbg !2553
  br label %bb10, !dbg !2554

bb10:                                             ; preds = %bb6, %bb9
  ret void, !dbg !2555

bb3:                                              ; preds = %bb2
; invoke core::iter::traits::iterator::Iterator::map
  invoke void @_ZN4core4iter6traits8iterator8Iterator3map17hf5d4b4074786b4f7E(ptr sret(%"core::iter::adapters::map::Map<core::iter::adapters::map::Map<proc_macro2::token_stream::IntoIter, {closure@src/runtime.rs:277:22: 277:29}>, fn(proc_macro2::TokenTree) -> proc_macro::TokenTree {proc_macro2::imp::into_compiler_token}>") align 8 %_5, ptr align 8 %_6)
          to label %bb4 unwind label %cleanup, !dbg !2552

bb4:                                              ; preds = %bb3
; invoke core::iter::traits::iterator::Iterator::collect
  %_4 = invoke i32 @_ZN4core4iter6traits8iterator8Iterator7collect17hbdcdd973c80ab4d4E(ptr align 8 %_5)
          to label %bb5 unwind label %cleanup, !dbg !2552

bb5:                                              ; preds = %bb4
; invoke proc_macro2::imp::DeferredTokenStream::new
  invoke void @_ZN11proc_macro23imp19DeferredTokenStream3new17ha63e0b37a69ff1f7E(ptr sret(%"proc_macro2::imp::DeferredTokenStream") align 8 %_3, i32 %_4)
          to label %bb6 unwind label %cleanup, !dbg !2556

bb6:                                              ; preds = %bb5
  call void @llvm.memcpy.p0.p0.i64(ptr align 8 %_0, ptr align 8 %_3, i64 32, i1 false), !dbg !2557
  br label %bb10, !dbg !2554

bb11:                                             ; preds = %bb12, %bb13
  %8 = load ptr, ptr %0, align 8, !dbg !2558, !noundef !27
  %9 = getelementptr inbounds i8, ptr %0, i64 8, !dbg !2558
  %10 = load i32, ptr %9, align 8, !dbg !2558, !noundef !27
  %11 = insertvalue { ptr, i32 } poison, ptr %8, 0, !dbg !2558
  %12 = insertvalue { ptr, i32 } %11, i32 %10, 1, !dbg !2558
  resume { ptr, i32 } %12, !dbg !2558

bb12:                                             ; preds = %bb13
; invoke core::ptr::drop_in_place<core::iter::adapters::map::Map<proc_macro2::token_stream::IntoIter,quote::__private::respan_token_tree::{{closure}}>>
  invoke void @"_ZN4core3ptr161drop_in_place$LT$core..iter..adapters..map..Map$LT$proc_macro2..token_stream..IntoIter$C$quote..__private..respan_token_tree..$u7b$$u7b$closure$u7d$$u7d$$GT$$GT$17h3ac115cdeb076074E"(ptr align 8 %trees) #15
          to label %bb11 unwind label %terminate, !dbg !2550

terminate:                                        ; preds = %bb12
  %13 = landingpad { ptr, i32 }
          filter [0 x ptr] zeroinitializer
  %14 = extractvalue { ptr, i32 } %13, 0
  %15 = extractvalue { ptr, i32 } %13, 1
; call core::panicking::panic_in_cleanup
  call void @_ZN4core9panicking16panic_in_cleanup17hb45215b029b98411E() #16, !dbg !2558
  unreachable, !dbg !2558
}

; <proc_macro2::imp::TokenStream as core::iter::traits::collect::Extend<proc_macro2::imp::TokenStream>>::extend
; Function Attrs: uwtable
define void @"_ZN122_$LT$proc_macro2..imp..TokenStream$u20$as$u20$core..iter..traits..collect..Extend$LT$proc_macro2..imp..TokenStream$GT$$GT$6extend17h9a6ad62f2bfb1400E"(ptr align 8 %self, ptr align 8 %streams) unnamed_addr #0 personality ptr @rust_eh_personality !dbg !2559 {
start:
  %tts.dbg.spill1 = alloca ptr, align 8
  %0 = alloca { ptr, i32, [1 x i32] }, align 8
  %tts.dbg.spill = alloca ptr, align 8
  %self.dbg.spill = alloca ptr, align 8
  %_16 = alloca i8, align 1
  %_15 = alloca %"core::iter::adapters::map::Map<core::iter::sources::once::Once<proc_macro2::TokenStream>, {closure@<proc_macro2::TokenStream as core::iter::traits::collect::Extend<proc_macro2::TokenStream>>::extend<core::iter::sources::once::Once<proc_macro2::TokenStream>>::{closure#0}}>", align 8
  %_14 = alloca %"core::iter::adapters::map::Map<core::iter::sources::once::Once<proc_macro2::TokenStream>, {closure@<proc_macro2::TokenStream as core::iter::traits::collect::Extend<proc_macro2::TokenStream>>::extend<core::iter::sources::once::Once<proc_macro2::TokenStream>>::{closure#0}}>", align 8
  %_13 = alloca %"core::iter::adapters::map::Map<core::iter::adapters::map::Map<core::iter::sources::once::Once<proc_macro2::TokenStream>, {closure@<proc_macro2::TokenStream as core::iter::traits::collect::Extend<proc_macro2::TokenStream>>::extend<core::iter::sources::once::Once<proc_macro2::TokenStream>>::{closure#0}}>, fn(proc_macro2::imp::TokenStream) -> proc_macro2::fallback::TokenStream {proc_macro2::imp::TokenStream::unwrap_stable}>", align 8
  %_10 = alloca %"core::iter::adapters::map::Map<core::iter::sources::once::Once<proc_macro2::TokenStream>, {closure@<proc_macro2::TokenStream as core::iter::traits::collect::Extend<proc_macro2::TokenStream>>::extend<core::iter::sources::once::Once<proc_macro2::TokenStream>>::{closure#0}}>", align 8
  %_9 = alloca %"core::iter::adapters::map::Map<core::iter::sources::once::Once<proc_macro2::TokenStream>, {closure@<proc_macro2::TokenStream as core::iter::traits::collect::Extend<proc_macro2::TokenStream>>::extend<core::iter::sources::once::Once<proc_macro2::TokenStream>>::{closure#0}}>", align 8
  %_8 = alloca %"core::iter::adapters::map::Map<core::iter::adapters::map::Map<core::iter::sources::once::Once<proc_macro2::TokenStream>, {closure@<proc_macro2::TokenStream as core::iter::traits::collect::Extend<proc_macro2::TokenStream>>::extend<core::iter::sources::once::Once<proc_macro2::TokenStream>>::{closure#0}}>, fn(proc_macro2::imp::TokenStream) -> proc_macro::TokenStream {proc_macro2::imp::TokenStream::unwrap_nightly}>", align 8
  store ptr %self, ptr %self.dbg.spill, align 8
  call void @llvm.dbg.declare(metadata ptr %self.dbg.spill, metadata !2564, metadata !DIExpression()), !dbg !2571
  call void @llvm.dbg.declare(metadata ptr %streams, metadata !2565, metadata !DIExpression()), !dbg !2572
  store i8 0, ptr %_16, align 1, !dbg !2573
  store i8 1, ptr %_16, align 1, !dbg !2573
  %1 = load i64, ptr %self, align 8, !dbg !2573, !range !1707, !noundef !27
  %2 = icmp eq i64 %1, -9223372036854775808, !dbg !2573
  %_3 = select i1 %2, i64 1, i64 0, !dbg !2573
  %3 = icmp eq i64 %_3, 0, !dbg !2574
  br i1 %3, label %bb3, label %bb2, !dbg !2574

bb3:                                              ; preds = %start
  store ptr %self, ptr %tts.dbg.spill, align 8, !dbg !2575
  call void @llvm.dbg.declare(metadata ptr %tts.dbg.spill, metadata !2566, metadata !DIExpression()), !dbg !2576
; invoke proc_macro2::imp::DeferredTokenStream::evaluate_now
  invoke void @_ZN11proc_macro23imp19DeferredTokenStream12evaluate_now17h0662999a7c059c5fE(ptr align 8 %self)
          to label %bb4 unwind label %cleanup, !dbg !2577

bb2:                                              ; preds = %start
  %tts = getelementptr inbounds i8, ptr %self, i64 8, !dbg !2578
  store ptr %tts, ptr %tts.dbg.spill1, align 8, !dbg !2578
  call void @llvm.dbg.declare(metadata ptr %tts.dbg.spill1, metadata !2568, metadata !DIExpression()), !dbg !2579
  store i8 0, ptr %_16, align 1, !dbg !2580
  call void @llvm.memcpy.p0.p0.i64(ptr align 8 %_15, ptr align 8 %streams, i64 32, i1 false), !dbg !2580
; invoke <I as core::iter::traits::collect::IntoIterator>::into_iter
  invoke void @"_ZN63_$LT$I$u20$as$u20$core..iter..traits..collect..IntoIterator$GT$9into_iter17hf78936527aea8a53E"(ptr sret(%"core::iter::adapters::map::Map<core::iter::sources::once::Once<proc_macro2::TokenStream>, {closure@<proc_macro2::TokenStream as core::iter::traits::collect::Extend<proc_macro2::TokenStream>>::extend<core::iter::sources::once::Once<proc_macro2::TokenStream>>::{closure#0}}>") align 8 %_14, ptr align 8 %_15)
          to label %bb7 unwind label %cleanup, !dbg !2580

bb12:                                             ; preds = %cleanup
  %4 = load i8, ptr %_16, align 1, !dbg !2581, !range !1526, !noundef !27
  %5 = trunc i8 %4 to i1, !dbg !2581
  br i1 %5, label %bb11, label %bb10, !dbg !2581

cleanup:                                          ; preds = %bb8, %bb7, %bb2, %bb6, %bb5, %bb4, %bb3
  %6 = landingpad { ptr, i32 }
          cleanup
  %7 = extractvalue { ptr, i32 } %6, 0
  %8 = extractvalue { ptr, i32 } %6, 1
  store ptr %7, ptr %0, align 8
  %9 = getelementptr inbounds i8, ptr %0, i64 8
  store i32 %8, ptr %9, align 8
  br label %bb12

bb4:                                              ; preds = %bb3
  %_7 = getelementptr inbounds i8, ptr %self, i64 24, !dbg !2582
  store i8 0, ptr %_16, align 1, !dbg !2583
  call void @llvm.memcpy.p0.p0.i64(ptr align 8 %_10, ptr align 8 %streams, i64 32, i1 false), !dbg !2583
; invoke <I as core::iter::traits::collect::IntoIterator>::into_iter
  invoke void @"_ZN63_$LT$I$u20$as$u20$core..iter..traits..collect..IntoIterator$GT$9into_iter17hf78936527aea8a53E"(ptr sret(%"core::iter::adapters::map::Map<core::iter::sources::once::Once<proc_macro2::TokenStream>, {closure@<proc_macro2::TokenStream as core::iter::traits::collect::Extend<proc_macro2::TokenStream>>::extend<core::iter::sources::once::Once<proc_macro2::TokenStream>>::{closure#0}}>") align 8 %_9, ptr align 8 %_10)
          to label %bb5 unwind label %cleanup, !dbg !2583

bb5:                                              ; preds = %bb4
; invoke core::iter::traits::iterator::Iterator::map
  invoke void @_ZN4core4iter6traits8iterator8Iterator3map17h904fe9379a006b02E(ptr sret(%"core::iter::adapters::map::Map<core::iter::adapters::map::Map<core::iter::sources::once::Once<proc_macro2::TokenStream>, {closure@<proc_macro2::TokenStream as core::iter::traits::collect::Extend<proc_macro2::TokenStream>>::extend<core::iter::sources::once::Once<proc_macro2::TokenStream>>::{closure#0}}>, fn(proc_macro2::imp::TokenStream) -> proc_macro::TokenStream {proc_macro2::imp::TokenStream::unwrap_nightly}>") align 8 %_8, ptr align 8 %_9)
          to label %bb6 unwind label %cleanup, !dbg !2583

bb6:                                              ; preds = %bb5
; invoke <proc_macro::TokenStream as core::iter::traits::collect::Extend<proc_macro::TokenStream>>::extend
  invoke void @"_ZN110_$LT$proc_macro..TokenStream$u20$as$u20$core..iter..traits..collect..Extend$LT$proc_macro..TokenStream$GT$$GT$6extend17hc36ac98668590cb8E"(ptr align 4 %_7, ptr align 8 %_8)
          to label %bb13 unwind label %cleanup, !dbg !2582

bb13:                                             ; preds = %bb6
  br label %bb9, !dbg !2582

bb9:                                              ; preds = %bb14, %bb13
  ret void, !dbg !2584

bb7:                                              ; preds = %bb2
; invoke core::iter::traits::iterator::Iterator::map
  invoke void @_ZN4core4iter6traits8iterator8Iterator3map17h7a3b6ec5e0d4e252E(ptr sret(%"core::iter::adapters::map::Map<core::iter::adapters::map::Map<core::iter::sources::once::Once<proc_macro2::TokenStream>, {closure@<proc_macro2::TokenStream as core::iter::traits::collect::Extend<proc_macro2::TokenStream>>::extend<core::iter::sources::once::Once<proc_macro2::TokenStream>>::{closure#0}}>, fn(proc_macro2::imp::TokenStream) -> proc_macro2::fallback::TokenStream {proc_macro2::imp::TokenStream::unwrap_stable}>") align 8 %_13, ptr align 8 %_14)
          to label %bb8 unwind label %cleanup, !dbg !2580

bb8:                                              ; preds = %bb7
; invoke <proc_macro2::fallback::TokenStream as core::iter::traits::collect::Extend<proc_macro2::fallback::TokenStream>>::extend
  invoke void @"_ZN132_$LT$proc_macro2..fallback..TokenStream$u20$as$u20$core..iter..traits..collect..Extend$LT$proc_macro2..fallback..TokenStream$GT$$GT$6extend17hc0bc64ec6a3d8804E"(ptr align 8 %tts, ptr align 8 %_13)
          to label %bb14 unwind label %cleanup, !dbg !2585

bb14:                                             ; preds = %bb8
  br label %bb9, !dbg !2585

bb10:                                             ; preds = %bb11, %bb12
  %10 = load ptr, ptr %0, align 8, !dbg !2586, !noundef !27
  %11 = getelementptr inbounds i8, ptr %0, i64 8, !dbg !2586
  %12 = load i32, ptr %11, align 8, !dbg !2586, !noundef !27
  %13 = insertvalue { ptr, i32 } poison, ptr %10, 0, !dbg !2586
  %14 = insertvalue { ptr, i32 } %13, i32 %12, 1, !dbg !2586
  resume { ptr, i32 } %14, !dbg !2586

bb11:                                             ; preds = %bb12
; invoke core::ptr::drop_in_place<core::iter::adapters::map::Map<core::iter::sources::once::Once<proc_macro2::TokenStream>,<proc_macro2::TokenStream as core::iter::traits::collect::Extend<proc_macro2::TokenStream>>::extend<core::iter::sources::once::Once<proc_macro2::TokenStream>>::{{closure}}>>
  invoke void @"_ZN4core3ptr344drop_in_place$LT$core..iter..adapters..map..Map$LT$core..iter..sources..once..Once$LT$proc_macro2..TokenStream$GT$$C$$LT$proc_macro2..TokenStream$u20$as$u20$core..iter..traits..collect..Extend$LT$proc_macro2..TokenStream$GT$$GT$..extend$LT$core..iter..sources..once..Once$LT$proc_macro2..TokenStream$GT$$GT$..$u7b$$u7b$closure$u7d$$u7d$$GT$$GT$17h8b8f797c6802eb2cE"(ptr align 8 %streams) #15
          to label %bb10 unwind label %terminate, !dbg !2581

terminate:                                        ; preds = %bb11
  %15 = landingpad { ptr, i32 }
          filter [0 x ptr] zeroinitializer
  %16 = extractvalue { ptr, i32 } %15, 0
  %17 = extractvalue { ptr, i32 } %15, 1
; call core::panicking::panic_in_cleanup
  call void @_ZN4core9panicking16panic_in_cleanup17hb45215b029b98411E() #16, !dbg !2586
  unreachable, !dbg !2586

bb1:                                              ; No predecessors!
  unreachable, !dbg !2573
}

; <proc_macro2::fallback::TokenStream as core::iter::traits::collect::FromIterator<proc_macro2::TokenTree>>::from_iter
; Function Attrs: uwtable
define ptr @"_ZN126_$LT$proc_macro2..fallback..TokenStream$u20$as$u20$core..iter..traits..collect..FromIterator$LT$proc_macro2..TokenTree$GT$$GT$9from_iter17hee9e5f6fe28a588fE"(ptr align 8 %tokens) unnamed_addr #0 personality ptr @rust_eh_personality !dbg !2587 {
start:
  %0 = alloca { ptr, i32, [1 x i32] }, align 8
  %_6 = alloca i8, align 1
  %_5 = alloca %"core::iter::adapters::map::Map<proc_macro2::token_stream::IntoIter, {closure@src/runtime.rs:277:22: 277:29}>", align 8
  %stream = alloca ptr, align 8
  call void @llvm.dbg.declare(metadata ptr %tokens, metadata !2592, metadata !DIExpression()), !dbg !2595
  call void @llvm.dbg.declare(metadata ptr %stream, metadata !2593, metadata !DIExpression()), !dbg !2596
  store i8 0, ptr %_6, align 1, !dbg !2597
  store i8 1, ptr %_6, align 1, !dbg !2597
; invoke proc_macro2::fallback::TokenStream::new
  %1 = invoke ptr @_ZN11proc_macro28fallback11TokenStream3new17h30a71743571851eaE()
          to label %bb1 unwind label %cleanup, !dbg !2598

bb6:                                              ; preds = %bb3, %cleanup
  %2 = load i8, ptr %_6, align 1, !dbg !2599, !range !1526, !noundef !27
  %3 = trunc i8 %2 to i1, !dbg !2599
  br i1 %3, label %bb5, label %bb4, !dbg !2599

cleanup:                                          ; preds = %start
  %4 = landingpad { ptr, i32 }
          cleanup
  %5 = extractvalue { ptr, i32 } %4, 0
  %6 = extractvalue { ptr, i32 } %4, 1
  store ptr %5, ptr %0, align 8
  %7 = getelementptr inbounds i8, ptr %0, i64 8
  store i32 %6, ptr %7, align 8
  br label %bb6

bb1:                                              ; preds = %start
  store ptr %1, ptr %stream, align 8, !dbg !2598
  store i8 0, ptr %_6, align 1, !dbg !2600
  call void @llvm.memcpy.p0.p0.i64(ptr align 8 %_5, ptr align 8 %tokens, i64 48, i1 false), !dbg !2600
; invoke <proc_macro2::fallback::TokenStream as core::iter::traits::collect::Extend<proc_macro2::TokenTree>>::extend
  invoke void @"_ZN120_$LT$proc_macro2..fallback..TokenStream$u20$as$u20$core..iter..traits..collect..Extend$LT$proc_macro2..TokenTree$GT$$GT$6extend17h53cd0b518a553824E"(ptr align 8 %stream, ptr align 8 %_5)
          to label %bb2 unwind label %cleanup1, !dbg !2601

bb3:                                              ; preds = %cleanup1
; invoke core::ptr::drop_in_place<proc_macro2::fallback::TokenStream>
  invoke void @"_ZN4core3ptr55drop_in_place$LT$proc_macro2..fallback..TokenStream$GT$17h3c61df3192b0b627E"(ptr align 8 %stream) #15
          to label %bb6 unwind label %terminate, !dbg !2599

cleanup1:                                         ; preds = %bb1
  %8 = landingpad { ptr, i32 }
          cleanup
  %9 = extractvalue { ptr, i32 } %8, 0
  %10 = extractvalue { ptr, i32 } %8, 1
  store ptr %9, ptr %0, align 8
  %11 = getelementptr inbounds i8, ptr %0, i64 8
  store i32 %10, ptr %11, align 8
  br label %bb3

bb2:                                              ; preds = %bb1
  %_0 = load ptr, ptr %stream, align 8, !dbg !2602, !nonnull !27, !noundef !27
  ret ptr %_0, !dbg !2603

terminate:                                        ; preds = %bb5, %bb3
  %12 = landingpad { ptr, i32 }
          filter [0 x ptr] zeroinitializer
  %13 = extractvalue { ptr, i32 } %12, 0
  %14 = extractvalue { ptr, i32 } %12, 1
; call core::panicking::panic_in_cleanup
  call void @_ZN4core9panicking16panic_in_cleanup17hb45215b029b98411E() #16, !dbg !2604
  unreachable, !dbg !2604

bb4:                                              ; preds = %bb5, %bb6
  %15 = load ptr, ptr %0, align 8, !dbg !2604, !noundef !27
  %16 = getelementptr inbounds i8, ptr %0, i64 8, !dbg !2604
  %17 = load i32, ptr %16, align 8, !dbg !2604, !noundef !27
  %18 = insertvalue { ptr, i32 } poison, ptr %15, 0, !dbg !2604
  %19 = insertvalue { ptr, i32 } %18, i32 %17, 1, !dbg !2604
  resume { ptr, i32 } %19, !dbg !2604

bb5:                                              ; preds = %bb6
; invoke core::ptr::drop_in_place<core::iter::adapters::map::Map<proc_macro2::token_stream::IntoIter,quote::__private::respan_token_tree::{{closure}}>>
  invoke void @"_ZN4core3ptr161drop_in_place$LT$core..iter..adapters..map..Map$LT$proc_macro2..token_stream..IntoIter$C$quote..__private..respan_token_tree..$u7b$$u7b$closure$u7d$$u7d$$GT$$GT$17h3ac115cdeb076074E"(ptr align 8 %tokens) #15
          to label %bb4 unwind label %terminate, !dbg !2599
}

; <proc_macro2::fallback::TokenStream as core::iter::traits::collect::Extend<proc_macro2::fallback::TokenStream>>::extend
; Function Attrs: uwtable
define void @"_ZN132_$LT$proc_macro2..fallback..TokenStream$u20$as$u20$core..iter..traits..collect..Extend$LT$proc_macro2..fallback..TokenStream$GT$$GT$6extend17hc0bc64ec6a3d8804E"(ptr align 8 %self, ptr align 8 %streams) unnamed_addr #0 personality ptr @rust_eh_personality !dbg !2605 {
start:
  %0 = alloca { ptr, i32, [1 x i32] }, align 8
  %self.dbg.spill = alloca ptr, align 8
  %_10 = alloca i8, align 1
  %_9 = alloca %"core::iter::adapters::map::Map<core::iter::adapters::map::Map<core::iter::sources::once::Once<proc_macro2::TokenStream>, {closure@<proc_macro2::TokenStream as core::iter::traits::collect::Extend<proc_macro2::TokenStream>>::extend<core::iter::sources::once::Once<proc_macro2::TokenStream>>::{closure#0}}>, fn(proc_macro2::imp::TokenStream) -> proc_macro2::fallback::TokenStream {proc_macro2::imp::TokenStream::unwrap_stable}>", align 8
  %_8 = alloca %"core::iter::adapters::map::Map<core::iter::adapters::map::Map<core::iter::sources::once::Once<proc_macro2::TokenStream>, {closure@<proc_macro2::TokenStream as core::iter::traits::collect::Extend<proc_macro2::TokenStream>>::extend<core::iter::sources::once::Once<proc_macro2::TokenStream>>::{closure#0}}>, fn(proc_macro2::imp::TokenStream) -> proc_macro2::fallback::TokenStream {proc_macro2::imp::TokenStream::unwrap_stable}>", align 8
  %_7 = alloca %"core::iter::adapters::flatten::Flatten<core::iter::adapters::map::Map<core::iter::adapters::map::Map<core::iter::sources::once::Once<proc_macro2::TokenStream>, {closure@<proc_macro2::TokenStream as core::iter::traits::collect::Extend<proc_macro2::TokenStream>>::extend<core::iter::sources::once::Once<proc_macro2::TokenStream>>::{closure#0}}>, fn(proc_macro2::imp::TokenStream) -> proc_macro2::fallback::TokenStream {proc_macro2::imp::TokenStream::unwrap_stable}>>", align 8
  %_5 = alloca ptr, align 8
  store ptr %self, ptr %self.dbg.spill, align 8
  call void @llvm.dbg.declare(metadata ptr %self.dbg.spill, metadata !2610, metadata !DIExpression()), !dbg !2612
  call void @llvm.dbg.declare(metadata ptr %streams, metadata !2611, metadata !DIExpression()), !dbg !2613
  store i8 0, ptr %_10, align 1, !dbg !2614
  store i8 1, ptr %_10, align 1, !dbg !2614
; invoke proc_macro2::rcvec::RcVec<T>::make_mut
  %1 = invoke align 8 ptr @"_ZN11proc_macro25rcvec14RcVec$LT$T$GT$8make_mut17h97584c588031b354E"(ptr align 8 %self)
          to label %bb1 unwind label %cleanup, !dbg !2614

bb7:                                              ; preds = %cleanup
  %2 = load i8, ptr %_10, align 1, !dbg !2615, !range !1526, !noundef !27
  %3 = trunc i8 %2 to i1, !dbg !2615
  br i1 %3, label %bb6, label %bb5, !dbg !2615

cleanup:                                          ; preds = %bb3, %bb2, %bb1, %start
  %4 = landingpad { ptr, i32 }
          cleanup
  %5 = extractvalue { ptr, i32 } %4, 0
  %6 = extractvalue { ptr, i32 } %4, 1
  store ptr %5, ptr %0, align 8
  %7 = getelementptr inbounds i8, ptr %0, i64 8
  store i32 %6, ptr %7, align 8
  br label %bb7

bb1:                                              ; preds = %start
  store ptr %1, ptr %_5, align 8, !dbg !2614
  store i8 0, ptr %_10, align 1, !dbg !2616
  call void @llvm.memcpy.p0.p0.i64(ptr align 8 %_9, ptr align 8 %streams, i64 32, i1 false), !dbg !2616
; invoke <I as core::iter::traits::collect::IntoIterator>::into_iter
  invoke void @"_ZN63_$LT$I$u20$as$u20$core..iter..traits..collect..IntoIterator$GT$9into_iter17h8c5036f3fc27ab40E"(ptr sret(%"core::iter::adapters::map::Map<core::iter::adapters::map::Map<core::iter::sources::once::Once<proc_macro2::TokenStream>, {closure@<proc_macro2::TokenStream as core::iter::traits::collect::Extend<proc_macro2::TokenStream>>::extend<core::iter::sources::once::Once<proc_macro2::TokenStream>>::{closure#0}}>, fn(proc_macro2::imp::TokenStream) -> proc_macro2::fallback::TokenStream {proc_macro2::imp::TokenStream::unwrap_stable}>") align 8 %_8, ptr align 8 %_9)
          to label %bb2 unwind label %cleanup, !dbg !2616

bb2:                                              ; preds = %bb1
; invoke core::iter::traits::iterator::Iterator::flatten
  invoke void @_ZN4core4iter6traits8iterator8Iterator7flatten17h7be3d7ecc23bca3dE(ptr sret(%"core::iter::adapters::flatten::Flatten<core::iter::adapters::map::Map<core::iter::adapters::map::Map<core::iter::sources::once::Once<proc_macro2::TokenStream>, {closure@<proc_macro2::TokenStream as core::iter::traits::collect::Extend<proc_macro2::TokenStream>>::extend<core::iter::sources::once::Once<proc_macro2::TokenStream>>::{closure#0}}>, fn(proc_macro2::imp::TokenStream) -> proc_macro2::fallback::TokenStream {proc_macro2::imp::TokenStream::unwrap_stable}>>") align 8 %_7, ptr align 8 %_8)
          to label %bb3 unwind label %cleanup, !dbg !2616

bb3:                                              ; preds = %bb2
; invoke proc_macro2::rcvec::RcVecMut<T>::extend
  invoke void @"_ZN11proc_macro25rcvec17RcVecMut$LT$T$GT$6extend17hb3c4e0c66fba15c2E"(ptr align 8 %_5, ptr align 8 %_7)
          to label %bb4 unwind label %cleanup, !dbg !2614

bb4:                                              ; preds = %bb3
  ret void, !dbg !2617

bb5:                                              ; preds = %bb6, %bb7
  %8 = load ptr, ptr %0, align 8, !dbg !2618, !noundef !27
  %9 = getelementptr inbounds i8, ptr %0, i64 8, !dbg !2618
  %10 = load i32, ptr %9, align 8, !dbg !2618, !noundef !27
  %11 = insertvalue { ptr, i32 } poison, ptr %8, 0, !dbg !2618
  %12 = insertvalue { ptr, i32 } %11, i32 %10, 1, !dbg !2618
  resume { ptr, i32 } %12, !dbg !2618

bb6:                                              ; preds = %bb7
; invoke core::ptr::drop_in_place<core::iter::adapters::map::Map<core::iter::adapters::map::Map<core::iter::sources::once::Once<proc_macro2::TokenStream>,<proc_macro2::TokenStream as core::iter::traits::collect::Extend<proc_macro2::TokenStream>>::extend<core::iter::sources::once::Once<proc_macro2::TokenStream>>::{{closure}}>,proc_macro2::imp::TokenStream::unwrap_stable>>
  invoke void @"_ZN4core3ptr429drop_in_place$LT$core..iter..adapters..map..Map$LT$core..iter..adapters..map..Map$LT$core..iter..sources..once..Once$LT$proc_macro2..TokenStream$GT$$C$$LT$proc_macro2..TokenStream$u20$as$u20$core..iter..traits..collect..Extend$LT$proc_macro2..TokenStream$GT$$GT$..extend$LT$core..iter..sources..once..Once$LT$proc_macro2..TokenStream$GT$$GT$..$u7b$$u7b$closure$u7d$$u7d$$GT$$C$proc_macro2..imp..TokenStream..unwrap_stable$GT$$GT$17h14008e74b484bed7E"(ptr align 8 %streams) #15
          to label %bb5 unwind label %terminate, !dbg !2615

terminate:                                        ; preds = %bb6
  %13 = landingpad { ptr, i32 }
          filter [0 x ptr] zeroinitializer
  %14 = extractvalue { ptr, i32 } %13, 0
  %15 = extractvalue { ptr, i32 } %13, 1
; call core::panicking::panic_in_cleanup
  call void @_ZN4core9panicking16panic_in_cleanup17hb45215b029b98411E() #16, !dbg !2618
  unreachable, !dbg !2618
}

; core::intrinsics::is_nonoverlapping
; Function Attrs: inlinehint uwtable
define internal zeroext i1 @_ZN4core10intrinsics17is_nonoverlapping17h275e4b8935c7343eE(ptr %src, ptr %dst, i64 %size, i64 %count) unnamed_addr #1 !dbg !2619 {
start:
  %size.dbg.spill3 = alloca i64, align 8
  %0 = alloca i8, align 1
  %a.dbg.spill1 = alloca i64, align 8
  %b.dbg.spill = alloca i8, align 1
  %a.dbg.spill = alloca i64, align 8
  %dst_usize.dbg.spill = alloca i64, align 8
  %src_usize.dbg.spill = alloca i64, align 8
  %count.dbg.spill = alloca i64, align 8
  %size.dbg.spill = alloca i64, align 8
  %dst.dbg.spill = alloca ptr, align 8
  %src.dbg.spill = alloca ptr, align 8
  %diff = alloca i64, align 8
  %_9 = alloca %"core::option::Option<usize>", align 8
  store ptr %src, ptr %src.dbg.spill, align 8
  call void @llvm.dbg.declare(metadata ptr %src.dbg.spill, metadata !2625, metadata !DIExpression()), !dbg !2637
  call void @llvm.dbg.declare(metadata ptr %src.dbg.spill, metadata !2638, metadata !DIExpression()), !dbg !2649
  call void @llvm.dbg.declare(metadata ptr %src.dbg.spill, metadata !2651, metadata !DIExpression()), !dbg !2661
  store ptr %dst, ptr %dst.dbg.spill, align 8
  call void @llvm.dbg.declare(metadata ptr %dst.dbg.spill, metadata !2626, metadata !DIExpression()), !dbg !2663
  call void @llvm.dbg.declare(metadata ptr %dst.dbg.spill, metadata !2647, metadata !DIExpression()), !dbg !2664
  call void @llvm.dbg.declare(metadata ptr %dst.dbg.spill, metadata !2657, metadata !DIExpression()), !dbg !2666
  store i64 %size, ptr %size.dbg.spill, align 8
  call void @llvm.dbg.declare(metadata ptr %size.dbg.spill, metadata !2627, metadata !DIExpression()), !dbg !2668
  call void @llvm.dbg.declare(metadata ptr %size.dbg.spill, metadata !2669, metadata !DIExpression()), !dbg !2679
  call void @llvm.dbg.declare(metadata ptr %size.dbg.spill, metadata !2681, metadata !DIExpression()), !dbg !2691
  store i64 %count, ptr %count.dbg.spill, align 8
  call void @llvm.dbg.declare(metadata ptr %count.dbg.spill, metadata !2628, metadata !DIExpression()), !dbg !2693
  call void @llvm.dbg.declare(metadata ptr %count.dbg.spill, metadata !2674, metadata !DIExpression()), !dbg !2679
  call void @llvm.dbg.declare(metadata ptr %count.dbg.spill, metadata !2686, metadata !DIExpression()), !dbg !2691
  call void @llvm.dbg.declare(metadata ptr %diff, metadata !2635, metadata !DIExpression()), !dbg !2694
  %src_usize = ptrtoint ptr %src to i64, !dbg !2695
  store i64 %src_usize, ptr %src_usize.dbg.spill, align 8, !dbg !2695
  call void @llvm.dbg.declare(metadata ptr %src_usize.dbg.spill, metadata !2629, metadata !DIExpression()), !dbg !2696
  call void @llvm.dbg.declare(metadata ptr %src_usize.dbg.spill, metadata !2697, metadata !DIExpression()), !dbg !2703
  %dst_usize = ptrtoint ptr %dst to i64, !dbg !2705
  store i64 %dst_usize, ptr %dst_usize.dbg.spill, align 8, !dbg !2705
  call void @llvm.dbg.declare(metadata ptr %dst_usize.dbg.spill, metadata !2631, metadata !DIExpression()), !dbg !2706
  call void @llvm.dbg.declare(metadata ptr %dst_usize.dbg.spill, metadata !2702, metadata !DIExpression()), !dbg !2703
  %1 = call { i64, i1 } @llvm.umul.with.overflow.i64(i64 %size, i64 %count), !dbg !2691
  %_15.0 = extractvalue { i64, i1 } %1, 0, !dbg !2691
  %_15.1 = extractvalue { i64, i1 } %1, 1, !dbg !2691
  store i64 %_15.0, ptr %a.dbg.spill, align 8, !dbg !2691
  call void @llvm.dbg.declare(metadata ptr %a.dbg.spill, metadata !2687, metadata !DIExpression()), !dbg !2707
  %2 = zext i1 %_15.1 to i8, !dbg !2691
  store i8 %2, ptr %b.dbg.spill, align 1, !dbg !2691
  call void @llvm.dbg.declare(metadata ptr %b.dbg.spill, metadata !2678, metadata !DIExpression()), !dbg !2708
  call void @llvm.dbg.declare(metadata ptr %b.dbg.spill, metadata !2690, metadata !DIExpression()), !dbg !2707
  store i64 %_15.0, ptr %a.dbg.spill1, align 8, !dbg !2707
  call void @llvm.dbg.declare(metadata ptr %a.dbg.spill1, metadata !2675, metadata !DIExpression()), !dbg !2708
  %3 = call i1 @llvm.expect.i1(i1 %_15.1, i1 false), !dbg !2708
  %4 = zext i1 %3 to i8, !dbg !2708
  store i8 %4, ptr %0, align 1, !dbg !2708
  %5 = load i8, ptr %0, align 1, !dbg !2708, !range !1526, !noundef !27
  %_12 = trunc i8 %5 to i1, !dbg !2708
  br i1 %_12, label %bb2, label %bb3, !dbg !2708

bb3:                                              ; preds = %start
  %6 = getelementptr inbounds i8, ptr %_9, i64 8, !dbg !2708
  store i64 %_15.0, ptr %6, align 8, !dbg !2708
  store i64 1, ptr %_9, align 8, !dbg !2708
  %7 = getelementptr inbounds i8, ptr %_9, i64 8, !dbg !2709
  %size2 = load i64, ptr %7, align 8, !dbg !2709, !noundef !27
  store i64 %size2, ptr %size.dbg.spill3, align 8, !dbg !2709
  call void @llvm.dbg.declare(metadata ptr %size.dbg.spill3, metadata !2633, metadata !DIExpression()), !dbg !2710
  %_22 = icmp ult i64 %src_usize, %dst_usize, !dbg !2703
  br i1 %_22, label %bb4, label %bb5, !dbg !2703

bb2:                                              ; preds = %start
; call core::panicking::panic_nounwind
  call void @_ZN4core9panicking14panic_nounwind17h50c31e15afde233eE(ptr align 1 @alloc_763310d78c99c2c1ad3f8a9821e942f3, i64 61) #17, !dbg !2711
  unreachable, !dbg !2711

bb5:                                              ; preds = %bb3
  %8 = sub i64 %src_usize, %dst_usize, !dbg !2703
  store i64 %8, ptr %diff, align 8, !dbg !2703
  br label %bb6, !dbg !2703

bb4:                                              ; preds = %bb3
  %9 = sub i64 %dst_usize, %src_usize, !dbg !2703
  store i64 %9, ptr %diff, align 8, !dbg !2703
  br label %bb6, !dbg !2703

bb6:                                              ; preds = %bb4, %bb5
  %_11 = load i64, ptr %diff, align 8, !dbg !2712, !noundef !27
  %_0 = icmp uge i64 %_11, %size2, !dbg !2712
  ret i1 %_0, !dbg !2713
}

; core::intrinsics::copy_nonoverlapping::precondition_check
; Function Attrs: inlinehint nounwind uwtable
define internal void @_ZN4core10intrinsics19copy_nonoverlapping18precondition_check17hacdfcf5334bc8087E(ptr %src, ptr %dst, i64 %size, i64 %align, i64 %count) unnamed_addr #2 personality ptr @rust_eh_personality !dbg !2714 {
start:
  %count.dbg.spill = alloca i64, align 8
  %align.dbg.spill = alloca i64, align 8
  %size.dbg.spill = alloca i64, align 8
  %dst.dbg.spill = alloca ptr, align 8
  %src.dbg.spill = alloca ptr, align 8
  store ptr %src, ptr %src.dbg.spill, align 8
  call void @llvm.dbg.declare(metadata ptr %src.dbg.spill, metadata !2719, metadata !DIExpression()), !dbg !2724
  store ptr %dst, ptr %dst.dbg.spill, align 8
  call void @llvm.dbg.declare(metadata ptr %dst.dbg.spill, metadata !2720, metadata !DIExpression()), !dbg !2724
  store i64 %size, ptr %size.dbg.spill, align 8
  call void @llvm.dbg.declare(metadata ptr %size.dbg.spill, metadata !2721, metadata !DIExpression()), !dbg !2724
  store i64 %align, ptr %align.dbg.spill, align 8
  call void @llvm.dbg.declare(metadata ptr %align.dbg.spill, metadata !2722, metadata !DIExpression()), !dbg !2724
  store i64 %count, ptr %count.dbg.spill, align 8
  call void @llvm.dbg.declare(metadata ptr %count.dbg.spill, metadata !2723, metadata !DIExpression()), !dbg !2724
; invoke core::intrinsics::is_aligned_and_not_null
  %_6 = invoke zeroext i1 @_ZN4core10intrinsics23is_aligned_and_not_null17hd65832366d47b285E(ptr %src, i64 %align)
          to label %bb1 unwind label %terminate, !dbg !2725

terminate:                                        ; preds = %bb4, %bb2, %start
  %0 = landingpad { ptr, i32 }
          filter [0 x ptr] zeroinitializer
  %1 = extractvalue { ptr, i32 } %0, 0
  %2 = extractvalue { ptr, i32 } %0, 1
; call core::panicking::panic_cannot_unwind
  call void @_ZN4core9panicking19panic_cannot_unwind17h3626040c0976c0c3E() #16, !dbg !2726
  unreachable, !dbg !2726

bb1:                                              ; preds = %start
  br i1 %_6, label %bb2, label %bb7, !dbg !2725

bb7:                                              ; preds = %bb5, %bb3, %bb1
; call core::panicking::panic_nounwind
  call void @_ZN4core9panicking14panic_nounwind17h50c31e15afde233eE(ptr align 1 @alloc_8df0580a595a87d56789d20c7318e185, i64 166) #17, !dbg !2727
  unreachable, !dbg !2727

bb2:                                              ; preds = %bb1
; invoke core::intrinsics::is_aligned_and_not_null
  %_7 = invoke zeroext i1 @_ZN4core10intrinsics23is_aligned_and_not_null17hd65832366d47b285E(ptr %dst, i64 %align)
          to label %bb3 unwind label %terminate, !dbg !2728

bb3:                                              ; preds = %bb2
  br i1 %_7, label %bb4, label %bb7, !dbg !2728

bb4:                                              ; preds = %bb3
; invoke core::intrinsics::is_nonoverlapping
  %_9 = invoke zeroext i1 @_ZN4core10intrinsics17is_nonoverlapping17h275e4b8935c7343eE(ptr %src, ptr %dst, i64 %size, i64 %count)
          to label %bb5 unwind label %terminate, !dbg !2729

bb5:                                              ; preds = %bb4
  br i1 %_9, label %bb6, label %bb7, !dbg !2729

bb6:                                              ; preds = %bb5
  ret void, !dbg !2730
}

; core::intrinsics::is_aligned_and_not_null
; Function Attrs: inlinehint uwtable
define internal zeroext i1 @_ZN4core10intrinsics23is_aligned_and_not_null17hd65832366d47b285E(ptr %ptr, i64 %align) unnamed_addr #1 !dbg !2731 {
start:
  %pieces.dbg.spill = alloca { ptr, i64 }, align 8
  %0 = alloca i64, align 8
  %ptr.dbg.spill1 = alloca ptr, align 8
  %align.dbg.spill = alloca i64, align 8
  %ptr.dbg.spill = alloca ptr, align 8
  %_6 = alloca %"core::fmt::Arguments<'_>", align 8
  %_0 = alloca i8, align 1
  store ptr %ptr, ptr %ptr.dbg.spill, align 8
  call void @llvm.dbg.declare(metadata ptr %ptr.dbg.spill, metadata !2735, metadata !DIExpression()), !dbg !2737
  call void @llvm.dbg.declare(metadata ptr %ptr.dbg.spill, metadata !2738, metadata !DIExpression()), !dbg !2744
  call void @llvm.dbg.declare(metadata ptr %ptr.dbg.spill, metadata !2746, metadata !DIExpression()), !dbg !2751
  call void @llvm.dbg.declare(metadata ptr %ptr.dbg.spill, metadata !2753, metadata !DIExpression()), !dbg !2759
  call void @llvm.dbg.declare(metadata ptr %ptr.dbg.spill, metadata !2761, metadata !DIExpression()), !dbg !2767
  call void @llvm.dbg.declare(metadata ptr %ptr.dbg.spill, metadata !2769, metadata !DIExpression()), !dbg !2773
  call void @llvm.dbg.declare(metadata ptr %ptr.dbg.spill, metadata !2757, metadata !DIExpression()), !dbg !2775
  store i64 %align, ptr %align.dbg.spill, align 8
  call void @llvm.dbg.declare(metadata ptr %align.dbg.spill, metadata !2736, metadata !DIExpression()), !dbg !2777
  call void @llvm.dbg.declare(metadata ptr %align.dbg.spill, metadata !2750, metadata !DIExpression()), !dbg !2778
  call void @llvm.dbg.declare(metadata ptr %align.dbg.spill, metadata !2779, metadata !DIExpression()), !dbg !2786
  call void @llvm.dbg.declare(metadata ptr %align.dbg.spill, metadata !2788, metadata !DIExpression()), !dbg !2795
  call void @llvm.dbg.declare(metadata ptr %align.dbg.spill, metadata !2766, metadata !DIExpression()), !dbg !2797
  store ptr %ptr, ptr %ptr.dbg.spill1, align 8, !dbg !2798
  call void @llvm.dbg.declare(metadata ptr %ptr.dbg.spill1, metadata !2799, metadata !DIExpression()), !dbg !2806
  call void @llvm.dbg.declare(metadata ptr %ptr.dbg.spill1, metadata !2808, metadata !DIExpression()), !dbg !2814
  call void @llvm.dbg.declare(metadata ptr %ptr.dbg.spill1, metadata !2816, metadata !DIExpression()), !dbg !2823
  %_4 = ptrtoint ptr %ptr to i64, !dbg !2825
  %1 = icmp eq i64 %_4, 0, !dbg !2826
  br i1 %1, label %bb1, label %bb2, !dbg !2826

bb1:                                              ; preds = %start
  store i8 0, ptr %_0, align 1, !dbg !2827
  br label %bb3, !dbg !2827

bb2:                                              ; preds = %start
  %2 = call i64 @llvm.ctpop.i64(i64 %align), !dbg !2795
  store i64 %2, ptr %0, align 8, !dbg !2795
  %_9 = load i64, ptr %0, align 8, !dbg !2795, !noundef !27
  %_8 = trunc i64 %_9 to i32, !dbg !2795
  %3 = icmp eq i32 %_8, 1, !dbg !2828
  br i1 %3, label %bb4, label %bb5, !dbg !2828

bb3:                                              ; preds = %bb4, %bb1
  %4 = load i8, ptr %_0, align 1, !dbg !2829, !range !1526, !noundef !27
  %5 = trunc i8 %4 to i1, !dbg !2829
  ret i1 %5, !dbg !2829

bb4:                                              ; preds = %bb2
  %_13 = sub i64 %align, 1, !dbg !2830
  %_12 = and i64 %_4, %_13, !dbg !2831
  %6 = icmp eq i64 %_12, 0, !dbg !2831
  %7 = zext i1 %6 to i8, !dbg !2831
  store i8 %7, ptr %_0, align 1, !dbg !2831
  br label %bb3, !dbg !2827

bb5:                                              ; preds = %bb2
  store ptr @alloc_041983ee8170efdaaf95ba67fd072d26, ptr %pieces.dbg.spill, align 8, !dbg !2832
  %8 = getelementptr inbounds i8, ptr %pieces.dbg.spill, i64 8, !dbg !2832
  store i64 1, ptr %8, align 8, !dbg !2832
  call void @llvm.dbg.declare(metadata ptr %pieces.dbg.spill, metadata !2833, metadata !DIExpression()), !dbg !2943
  store ptr @alloc_041983ee8170efdaaf95ba67fd072d26, ptr %_6, align 8, !dbg !2947
  %9 = getelementptr inbounds i8, ptr %_6, i64 8, !dbg !2947
  store i64 1, ptr %9, align 8, !dbg !2947
  %10 = load ptr, ptr @1, align 8, !dbg !2947, !align !658, !noundef !27
  %11 = load i64, ptr getelementptr inbounds (i8, ptr @1, i64 8), align 8, !dbg !2947
  %12 = getelementptr inbounds i8, ptr %_6, i64 32, !dbg !2947
  store ptr %10, ptr %12, align 8, !dbg !2947
  %13 = getelementptr inbounds i8, ptr %12, i64 8, !dbg !2947
  store i64 %11, ptr %13, align 8, !dbg !2947
  %14 = getelementptr inbounds i8, ptr %_6, i64 16, !dbg !2947
  store ptr @alloc_513570631223a12912d85da2bec3b15a, ptr %14, align 8, !dbg !2947
  %15 = getelementptr inbounds i8, ptr %14, i64 8, !dbg !2947
  store i64 0, ptr %15, align 8, !dbg !2947
; call core::panicking::panic_fmt
  call void @_ZN4core9panicking9panic_fmt17ha6d62ade15192290E(ptr align 8 %_6, ptr align 8 @alloc_33f991fa5bbac1da9d8a778b0f014caf) #18, !dbg !2948
  unreachable, !dbg !2948
}

; core::intrinsics::unlikely
; Function Attrs: nounwind uwtable
define internal zeroext i1 @_ZN4core10intrinsics8unlikely17h5b5e27b48d1f7a9dE(i1 zeroext %b) unnamed_addr #3 !dbg !2949 {
start:
  %b.dbg.spill = alloca i8, align 1
  %0 = zext i1 %b to i8
  store i8 %0, ptr %b.dbg.spill, align 1
  call void @llvm.dbg.declare(metadata ptr %b.dbg.spill, metadata !2953, metadata !DIExpression()), !dbg !2954
  ret i1 %b, !dbg !2955
}

; core::ops::function::FnMut::call_mut
; Function Attrs: inlinehint uwtable
define internal ptr @_ZN4core3ops8function5FnMut8call_mut17h8c16daa117d658a1E(ptr align 1 %_1, ptr align 8 %0) unnamed_addr #1 !dbg !2956 {
start:
  %_1.dbg.spill = alloca ptr, align 8
  %_2 = alloca { %"proc_macro2::imp::TokenStream" }, align 8
  call void @llvm.memcpy.p0.p0.i64(ptr align 8 %_2, ptr align 8 %0, i64 32, i1 false)
  store ptr %_1, ptr %_1.dbg.spill, align 8
  call void @llvm.dbg.declare(metadata ptr %_1.dbg.spill, metadata !2963, metadata !DIExpression()), !dbg !2971
  call void @llvm.dbg.declare(metadata ptr %_2, metadata !2964, metadata !DIExpression()), !dbg !2971
; call proc_macro2::imp::TokenStream::unwrap_stable
  %_0 = call ptr @_ZN11proc_macro23imp11TokenStream13unwrap_stable17h7caf2c65a4d80bccE(ptr align 8 %_2), !dbg !2971
  ret ptr %_0, !dbg !2971
}

; core::ops::function::FnMut::call_mut
; Function Attrs: inlinehint uwtable
define internal void @_ZN4core3ops8function5FnMut8call_mut17ha4c4baab8b009179E(ptr sret(%"proc_macro::TokenTree") align 4 %_0, ptr align 1 %_1, ptr align 8 %0) unnamed_addr #1 !dbg !2972 {
start:
  %_1.dbg.spill = alloca ptr, align 8
  %_2 = alloca { %"proc_macro2::TokenTree" }, align 8
  call void @llvm.memcpy.p0.p0.i64(ptr align 8 %_2, ptr align 8 %0, i64 32, i1 false)
  store ptr %_1, ptr %_1.dbg.spill, align 8
  call void @llvm.dbg.declare(metadata ptr %_1.dbg.spill, metadata !2977, metadata !DIExpression()), !dbg !2985
  call void @llvm.dbg.declare(metadata ptr %_2, metadata !2978, metadata !DIExpression()), !dbg !2985
; call proc_macro2::imp::into_compiler_token
