; ModuleID = '24hyixok1tlryujd'
source_filename = "24hyixok1tlryujd"
target datalayout = "e-m:o-i64:64-i128:128-n32:64-S128"
target triple = "arm64-apple-macosx11.0.0"

%"core::ops::control_flow::ControlFlow<(), core::convert::Infallible>::Break" = type { {} }
%"core::ptr::metadata::PtrRepr<[u32]>" = type { [2 x i64] }
%"core::ops::range::Range<usize>" = type { i64, i64 }
%"core::iter::adapters::zip::Zip<core::slice::iter::Iter<'_, u32>, core::slice::iter::Iter<'_, usize>>" = type { %"core::slice::iter::Iter<'_, u32>", %"core::slice::iter::Iter<'_, usize>", i64, i64, i64 }
%"core::slice::iter::Iter<'_, u32>" = type { ptr, ptr, %"core::marker::PhantomData<&u32>" }
%"core::marker::PhantomData<&u32>" = type {}
%"core::slice::iter::Iter<'_, usize>" = type { ptr, ptr, %"core::marker::PhantomData<&usize>" }
%"core::marker::PhantomData<&usize>" = type {}
%"core::iter::adapters::zip::Zip<core::slice::iter::Iter<'_, usize>, core::slice::iter::Iter<'_, u32>>" = type { %"core::slice::iter::Iter<'_, usize>", %"core::slice::iter::Iter<'_, u32>", i64, i64, i64 }
%"core::option::Option<(&usize, &u32)>" = type { ptr, [1 x i64] }
%"core::option::Option<(&u32, &usize)>" = type { ptr, [1 x i64] }
%"core::result::Result<rand_chacha::chacha::ChaCha12Core, rand_core::error::Error>" = type { i64, [6 x i64] }
%"rand_core::error::Error" = type { %"alloc::boxed::Box<dyn core::error::Error + core::marker::Send + core::marker::Sync>" }
%"alloc::boxed::Box<dyn core::error::Error + core::marker::Send + core::marker::Sync>" = type { %"core::ptr::unique::Unique<dyn core::error::Error + core::marker::Send + core::marker::Sync>", %"alloc::alloc::Global" }
%"core::ptr::unique::Unique<dyn core::error::Error + core::marker::Send + core::marker::Sync>" = type { %"core::ptr::non_null::NonNull<dyn core::error::Error + core::marker::Send + core::marker::Sync>", %"core::marker::PhantomData<dyn core::error::Error + core::marker::Send + core::marker::Sync>" }
%"core::ptr::non_null::NonNull<dyn core::error::Error + core::marker::Send + core::marker::Sync>" = type { { ptr, ptr } }
%"core::marker::PhantomData<dyn core::error::Error + core::marker::Send + core::marker::Sync>" = type {}
%"alloc::alloc::Global" = type {}
%"core::result::Result<core::convert::Infallible, rand_core::error::Error>::Err" = type { %"rand_core::error::Error" }
%"core::result::Result<usize, std::io::error::Error>" = type { i64, [1 x i64] }
%"std::io::Write::write_fmt::Adapter<'_, std::sys::pal::unix::stdio::Stderr>" = type { ptr, ptr }
%"std::io::error::ErrorData<&std::io::error::Custom>" = type { i8, [15 x i8] }
%"{closure@std::io::error::repr_bitpacked::Repr::data::{closure#0}}" = type {}
%"core::ptr::metadata::PtrComponents<()>" = type { ptr, {} }
%"core::ptr::metadata::PtrRepr<()>" = type { [1 x i64] }
%"core::fmt::rt::UnsafeArg" = type { {} }
%"core::fmt::rt::Count" = type { i64, [1 x i64] }
%"std::io::error::ErrorData<alloc::boxed::Box<std::io::error::Custom>>" = type { i8, [15 x i8] }
%"{closure@<std::io::error::repr_bitpacked::Repr as core::ops::drop::Drop>::drop::{closure#0}}" = type {}
%"core::fmt::Arguments<'_>" = type { { ptr, i64 }, { ptr, i64 }, %"core::option::Option<&[core::fmt::rt::Placeholder]>" }
%"core::option::Option<&[core::fmt::rt::Placeholder]>" = type { ptr, [1 x i64] }
%"core::fmt::rt::Argument<'_>" = type { ptr, ptr }
%"std::sys::pal::unix::stdio::Stderr" = type { {} }
%"core::result::Result<(), alloc::boxed::Box<dyn core::any::Any + core::marker::Send>>" = type { ptr, [1 x i64] }
%"{closure@src/rngs/adapter/reseeding.rs:318:28: 318:30}" = type {}
%"{closure@src/rngs/thread.rs:112:35: 112:38}" = type {}
%"std::thread::local::AccessError" = type {}
%"core::result::Result<core::convert::Infallible, std::thread::local::AccessError>::Err" = type { %"std::thread::local::AccessError" }
%"core::mem::manually_drop::ManuallyDrop<alloc::boxed::Box<dyn core::any::Any + core::marker::Send>>" = type { %"alloc::boxed::Box<dyn core::any::Any + core::marker::Send>" }
%"alloc::boxed::Box<dyn core::any::Any + core::marker::Send>" = type { %"core::ptr::unique::Unique<dyn core::any::Any + core::marker::Send>", %"alloc::alloc::Global" }
%"core::ptr::unique::Unique<dyn core::any::Any + core::marker::Send>" = type { %"core::ptr::non_null::NonNull<dyn core::any::Any + core::marker::Send>", %"core::marker::PhantomData<dyn core::any::Any + core::marker::Send>" }
%"core::ptr::non_null::NonNull<dyn core::any::Any + core::marker::Send>" = type { { ptr, ptr } }
%"core::marker::PhantomData<dyn core::any::Any + core::marker::Send>" = type {}
%"core::mem::manually_drop::ManuallyDrop<()>" = type { {} }
%"std::panicking::r#try::Data<core::panic::unwind_safe::AssertUnwindSafe<{closure@std::sys::thread_local::fast_local::destroy_value<alloc::rc::Rc<core::cell::UnsafeCell<rngs::adapter::reseeding::ReseedingRng<rand_chacha::chacha::ChaCha12Core, rand_core::os::OsRng>>>>::{closure#0}}>, ()>" = type { [2 x i64] }
%"core::option::Option<&str>" = type { ptr, [1 x i64] }
%"core::option::Option<i8>" = type { i8, [1 x i8] }
%"core::option::Option<u8>" = type { i8, [1 x i8] }
%"core::option::Option<i16>" = type { i16, [1 x i16] }
%"core::option::Option<i32>" = type { i32, [1 x i32] }
%"core::option::Option<i64>" = type { i64, [1 x i64] }
%"core::option::Option<u16>" = type { i16, [1 x i16] }
%"core::option::Option<u32>" = type { i32, [1 x i32] }
%"core::option::Option<u64>" = type { i64, [1 x i64] }
%"core::option::Option<i128>" = type { i128, [2 x i64] }
%"core::option::Option<u128>" = type { i128, [2 x i64] }
%"core::option::Option<isize>" = type { i64, [1 x i64] }
%"core::option::Option<usize>" = type { i64, [1 x i64] }
%"core::ops::range::RangeFull" = type {}
%"{closure@src/seq/index.rs:114:73: 114:81}" = type {}
%"{closure@src/seq/index.rs:111:73: 111:81}" = type {}
%"{closure@core::iter::traits::iterator::Iterator::all::check<(&usize, &u32), {closure@src/seq/index.rs:114:73: 114:81}>::{closure#0}}" = type { %"{closure@src/seq/index.rs:114:73: 114:81}" }
%"{closure@core::iter::traits::iterator::Iterator::all::check<(&u32, &usize), {closure@src/seq/index.rs:111:73: 111:81}>::{closure#0}}" = type { %"{closure@src/seq/index.rs:111:73: 111:81}" }
%"core::error::private::Internal" = type {}
%"core::ptr::non_null::NonNull<[u32]>" = type { { ptr, i64 } }
%"core::ptr::non_null::NonNull<[usize]>" = type { { ptr, i64 } }
%"rand_chacha::chacha::ChaCha12Core" = type { %"rand_chacha::guts::ChaCha" }
%"rand_chacha::guts::ChaCha" = type { %"ppv_lite86::generic::vec128_storage", %"ppv_lite86::generic::vec128_storage", %"ppv_lite86::generic::vec128_storage" }
%"ppv_lite86::generic::vec128_storage" = type { [2 x i64] }
%"{closure@src/rngs/thread.rs:84:54: 84:59}" = type {}
%"{closure@src/rngs/adapter/reseeding.rs:219:45: 219:53}" = type { ptr, ptr, ptr }
%"core::result::Result<(), rand_core::error::Error>" = type { ptr, [1 x i64] }
%"alloc::rc::RcBox<core::cell::UnsafeCell<rngs::adapter::reseeding::ReseedingRng<rand_chacha::chacha::ChaCha12Core, rand_core::os::OsRng>>>" = type { i64, i64, %"core::cell::UnsafeCell<rngs::adapter::reseeding::ReseedingRng<rand_chacha::chacha::ChaCha12Core, rand_core::os::OsRng>>" }
%"core::cell::UnsafeCell<rngs::adapter::reseeding::ReseedingRng<rand_chacha::chacha::ChaCha12Core, rand_core::os::OsRng>>" = type { %"rngs::adapter::reseeding::ReseedingRng<rand_chacha::chacha::ChaCha12Core, rand_core::os::OsRng>" }
%"rngs::adapter::reseeding::ReseedingRng<rand_chacha::chacha::ChaCha12Core, rand_core::os::OsRng>" = type { %"rand_core::block::BlockRng<rngs::adapter::reseeding::ReseedingCore<rand_chacha::chacha::ChaCha12Core, rand_core::os::OsRng>>" }
%"rand_core::block::BlockRng<rngs::adapter::reseeding::ReseedingCore<rand_chacha::chacha::ChaCha12Core, rand_core::os::OsRng>>" = type { %"rand_chacha::chacha::Array64<u32>", i64, %"rngs::adapter::reseeding::ReseedingCore<rand_chacha::chacha::ChaCha12Core, rand_core::os::OsRng>" }
%"rand_chacha::chacha::Array64<u32>" = type { [64 x i32] }
%"rngs::adapter::reseeding::ReseedingCore<rand_chacha::chacha::ChaCha12Core, rand_core::os::OsRng>" = type { %"rand_chacha::chacha::ChaCha12Core", i64, i64, i64, %"rand_core::os::OsRng" }
%"rand_core::os::OsRng" = type {}
%"core::ptr::non_null::NonNull<[u8]>" = type { { ptr, i64 } }
%"core::result::Result<core::ptr::non_null::NonNull<[u8]>, core::alloc::AllocError>" = type { ptr, [1 x i64] }
%"core::alloc::layout::Layout" = type { i64, i64 }
%"core::ptr::metadata::PtrComponents<[u8]>" = type { ptr, i64 }
%"core::ptr::metadata::PtrRepr<[u8]>" = type { [2 x i64] }
%"core::alloc::AllocError" = type {}
%"core::result::Result<core::convert::Infallible, core::alloc::AllocError>::Err" = type { %"core::alloc::AllocError" }
%"core::ptr::metadata::PtrComponents<[u32]>" = type { ptr, i64 }
%"core::ptr::metadata::PtrComponents<[usize]>" = type { ptr, i64 }
%"core::ptr::metadata::PtrRepr<[usize]>" = type { [2 x i64] }
%"{closure@<ppv_lite86::generic::u32x4_generic as ppv_lite86::types::StoreBytes>::unsafe_read_le::{closure#0}}" = type {}
%"ppv_lite86::generic::u32x4_generic" = type { [4 x i32] }
%"core::option::Option<core::fmt::Arguments<'_>>" = type { ptr, [5 x i64] }
%"core::ops::control_flow::ControlFlow<core::result::Result<core::convert::Infallible, rand_core::error::Error>>" = type { ptr, [1 x i64] }
%"{closure@<ppv_lite86::generic::u32x4_generic as ppv_lite86::types::RotateEachWord32>::rotate_each_word_right25::{closure#0}}" = type {}
%"{closure@<ppv_lite86::generic::u32x4_generic as ppv_lite86::types::RotateEachWord32>::rotate_each_word_right24::{closure#0}}" = type {}
%"{closure@<ppv_lite86::generic::u32x4_generic as ppv_lite86::types::RotateEachWord32>::rotate_each_word_right20::{closure#0}}" = type {}
%"{closure@<ppv_lite86::generic::u32x4_generic as ppv_lite86::types::RotateEachWord32>::rotate_each_word_right16::{closure#0}}" = type {}
%"ppv_lite86::soft::x4<ppv_lite86::generic::u32x4_generic>" = type { [4 x %"ppv_lite86::generic::u32x4_generic"] }
%"{closure@<ppv_lite86::generic::u32x4_generic as ppv_lite86::types::Swap64>::swap64::{closure#0}}" = type {}
%"{closure@<ppv_lite86::generic::u32x4_generic as core::ops::bit::BitXor>::bitxor::{closure#0}}" = type {}
%"ppv_lite86::generic::u64x2_generic" = type { [2 x i64] }
%"{closure@<ppv_lite86::generic::u64x2_generic as core::ops::arith::Add>::add::{closure#0}}" = type {}
%"ppv_lite86::generic::vec512_storage" = type { [4 x %"ppv_lite86::generic::vec128_storage"] }
%"ppv_lite86::soft::x4<ppv_lite86::generic::u64x2_generic>" = type { [4 x %"ppv_lite86::generic::u64x2_generic"] }
%"rand_chacha::guts::State<ppv_lite86::soft::x4<ppv_lite86::generic::u32x4_generic>>" = type { %"ppv_lite86::soft::x4<ppv_lite86::generic::u32x4_generic>", %"ppv_lite86::soft::x4<ppv_lite86::generic::u32x4_generic>", %"ppv_lite86::soft::x4<ppv_lite86::generic::u32x4_generic>", %"ppv_lite86::soft::x4<ppv_lite86::generic::u32x4_generic>" }
%"core::ops::range::Range<u32>" = type { i32, i32 }
%"core::option::Option<&dyn core::error::Error>" = type { ptr, [1 x i64] }
%"rngs::mock::StepRng" = type { i64, i64 }

@alloc_86beee2257703301cf54a5194140ca44 = private unnamed_addr constant <{ [96 x i8] }> <{ [96 x i8] c"/Users/s1g/.cargo/registry/src/index.crates.io-6f17d22bba15001f/ppv-lite86-0.2.17/src/generic.rs" }>, align 1
@alloc_e49b8cb255885cbe20257deb8b2b5b04 = private unnamed_addr constant <{ ptr, [16 x i8] }> <{ ptr @alloc_86beee2257703301cf54a5194140ca44, [16 x i8] c"`\00\00\00\00\00\00\00e\00\00\00\1F\00\00\00" }>, align 8
@alloc_0adbcc55c864c072a5ed738facbd5b56 = private unnamed_addr constant <{ ptr, [16 x i8] }> <{ ptr @alloc_86beee2257703301cf54a5194140ca44, [16 x i8] c"`\00\00\00\00\00\00\00\AF\00\00\00\1F\00\00\00" }>, align 8
@alloc_d4b80f95463e10b019220413c5b3c9e0 = private unnamed_addr constant <{ ptr, [16 x i8] }> <{ ptr @alloc_86beee2257703301cf54a5194140ca44, [16 x i8] c"`\00\00\00\00\00\00\00\BB\00\00\00\1F\00\00\00" }>, align 8
@alloc_365401ba8ca6d367741ec33b9480bdf4 = private unnamed_addr constant <{ ptr, [16 x i8] }> <{ ptr @alloc_86beee2257703301cf54a5194140ca44, [16 x i8] c"`\00\00\00\00\00\00\00\BC\00\00\00\1F\00\00\00" }>, align 8
@alloc_221002a49ce21d5924d6abf9c38e089e = private unnamed_addr constant <{ ptr, [16 x i8] }> <{ ptr @alloc_86beee2257703301cf54a5194140ca44, [16 x i8] c"`\00\00\00\00\00\00\00\95\00\00\00\1F\00\00\00" }>, align 8
@alloc_995aff94adc46f47fcfe5a79020396da = private unnamed_addr constant <{ ptr, [16 x i8] }> <{ ptr @alloc_86beee2257703301cf54a5194140ca44, [16 x i8] c"`\00\00\00\00\00\00\00\96\00\00\00\1F\00\00\00" }>, align 8
@alloc_4883271f5f05a18edc7c0d2907fec52a = private unnamed_addr constant <{ [103 x i8] }> <{ [103 x i8] c"/private/var/folders/m6/nyw0tbd5239gngtm06pzykr00000gn/T/.tmpPXbnuW/rand_chacha/rand_chacha/src/guts.rs" }>, align 1
@alloc_0ffd67b0973c43a85de9f5ddbca9536d = private unnamed_addr constant <{ ptr, [16 x i8] }> <{ ptr @alloc_4883271f5f05a18edc7c0d2907fec52a, [16 x i8] c"g\00\00\00\00\00\00\00\F7\00\00\00\22\00\00\00" }>, align 8
@alloc_b065d62cba11e727e0fd44bc03af655a = private unnamed_addr constant <{ ptr, [16 x i8] }> <{ ptr @alloc_4883271f5f05a18edc7c0d2907fec52a, [16 x i8] c"g\00\00\00\00\00\00\00\FB\00\00\00\1F\00\00\00" }>, align 8
@str.0 = internal unnamed_addr constant [33 x i8] c"attempt to subtract with overflow"
@alloc_b5cde7874ffc04d6401eecb1e3be8143 = private unnamed_addr constant <{ ptr, [16 x i8] }> <{ ptr @alloc_4883271f5f05a18edc7c0d2907fec52a, [16 x i8] c"g\00\00\00\00\00\00\00\FB\00\00\000\00\00\00" }>, align 8
@alloc_62a3f1ad78aa881f03ceb1b8fa2535e4 = private unnamed_addr constant <{ ptr, [16 x i8] }> <{ ptr @alloc_4883271f5f05a18edc7c0d2907fec52a, [16 x i8] c"g\00\00\00\00\00\00\00\FB\00\00\00\1E\00\00\00" }>, align 8
@alloc_b2433809f078df9b7e6e05e075b0c44e = private unnamed_addr constant <{ ptr, [16 x i8] }> <{ ptr @alloc_4883271f5f05a18edc7c0d2907fec52a, [16 x i8] c"g\00\00\00\00\00\00\00\FC\00\00\00\1F\00\00\00" }>, align 8
@alloc_8fd31f41e27b8fe6f60ee1db0c009a7b = private unnamed_addr constant <{ ptr, [16 x i8] }> <{ ptr @alloc_4883271f5f05a18edc7c0d2907fec52a, [16 x i8] c"g\00\00\00\00\00\00\00\FC\00\00\00\1E\00\00\00" }>, align 8
@alloc_c939feb4cb371cbd8f058b7938977575 = private unnamed_addr constant <{ ptr, [16 x i8] }> <{ ptr @alloc_4883271f5f05a18edc7c0d2907fec52a, [16 x i8] c"g\00\00\00\00\00\00\00\FE\00\00\00/\00\00\00" }>, align 8
@alloc_0fa14ac121094f5ffdfd0069dc34d6b5 = private unnamed_addr constant <{ ptr, [16 x i8] }> <{ ptr @alloc_4883271f5f05a18edc7c0d2907fec52a, [16 x i8] c"g\00\00\00\00\00\00\00\FF\00\00\00/\00\00\00" }>, align 8
@alloc_d54fc20fed87672e222fe7e633c5ce12 = private unnamed_addr constant <{ ptr, [16 x i8] }> <{ ptr @alloc_4883271f5f05a18edc7c0d2907fec52a, [16 x i8] c"g\00\00\00\00\00\00\00\01\01\00\00\15\00\00\00" }>, align 8
@alloc_dc1b686ec121f8b0c895d685c64f81b2 = private unnamed_addr constant <{ ptr, [16 x i8] }> <{ ptr @alloc_4883271f5f05a18edc7c0d2907fec52a, [16 x i8] c"g\00\00\00\00\00\00\00\02\01\00\00\15\00\00\00" }>, align 8
@alloc_533c57fe830be208e962d93ac15f9dd0 = private unnamed_addr constant <{ ptr, [16 x i8] }> <{ ptr @alloc_4883271f5f05a18edc7c0d2907fec52a, [16 x i8] c"g\00\00\00\00\00\00\00\03\01\00\00\1A\00\00\00" }>, align 8
@alloc_48042bf5da76fbee3e5eb2ab00e528d5 = private unnamed_addr constant <{ ptr, [16 x i8] }> <{ ptr @alloc_4883271f5f05a18edc7c0d2907fec52a, [16 x i8] c"g\00\00\00\00\00\00\00\AC\00\00\00\08\00\00\00" }>, align 8
@alloc_31f77236bb5d198791b85b94a9a19462 = private unnamed_addr constant <{ ptr, [16 x i8] }> <{ ptr @alloc_4883271f5f05a18edc7c0d2907fec52a, [16 x i8] c"g\00\00\00\00\00\00\00\AC\00\00\00\10\00\00\00" }>, align 8
@alloc_e438a57938acfdb25e419f2465b94c2e = private unnamed_addr constant <{ ptr, [16 x i8] }> <{ ptr @alloc_4883271f5f05a18edc7c0d2907fec52a, [16 x i8] c"g\00\00\00\00\00\00\00\AD\00\00\00\08\00\00\00" }>, align 8
@alloc_eff0e23d3891fbe4a674921723fff333 = private unnamed_addr constant <{ ptr, [16 x i8] }> <{ ptr @alloc_4883271f5f05a18edc7c0d2907fec52a, [16 x i8] c"g\00\00\00\00\00\00\00\AD\00\00\00\11\00\00\00" }>, align 8
@alloc_115b33301608b4a5643ef2e636f02496 = private unnamed_addr constant <{ ptr, [16 x i8] }> <{ ptr @alloc_4883271f5f05a18edc7c0d2907fec52a, [16 x i8] c"g\00\00\00\00\00\00\00\AE\00\00\00\08\00\00\00" }>, align 8
@alloc_4457b6b5a21711af4476f88e2ade4028 = private unnamed_addr constant <{ ptr, [16 x i8] }> <{ ptr @alloc_4883271f5f05a18edc7c0d2907fec52a, [16 x i8] c"g\00\00\00\00\00\00\00\AE\00\00\00\11\00\00\00" }>, align 8
@alloc_727cb4a16f07f1f75fa526682ef42b17 = private unnamed_addr constant <{ ptr, [16 x i8] }> <{ ptr @alloc_4883271f5f05a18edc7c0d2907fec52a, [16 x i8] c"g\00\00\00\00\00\00\00\AF\00\00\00\08\00\00\00" }>, align 8
@alloc_12071e1fd3690c98a0a2f03d2b0bcb3a = private unnamed_addr constant <{ ptr, [16 x i8] }> <{ ptr @alloc_4883271f5f05a18edc7c0d2907fec52a, [16 x i8] c"g\00\00\00\00\00\00\00\AF\00\00\00\11\00\00\00" }>, align 8
@alloc_ab5b6eda14f240a40695d57f8d961968 = private unnamed_addr constant <{ ptr, [16 x i8] }> <{ ptr @alloc_4883271f5f05a18edc7c0d2907fec52a, [16 x i8] c"g\00\00\00\00\00\00\00\B0\00\00\00/\00\00\00" }>, align 8
@alloc_5b6dce48f56205c248a27e72e9d4d3ba = private unnamed_addr constant <{ ptr, [16 x i8] }> <{ ptr @alloc_4883271f5f05a18edc7c0d2907fec52a, [16 x i8] c"g\00\00\00\00\00\00\00\90\00\00\00C\00\00\00" }>, align 8
@alloc_4f59262337610934f139e5d065e04988 = private unnamed_addr constant <{ ptr, [16 x i8] }> <{ ptr @alloc_4883271f5f05a18edc7c0d2907fec52a, [16 x i8] c"g\00\00\00\00\00\00\00\87\00\00\00&\00\00\00" }>, align 8
@alloc_e89584a94664c5d70aaa778b28a7ec5a = private unnamed_addr constant <{ ptr, [16 x i8] }> <{ ptr @alloc_4883271f5f05a18edc7c0d2907fec52a, [16 x i8] c"g\00\00\00\00\00\00\00\89\00\00\00\1A\00\00\00" }>, align 8
@alloc_8d68fcbc011419193bd208f22e2789d1 = private unnamed_addr constant <{ [28 x i8] }> <{ [28 x i8] c"failed to write whole buffer" }>, align 1
@alloc_626cc8bfd6c94d404aa777557e31db63 = private unnamed_addr constant <{ ptr, [9 x i8], [7 x i8] }> <{ ptr @alloc_8d68fcbc011419193bd208f22e2789d1, [9 x i8] c"\1C\00\00\00\00\00\00\00\17", [7 x i8] undef }>, align 8
@alloc_551afdedecf86e25d57a5c08fb577d61 = private unnamed_addr constant <{ [73 x i8] }> <{ [73 x i8] c"/rustc/46b180ec2452d388c5d9c14009442e2e0beb01d7/library/std/src/io/mod.rs" }>, align 1
@alloc_512ed3b31a5fa6f2618b95ad6adc6e6e = private unnamed_addr constant <{ ptr, [16 x i8] }> <{ ptr @alloc_551afdedecf86e25d57a5c08fb577d61, [16 x i8] c"I\00\00\00\00\00\00\00\B1\06\00\00$\00\00\00" }>, align 8
@alloc_118e5dd62e18907a47aec3e2be501119 = private unnamed_addr constant <{ [15 x i8] }> <{ [15 x i8] c"formatter error" }>, align 1
@alloc_5d9af7a776dc0d9eecd628aaf786bef9 = private unnamed_addr constant <{ ptr, [9 x i8], [7 x i8] }> <{ ptr @alloc_118e5dd62e18907a47aec3e2be501119, [9 x i8] c"\0F\00\00\00\00\00\00\00(", [7 x i8] undef }>, align 8
@vtable.1 = private constant <{ ptr, [16 x i8], ptr, ptr, ptr }> <{ ptr @"_ZN4core3ptr97drop_in_place$LT$std..io..Write..write_fmt..Adapter$LT$std..sys..pal..unix..stdio..Stderr$GT$$GT$17h4ac48c38e57f526eE", [16 x i8] c"\10\00\00\00\00\00\00\00\08\00\00\00\00\00\00\00", ptr @"_ZN80_$LT$std..io..Write..write_fmt..Adapter$LT$T$GT$$u20$as$u20$core..fmt..Write$GT$9write_str17hdb067050d56b5907E", ptr @_ZN4core3fmt5Write10write_char17h974ef25ecae37b47E, ptr @_ZN4core3fmt5Write9write_fmt17h05a1f4ad116055bbE }>, align 8, !dbg !0
@0 = private unnamed_addr constant <{ [8 x i8], [8 x i8] }> <{ [8 x i8] c"\02\00\00\00\00\00\00\00", [8 x i8] undef }>, align 8
@1 = private unnamed_addr constant <{ [16 x i8] }> <{ [16 x i8] c"\00\00\00\00\00\00\00\00\12\00\00\00\00\00\00\00" }>, align 8
@alloc_a500d906b91607583596fa15e63c2ada = private unnamed_addr constant <{ [40 x i8] }> <{ [40 x i8] c"internal error: entered unreachable code" }>, align 1
@alloc_316bb6b2ab2b5a9e65173f25628be79b = private unnamed_addr constant <{ [90 x i8] }> <{ [90 x i8] c"/rustc/46b180ec2452d388c5d9c14009442e2e0beb01d7/library/std/src/io/error/repr_bitpacked.rs" }>, align 1
@alloc_58a4045e21a346c8c471dc8330ab58ff = private unnamed_addr constant <{ ptr, [16 x i8] }> <{ ptr @alloc_316bb6b2ab2b5a9e65173f25628be79b, [16 x i8] c"Z\00\00\00\00\00\00\00\1D\01\00\00\0D\00\00\00" }>, align 8
@alloc_915544995c76d19b0d8d87d991dcd459 = private unnamed_addr constant <{ [1 x i8] }> <{ [1 x i8] c"#" }>, align 1
@alloc_1ccfc410ce4ba7704b8709f0d6e60294 = private unnamed_addr constant <{ [51 x i8] }> <{ [51 x i8] c"fatal runtime error: thread local panicked on drop\0A" }>, align 1
@alloc_f7c18d5ab6a04e64e435b4d6f64423e3 = private unnamed_addr constant <{ ptr, [8 x i8] }> <{ ptr @alloc_1ccfc410ce4ba7704b8709f0d6e60294, [8 x i8] c"3\00\00\00\00\00\00\00" }>, align 8
@2 = private unnamed_addr constant <{ [8 x i8], [8 x i8] }> <{ [8 x i8] zeroinitializer, [8 x i8] undef }>, align 8
@alloc_91c7fa63c3cfeaa3c795652d5cf060e4 = private unnamed_addr constant <{ [12 x i8] }> <{ [12 x i8] c"invalid args" }>, align 1
@alloc_af99043bc04c419363a7f04d23183506 = private unnamed_addr constant <{ ptr, [8 x i8] }> <{ ptr @alloc_91c7fa63c3cfeaa3c795652d5cf060e4, [8 x i8] c"\0C\00\00\00\00\00\00\00" }>, align 8
@alloc_513570631223a12912d85da2bec3b15a = private unnamed_addr constant <{}> zeroinitializer, align 8
@alloc_b471600b253f24fcc8f91ba747bf2f04 = private unnamed_addr constant <{ [75 x i8] }> <{ [75 x i8] c"/rustc/46b180ec2452d388c5d9c14009442e2e0beb01d7/library/core/src/fmt/mod.rs" }>, align 1
@alloc_4ba2c5ddff77a51f3765b0dd5f2851cc = private unnamed_addr constant <{ ptr, [16 x i8] }> <{ ptr @alloc_b471600b253f24fcc8f91ba747bf2f04, [16 x i8] c"K\00\00\00\00\00\00\00U\01\00\00\0D\00\00\00" }>, align 8
@vtable.2 = private constant <{ ptr, [16 x i8], ptr, ptr }> <{ ptr @"_ZN4core3ptr178drop_in_place$LT$std..sync..once..Once..call_once$LT$rand..rngs..adapter..reseeding..fork..register_fork_handler..$u7b$$u7b$closure$u7d$$u7d$$GT$..$u7b$$u7b$closure$u7d$$u7d$$GT$17h33c0be1ad54bf813E", [16 x i8] c"\08\00\00\00\00\00\00\00\08\00\00\00\00\00\00\00", ptr @"_ZN4core3ops8function6FnOnce40call_once$u7b$$u7b$vtable.shim$u7d$$u7d$17h6749889886d42d4eE", ptr @"_ZN3std4sync4once4Once9call_once28_$u7b$$u7b$closure$u7d$$u7d$17h3b8187d9a8a67879E" }>, align 8, !dbg !164
@alloc_ecdc911d1403d234a4083e4585ceef06 = private unnamed_addr constant <{ [76 x i8] }> <{ [76 x i8] c"/rustc/46b180ec2452d388c5d9c14009442e2e0beb01d7/library/std/src/sync/once.rs" }>, align 1
@alloc_80034dd298b5beea2bd4989e1a8a7cce = private unnamed_addr constant <{ ptr, [16 x i8] }> <{ ptr @alloc_ecdc911d1403d234a4083e4585ceef06, [16 x i8] c"L\00\00\00\00\00\00\00\95\00\00\002\00\00\00" }>, align 8
@alloc_2ee7ba9733a263ad3a32ba87b5ec3eae = private unnamed_addr constant <{ [70 x i8] }> <{ [70 x i8] c"cannot access a Thread Local Storage value during or after destruction" }>, align 1
@alloc_e5b4baa3830a5e30ee60a04e3635f15f = private unnamed_addr constant <{ [79 x i8] }> <{ [79 x i8] c"/rustc/46b180ec2452d388c5d9c14009442e2e0beb01d7/library/std/src/thread/local.rs" }>, align 1
@alloc_00aa40083825d612354fd68663f71701 = private unnamed_addr constant <{ ptr, [16 x i8] }> <{ ptr @alloc_e5b4baa3830a5e30ee60a04e3635f15f, [16 x i8] c"O\00\00\00\00\00\00\00\04\01\00\00\1A\00\00\00" }>, align 8
@alloc_fad0cd83b7d1858a846a172eb260e593 = private unnamed_addr constant <{ [42 x i8] }> <{ [42 x i8] c"is_aligned_to: align is not a power-of-two" }>, align 1
@alloc_041983ee8170efdaaf95ba67fd072d26 = private unnamed_addr constant <{ ptr, [8 x i8] }> <{ ptr @alloc_fad0cd83b7d1858a846a172eb260e593, [8 x i8] c"*\00\00\00\00\00\00\00" }>, align 8
@alloc_f1802761b0cba8787ff63a6853b741ad = private unnamed_addr constant <{ [81 x i8] }> <{ [81 x i8] c"/rustc/46b180ec2452d388c5d9c14009442e2e0beb01d7/library/core/src/ptr/const_ptr.rs" }>, align 1
@alloc_33f991fa5bbac1da9d8a778b0f014caf = private unnamed_addr constant <{ ptr, [16 x i8] }> <{ ptr @alloc_f1802761b0cba8787ff63a6853b741ad, [16 x i8] c"Q\00\00\00\00\00\00\00T\06\00\00\0D\00\00\00" }>, align 8
@alloc_3d28b95801fd55932918b2920be93f48 = private unnamed_addr constant <{ ptr, [16 x i8] }> <{ ptr @alloc_b471600b253f24fcc8f91ba747bf2f04, [16 x i8] c"K\00\00\00\00\00\00\00K\01\00\00\0D\00\00\00" }>, align 8
@3 = private unnamed_addr constant <{ [1 x i8], [1 x i8] }> <{ [1 x i8] zeroinitializer, [1 x i8] undef }>, align 1
@4 = private unnamed_addr constant <{ [2 x i8], [2 x i8] }> <{ [2 x i8] zeroinitializer, [2 x i8] undef }>, align 2
@5 = private unnamed_addr constant <{ [4 x i8], [4 x i8] }> <{ [4 x i8] zeroinitializer, [4 x i8] undef }>, align 4
@6 = private unnamed_addr constant <{ [16 x i8], [16 x i8] }> <{ [16 x i8] zeroinitializer, [16 x i8] undef }>, align 16
@alloc_d4d2a2a8539eafc62756407d946babb3 = private unnamed_addr constant <{ [110 x i8] }> <{ [110 x i8] c"unsafe precondition(s) violated: ptr::read_volatile requires that the pointer argument is aligned and non-null" }>, align 1
@alloc_20b3d155afd5c58c42e598b7e6d186ef = private unnamed_addr constant <{ [93 x i8] }> <{ [93 x i8] c"unsafe precondition(s) violated: NonNull::new_unchecked requires that the pointer is non-null" }>, align 1
@alloc_ec595fc0e82ef92fc59bd74f68296eae = private unnamed_addr constant <{ [73 x i8] }> <{ [73 x i8] c"assertion failed: 0 < pointee_size && pointee_size <= isize::MAX as usize" }>, align 1
@alloc_4e3a3aaf48410eaea90c90938dabe76a = private unnamed_addr constant <{ ptr, [16 x i8] }> <{ ptr @alloc_f1802761b0cba8787ff63a6853b741ad, [16 x i8] c"Q\00\00\00\00\00\00\00:\03\00\00\09\00\00\00" }>, align 8
@alloc_7efb3a7632b3620f628ce83a521b4d9b = private unnamed_addr constant <{ [71 x i8] }> <{ [71 x i8] c"unsafe precondition(s) violated: ptr::sub_ptr requires `self >= origin`" }>, align 1
@alloc_8b4d80671dc915cc8e9a508581e1d9c7 = private unnamed_addr constant <{ [80 x i8] }> <{ [80 x i8] c"/rustc/46b180ec2452d388c5d9c14009442e2e0beb01d7/library/core/src/char/methods.rs" }>, align 1
@alloc_f63e52aaa984f059a2e6dbe55c3b29c0 = private unnamed_addr constant <{ ptr, [16 x i8] }> <{ ptr @alloc_8b4d80671dc915cc8e9a508581e1d9c7, [16 x i8] c"P\00\00\00\00\00\00\00\05\07\00\00\0D\00\00\00" }>, align 8
@alloc_6b031f9bca8204235732c7c365d04a1d = private unnamed_addr constant <{ [18 x i8] }> <{ [18 x i8] c"encode_utf8: need " }>, align 1
@alloc_28d13efb0f9a95ccb5d02ec33dd195cf = private unnamed_addr constant <{ [19 x i8] }> <{ [19 x i8] c" bytes to encode U+" }>, align 1
@alloc_0d928972d2befd736e581c7fcc5a2f9a = private unnamed_addr constant <{ [21 x i8] }> <{ [21 x i8] c", but the buffer has " }>, align 1
@alloc_d51214f097f67314513b76e97e13aa6b = private unnamed_addr constant <{ ptr, [8 x i8], ptr, [8 x i8], ptr, [8 x i8] }> <{ ptr @alloc_6b031f9bca8204235732c7c365d04a1d, [8 x i8] c"\12\00\00\00\00\00\00\00", ptr @alloc_28d13efb0f9a95ccb5d02ec33dd195cf, [8 x i8] c"\13\00\00\00\00\00\00\00", ptr @alloc_0d928972d2befd736e581c7fcc5a2f9a, [8 x i8] c"\15\00\00\00\00\00\00\00" }>, align 8
@alloc_c75e20ea18464e397f0e51016b47c134 = private unnamed_addr constant <{ ptr, [16 x i8] }> <{ ptr @alloc_8b4d80671dc915cc8e9a508581e1d9c7, [16 x i8] c"P\00\00\00\00\00\00\00\FE\06\00\00\0E\00\00\00" }>, align 8
@alloc_ab14703751a9eb3585c49b2e55e9a9e5 = private unnamed_addr constant <{ [104 x i8] }> <{ [104 x i8] c"unsafe precondition(s) violated: hint::assert_unchecked must never be called when the condition is false" }>, align 1
@alloc_1eb6f53a157dccb32488e066ad957e6d = private unnamed_addr constant <{ [82 x i8] }> <{ [82 x i8] c"unsafe precondition(s) violated: hint::unreachable_unchecked must never be reached" }>, align 1
@alloc_914b2c69d7eca30497b9feaf15ac92f1 = private unnamed_addr constant <{ [1 x i8] }> zeroinitializer, align 1
@alloc_9cd20c3e415f4d39f0ceb012cb758628 = private unnamed_addr constant <{ [40 x i8] }> <{ [40 x i8] c"there is no such thing as a release load" }>, align 1
@alloc_cf8f91dd8bc9347b20052f6ccc905cd7 = private unnamed_addr constant <{ ptr, [8 x i8] }> <{ ptr @alloc_9cd20c3e415f4d39f0ceb012cb758628, [8 x i8] c"(\00\00\00\00\00\00\00" }>, align 8
@alloc_fb04678f0d962c767fbe619d0fb3421c = private unnamed_addr constant <{ [79 x i8] }> <{ [79 x i8] c"/rustc/46b180ec2452d388c5d9c14009442e2e0beb01d7/library/core/src/sync/atomic.rs" }>, align 1
@alloc_8c9cdb58c2f0a4545f7cc326c35c8372 = private unnamed_addr constant <{ ptr, [16 x i8] }> <{ ptr @alloc_fb04678f0d962c767fbe619d0fb3421c, [16 x i8] c"O\00\00\00\00\00\00\00\EE\0C\00\00\18\00\00\00" }>, align 8
@alloc_96ab912d0054b46da785b206a96c9a45 = private unnamed_addr constant <{ [49 x i8] }> <{ [49 x i8] c"there is no such thing as an acquire-release load" }>, align 1
@alloc_7e8e9a1d4bc7d0bbec692f0a50681e22 = private unnamed_addr constant <{ ptr, [8 x i8] }> <{ ptr @alloc_96ab912d0054b46da785b206a96c9a45, [8 x i8] c"1\00\00\00\00\00\00\00" }>, align 8
@alloc_79a5c80227634b987971a232b8e75faa = private unnamed_addr constant <{ ptr, [16 x i8] }> <{ ptr @alloc_fb04678f0d962c767fbe619d0fb3421c, [16 x i8] c"O\00\00\00\00\00\00\00\EF\0C\00\00\17\00\00\00" }>, align 8
@alloc_81f9ea5ad36a4fd02db0f8c6040ce6ce = private unnamed_addr constant <{ [78 x i8] }> <{ [78 x i8] c"/rustc/46b180ec2452d388c5d9c14009442e2e0beb01d7/library/core/src/intrinsics.rs" }>, align 1
@alloc_3ddfd615a577a80e66751be046ca7362 = private unnamed_addr constant <{ ptr, [16 x i8] }> <{ ptr @alloc_81f9ea5ad36a4fd02db0f8c6040ce6ce, [16 x i8] c"N\00\00\00\00\00\00\00\E6\0A\00\006\00\00\00" }>, align 8
@str.3 = internal unnamed_addr constant [25 x i8] c"attempt to divide by zero"
@alloc_11195730e5236cfdc15ea13be1c301f9 = private unnamed_addr constant <{ [162 x i8] }> <{ [162 x i8] c"unsafe precondition(s) violated: slice::from_raw_parts requires the pointer to be aligned and non-null, and the total size of the slice not to exceed `isize::MAX`" }>, align 1
@vtable.4 = private constant <{ ptr, [16 x i8], ptr }> <{ ptr @"_ZN4core3ptr52drop_in_place$LT$std..thread..local..AccessError$GT$17h5693f00dee5ec4b6E", [16 x i8] c"\00\00\00\00\00\00\00\00\01\00\00\00\00\00\00\00", ptr @"_ZN68_$LT$std..thread..local..AccessError$u20$as$u20$core..fmt..Debug$GT$3fmt17h2212dcebdb5b2aa8E" }>, align 8, !dbg !202
@alloc_374ceeb6b8b8236ec8bd7e600406410f = private unnamed_addr constant <{ [83 x i8] }> <{ [83 x i8] c"/rustc/46b180ec2452d388c5d9c14009442e2e0beb01d7/library/alloc/src/vec/partial_eq.rs" }>, align 1
@alloc_6e998f6011456d520fa7d96394ca4d16 = private unnamed_addr constant <{ ptr, [16 x i8] }> <{ ptr @alloc_374ceeb6b8b8236ec8bd7e600406410f, [16 x i8] c"S\00\00\00\00\00\00\00\17\00\00\00\01\00\00\00" }>, align 8
@__rust_no_alloc_shim_is_unstable = external global i8
@alloc_7e7ab47489b83128e0f385c74d2f19e8 = private unnamed_addr constant <{ [102 x i8] }> <{ [102 x i8] c"/private/var/folders/m6/nyw0tbd5239gngtm06pzykr00000gn/T/.tmpPXbnuW/rand_chacha/rand_core/src/block.rs" }>, align 1
@alloc_060e00216e5783663d079ffbaad95bab = private unnamed_addr constant <{ ptr, [16 x i8] }> <{ ptr @alloc_7e7ab47489b83128e0f385c74d2f19e8, [16 x i8] c"f\00\00\00\00\00\00\00\E7\00\00\00?\00\00\00" }>, align 8
@alloc_07fc464851a37ea9bf7697d17bef9d1e = private unnamed_addr constant <{ ptr, [16 x i8] }> <{ ptr @alloc_7e7ab47489b83128e0f385c74d2f19e8, [16 x i8] c"f\00\00\00\00\00\00\00\E7\00\00\00X\00\00\00" }>, align 8
@alloc_a2c3f9aa0cca884c20738304457b7a03 = private unnamed_addr constant <{ ptr, [16 x i8] }> <{ ptr @alloc_7e7ab47489b83128e0f385c74d2f19e8, [16 x i8] c"f\00\00\00\00\00\00\00\E9\00\00\00\0D\00\00\00" }>, align 8
@str.5 = internal unnamed_addr constant [28 x i8] c"attempt to add with overflow"
@alloc_06d437b37ab3fdb2f584160abb6d4c2b = private unnamed_addr constant <{ ptr, [16 x i8] }> <{ ptr @alloc_7e7ab47489b83128e0f385c74d2f19e8, [16 x i8] c"f\00\00\00\00\00\00\00\EA\00\00\00\0D\00\00\00" }>, align 8
@alloc_85fc59111fd0cef7ef4093da3840b035 = private unnamed_addr constant <{ [8 x i8] }> zeroinitializer, align 1
@alloc_87930ff84f26c4dc0d3a344636709737 = private unnamed_addr constant <{ [8 x i8] }> <{ [8 x i8] c"\10\00\00\00\00\00\00\00" }>, align 8
@alloc_c9b3586ee0bc5be8372d5d2598b7f618 = private unnamed_addr constant <{ ptr, [16 x i8] }> <{ ptr @alloc_86beee2257703301cf54a5194140ca44, [16 x i8] c"`\00\00\00\00\00\00\004\02\00\00\09\00\00\00" }>, align 8
@alloc_602b078a2383d48f1847035385246fb4 = private unnamed_addr constant <{ [100 x i8] }> <{ [100 x i8] c"/private/var/folders/m6/nyw0tbd5239gngtm06pzykr00000gn/T/.tmpPXbnuW/rand_chacha/rand_core/src/lib.rs" }>, align 1
@alloc_9b59073118ba014faee5697e56fa4fe9 = private unnamed_addr constant <{ ptr, [16 x i8] }> <{ ptr @alloc_602b078a2383d48f1847035385246fb4, [16 x i8] c"d\00\00\00\00\00\00\00p\01\00\00\09\00\00\00" }>, align 8
@alloc_b5ecac47f1e18ea8d6fd4b5387a95943 = private unnamed_addr constant <{ [53 x i8] }> <{ [53 x i8] c"assertion failed: index < self.results.as_ref().len()" }>, align 1
@alloc_2fef5fe9b910bbb4c2709673636e4b11 = private unnamed_addr constant <{ ptr, [16 x i8] }> <{ ptr @alloc_7e7ab47489b83128e0f385c74d2f19e8, [16 x i8] c"f\00\00\00\00\00\00\00\B4\00\00\00\09\00\00\00" }>, align 8
@alloc_3d0322825600db5ecb10a9ff8fad4371 = private unnamed_addr constant <{ [45 x i8] }> <{ [45 x i8] c"p is outside [0, 1] in Bernoulli distribution" }>, align 1
@alloc_f0270b2416ea26f04cff65a9a4c61e82 = private unnamed_addr constant <{ [60 x i8] }> <{ [60 x i8] c"Tried to create a `distributions::Slice` with an empty slice" }>, align 1
@alloc_af8c5eee0b5f672e38f186901e73c842 = private unnamed_addr constant <{ ptr, [8 x i8] }> <{ ptr @alloc_f0270b2416ea26f04cff65a9a4c61e82, [8 x i8] c"<\00\00\00\00\00\00\00" }>, align 8
@alloc_714fa8c243858036d3703b877d33001d = private unnamed_addr constant <{ [44 x i8] }> <{ [44 x i8] c"Weights sequence is empty/too long/unordered" }>, align 1
@alloc_bb1088c847ab32f96bf9bf638e0c96e3 = private unnamed_addr constant <{ [53 x i8] }> <{ [53 x i8] c"A weight is negative, too large or not a valid number" }>, align 1
@alloc_cbbf629a30ff0f2f2ed23ccd46df149d = private unnamed_addr constant <{ [25 x i8] }> <{ [25 x i8] c"Not enough weights > zero" }>, align 1
@alloc_6efb5bfa9362dca8b235297a246aeb09 = private unnamed_addr constant <{ [29 x i8] }> <{ [29 x i8] c"Overflow when summing weights" }>, align 1
@alloc_71614fe7b595b7e59365521b54232d98 = private unnamed_addr constant <{ [58 x i8] }> <{ [58 x i8] c"low > high (or equal if exclusive) in uniform distribution" }>, align 1
@alloc_c2d354b3fc7a51932f1095a2e3e546bf = private unnamed_addr constant <{ [40 x i8] }> <{ [40 x i8] c"Non-finite range in uniform distribution" }>, align 1
@alloc_ae4c1283f065c062485f75f8270797a9 = private unnamed_addr constant <{ [28 x i8] }> <{ [28 x i8] c"src/distributions/uniform.rs" }>, align 1
@alloc_c54aa0bf162ffea360735e1b2db6a97f = private unnamed_addr constant <{ ptr, [16 x i8] }> <{ ptr @alloc_ae4c1283f065c062485f75f8270797a9, [16 x i8] c"\1C\00\00\00\00\00\00\00\1C\03\00\00+\00\00\00" }>, align 8
@alloc_30565c4ed58ccc378bc1453d1b864af1 = private unnamed_addr constant <{ [11 x i8] }> <{ [11 x i8] c"ReadError: " }>, align 1
@alloc_b6f3c7c1d67a6f43fd15bdef29159a41 = private unnamed_addr constant <{ ptr, [8 x i8] }> <{ ptr @alloc_30565c4ed58ccc378bc1453d1b864af1, [8 x i8] c"\0B\00\00\00\00\00\00\00" }>, align 8
@alloc_d80b8cfef2d3d003cebb4b4a8e8a32f6 = private unnamed_addr constant <{ ptr, [16 x i8], ptr }> <{ ptr @"_ZN4core3ptr42drop_in_place$LT$std..io..error..Error$GT$17h33c9392263b0714fE", [16 x i8] c"\08\00\00\00\00\00\00\00\08\00\00\00\00\00\00\00", ptr @"_ZN60_$LT$std..io..error..Error$u20$as$u20$core..fmt..Display$GT$3fmt17hbc139276cbdeb580E" }>, align 8
@vtable.6 = private constant <{ ptr, [16 x i8], ptr, ptr, ptr, ptr, ptr, ptr, ptr, ptr }> <{ ptr @"_ZN4core3ptr42drop_in_place$LT$std..io..error..Error$GT$17h33c9392263b0714fE", [16 x i8] c"\08\00\00\00\00\00\00\00\08\00\00\00\00\00\00\00", ptr @"_ZN58_$LT$std..io..error..Error$u20$as$u20$core..fmt..Debug$GT$3fmt17h7e928c8c63e8bc93E", ptr @"_ZN60_$LT$std..io..error..Error$u20$as$u20$core..fmt..Display$GT$3fmt17hbc139276cbdeb580E", ptr @alloc_d80b8cfef2d3d003cebb4b4a8e8a32f6, ptr @"_ZN60_$LT$std..io..error..Error$u20$as$u20$core..error..Error$GT$6source17h1e9595e7b5b72d00E", ptr @_ZN4core5error5Error7type_id17h19c6c7ef4f9070e4E, ptr @"_ZN60_$LT$std..io..error..Error$u20$as$u20$core..error..Error$GT$11description17hbac3e75846b827f1E", ptr @"_ZN60_$LT$std..io..error..Error$u20$as$u20$core..error..Error$GT$5cause17h48429bd2ba434392E", ptr @_ZN4core5error5Error7provide17hf672fd6185296bfeE }>, align 8, !dbg !213
@alloc_5fd9b55ff9ebe0f2d4a0e75367ed0177 = private unnamed_addr constant <{ [29 x i8] }> <{ [29 x i8] c"src/rngs/adapter/reseeding.rs" }>, align 1
@alloc_67de6e8cba90ed2f1e118e890ebbbb45 = private unnamed_addr constant <{ ptr, [16 x i8] }> <{ ptr @alloc_5fd9b55ff9ebe0f2d4a0e75367ed0177, [16 x i8] c"\1D\00\00\00\00\00\00\00\B5\00\00\00\09\00\00\00" }>, align 8
@alloc_ebd8e38d47e1ad780feba4aa48b0c203 = private unnamed_addr constant <{ ptr, [16 x i8] }> <{ ptr @alloc_5fd9b55ff9ebe0f2d4a0e75367ed0177, [16 x i8] c"\1D\00\00\00\00\00\00\00\02\01\00\00#\00\00\00" }>, align 8
@_ZN4rand4rngs7adapter9reseeding4fork26RESEEDING_RNG_FORK_COUNTER17hdd860eddd4b9070eE = internal global <{ [8 x i8] }> zeroinitializer, align 8, !dbg !228
@alloc_4e78152bec6ba8f9a3c89e9344786622 = private unnamed_addr constant <{ ptr, [16 x i8] }> <{ ptr @alloc_5fd9b55ff9ebe0f2d4a0e75367ed0177, [16 x i8] c"\1D\00\00\00\00\00\00\00>\01\00\00\12\00\00\00" }>, align 8
@_ZN4rand4rngs7adapter9reseeding4fork21register_fork_handler8REGISTER17h174b4780081e75abE = internal global <{ [8 x i8] }> zeroinitializer, align 8, !dbg !242
@alloc_cd13bf96a8a182a0f1e0beb1ec1115eb = private unnamed_addr constant <{ [38 x i8] }> <{ [38 x i8] c"libc::pthread_atfork failed with code " }>, align 1
@alloc_4eb0faa5c327713507404bda245f2193 = private unnamed_addr constant <{ ptr, [8 x i8] }> <{ ptr @alloc_cd13bf96a8a182a0f1e0beb1ec1115eb, [8 x i8] c"&\00\00\00\00\00\00\00" }>, align 8
@alloc_3ed5791630e6639b7801da473a2f5ad5 = private unnamed_addr constant <{ ptr, [16 x i8] }> <{ ptr @alloc_5fd9b55ff9ebe0f2d4a0e75367ed0177, [16 x i8] c"\1D\00\00\00\00\00\00\00F\01\00\00\11\00\00\00" }>, align 8
@alloc_f0f00dee9904807827760394b85cf28d = private unnamed_addr constant <{ [16 x i8] }> <{ [16 x i8] c"ThreadRng { .. }" }>, align 1
@alloc_7a7b72b18792bde9551677e3c90e23b7 = private unnamed_addr constant <{ ptr, [8 x i8] }> <{ ptr @alloc_f0f00dee9904807827760394b85cf28d, [8 x i8] c"\10\00\00\00\00\00\00\00" }>, align 8
@alloc_adb948e547d9b57536098f74d07fe3ff = private unnamed_addr constant <{ ptr }> <{ ptr @_ZN4rand4rngs6thread14THREAD_RNG_KEY7__getit17hf98397a91423753fE }>, align 8
@alloc_b31bb8c43c04eb703fb0f000e6d7a0c2 = private unnamed_addr constant <{ [18 x i8] }> <{ [18 x i8] c"src/rngs/thread.rs" }>, align 1
@alloc_18eb606eda31a9a1042a301ca2ef1910 = private unnamed_addr constant <{ ptr, [16 x i8] }> <{ ptr @alloc_b31bb8c43c04eb703fb0f000e6d7a0c2, [16 x i8] c"\12\00\00\00\00\00\00\00T\00\00\00'\00\00\00" }>, align 8
@alloc_d06c3880149582befda8144002f0bc18 = private unnamed_addr constant <{ [33 x i8] }> <{ [33 x i8] c"could not initialize thread_rng: " }>, align 1
@alloc_a056ed5f9af96cf1aa4e595f7cfe088b = private unnamed_addr constant <{ ptr, [8 x i8] }> <{ ptr @alloc_d06c3880149582befda8144002f0bc18, [8 x i8] c"!\00\00\00\00\00\00\00" }>, align 8
@alloc_cc2342963b114ec1cfadbb667a6b32d6 = private unnamed_addr constant <{ ptr, [16 x i8] }> <{ ptr @alloc_b31bb8c43c04eb703fb0f000e6d7a0c2, [16 x i8] c"\12\00\00\00\00\00\00\00U\00\00\00\11\00\00\00" }>, align 8
@_ZN4rand4rngs6thread14THREAD_RNG_KEY7__getit5__KEY17he478e96555c88f9cE = internal thread_local global <{ [9 x i8], [7 x i8] }> <{ [9 x i8] zeroinitializer, [7 x i8] undef }>, section "__DATA,__thread_bss", align 8, !dbg !262
@alloc_e1630949b9d849760b6b976ddbdd44c3 = private unnamed_addr constant <{ [63 x i8] }> <{ [63 x i8] c"internal error: entered unreachable code: missing default value" }>, align 1
@alloc_0e2482d113fd99545cb6368cfdc15069 = private unnamed_addr constant <{ ptr, [8 x i8] }> <{ ptr @alloc_e1630949b9d849760b6b976ddbdd44c3, [8 x i8] c"?\00\00\00\00\00\00\00" }>, align 8
@alloc_6fc6ad83c3bda5f63bd0fe18b056f891 = private unnamed_addr constant <{ ptr, [16 x i8] }> <{ ptr @alloc_b31bb8c43c04eb703fb0f000e6d7a0c2, [16 x i8] c"\12\00\00\00\00\00\00\00P\00\00\00\01\00\00\00" }>, align 8

; <core::iter::adapters::zip::Zip<A,B> as core::iter::traits::iterator::Iterator>::next
; Function Attrs: inlinehint uwtable
define { ptr, ptr } @"_ZN102_$LT$core..iter..adapters..zip..Zip$LT$A$C$B$GT$$u20$as$u20$core..iter..traits..iterator..Iterator$GT$4next17h1f9a90d869210e28E"(ptr align 8 %self) unnamed_addr #0 !dbg !508 {
start:
  %self.dbg.spill = alloca ptr, align 8
  store ptr %self, ptr %self.dbg.spill, align 8
  call void @llvm.dbg.declare(metadata ptr %self.dbg.spill, metadata !573, metadata !DIExpression()), !dbg !574
; call <core::iter::adapters::zip::Zip<A,B> as core::iter::adapters::zip::ZipImpl<A,B>>::next
  %0 = call { ptr, ptr } @"_ZN111_$LT$core..iter..adapters..zip..Zip$LT$A$C$B$GT$$u20$as$u20$core..iter..adapters..zip..ZipImpl$LT$A$C$B$GT$$GT$4next17h5fd6ad2c49cf7928E"(ptr align 8 %self), !dbg !575
  %_0.0 = extractvalue { ptr, ptr } %0, 0, !dbg !575
  %_0.1 = extractvalue { ptr, ptr } %0, 1, !dbg !575
  %1 = insertvalue { ptr, ptr } poison, ptr %_0.0, 0, !dbg !576
  %2 = insertvalue { ptr, ptr } %1, ptr %_0.1, 1, !dbg !576
  ret { ptr, ptr } %2, !dbg !576
}

; <core::iter::adapters::zip::Zip<A,B> as core::iter::traits::iterator::Iterator>::next
; Function Attrs: inlinehint uwtable
define { ptr, ptr } @"_ZN102_$LT$core..iter..adapters..zip..Zip$LT$A$C$B$GT$$u20$as$u20$core..iter..traits..iterator..Iterator$GT$4next17h99d41ff2fd9549b1E"(ptr align 8 %self) unnamed_addr #0 !dbg !577 {
start:
  %self.dbg.spill = alloca ptr, align 8
  store ptr %self, ptr %self.dbg.spill, align 8
  call void @llvm.dbg.declare(metadata ptr %self.dbg.spill, metadata !609, metadata !DIExpression()), !dbg !610
; call <core::iter::adapters::zip::Zip<A,B> as core::iter::adapters::zip::ZipImpl<A,B>>::next
  %0 = call { ptr, ptr } @"_ZN111_$LT$core..iter..adapters..zip..Zip$LT$A$C$B$GT$$u20$as$u20$core..iter..adapters..zip..ZipImpl$LT$A$C$B$GT$$GT$4next17h87e59f8765831377E"(ptr align 8 %self), !dbg !611
  %_0.0 = extractvalue { ptr, ptr } %0, 0, !dbg !611
  %_0.1 = extractvalue { ptr, ptr } %0, 1, !dbg !611
  %1 = insertvalue { ptr, ptr } poison, ptr %_0.0, 0, !dbg !612
  %2 = insertvalue { ptr, ptr } %1, ptr %_0.1, 1, !dbg !612
  ret { ptr, ptr } %2, !dbg !612
}

; <core::ops::control_flow::ControlFlow<B,C> as core::ops::try_trait::FromResidual>::from_residual
; Function Attrs: inlinehint uwtable
define zeroext i1 @"_ZN104_$LT$core..ops..control_flow..ControlFlow$LT$B$C$C$GT$$u20$as$u20$core..ops..try_trait..FromResidual$GT$13from_residual17h82826b242fb677a7E"() unnamed_addr #0 !dbg !613 {
start:
  %b.dbg.spill = alloca {}, align 1
  %residual.dbg.spill = alloca %"core::ops::control_flow::ControlFlow<(), core::convert::Infallible>::Break", align 1
  %_0 = alloca i8, align 1
  call void @llvm.dbg.declare(metadata ptr %residual.dbg.spill, metadata !655, metadata !DIExpression()), !dbg !658
  call void @llvm.dbg.declare(metadata ptr %b.dbg.spill, metadata !656, metadata !DIExpression()), !dbg !659
  store i8 1, ptr %_0, align 1, !dbg !660
  %0 = load i8, ptr %_0, align 1, !dbg !661, !range !662, !noundef !29
  %1 = trunc i8 %0 to i1, !dbg !661
  ret i1 %1, !dbg !661
}

; <core::ops::range::RangeFrom<usize> as core::slice::index::SliceIndex<[T]>>::index_mut
; Function Attrs: inlinehint uwtable
define { ptr, i64 } @"_ZN110_$LT$core..ops..range..RangeFrom$LT$usize$GT$$u20$as$u20$core..slice..index..SliceIndex$LT$$u5b$T$u5d$$GT$$GT$9index_mut17h258054f67cc86ac9E"(i64 %self, ptr align 4 %slice.0, i64 %slice.1, ptr align 8 %0) unnamed_addr #0 !dbg !663 {
start:
  %ptr.dbg.spill = alloca { ptr, i64 }, align 8
  %slice.dbg.spill2 = alloca { ptr, i64 }, align 8
  %self.dbg.spill1 = alloca i64, align 8
  %slice.dbg.spill = alloca { ptr, i64 }, align 8
  %self.dbg.spill = alloca i64, align 8
  %_13 = alloca %"core::ptr::metadata::PtrRepr<[u32]>", align 8
  %_10 = alloca %"core::ops::range::Range<usize>", align 8
  store i64 %self, ptr %self.dbg.spill, align 8
  call void @llvm.dbg.declare(metadata ptr %self.dbg.spill, metadata !689, metadata !DIExpression()), !dbg !691
  store ptr %slice.0, ptr %slice.dbg.spill, align 8
  %1 = getelementptr inbounds i8, ptr %slice.dbg.spill, i64 8
  store i64 %slice.1, ptr %1, align 8
  call void @llvm.dbg.declare(metadata ptr %slice.dbg.spill, metadata !690, metadata !DIExpression()), !dbg !692
  store i64 %self, ptr %self.dbg.spill1, align 8, !dbg !693
  call void @llvm.dbg.declare(metadata ptr %self.dbg.spill1, metadata !694, metadata !DIExpression()), !dbg !705
  %_3 = icmp ugt i64 %self, %slice.1, !dbg !693
  br i1 %_3, label %bb1, label %bb2, !dbg !693

bb2:                                              ; preds = %start
  store ptr %slice.0, ptr %slice.dbg.spill2, align 8, !dbg !707
  %2 = getelementptr inbounds i8, ptr %slice.dbg.spill2, i64 8, !dbg !707
  store i64 %slice.1, ptr %2, align 8, !dbg !707
  call void @llvm.dbg.declare(metadata ptr %slice.dbg.spill2, metadata !704, metadata !DIExpression()), !dbg !708
  call void @llvm.dbg.declare(metadata ptr %slice.dbg.spill2, metadata !709, metadata !DIExpression()), !dbg !718
  store ptr %slice.0, ptr %ptr.dbg.spill, align 8, !dbg !720
  %3 = getelementptr inbounds i8, ptr %ptr.dbg.spill, i64 8, !dbg !720
  store i64 %slice.1, ptr %3, align 8, !dbg !720
  call void @llvm.dbg.declare(metadata ptr %ptr.dbg.spill, metadata !721, metadata !DIExpression()), !dbg !733
  store ptr %slice.0, ptr %_13, align 8, !dbg !735
  %4 = getelementptr inbounds i8, ptr %_13, i64 8, !dbg !735
  store i64 %slice.1, ptr %4, align 8, !dbg !735
  %5 = getelementptr inbounds i8, ptr %_13, i64 8, !dbg !735
  %_11 = load i64, ptr %5, align 8, !dbg !735, !noundef !29
  store i64 %self, ptr %_10, align 8, !dbg !736
  %6 = getelementptr inbounds i8, ptr %_10, i64 8, !dbg !736
  store i64 %_11, ptr %6, align 8, !dbg !736
  %7 = load i64, ptr %_10, align 8, !dbg !736, !noundef !29
  %8 = getelementptr inbounds i8, ptr %_10, i64 8, !dbg !736
  %9 = load i64, ptr %8, align 8, !dbg !736, !noundef !29
; call <core::ops::range::Range<usize> as core::slice::index::SliceIndex<[T]>>::get_unchecked_mut
  %10 = call { ptr, i64 } @"_ZN106_$LT$core..ops..range..Range$LT$usize$GT$$u20$as$u20$core..slice..index..SliceIndex$LT$$u5b$T$u5d$$GT$$GT$17get_unchecked_mut17h102cced4ca691a06E"(i64 %7, i64 %9, ptr %slice.0, i64 %slice.1), !dbg !736
  %_8.0 = extractvalue { ptr, i64 } %10, 0, !dbg !736
  %_8.1 = extractvalue { ptr, i64 } %10, 1, !dbg !736
  %11 = insertvalue { ptr, i64 } poison, ptr %_8.0, 0, !dbg !737
  %12 = insertvalue { ptr, i64 } %11, i64 %_8.1, 1, !dbg !737
  ret { ptr, i64 } %12, !dbg !737

bb1:                                              ; preds = %start
; call core::slice::index::slice_start_index_len_fail
  call void @_ZN4core5slice5index26slice_start_index_len_fail17hdf66d65d95069d8dE(i64 %self, i64 %slice.1, ptr align 8 %0) #20, !dbg !738
  unreachable, !dbg !738
}

; <core::iter::adapters::zip::Zip<A,B> as core::iter::adapters::zip::ZipImpl<A,B>>::new
; Function Attrs: uwtable
define void @"_ZN111_$LT$core..iter..adapters..zip..Zip$LT$A$C$B$GT$$u20$as$u20$core..iter..adapters..zip..ZipImpl$LT$A$C$B$GT$$GT$3new17h2bcac1f44f9d4395E"(ptr sret(%"core::iter::adapters::zip::Zip<core::slice::iter::Iter<'_, u32>, core::slice::iter::Iter<'_, usize>>") align 8 %_0, ptr %0, ptr %1, ptr %2, ptr %3) unnamed_addr #1 personality ptr @rust_eh_personality !dbg !739 {
start:
  %len.dbg.spill = alloca i64, align 8
  %v2.dbg.spill = alloca i64, align 8
  %a_len.dbg.spill = alloca i64, align 8
  %4 = alloca { ptr, i32, [1 x i32] }, align 8
  %b = alloca %"core::slice::iter::Iter<'_, usize>", align 8
  %a = alloca %"core::slice::iter::Iter<'_, u32>", align 8
  store ptr %0, ptr %a, align 8
  %5 = getelementptr inbounds i8, ptr %a, i64 8
  store ptr %1, ptr %5, align 8
  store ptr %2, ptr %b, align 8
  %6 = getelementptr inbounds i8, ptr %b, i64 8
  store ptr %3, ptr %6, align 8
  call void @llvm.dbg.declare(metadata ptr %a, metadata !744, metadata !DIExpression()), !dbg !750
  call void @llvm.dbg.declare(metadata ptr %b, metadata !745, metadata !DIExpression()), !dbg !751
; invoke core::iter::adapters::zip::TrustedRandomAccessNoCoerce::size
  %a_len = invoke i64 @_ZN4core4iter8adapters3zip27TrustedRandomAccessNoCoerce4size17h33324e44ba9448e6E(ptr align 8 %a)
          to label %bb1 unwind label %cleanup, !dbg !752

bb3:                                              ; preds = %cleanup
  %7 = load ptr, ptr %4, align 8, !dbg !753, !noundef !29
  %8 = getelementptr inbounds i8, ptr %4, i64 8, !dbg !753
  %9 = load i32, ptr %8, align 8, !dbg !753, !noundef !29
  %10 = insertvalue { ptr, i32 } poison, ptr %7, 0, !dbg !753
  %11 = insertvalue { ptr, i32 } %10, i32 %9, 1, !dbg !753
  resume { ptr, i32 } %11, !dbg !753

cleanup:                                          ; preds = %bb2, %bb1, %start
  %12 = landingpad { ptr, i32 }
          cleanup
  %13 = extractvalue { ptr, i32 } %12, 0
  %14 = extractvalue { ptr, i32 } %12, 1
  store ptr %13, ptr %4, align 8
  %15 = getelementptr inbounds i8, ptr %4, i64 8
  store i32 %14, ptr %15, align 8
  br label %bb3

bb1:                                              ; preds = %start
  store i64 %a_len, ptr %a_len.dbg.spill, align 8, !dbg !752
  call void @llvm.dbg.declare(metadata ptr %a_len.dbg.spill, metadata !746, metadata !DIExpression()), !dbg !754
  call void @llvm.dbg.declare(metadata ptr %a_len.dbg.spill, metadata !755, metadata !DIExpression()), !dbg !764
  call void @llvm.dbg.declare(metadata ptr %a_len.dbg.spill, metadata !766, metadata !DIExpression()), !dbg !774
; invoke core::iter::adapters::zip::TrustedRandomAccessNoCoerce::size
  %v2 = invoke i64 @_ZN4core4iter8adapters3zip27TrustedRandomAccessNoCoerce4size17h149f478a64c64e06E(ptr align 8 %b)
          to label %bb2 unwind label %cleanup, !dbg !776

bb2:                                              ; preds = %bb1
  store i64 %v2, ptr %v2.dbg.spill, align 8, !dbg !776
  call void @llvm.dbg.declare(metadata ptr %v2.dbg.spill, metadata !763, metadata !DIExpression()), !dbg !777
  call void @llvm.dbg.declare(metadata ptr %v2.dbg.spill, metadata !771, metadata !DIExpression()), !dbg !778
; invoke core::cmp::min_by
  %len = invoke i64 @_ZN4core3cmp6min_by17h58f47289f39e791dE(i64 %a_len, i64 %v2)
          to label %bb6 unwind label %cleanup, !dbg !779

bb6:                                              ; preds = %bb2
  store i64 %len, ptr %len.dbg.spill, align 8, !dbg !779
  call void @llvm.dbg.declare(metadata ptr %len.dbg.spill, metadata !748, metadata !DIExpression()), !dbg !780
  %_8.0 = load ptr, ptr %a, align 8, !dbg !781, !nonnull !29, !noundef !29
  %16 = getelementptr inbounds i8, ptr %a, i64 8, !dbg !781
  %_8.1 = load ptr, ptr %16, align 8, !dbg !781, !noundef !29
  %_9.0 = load ptr, ptr %b, align 8, !dbg !782, !nonnull !29, !noundef !29
  %17 = getelementptr inbounds i8, ptr %b, i64 8, !dbg !782
  %_9.1 = load ptr, ptr %17, align 8, !dbg !782, !noundef !29
  store ptr %_8.0, ptr %_0, align 8, !dbg !783
  %18 = getelementptr inbounds i8, ptr %_0, i64 8, !dbg !783
  store ptr %_8.1, ptr %18, align 8, !dbg !783
  %19 = getelementptr inbounds i8, ptr %_0, i64 16, !dbg !783
  store ptr %_9.0, ptr %19, align 8, !dbg !783
  %20 = getelementptr inbounds i8, ptr %19, i64 8, !dbg !783
  store ptr %_9.1, ptr %20, align 8, !dbg !783
  %21 = getelementptr inbounds i8, ptr %_0, i64 32, !dbg !783
  store i64 0, ptr %21, align 8, !dbg !783
  %22 = getelementptr inbounds i8, ptr %_0, i64 40, !dbg !783
  store i64 %len, ptr %22, align 8, !dbg !783
  %23 = getelementptr inbounds i8, ptr %_0, i64 48, !dbg !783
  store i64 %a_len, ptr %23, align 8, !dbg !783
  ret void, !dbg !784
}

; <core::iter::adapters::zip::Zip<A,B> as core::iter::adapters::zip::ZipImpl<A,B>>::new
; Function Attrs: uwtable
define void @"_ZN111_$LT$core..iter..adapters..zip..Zip$LT$A$C$B$GT$$u20$as$u20$core..iter..adapters..zip..ZipImpl$LT$A$C$B$GT$$GT$3new17hc6e85ace1a8b0a87E"(ptr sret(%"core::iter::adapters::zip::Zip<core::slice::iter::Iter<'_, usize>, core::slice::iter::Iter<'_, u32>>") align 8 %_0, ptr %0, ptr %1, ptr %2, ptr %3) unnamed_addr #1 personality ptr @rust_eh_personality !dbg !785 {
start:
  %len.dbg.spill = alloca i64, align 8
  %v2.dbg.spill = alloca i64, align 8
  %a_len.dbg.spill = alloca i64, align 8
  %4 = alloca { ptr, i32, [1 x i32] }, align 8
  %b = alloca %"core::slice::iter::Iter<'_, u32>", align 8
  %a = alloca %"core::slice::iter::Iter<'_, usize>", align 8
  store ptr %0, ptr %a, align 8
  %5 = getelementptr inbounds i8, ptr %a, i64 8
  store ptr %1, ptr %5, align 8
  store ptr %2, ptr %b, align 8
  %6 = getelementptr inbounds i8, ptr %b, i64 8
  store ptr %3, ptr %6, align 8
  call void @llvm.dbg.declare(metadata ptr %a, metadata !789, metadata !DIExpression()), !dbg !795
  call void @llvm.dbg.declare(metadata ptr %b, metadata !790, metadata !DIExpression()), !dbg !796
; invoke core::iter::adapters::zip::TrustedRandomAccessNoCoerce::size
  %a_len = invoke i64 @_ZN4core4iter8adapters3zip27TrustedRandomAccessNoCoerce4size17h149f478a64c64e06E(ptr align 8 %a)
          to label %bb1 unwind label %cleanup, !dbg !797

bb3:                                              ; preds = %cleanup
  %7 = load ptr, ptr %4, align 8, !dbg !798, !noundef !29
  %8 = getelementptr inbounds i8, ptr %4, i64 8, !dbg !798
  %9 = load i32, ptr %8, align 8, !dbg !798, !noundef !29
  %10 = insertvalue { ptr, i32 } poison, ptr %7, 0, !dbg !798
  %11 = insertvalue { ptr, i32 } %10, i32 %9, 1, !dbg !798
  resume { ptr, i32 } %11, !dbg !798

cleanup:                                          ; preds = %bb2, %bb1, %start
  %12 = landingpad { ptr, i32 }
          cleanup
  %13 = extractvalue { ptr, i32 } %12, 0
  %14 = extractvalue { ptr, i32 } %12, 1
  store ptr %13, ptr %4, align 8
  %15 = getelementptr inbounds i8, ptr %4, i64 8
  store i32 %14, ptr %15, align 8
  br label %bb3

bb1:                                              ; preds = %start
  store i64 %a_len, ptr %a_len.dbg.spill, align 8, !dbg !797
  call void @llvm.dbg.declare(metadata ptr %a_len.dbg.spill, metadata !791, metadata !DIExpression()), !dbg !799
  call void @llvm.dbg.declare(metadata ptr %a_len.dbg.spill, metadata !800, metadata !DIExpression()), !dbg !805
  call void @llvm.dbg.declare(metadata ptr %a_len.dbg.spill, metadata !807, metadata !DIExpression()), !dbg !812
; invoke core::iter::adapters::zip::TrustedRandomAccessNoCoerce::size
  %v2 = invoke i64 @_ZN4core4iter8adapters3zip27TrustedRandomAccessNoCoerce4size17h33324e44ba9448e6E(ptr align 8 %b)
          to label %bb2 unwind label %cleanup, !dbg !814

bb2:                                              ; preds = %bb1
  store i64 %v2, ptr %v2.dbg.spill, align 8, !dbg !814
  call void @llvm.dbg.declare(metadata ptr %v2.dbg.spill, metadata !804, metadata !DIExpression()), !dbg !815
  call void @llvm.dbg.declare(metadata ptr %v2.dbg.spill, metadata !811, metadata !DIExpression()), !dbg !816
; invoke core::cmp::min_by
  %len = invoke i64 @_ZN4core3cmp6min_by17h58f47289f39e791dE(i64 %a_len, i64 %v2)
          to label %bb6 unwind label %cleanup, !dbg !817

bb6:                                              ; preds = %bb2
  store i64 %len, ptr %len.dbg.spill, align 8, !dbg !817
  call void @llvm.dbg.declare(metadata ptr %len.dbg.spill, metadata !793, metadata !DIExpression()), !dbg !818
  %_8.0 = load ptr, ptr %a, align 8, !dbg !819, !nonnull !29, !noundef !29
  %16 = getelementptr inbounds i8, ptr %a, i64 8, !dbg !819
  %_8.1 = load ptr, ptr %16, align 8, !dbg !819, !noundef !29
  %_9.0 = load ptr, ptr %b, align 8, !dbg !820, !nonnull !29, !noundef !29
  %17 = getelementptr inbounds i8, ptr %b, i64 8, !dbg !820
  %_9.1 = load ptr, ptr %17, align 8, !dbg !820, !noundef !29
  store ptr %_8.0, ptr %_0, align 8, !dbg !821
  %18 = getelementptr inbounds i8, ptr %_0, i64 8, !dbg !821
  store ptr %_8.1, ptr %18, align 8, !dbg !821
  %19 = getelementptr inbounds i8, ptr %_0, i64 16, !dbg !821
  store ptr %_9.0, ptr %19, align 8, !dbg !821
  %20 = getelementptr inbounds i8, ptr %19, i64 8, !dbg !821
  store ptr %_9.1, ptr %20, align 8, !dbg !821
  %21 = getelementptr inbounds i8, ptr %_0, i64 32, !dbg !821
  store i64 0, ptr %21, align 8, !dbg !821
  %22 = getelementptr inbounds i8, ptr %_0, i64 40, !dbg !821
  store i64 %len, ptr %22, align 8, !dbg !821
  %23 = getelementptr inbounds i8, ptr %_0, i64 48, !dbg !821
  store i64 %a_len, ptr %23, align 8, !dbg !821
  ret void, !dbg !822
}

; <core::iter::adapters::zip::Zip<A,B> as core::iter::adapters::zip::ZipImpl<A,B>>::next
; Function Attrs: inlinehint uwtable
define { ptr, ptr } @"_ZN111_$LT$core..iter..adapters..zip..Zip$LT$A$C$B$GT$$u20$as$u20$core..iter..adapters..zip..ZipImpl$LT$A$C$B$GT$$GT$4next17h5fd6ad2c49cf7928E"(ptr align 8 %self) unnamed_addr #0 personality ptr @rust_eh_personality !dbg !823 {
start:
  %0 = alloca { ptr, i32, [1 x i32] }, align 8
  %i.dbg.spill2 = alloca i64, align 8
  %i.dbg.spill = alloca i64, align 8
  %self.dbg.spill = alloca ptr, align 8
  %_6 = alloca { ptr, ptr }, align 8
  %_0 = alloca %"core::option::Option<(&usize, &u32)>", align 8
  store ptr %self, ptr %self.dbg.spill, align 8
  call void @llvm.dbg.declare(metadata ptr %self.dbg.spill, metadata !825, metadata !DIExpression()), !dbg !830
  %1 = getelementptr inbounds i8, ptr %self, i64 32, !dbg !831
  %_3 = load i64, ptr %1, align 8, !dbg !831, !noundef !29
  %2 = getelementptr inbounds i8, ptr %self, i64 40, !dbg !832
  %_4 = load i64, ptr %2, align 8, !dbg !832, !noundef !29
  %_2 = icmp ult i64 %_3, %_4, !dbg !831
  br i1 %_2, label %bb1, label %bb4, !dbg !831

bb4:                                              ; preds = %start
  br label %bb10, !dbg !833

bb1:                                              ; preds = %start
  %3 = getelementptr inbounds i8, ptr %self, i64 32, !dbg !834
  %i1 = load i64, ptr %3, align 8, !dbg !834, !noundef !29
  store i64 %i1, ptr %i.dbg.spill2, align 8, !dbg !834
  call void @llvm.dbg.declare(metadata ptr %i.dbg.spill2, metadata !826, metadata !DIExpression()), !dbg !835
  %4 = getelementptr inbounds i8, ptr %self, i64 32, !dbg !836
  %5 = getelementptr inbounds i8, ptr %self, i64 32, !dbg !836
  %6 = load i64, ptr %5, align 8, !dbg !836, !noundef !29
  %7 = add i64 %6, 1, !dbg !836
  store i64 %7, ptr %4, align 8, !dbg !836
; call <core::slice::iter::Iter<T> as core::iter::traits::iterator::Iterator>::__iterator_get_unchecked
  %_7 = call align 8 ptr @"_ZN91_$LT$core..slice..iter..Iter$LT$T$GT$$u20$as$u20$core..iter..traits..iterator..Iterator$GT$24__iterator_get_unchecked17h40ab3b5e82d49cbeE"(ptr align 8 %self, i64 %i1), !dbg !837
  %_10 = getelementptr inbounds i8, ptr %self, i64 16, !dbg !838
; invoke <core::slice::iter::Iter<T> as core::iter::traits::iterator::Iterator>::__iterator_get_unchecked
  %_9 = invoke align 4 ptr @"_ZN91_$LT$core..slice..iter..Iter$LT$T$GT$$u20$as$u20$core..iter..traits..iterator..Iterator$GT$24__iterator_get_unchecked17h51bb2580490062c9E"(ptr align 8 %_10, i64 %i1)
          to label %bb3 unwind label %cleanup, !dbg !838

bb10:                                             ; preds = %bb9, %bb4
  store ptr null, ptr %_0, align 8, !dbg !839
  br label %bb11, !dbg !840

bb5:                                              ; No predecessors!
  %8 = getelementptr inbounds i8, ptr %self, i64 32, !dbg !841
  %_13 = load i64, ptr %8, align 8, !dbg !841, !noundef !29
  %9 = getelementptr inbounds i8, ptr %self, i64 48, !dbg !842
  %_14 = load i64, ptr %9, align 8, !dbg !842, !noundef !29
  %_12 = icmp ult i64 %_13, %_14, !dbg !841
  br i1 %_12, label %bb6, label %bb9, !dbg !841

bb9:                                              ; preds = %bb5
  br label %bb10, !dbg !843

bb6:                                              ; preds = %bb5
  %10 = getelementptr inbounds i8, ptr %self, i64 32, !dbg !846
  %i = load i64, ptr %10, align 8, !dbg !846, !noundef !29
  store i64 %i, ptr %i.dbg.spill, align 8, !dbg !846
  call void @llvm.dbg.declare(metadata ptr %i.dbg.spill, metadata !828, metadata !DIExpression()), !dbg !847
  %11 = getelementptr inbounds i8, ptr %self, i64 32, !dbg !848
  %12 = getelementptr inbounds i8, ptr %self, i64 32, !dbg !848
  %13 = load i64, ptr %12, align 8, !dbg !848, !noundef !29
  %14 = add i64 %13, 1, !dbg !848
  store i64 %14, ptr %11, align 8, !dbg !848
  %15 = getelementptr inbounds i8, ptr %self, i64 40, !dbg !849
  %16 = getelementptr inbounds i8, ptr %self, i64 40, !dbg !849
  %17 = load i64, ptr %16, align 8, !dbg !849, !noundef !29
  %18 = add i64 %17, 1, !dbg !849
  store i64 %18, ptr %15, align 8, !dbg !849
; call <core::slice::iter::Iter<T> as core::iter::traits::iterator::Iterator>::__iterator_get_unchecked
  %_16 = call align 8 ptr @"_ZN91_$LT$core..slice..iter..Iter$LT$T$GT$$u20$as$u20$core..iter..traits..iterator..Iterator$GT$24__iterator_get_unchecked17h40ab3b5e82d49cbeE"(ptr align 8 %self, i64 %i), !dbg !850
  store ptr null, ptr %_0, align 8, !dbg !851
  br label %bb11, !dbg !840

bb11:                                             ; preds = %bb6, %bb10
  br label %bb12, !dbg !852

bb12:                                             ; preds = %bb3, %bb11
  %19 = load ptr, ptr %_0, align 8, !dbg !853, !align !854, !noundef !29
  %20 = getelementptr inbounds i8, ptr %_0, i64 8, !dbg !853
  %21 = load ptr, ptr %20, align 8, !dbg !853
  %22 = insertvalue { ptr, ptr } poison, ptr %19, 0, !dbg !853
  %23 = insertvalue { ptr, ptr } %22, ptr %21, 1, !dbg !853
  ret { ptr, ptr } %23, !dbg !853

bb13:                                             ; preds = %cleanup
  %24 = load ptr, ptr %0, align 8, !dbg !855, !noundef !29
  %25 = getelementptr inbounds i8, ptr %0, i64 8, !dbg !855
  %26 = load i32, ptr %25, align 8, !dbg !855, !noundef !29
  %27 = insertvalue { ptr, i32 } poison, ptr %24, 0, !dbg !855
  %28 = insertvalue { ptr, i32 } %27, i32 %26, 1, !dbg !855
  resume { ptr, i32 } %28, !dbg !855

cleanup:                                          ; preds = %bb1
  %29 = landingpad { ptr, i32 }
          cleanup
  %30 = extractvalue { ptr, i32 } %29, 0
  %31 = extractvalue { ptr, i32 } %29, 1
  store ptr %30, ptr %0, align 8
  %32 = getelementptr inbounds i8, ptr %0, i64 8
  store i32 %31, ptr %32, align 8
  br label %bb13

bb3:                                              ; preds = %bb1
  store ptr %_7, ptr %_6, align 8, !dbg !856
  %33 = getelementptr inbounds i8, ptr %_6, i64 8, !dbg !856
  store ptr %_9, ptr %33, align 8, !dbg !856
  %34 = load ptr, ptr %_6, align 8, !dbg !857, !nonnull !29, !align !854, !noundef !29
  %35 = getelementptr inbounds i8, ptr %_6, i64 8, !dbg !857
  %36 = load ptr, ptr %35, align 8, !dbg !857, !nonnull !29, !align !858, !noundef !29
  store ptr %34, ptr %_0, align 8, !dbg !857
  %37 = getelementptr inbounds i8, ptr %_0, i64 8, !dbg !857
  store ptr %36, ptr %37, align 8, !dbg !857
  br label %bb12, !dbg !852
}

; <core::iter::adapters::zip::Zip<A,B> as core::iter::adapters::zip::ZipImpl<A,B>>::next
; Function Attrs: inlinehint uwtable
define { ptr, ptr } @"_ZN111_$LT$core..iter..adapters..zip..Zip$LT$A$C$B$GT$$u20$as$u20$core..iter..adapters..zip..ZipImpl$LT$A$C$B$GT$$GT$4next17h87e59f8765831377E"(ptr align 8 %self) unnamed_addr #0 personality ptr @rust_eh_personality !dbg !859 {
start:
  %0 = alloca { ptr, i32, [1 x i32] }, align 8
  %i.dbg.spill2 = alloca i64, align 8
  %i.dbg.spill = alloca i64, align 8
  %self.dbg.spill = alloca ptr, align 8
  %_6 = alloca { ptr, ptr }, align 8
  %_0 = alloca %"core::option::Option<(&u32, &usize)>", align 8
  store ptr %self, ptr %self.dbg.spill, align 8
  call void @llvm.dbg.declare(metadata ptr %self.dbg.spill, metadata !861, metadata !DIExpression()), !dbg !866
  %1 = getelementptr inbounds i8, ptr %self, i64 32, !dbg !867
  %_3 = load i64, ptr %1, align 8, !dbg !867, !noundef !29
  %2 = getelementptr inbounds i8, ptr %self, i64 40, !dbg !868
  %_4 = load i64, ptr %2, align 8, !dbg !868, !noundef !29
  %_2 = icmp ult i64 %_3, %_4, !dbg !867
  br i1 %_2, label %bb1, label %bb4, !dbg !867

bb4:                                              ; preds = %start
  br label %bb10, !dbg !869

bb1:                                              ; preds = %start
  %3 = getelementptr inbounds i8, ptr %self, i64 32, !dbg !870
  %i1 = load i64, ptr %3, align 8, !dbg !870, !noundef !29
  store i64 %i1, ptr %i.dbg.spill2, align 8, !dbg !870
  call void @llvm.dbg.declare(metadata ptr %i.dbg.spill2, metadata !862, metadata !DIExpression()), !dbg !871
  %4 = getelementptr inbounds i8, ptr %self, i64 32, !dbg !872
  %5 = getelementptr inbounds i8, ptr %self, i64 32, !dbg !872
  %6 = load i64, ptr %5, align 8, !dbg !872, !noundef !29
  %7 = add i64 %6, 1, !dbg !872
  store i64 %7, ptr %4, align 8, !dbg !872
; call <core::slice::iter::Iter<T> as core::iter::traits::iterator::Iterator>::__iterator_get_unchecked
  %_7 = call align 4 ptr @"_ZN91_$LT$core..slice..iter..Iter$LT$T$GT$$u20$as$u20$core..iter..traits..iterator..Iterator$GT$24__iterator_get_unchecked17h51bb2580490062c9E"(ptr align 8 %self, i64 %i1), !dbg !873
  %_10 = getelementptr inbounds i8, ptr %self, i64 16, !dbg !874
; invoke <core::slice::iter::Iter<T> as core::iter::traits::iterator::Iterator>::__iterator_get_unchecked
  %_9 = invoke align 8 ptr @"_ZN91_$LT$core..slice..iter..Iter$LT$T$GT$$u20$as$u20$core..iter..traits..iterator..Iterator$GT$24__iterator_get_unchecked17h40ab3b5e82d49cbeE"(ptr align 8 %_10, i64 %i1)
          to label %bb3 unwind label %cleanup, !dbg !874

bb10:                                             ; preds = %bb9, %bb4
  store ptr null, ptr %_0, align 8, !dbg !875
  br label %bb11, !dbg !876

bb5:                                              ; No predecessors!
  %8 = getelementptr inbounds i8, ptr %self, i64 32, !dbg !877
  %_13 = load i64, ptr %8, align 8, !dbg !877, !noundef !29
  %9 = getelementptr inbounds i8, ptr %self, i64 48, !dbg !878
  %_14 = load i64, ptr %9, align 8, !dbg !878, !noundef !29
  %_12 = icmp ult i64 %_13, %_14, !dbg !877
  br i1 %_12, label %bb6, label %bb9, !dbg !877

bb9:                                              ; preds = %bb5
  br label %bb10, !dbg !879

bb6:                                              ; preds = %bb5
  %10 = getelementptr inbounds i8, ptr %self, i64 32, !dbg !881
  %i = load i64, ptr %10, align 8, !dbg !881, !noundef !29
  store i64 %i, ptr %i.dbg.spill, align 8, !dbg !881
  call void @llvm.dbg.declare(metadata ptr %i.dbg.spill, metadata !864, metadata !DIExpression()), !dbg !882
  %11 = getelementptr inbounds i8, ptr %self, i64 32, !dbg !883
  %12 = getelementptr inbounds i8, ptr %self, i64 32, !dbg !883
  %13 = load i64, ptr %12, align 8, !dbg !883, !noundef !29
  %14 = add i64 %13, 1, !dbg !883
  store i64 %14, ptr %11, align 8, !dbg !883
  %15 = getelementptr inbounds i8, ptr %self, i64 40, !dbg !884
  %16 = getelementptr inbounds i8, ptr %self, i64 40, !dbg !884
  %17 = load i64, ptr %16, align 8, !dbg !884, !noundef !29
  %18 = add i64 %17, 1, !dbg !884
  store i64 %18, ptr %15, align 8, !dbg !884
; call <core::slice::iter::Iter<T> as core::iter::traits::iterator::Iterator>::__iterator_get_unchecked
  %_16 = call align 4 ptr @"_ZN91_$LT$core..slice..iter..Iter$LT$T$GT$$u20$as$u20$core..iter..traits..iterator..Iterator$GT$24__iterator_get_unchecked17h51bb2580490062c9E"(ptr align 8 %self, i64 %i), !dbg !885
  store ptr null, ptr %_0, align 8, !dbg !886
  br label %bb11, !dbg !876

bb11:                                             ; preds = %bb6, %bb10
  br label %bb12, !dbg !887

bb12:                                             ; preds = %bb3, %bb11
  %19 = load ptr, ptr %_0, align 8, !dbg !888, !align !858, !noundef !29
  %20 = getelementptr inbounds i8, ptr %_0, i64 8, !dbg !888
  %21 = load ptr, ptr %20, align 8, !dbg !888
  %22 = insertvalue { ptr, ptr } poison, ptr %19, 0, !dbg !888
  %23 = insertvalue { ptr, ptr } %22, ptr %21, 1, !dbg !888
  ret { ptr, ptr } %23, !dbg !888

bb13:                                             ; preds = %cleanup
  %24 = load ptr, ptr %0, align 8, !dbg !889, !noundef !29
  %25 = getelementptr inbounds i8, ptr %0, i64 8, !dbg !889
  %26 = load i32, ptr %25, align 8, !dbg !889, !noundef !29
  %27 = insertvalue { ptr, i32 } poison, ptr %24, 0, !dbg !889
  %28 = insertvalue { ptr, i32 } %27, i32 %26, 1, !dbg !889
  resume { ptr, i32 } %28, !dbg !889

cleanup:                                          ; preds = %bb1
  %29 = landingpad { ptr, i32 }
          cleanup
  %30 = extractvalue { ptr, i32 } %29, 0
  %31 = extractvalue { ptr, i32 } %29, 1
  store ptr %30, ptr %0, align 8
  %32 = getelementptr inbounds i8, ptr %0, i64 8
  store i32 %31, ptr %32, align 8
  br label %bb13

bb3:                                              ; preds = %bb1
  store ptr %_7, ptr %_6, align 8, !dbg !890
  %33 = getelementptr inbounds i8, ptr %_6, i64 8, !dbg !890
  store ptr %_9, ptr %33, align 8, !dbg !890
  %34 = load ptr, ptr %_6, align 8, !dbg !891, !nonnull !29, !align !858, !noundef !29
  %35 = getelementptr inbounds i8, ptr %_6, i64 8, !dbg !891
  %36 = load ptr, ptr %35, align 8, !dbg !891, !nonnull !29, !align !854, !noundef !29
  store ptr %34, ptr %_0, align 8, !dbg !891
  %37 = getelementptr inbounds i8, ptr %_0, i64 8, !dbg !891
  store ptr %36, ptr %37, align 8, !dbg !891
  br label %bb12, !dbg !887
}

; <core::panic::unwind_safe::AssertUnwindSafe<F> as core::ops::function::FnOnce<()>>::call_once
; Function Attrs: inlinehint uwtable
define void @"_ZN115_$LT$core..panic..unwind_safe..AssertUnwindSafe$LT$F$GT$$u20$as$u20$core..ops..function..FnOnce$LT$$LP$$RP$$GT$$GT$9call_once17h2db972e9c159fbe4E"(ptr align 8 %self) unnamed_addr #0 !dbg !892 {
start:
  %self.dbg.spill = alloca ptr, align 8
  %_2 = alloca {}, align 1
  %_args.dbg.spill = alloca {}, align 1
  call void @llvm.dbg.declare(metadata ptr %_args.dbg.spill, metadata !911, metadata !DIExpression()), !dbg !916
  store ptr %self, ptr %self.dbg.spill, align 8, !dbg !916
  call void @llvm.dbg.declare(metadata ptr %self.dbg.spill, metadata !910, metadata !DIExpression()), !dbg !917
  call void @llvm.dbg.declare(metadata ptr %_2, metadata !912, metadata !DIExpression()), !dbg !916
; call core::ops::function::FnOnce::call_once
  call void @_ZN4core3ops8function6FnOnce9call_once17h1edcb219a59dcb0eE(ptr align 8 %self), !dbg !918
  ret void, !dbg !919
}

; <core::result::Result<T,F> as core::ops::try_trait::FromResidual<core::result::Result<core::convert::Infallible,E>>>::from_residual
; Function Attrs: inlinehint uwtable
define void @"_ZN153_$LT$core..result..Result$LT$T$C$F$GT$$u20$as$u20$core..ops..try_trait..FromResidual$LT$core..result..Result$LT$core..convert..Infallible$C$E$GT$$GT$$GT$13from_residual17hbd0103c1579bb8d3E"(ptr sret(%"core::result::Result<rand_chacha::chacha::ChaCha12Core, rand_core::error::Error>") align 8 %_0, ptr align 1 %0, ptr align 8 %1, ptr align 8 %2) unnamed_addr #0 !dbg !920 {
start:
  %t.dbg.spill.i = alloca %"rand_core::error::Error", align 8
  %e.dbg.spill = alloca %"rand_core::error::Error", align 8
  %residual = alloca %"core::result::Result<core::convert::Infallible, rand_core::error::Error>::Err", align 8
  store ptr %0, ptr %residual, align 8
  %3 = getelementptr inbounds i8, ptr %residual, i64 8
  store ptr %1, ptr %3, align 8
  call void @llvm.dbg.declare(metadata ptr %residual, metadata !960, metadata !DIExpression()), !dbg !965
  %e.0 = load ptr, ptr %residual, align 8, !dbg !966, !nonnull !29, !align !967, !noundef !29
  %4 = getelementptr inbounds i8, ptr %residual, i64 8, !dbg !966
  %e.1 = load ptr, ptr %4, align 8, !dbg !966, !nonnull !29, !align !854, !noundef !29
  store ptr %e.0, ptr %e.dbg.spill, align 8, !dbg !966
  %5 = getelementptr inbounds i8, ptr %e.dbg.spill, i64 8, !dbg !966
  store ptr %e.1, ptr %5, align 8, !dbg !966
  call void @llvm.dbg.declare(metadata ptr %e.dbg.spill, metadata !961, metadata !DIExpression()), !dbg !968
  store ptr %e.0, ptr %t.dbg.spill.i, align 8
  %6 = getelementptr inbounds i8, ptr %t.dbg.spill.i, i64 8
  store ptr %e.1, ptr %6, align 8
  call void @llvm.dbg.declare(metadata ptr %t.dbg.spill.i, metadata !969, metadata !DIExpression()), !dbg !978
  %7 = insertvalue { ptr, ptr } poison, ptr %e.0, 0, !dbg !980
  %8 = insertvalue { ptr, ptr } %7, ptr %e.1, 1, !dbg !980
  %_3.0 = extractvalue { ptr, ptr } %8, 0, !dbg !981
  %_3.1 = extractvalue { ptr, ptr } %8, 1, !dbg !981
  %9 = getelementptr inbounds i8, ptr %_0, i64 8, !dbg !982
  store ptr %_3.0, ptr %9, align 8, !dbg !982
  %10 = getelementptr inbounds i8, ptr %9, i64 8, !dbg !982
  store ptr %_3.1, ptr %10, align 8, !dbg !982
  store i64 1, ptr %_0, align 8, !dbg !982
  ret void, !dbg !983
}

; std::io::Write::write_all
; Function Attrs: uwtable
define ptr @_ZN3std2io5Write9write_all17h5a40795c5f8ed5c5E(ptr align 1 %self, ptr align 1 %0, i64 %1) unnamed_addr #1 personality ptr @rust_eh_personality !dbg !984 {
start:
  %e.dbg.spill6 = alloca ptr, align 8
  %e.dbg.spill = alloca ptr, align 8
  %2 = alloca { ptr, i32, [1 x i32] }, align 8
  %self.dbg.spill4 = alloca { ptr, i64 }, align 8
  %n.dbg.spill = alloca i64, align 8
  %ptr.dbg.spill = alloca ptr, align 8
  %self.dbg.spill1 = alloca { ptr, i64 }, align 8
  %self.dbg.spill = alloca ptr, align 8
  %_22 = alloca ptr, align 8
  %_21 = alloca ptr, align 8
  %e = alloca ptr, align 8
  %index = alloca i64, align 8
  %_7 = alloca ptr, align 8
  %_4 = alloca %"core::result::Result<usize, std::io::error::Error>", align 8
  %_0 = alloca ptr, align 8
  %buf = alloca { ptr, i64 }, align 8
  %m.dbg.spill = alloca ptr, align 8
  %msg.dbg.spill = alloca ptr, align 8
  store ptr @alloc_626cc8bfd6c94d404aa777557e31db63, ptr %msg.dbg.spill, align 8, !dbg !1006
  call void @llvm.dbg.declare(metadata ptr %msg.dbg.spill, metadata !1014, metadata !DIExpression()), !dbg !1006
  store ptr @alloc_626cc8bfd6c94d404aa777557e31db63, ptr %m.dbg.spill, align 8, !dbg !1017
  call void @llvm.dbg.declare(metadata ptr %m.dbg.spill, metadata !1025, metadata !DIExpression()), !dbg !1017
  store ptr %0, ptr %buf, align 8, !dbg !1017
  %3 = getelementptr inbounds i8, ptr %buf, i64 8, !dbg !1017
  store i64 %1, ptr %3, align 8, !dbg !1017
  store ptr %self, ptr %self.dbg.spill, align 8, !dbg !1017
  call void @llvm.dbg.declare(metadata ptr %self.dbg.spill, metadata !993, metadata !DIExpression()), !dbg !1027
  call void @llvm.dbg.declare(metadata ptr %buf, metadata !994, metadata !DIExpression()), !dbg !1028
  call void @llvm.dbg.declare(metadata ptr %index, metadata !1029, metadata !DIExpression()), !dbg !1040
  call void @llvm.dbg.declare(metadata ptr %e, metadata !997, metadata !DIExpression()), !dbg !1042
  br label %bb1, !dbg !1043

bb1:                                              ; preds = %bb16, %start
  %self.0 = load ptr, ptr %buf, align 8, !dbg !1044, !nonnull !29, !align !967, !noundef !29
  %4 = getelementptr inbounds i8, ptr %buf, i64 8, !dbg !1044
  %self.1 = load i64, ptr %4, align 8, !dbg !1044, !noundef !29
  store ptr %self.0, ptr %self.dbg.spill1, align 8, !dbg !1044
  %5 = getelementptr inbounds i8, ptr %self.dbg.spill1, i64 8, !dbg !1044
  store i64 %self.1, ptr %5, align 8, !dbg !1044
  call void @llvm.dbg.declare(metadata ptr %self.dbg.spill1, metadata !1045, metadata !DIExpression()), !dbg !1055
  %6 = icmp eq i64 %self.1, 0, !dbg !1044
  br i1 %6, label %bb2, label %bb3, !dbg !1044

bb2:                                              ; preds = %bb1
  store ptr null, ptr %_0, align 8, !dbg !1057
  br label %bb14, !dbg !1058

bb3:                                              ; preds = %bb1
  %_5.0 = load ptr, ptr %buf, align 8, !dbg !1059, !nonnull !29, !align !967, !noundef !29
  %7 = getelementptr inbounds i8, ptr %buf, i64 8, !dbg !1059
  %_5.1 = load i64, ptr %7, align 8, !dbg !1059, !noundef !29
; call <std::sys::pal::unix::stdio::Stderr as std::io::Write>::write
  call void @"_ZN69_$LT$std..sys..pal..unix..stdio..Stderr$u20$as$u20$std..io..Write$GT$5write17hde8c803fe3487533E"(ptr sret(%"core::result::Result<usize, std::io::error::Error>") align 8 %_4, ptr align 1 %self, ptr align 1 %_5.0, i64 %_5.1), !dbg !1060
  %_6 = load i64, ptr %_4, align 8, !dbg !1060, !range !1061, !noundef !29
  %8 = icmp eq i64 %_6, 0, !dbg !1062
  br i1 %8, label %bb6, label %bb9, !dbg !1062

bb14:                                             ; preds = %bb13, %bb2
  %9 = load ptr, ptr %_0, align 8, !dbg !1058, !noundef !29
  ret ptr %9, !dbg !1058

bb6:                                              ; preds = %bb3
  %10 = getelementptr inbounds i8, ptr %_4, i64 8, !dbg !1062
  %11 = load i64, ptr %10, align 8, !dbg !1062, !noundef !29
  %12 = icmp eq i64 %11, 0, !dbg !1062
  br i1 %12, label %bb7, label %bb8, !dbg !1062

bb9:                                              ; preds = %bb3
  %13 = getelementptr inbounds i8, ptr %_4, i64 8, !dbg !1063
  store ptr %13, ptr %e, align 8, !dbg !1063
  store ptr %e, ptr %e.dbg.spill, align 8, !dbg !1063
  call void @llvm.dbg.declare(metadata ptr %e.dbg.spill, metadata !1000, metadata !DIExpression()), !dbg !1042
  %_17 = load ptr, ptr %e, align 8, !dbg !1064, !nonnull !29, !align !854, !noundef !29
; invoke std::io::error::Error::is_interrupted
  %_14 = invoke zeroext i1 @_ZN3std2io5error5Error14is_interrupted17h55bc1ad157ccca7bE(ptr align 8 %_17)
          to label %bb10 unwind label %cleanup, !dbg !1064

bb7:                                              ; preds = %bb6
  store ptr @alloc_626cc8bfd6c94d404aa777557e31db63, ptr %ptr.dbg.spill, align 8, !dbg !1065
  call void @llvm.dbg.declare(metadata ptr %ptr.dbg.spill, metadata !1066, metadata !DIExpression()), !dbg !1074
  br label %bb21, !dbg !1076

bb8:                                              ; preds = %bb6
  %14 = getelementptr inbounds i8, ptr %_4, i64 8, !dbg !1077
  %n = load i64, ptr %14, align 8, !dbg !1077, !noundef !29
  store i64 %n, ptr %n.dbg.spill, align 8, !dbg !1077
  call void @llvm.dbg.declare(metadata ptr %n.dbg.spill, metadata !995, metadata !DIExpression()), !dbg !1078
  %self.02 = load ptr, ptr %buf, align 8, !dbg !1079, !nonnull !29, !align !967, !noundef !29
  %15 = getelementptr inbounds i8, ptr %buf, i64 8, !dbg !1079
  %self.13 = load i64, ptr %15, align 8, !dbg !1079, !noundef !29
  store ptr %self.02, ptr %self.dbg.spill4, align 8, !dbg !1079
  %16 = getelementptr inbounds i8, ptr %self.dbg.spill4, i64 8, !dbg !1079
  store i64 %self.13, ptr %16, align 8, !dbg !1079
  call void @llvm.dbg.declare(metadata ptr %self.dbg.spill4, metadata !1036, metadata !DIExpression()), !dbg !1080
  store i64 %n, ptr %index, align 8, !dbg !1081
  %17 = load i64, ptr %index, align 8, !dbg !1082, !noundef !29
; invoke <core::ops::range::RangeFrom<usize> as core::slice::index::SliceIndex<[T]>>::index
  %18 = invoke { ptr, i64 } @"_ZN110_$LT$core..ops..range..RangeFrom$LT$usize$GT$$u20$as$u20$core..slice..index..SliceIndex$LT$$u5b$T$u5d$$GT$$GT$5index17h06ed3fbd5d7d174eE"(i64 %17, ptr align 1 %self.02, i64 %self.13, ptr align 8 @alloc_512ed3b31a5fa6f2618b95ad6adc6e6e)
          to label %bb23 unwind label %cleanup, !dbg !1082

bb21:                                             ; preds = %bb7
; call core::ptr::non_null::NonNull<T>::new_unchecked::precondition_check
  call void @"_ZN4core3ptr8non_null16NonNull$LT$T$GT$13new_unchecked18precondition_check17h242b3fea665e36fbE"(ptr @alloc_626cc8bfd6c94d404aa777557e31db63) #21, !dbg !1076
  br label %bb22, !dbg !1076

bb22:                                             ; preds = %bb21
  store ptr @alloc_626cc8bfd6c94d404aa777557e31db63, ptr %_22, align 8, !dbg !1083
  %19 = load ptr, ptr %_22, align 8, !dbg !1084, !nonnull !29, !noundef !29
  store ptr %19, ptr %_21, align 8, !dbg !1084
  %20 = load ptr, ptr %_21, align 8, !dbg !1085, !nonnull !29, !noundef !29
  store ptr %20, ptr %_7, align 8, !dbg !1085
  %21 = load ptr, ptr %_7, align 8, !dbg !1086, !nonnull !29, !noundef !29
  store ptr %21, ptr %_0, align 8, !dbg !1086
  br label %bb13, !dbg !1087

bb13:                                             ; preds = %bb12, %bb22
  br label %bb14, !dbg !1058

bb20:                                             ; preds = %cleanup
  %_19 = load i64, ptr %_4, align 8, !dbg !1089, !range !1061, !noundef !29
  %22 = icmp eq i64 %_19, 1, !dbg !1089
  br i1 %22, label %bb19, label %bb15, !dbg !1089

cleanup:                                          ; preds = %bb9, %bb8
  %23 = landingpad { ptr, i32 }
          cleanup
  %24 = extractvalue { ptr, i32 } %23, 0
  %25 = extractvalue { ptr, i32 } %23, 1
  store ptr %24, ptr %2, align 8
  %26 = getelementptr inbounds i8, ptr %2, i64 8
  store i32 %25, ptr %26, align 8
  br label %bb20

bb23:                                             ; preds = %bb8
  %_9.0 = extractvalue { ptr, i64 } %18, 0, !dbg !1082
  %_9.1 = extractvalue { ptr, i64 } %18, 1, !dbg !1082
  store ptr %_9.0, ptr %buf, align 8, !dbg !1090
  %27 = getelementptr inbounds i8, ptr %buf, i64 8, !dbg !1090
  store i64 %_9.1, ptr %27, align 8, !dbg !1090
  br label %bb18, !dbg !1091

bb18:                                             ; preds = %bb11, %bb23
  %_18 = load i64, ptr %_4, align 8, !dbg !1089, !range !1061, !noundef !29
  %28 = icmp eq i64 %_18, 1, !dbg !1089
  br i1 %28, label %bb17, label %bb16, !dbg !1089

bb10:                                             ; preds = %bb9
  br i1 %_14, label %bb11, label %bb12, !dbg !1064

bb12:                                             ; preds = %bb10
  %29 = getelementptr inbounds i8, ptr %_4, i64 8, !dbg !1092
  %e5 = load ptr, ptr %29, align 8, !dbg !1092, !nonnull !29, !noundef !29
  store ptr %e5, ptr %e.dbg.spill6, align 8, !dbg !1092
  call void @llvm.dbg.declare(metadata ptr %e.dbg.spill6, metadata !1002, metadata !DIExpression()), !dbg !1093
  store ptr %e5, ptr %_0, align 8, !dbg !1094
  br label %bb13, !dbg !1087

bb11:                                             ; preds = %bb10
  br label %bb18, !dbg !1095

bb17:                                             ; preds = %bb18
  %30 = getelementptr inbounds i8, ptr %_4, i64 8, !dbg !1089
; call core::ptr::drop_in_place<std::io::error::Error>
  call void @"_ZN4core3ptr42drop_in_place$LT$std..io..error..Error$GT$17h33c9392263b0714fE"(ptr align 8 %30), !dbg !1089
  br label %bb16, !dbg !1089

bb16:                                             ; preds = %bb17, %bb18
  br label %bb1, !dbg !1043

bb19:                                             ; preds = %bb20
  %31 = getelementptr inbounds i8, ptr %_4, i64 8, !dbg !1089
; invoke core::ptr::drop_in_place<std::io::error::Error>
  invoke void @"_ZN4core3ptr42drop_in_place$LT$std..io..error..Error$GT$17h33c9392263b0714fE"(ptr align 8 %31) #22
          to label %bb15 unwind label %terminate, !dbg !1089

bb15:                                             ; preds = %bb19, %bb20
  %32 = load ptr, ptr %2, align 8, !dbg !1096, !noundef !29
  %33 = getelementptr inbounds i8, ptr %2, i64 8, !dbg !1096
  %34 = load i32, ptr %33, align 8, !dbg !1096, !noundef !29
  %35 = insertvalue { ptr, i32 } poison, ptr %32, 0, !dbg !1096
  %36 = insertvalue { ptr, i32 } %35, i32 %34, 1, !dbg !1096
  resume { ptr, i32 } %36, !dbg !1096

terminate:                                        ; preds = %bb19
  %37 = landingpad { ptr, i32 }
          filter [0 x ptr] zeroinitializer
  %38 = extractvalue { ptr, i32 } %37, 0
  %39 = extractvalue { ptr, i32 } %37, 1
; call core::panicking::panic_in_cleanup
  call void @_ZN4core9panicking16panic_in_cleanup17hb45215b029b98411E() #23, !dbg !1096
  unreachable, !dbg !1096

bb5:                                              ; No predecessors!
  unreachable, !dbg !1060
}

; std::io::Write::write_fmt
; Function Attrs: uwtable
define ptr @_ZN3std2io5Write9write_fmt17haa3bc8e72b5188f8E(ptr align 1 %self, ptr align 8 %fmt) unnamed_addr #1 personality ptr @rust_eh_personality !dbg !1097 {
start:
  %ptr.dbg.spill = alloca ptr, align 8
  %self.dbg.spill2 = alloca ptr, align 8
  %0 = alloca { ptr, i32, [1 x i32] }, align 8
  %self.dbg.spill = alloca ptr, align 8
  %_14 = alloca ptr, align 8
  %_13 = alloca ptr, align 8
  %_9 = alloca ptr, align 8
  %_4 = alloca i8, align 1
  %output = alloca %"std::io::Write::write_fmt::Adapter<'_, std::sys::pal::unix::stdio::Stderr>", align 8
  %_0 = alloca ptr, align 8
  %m.dbg.spill = alloca ptr, align 8
  %msg.dbg.spill = alloca ptr, align 8
  store ptr @alloc_5d9af7a776dc0d9eecd628aaf786bef9, ptr %msg.dbg.spill, align 8, !dbg !1214
  call void @llvm.dbg.declare(metadata ptr %msg.dbg.spill, metadata !1218, metadata !DIExpression()), !dbg !1214
  store ptr @alloc_5d9af7a776dc0d9eecd628aaf786bef9, ptr %m.dbg.spill, align 8, !dbg !1221
  call void @llvm.dbg.declare(metadata ptr %m.dbg.spill, metadata !1225, metadata !DIExpression()), !dbg !1221
  store ptr %self, ptr %self.dbg.spill, align 8, !dbg !1221
  call void @llvm.dbg.declare(metadata ptr %self.dbg.spill, metadata !1210, metadata !DIExpression()), !dbg !1227
  call void @llvm.dbg.declare(metadata ptr %fmt, metadata !1211, metadata !DIExpression()), !dbg !1228
  call void @llvm.dbg.declare(metadata ptr %output, metadata !1212, metadata !DIExpression()), !dbg !1229
  store ptr %self, ptr %output, align 8, !dbg !1230
  %1 = getelementptr inbounds i8, ptr %output, i64 8, !dbg !1230
  store ptr null, ptr %1, align 8, !dbg !1230
; invoke core::fmt::write
  %2 = invoke zeroext i1 @_ZN4core3fmt5write17hd3417f5223b3b5daE(ptr align 1 %output, ptr align 8 @vtable.1, ptr align 8 %fmt)
          to label %bb1 unwind label %cleanup, !dbg !1231

bb5:                                              ; preds = %cleanup
; invoke core::ptr::drop_in_place<std::io::Write::write_fmt::Adapter<std::sys::pal::unix::stdio::Stderr>>
  invoke void @"_ZN4core3ptr97drop_in_place$LT$std..io..Write..write_fmt..Adapter$LT$std..sys..pal..unix..stdio..Stderr$GT$$GT$17h4ac48c38e57f526eE"(ptr align 8 %output) #22
          to label %bb6 unwind label %terminate, !dbg !1232

cleanup:                                          ; preds = %start
  %3 = landingpad { ptr, i32 }
          cleanup
  %4 = extractvalue { ptr, i32 } %3, 0
  %5 = extractvalue { ptr, i32 } %3, 1
  store ptr %4, ptr %0, align 8
  %6 = getelementptr inbounds i8, ptr %0, i64 8
  store i32 %5, ptr %6, align 8
  br label %bb5

bb1:                                              ; preds = %start
  %7 = zext i1 %2 to i8, !dbg !1231
  store i8 %7, ptr %_4, align 1, !dbg !1231
  %8 = load i8, ptr %_4, align 1, !dbg !1231, !range !662, !noundef !29
  %9 = trunc i8 %8 to i1, !dbg !1231
  %_7 = zext i1 %9 to i64, !dbg !1231
  %10 = icmp eq i64 %_7, 0, !dbg !1233
  br i1 %10, label %bb4, label %bb3, !dbg !1233

bb4:                                              ; preds = %bb1
  store ptr null, ptr %_0, align 8, !dbg !1234
  br label %bb8, !dbg !1235

bb3:                                              ; preds = %bb1
  %self1 = getelementptr inbounds i8, ptr %output, i64 8, !dbg !1236
  store ptr %self1, ptr %self.dbg.spill2, align 8, !dbg !1236
  call void @llvm.dbg.declare(metadata ptr %self.dbg.spill2, metadata !1237, metadata !DIExpression()), !dbg !1245
  call void @llvm.dbg.declare(metadata ptr %self.dbg.spill2, metadata !1247, metadata !DIExpression()), !dbg !1252
  %11 = getelementptr inbounds i8, ptr %output, i64 8, !dbg !1254
  %12 = load ptr, ptr %11, align 8, !dbg !1254, !noundef !29
  %13 = ptrtoint ptr %12 to i64, !dbg !1254
  %14 = icmp eq i64 %13, 0, !dbg !1254
  %_12 = select i1 %14, i64 0, i64 1, !dbg !1254
  %15 = icmp eq i64 %_12, 0, !dbg !1255
  br i1 %15, label %bb10, label %bb9, !dbg !1255

bb8:                                              ; preds = %bb12, %bb4
  %16 = getelementptr inbounds i8, ptr %output, i64 8, !dbg !1232
; call core::ptr::drop_in_place<core::result::Result<(),std::io::error::Error>>
  call void @"_ZN4core3ptr81drop_in_place$LT$core..result..Result$LT$$LP$$RP$$C$std..io..error..Error$GT$$GT$17hed6044483f7746b1E"(ptr align 8 %16), !dbg !1232
  br label %bb7, !dbg !1232

bb10:                                             ; preds = %bb3
  store ptr @alloc_5d9af7a776dc0d9eecd628aaf786bef9, ptr %ptr.dbg.spill, align 8, !dbg !1256
  call void @llvm.dbg.declare(metadata ptr %ptr.dbg.spill, metadata !1257, metadata !DIExpression()), !dbg !1261
  br label %bb11, !dbg !1263

bb9:                                              ; preds = %bb3
  %17 = getelementptr inbounds i8, ptr %output, i64 8, !dbg !1264
  %18 = load ptr, ptr %17, align 8, !dbg !1264, !noundef !29
  store ptr %18, ptr %_0, align 8, !dbg !1264
  br label %bb7, !dbg !1232

bb11:                                             ; preds = %bb10
; call core::ptr::non_null::NonNull<T>::new_unchecked::precondition_check
  call void @"_ZN4core3ptr8non_null16NonNull$LT$T$GT$13new_unchecked18precondition_check17h242b3fea665e36fbE"(ptr @alloc_5d9af7a776dc0d9eecd628aaf786bef9) #21, !dbg !1263
  br label %bb12, !dbg !1263

bb12:                                             ; preds = %bb11
  store ptr @alloc_5d9af7a776dc0d9eecd628aaf786bef9, ptr %_14, align 8, !dbg !1265
  %19 = load ptr, ptr %_14, align 8, !dbg !1266, !nonnull !29, !noundef !29
  store ptr %19, ptr %_13, align 8, !dbg !1266
  %20 = load ptr, ptr %_13, align 8, !dbg !1267, !nonnull !29, !noundef !29
  store ptr %20, ptr %_9, align 8, !dbg !1267
  %21 = load ptr, ptr %_9, align 8, !dbg !1268, !nonnull !29, !noundef !29
  store ptr %21, ptr %_0, align 8, !dbg !1268
  br label %bb8, !dbg !1232

bb7:                                              ; preds = %bb9, %bb8
  %22 = load ptr, ptr %_0, align 8, !dbg !1269, !noundef !29
  ret ptr %22, !dbg !1269

bb2:                                              ; No predecessors!
  unreachable, !dbg !1231

terminate:                                        ; preds = %bb5
  %23 = landingpad { ptr, i32 }
          filter [0 x ptr] zeroinitializer
  %24 = extractvalue { ptr, i32 } %23, 0
  %25 = extractvalue { ptr, i32 } %23, 1
; call core::panicking::panic_in_cleanup
  call void @_ZN4core9panicking16panic_in_cleanup17hb45215b029b98411E() #23, !dbg !1270
  unreachable, !dbg !1270

bb6:                                              ; preds = %bb5
  %26 = load ptr, ptr %0, align 8, !dbg !1270, !noundef !29
  %27 = getelementptr inbounds i8, ptr %0, i64 8, !dbg !1270
  %28 = load i32, ptr %27, align 8, !dbg !1270, !noundef !29
  %29 = insertvalue { ptr, i32 } poison, ptr %26, 0, !dbg !1270
  %30 = insertvalue { ptr, i32 } %29, i32 %28, 1, !dbg !1270
  resume { ptr, i32 } %30, !dbg !1270
}

; std::io::error::repr_bitpacked::decode_repr
; Function Attrs: inlinehint uwtable
define void @_ZN3std2io5error14repr_bitpacked11decode_repr17h2a2d0bd281a42b6fE(ptr sret(%"std::io::error::ErrorData<&std::io::error::Custom>") align 8 %_0, ptr %ptr) unnamed_addr #0 personality ptr @rust_eh_personality !dbg !1271 {
start:
  %custom.dbg.spill = alloca ptr, align 8
  %self.dbg.spill9 = alloca ptr, align 8
  %data_pointer.dbg.spill = alloca ptr, align 8
  %self.dbg.spill7 = alloca ptr, align 8
  %0 = alloca ptr, align 8
  %self.dbg.spill6 = alloca ptr, align 8
  %kind.dbg.spill = alloca i8, align 1
  %f.dbg.spill = alloca ptr, align 8
  %1 = alloca { ptr, i32, [1 x i32] }, align 8
  %kind_bits.dbg.spill = alloca i32, align 4
  %code.dbg.spill = alloca i32, align 4
  %self.dbg.spill5 = alloca ptr, align 8
  %meta.dbg.spill = alloca ptr, align 8
  %make_custom.dbg.spill = alloca %"{closure@std::io::error::repr_bitpacked::Repr::data::{closure#0}}", align 1
  %ptr.dbg.spill = alloca ptr, align 8
  %_43 = alloca %"core::ptr::metadata::PtrComponents<()>", align 8
  %_42 = alloca %"core::ptr::metadata::PtrRepr<()>", align 8
  %_25 = alloca i8, align 1
  %_23 = alloca ptr, align 8
  %self4 = alloca ptr, align 8
  %self = alloca i8, align 1
  %bits = alloca i64, align 8
  %metadata.dbg.spill = alloca {}, align 1
  %count.dbg.spill3 = alloca i64, align 8
  %rhs.dbg.spill = alloca i64, align 8
  %self.dbg.spill2 = alloca i64, align 8
  %self.dbg.spill = alloca i64, align 8
  %count.dbg.spill1 = alloca i64, align 8
  %count.dbg.spill = alloca i64, align 8
  %_unsafe_arg.dbg.spill = alloca %"core::fmt::rt::UnsafeArg", align 1
  %width.dbg.spill = alloca %"core::fmt::rt::Count", align 8
  %precision.dbg.spill = alloca %"core::fmt::rt::Count", align 8
  %flags.dbg.spill = alloca i32, align 4
  %align.dbg.spill = alloca i8, align 1
  %fill.dbg.spill = alloca i32, align 4
  %position.dbg.spill = alloca i64, align 8
  store i64 0, ptr %position.dbg.spill, align 8, !dbg !1317
  call void @llvm.dbg.declare(metadata ptr %position.dbg.spill, metadata !1325, metadata !DIExpression()), !dbg !1317
  store i32 32, ptr %fill.dbg.spill, align 4, !dbg !1372
  call void @llvm.dbg.declare(metadata ptr %fill.dbg.spill, metadata !1326, metadata !DIExpression()), !dbg !1372
  store i8 3, ptr %align.dbg.spill, align 1, !dbg !1373
  call void @llvm.dbg.declare(metadata ptr %align.dbg.spill, metadata !1327, metadata !DIExpression()), !dbg !1373
  store i32 12, ptr %flags.dbg.spill, align 4, !dbg !1374
  call void @llvm.dbg.declare(metadata ptr %flags.dbg.spill, metadata !1328, metadata !DIExpression()), !dbg !1374
  %2 = load i64, ptr @0, align 8, !dbg !1374, !range !1375, !noundef !29
  %3 = load i64, ptr getelementptr inbounds (i8, ptr @0, i64 8), align 8, !dbg !1374
  store i64 %2, ptr %precision.dbg.spill, align 8, !dbg !1376
  %4 = getelementptr inbounds i8, ptr %precision.dbg.spill, i64 8, !dbg !1376
  store i64 %3, ptr %4, align 8, !dbg !1376
  call void @llvm.dbg.declare(metadata ptr %precision.dbg.spill, metadata !1329, metadata !DIExpression()), !dbg !1376
  %5 = load i64, ptr @1, align 8, !dbg !1376, !range !1375, !noundef !29
  %6 = load i64, ptr getelementptr inbounds (i8, ptr @1, i64 8), align 8, !dbg !1376
  store i64 %5, ptr %width.dbg.spill, align 8, !dbg !1377
  %7 = getelementptr inbounds i8, ptr %width.dbg.spill, i64 8, !dbg !1377
  store i64 %6, ptr %7, align 8, !dbg !1377
  call void @llvm.dbg.declare(metadata ptr %width.dbg.spill, metadata !1330, metadata !DIExpression()), !dbg !1377
  call void @llvm.dbg.declare(metadata ptr %_unsafe_arg.dbg.spill, metadata !1378, metadata !DIExpression()), !dbg !1392
  store i64 1, ptr %count.dbg.spill, align 8, !dbg !1393
  call void @llvm.dbg.declare(metadata ptr %count.dbg.spill, metadata !1401, metadata !DIExpression()), !dbg !1393
  store i64 1, ptr %count.dbg.spill1, align 8, !dbg !1403
  call void @llvm.dbg.declare(metadata ptr %count.dbg.spill1, metadata !1411, metadata !DIExpression()), !dbg !1403
  store i64 1, ptr %self.dbg.spill, align 8, !dbg !1413
  call void @llvm.dbg.declare(metadata ptr %self.dbg.spill, metadata !1425, metadata !DIExpression()), !dbg !1413
  store i64 0, ptr %self.dbg.spill2, align 8, !dbg !1427
  call void @llvm.dbg.declare(metadata ptr %self.dbg.spill2, metadata !1434, metadata !DIExpression()), !dbg !1427
  store i64 1, ptr %rhs.dbg.spill, align 8, !dbg !1427
  call void @llvm.dbg.declare(metadata ptr %rhs.dbg.spill, metadata !1435, metadata !DIExpression()), !dbg !1427
  store i64 -1, ptr %count.dbg.spill3, align 8, !dbg !1437
  call void @llvm.dbg.declare(metadata ptr %count.dbg.spill3, metadata !1444, metadata !DIExpression()), !dbg !1437
  call void @llvm.dbg.declare(metadata ptr %metadata.dbg.spill, metadata !1446, metadata !DIExpression()), !dbg !1453
  store ptr %ptr, ptr %ptr.dbg.spill, align 8, !dbg !1453
  call void @llvm.dbg.declare(metadata ptr %ptr.dbg.spill, metadata !1302, metadata !DIExpression()), !dbg !1465
  call void @llvm.dbg.declare(metadata ptr %ptr.dbg.spill, metadata !1466, metadata !DIExpression()), !dbg !1477
  call void @llvm.dbg.declare(metadata ptr %ptr.dbg.spill, metadata !1479, metadata !DIExpression()), !dbg !1494
  call void @llvm.dbg.declare(metadata ptr %ptr.dbg.spill, metadata !1473, metadata !DIExpression()), !dbg !1496
  call void @llvm.dbg.declare(metadata ptr %ptr.dbg.spill, metadata !1475, metadata !DIExpression()), !dbg !1498
  call void @llvm.dbg.declare(metadata ptr %make_custom.dbg.spill, metadata !1303, metadata !DIExpression()), !dbg !1500
  call void @llvm.dbg.declare(metadata ptr %bits, metadata !1304, metadata !DIExpression()), !dbg !1501
  call void @llvm.dbg.declare(metadata ptr %self, metadata !1367, metadata !DIExpression()), !dbg !1502
  call void @llvm.dbg.declare(metadata ptr %self4, metadata !1503, metadata !DIExpression()), !dbg !1511
  store i8 1, ptr %_25, align 1, !dbg !1513
  store ptr %ptr, ptr %meta.dbg.spill, align 8, !dbg !1514
  call void @llvm.dbg.declare(metadata ptr %meta.dbg.spill, metadata !1461, metadata !DIExpression()), !dbg !1515
  call void @llvm.dbg.declare(metadata ptr %meta.dbg.spill, metadata !1516, metadata !DIExpression()), !dbg !1522
  store ptr %ptr, ptr %self.dbg.spill5, align 8, !dbg !1514
  call void @llvm.dbg.declare(metadata ptr %self.dbg.spill5, metadata !1524, metadata !DIExpression()), !dbg !1530
  call void @llvm.dbg.declare(metadata ptr %self.dbg.spill5, metadata !1532, metadata !DIExpression()), !dbg !1539
  call void @llvm.dbg.declare(metadata ptr %self.dbg.spill5, metadata !1400, metadata !DIExpression()), !dbg !1541
  call void @llvm.dbg.declare(metadata ptr %self.dbg.spill5, metadata !1542, metadata !DIExpression()), !dbg !1550
  %8 = ptrtoint ptr %ptr to i64, !dbg !1552
  store i64 %8, ptr %bits, align 8, !dbg !1552
  %_6 = load i64, ptr %bits, align 8, !dbg !1553, !noundef !29
  %_5 = and i64 %_6, 3, !dbg !1553
  switch i64 %_5, label %bb1 [
    i64 2, label %bb2
    i64 3, label %bb3
    i64 0, label %bb5
    i64 1, label %bb6
  ], !dbg !1554

bb1:                                              ; preds = %start
; invoke core::panicking::panic
  invoke void @_ZN4core9panicking5panic17h5884aad3a9044857E(ptr align 1 @alloc_a500d906b91607583596fa15e63c2ada, i64 40, ptr align 8 @alloc_58a4045e21a346c8c471dc8330ab58ff) #20
          to label %unreachable unwind label %cleanup, !dbg !1555

bb2:                                              ; preds = %start
  %_10 = load i64, ptr %bits, align 8, !dbg !1556, !noundef !29
  %_8 = ashr i64 %_10, 32, !dbg !1557
  %code = trunc i64 %_8 to i32, !dbg !1557
  store i32 %code, ptr %code.dbg.spill, align 4, !dbg !1557
  call void @llvm.dbg.declare(metadata ptr %code.dbg.spill, metadata !1306, metadata !DIExpression()), !dbg !1558
  %9 = getelementptr inbounds i8, ptr %_0, i64 4, !dbg !1559
  store i32 %code, ptr %9, align 4, !dbg !1559
  store i8 0, ptr %_0, align 8, !dbg !1559
  br label %bb10, !dbg !1560

bb3:                                              ; preds = %start
  %_13 = load i64, ptr %bits, align 8, !dbg !1561, !noundef !29
  %_12 = lshr i64 %_13, 32, !dbg !1562
  %kind_bits = trunc i64 %_12 to i32, !dbg !1562
  store i32 %kind_bits, ptr %kind_bits.dbg.spill, align 4, !dbg !1562
  call void @llvm.dbg.declare(metadata ptr %kind_bits.dbg.spill, metadata !1308, metadata !DIExpression()), !dbg !1563
; invoke std::io::error::repr_bitpacked::kind_from_prim
  %10 = invoke i8 @_ZN3std2io5error14repr_bitpacked14kind_from_prim17h737d35933360d152E(i32 %kind_bits)
          to label %bb4 unwind label %cleanup, !dbg !1564, !range !1565

bb5:                                              ; preds = %start
  store ptr %ptr, ptr %self4, align 8, !dbg !1566
  %11 = getelementptr inbounds i8, ptr %_0, i64 8, !dbg !1567
  store ptr %ptr, ptr %11, align 8, !dbg !1567
  store i8 2, ptr %_0, align 8, !dbg !1567
  br label %bb10, !dbg !1560

bb6:                                              ; preds = %start
  store ptr %ptr, ptr %self.dbg.spill6, align 8, !dbg !1568
  call void @llvm.dbg.declare(metadata ptr %self.dbg.spill6, metadata !1410, metadata !DIExpression()), !dbg !1569
  call void @llvm.dbg.declare(metadata ptr %self.dbg.spill6, metadata !1443, metadata !DIExpression()), !dbg !1570
  %12 = getelementptr i8, ptr %ptr, i64 -1, !dbg !1571
  store ptr %12, ptr %0, align 8, !dbg !1571
  %_39 = load ptr, ptr %0, align 8, !dbg !1571, !noundef !29
  store ptr %_39, ptr %self.dbg.spill7, align 8, !dbg !1571
  call void @llvm.dbg.declare(metadata ptr %self.dbg.spill7, metadata !1460, metadata !DIExpression()), !dbg !1572
  store ptr %_39, ptr %data_pointer.dbg.spill, align 8, !dbg !1573
  call void @llvm.dbg.declare(metadata ptr %data_pointer.dbg.spill, metadata !1452, metadata !DIExpression()), !dbg !1574
  store ptr %_39, ptr %_43, align 8, !dbg !1575
  call void @llvm.memcpy.p0.p0.i64(ptr align 8 %_42, ptr align 8 %_43, i64 8, i1 false), !dbg !1576
  %self8 = load ptr, ptr %_42, align 8, !dbg !1576, !noundef !29
  store ptr %self8, ptr %self.dbg.spill9, align 8, !dbg !1576
  call void @llvm.dbg.declare(metadata ptr %self.dbg.spill9, metadata !1577, metadata !DIExpression()), !dbg !1585
  store ptr %self8, ptr %custom.dbg.spill, align 8, !dbg !1587
  call void @llvm.dbg.declare(metadata ptr %custom.dbg.spill, metadata !1312, metadata !DIExpression()), !dbg !1588
  store i8 0, ptr %_25, align 1, !dbg !1589
  store ptr %self8, ptr %_23, align 8, !dbg !1589
  %13 = load ptr, ptr %_23, align 8, !dbg !1589, !noundef !29
; invoke std::io::error::repr_bitpacked::Repr::data::{{closure}}
  %_21 = invoke align 8 ptr @"_ZN3std2io5error14repr_bitpacked4Repr4data28_$u7b$$u7b$closure$u7d$$u7d$17h1c6be1df34032ff1E"(ptr %13)
          to label %bb7 unwind label %cleanup, !dbg !1589

bb10:                                             ; preds = %bb5, %bb15, %bb2
  br label %bb8, !dbg !1560

bb12:                                             ; preds = %cleanup
  %14 = load i8, ptr %_25, align 1, !dbg !1560, !range !662, !noundef !29
  %15 = trunc i8 %14 to i1, !dbg !1560
  br i1 %15, label %bb11, label %bb9, !dbg !1560

cleanup:                                          ; preds = %bb1, %bb6, %bb3
  %16 = landingpad { ptr, i32 }
          cleanup
  %17 = extractvalue { ptr, i32 } %16, 0
  %18 = extractvalue { ptr, i32 } %16, 1
  store ptr %17, ptr %1, align 8
  %19 = getelementptr inbounds i8, ptr %1, i64 8
  store i32 %18, ptr %19, align 8
  br label %bb12

bb4:                                              ; preds = %bb3
  store i8 %10, ptr %self, align 1, !dbg !1564
  store ptr %bits, ptr %f.dbg.spill, align 8, !dbg !1590
  call void @llvm.dbg.declare(metadata ptr %f.dbg.spill, metadata !1368, metadata !DIExpression()), !dbg !1591
  call void @llvm.dbg.declare(metadata ptr %f.dbg.spill, metadata !1343, metadata !DIExpression(DW_OP_deref)), !dbg !1592
  %20 = load i8, ptr %self, align 1, !dbg !1593, !range !1565, !noundef !29
  %21 = icmp eq i8 %20, 41, !dbg !1593
  %_27 = select i1 %21, i64 0, i64 1, !dbg !1593
  %22 = icmp eq i64 %_27, 0, !dbg !1594
  br i1 %22, label %bb14, label %bb15, !dbg !1594

bb14:                                             ; preds = %bb4
; call core::hint::unreachable_unchecked::precondition_check
  call void @_ZN4core4hint21unreachable_unchecked18precondition_check17hc64fba99a384bb26E() #21, !dbg !1595
  br label %bb13, !dbg !1595

bb15:                                             ; preds = %bb4
  %kind = load i8, ptr %self, align 1, !dbg !1603, !range !1604, !noundef !29
  store i8 %kind, ptr %kind.dbg.spill, align 1, !dbg !1603
  call void @llvm.dbg.declare(metadata ptr %kind.dbg.spill, metadata !1310, metadata !DIExpression()), !dbg !1605
  call void @llvm.dbg.declare(metadata ptr %kind.dbg.spill, metadata !1369, metadata !DIExpression()), !dbg !1606
  %23 = getelementptr inbounds i8, ptr %_0, i64 1, !dbg !1607
  store i8 %kind, ptr %23, align 1, !dbg !1607
  store i8 1, ptr %_0, align 8, !dbg !1607
  br label %bb10, !dbg !1560

bb13:                                             ; preds = %bb14
  unreachable, !dbg !1593

bb8:                                              ; preds = %bb7, %bb10
  ret void, !dbg !1608

bb7:                                              ; preds = %bb6
  %24 = getelementptr inbounds i8, ptr %_0, i64 8, !dbg !1609
  store ptr %_21, ptr %24, align 8, !dbg !1609
  store i8 3, ptr %_0, align 8, !dbg !1609
  br label %bb8, !dbg !1560

unreachable:                                      ; preds = %bb1
  unreachable

bb9:                                              ; preds = %bb11, %bb12
  %25 = load ptr, ptr %1, align 8, !dbg !1610, !noundef !29
  %26 = getelementptr inbounds i8, ptr %1, i64 8, !dbg !1610
  %27 = load i32, ptr %26, align 8, !dbg !1610, !noundef !29
  %28 = insertvalue { ptr, i32 } poison, ptr %25, 0, !dbg !1610
  %29 = insertvalue { ptr, i32 } %28, i32 %27, 1, !dbg !1610
  resume { ptr, i32 } %29, !dbg !1610

bb11:                                             ; preds = %bb12
  br label %bb9, !dbg !1560
}

; std::io::error::repr_bitpacked::decode_repr
; Function Attrs: inlinehint uwtable
define void @_ZN3std2io5error14repr_bitpacked11decode_repr17h303bb9710ed02e00E(ptr sret(%"std::io::error::ErrorData<alloc::boxed::Box<std::io::error::Custom>>") align 8 %_0, ptr %ptr) unnamed_addr #0 personality ptr @rust_eh_personality !dbg !1611 {
start:
  %custom.dbg.spill = alloca ptr, align 8
  %self.dbg.spill9 = alloca ptr, align 8
  %data_pointer.dbg.spill = alloca ptr, align 8
  %self.dbg.spill7 = alloca ptr, align 8
  %0 = alloca ptr, align 8
  %self.dbg.spill6 = alloca ptr, align 8
  %kind.dbg.spill = alloca i8, align 1
  %f.dbg.spill = alloca ptr, align 8
  %1 = alloca { ptr, i32, [1 x i32] }, align 8
  %kind_bits.dbg.spill = alloca i32, align 4
  %code.dbg.spill = alloca i32, align 4
  %self.dbg.spill5 = alloca ptr, align 8
  %meta.dbg.spill = alloca ptr, align 8
  %make_custom.dbg.spill = alloca %"{closure@<std::io::error::repr_bitpacked::Repr as core::ops::drop::Drop>::drop::{closure#0}}", align 1
  %ptr.dbg.spill = alloca ptr, align 8
  %_43 = alloca %"core::ptr::metadata::PtrComponents<()>", align 8
  %_42 = alloca %"core::ptr::metadata::PtrRepr<()>", align 8
  %_25 = alloca i8, align 1
  %_23 = alloca ptr, align 8
  %self4 = alloca ptr, align 8
  %self = alloca i8, align 1
  %bits = alloca i64, align 8
  %metadata.dbg.spill = alloca {}, align 1
  %count.dbg.spill3 = alloca i64, align 8
  %rhs.dbg.spill = alloca i64, align 8
  %self.dbg.spill2 = alloca i64, align 8
  %self.dbg.spill = alloca i64, align 8
  %count.dbg.spill1 = alloca i64, align 8
  %count.dbg.spill = alloca i64, align 8
  %_unsafe_arg.dbg.spill = alloca %"core::fmt::rt::UnsafeArg", align 1
  %width.dbg.spill = alloca %"core::fmt::rt::Count", align 8
  %precision.dbg.spill = alloca %"core::fmt::rt::Count", align 8
  %flags.dbg.spill = alloca i32, align 4
  %align.dbg.spill = alloca i8, align 1
  %fill.dbg.spill = alloca i32, align 4
  %position.dbg.spill = alloca i64, align 8
  store i64 0, ptr %position.dbg.spill, align 8, !dbg !1632
  call void @llvm.dbg.declare(metadata ptr %position.dbg.spill, metadata !1636, metadata !DIExpression()), !dbg !1632
  store i32 32, ptr %fill.dbg.spill, align 4, !dbg !1667
  call void @llvm.dbg.declare(metadata ptr %fill.dbg.spill, metadata !1637, metadata !DIExpression()), !dbg !1667
  store i8 3, ptr %align.dbg.spill, align 1, !dbg !1668
  call void @llvm.dbg.declare(metadata ptr %align.dbg.spill, metadata !1638, metadata !DIExpression()), !dbg !1668
  store i32 12, ptr %flags.dbg.spill, align 4, !dbg !1669
  call void @llvm.dbg.declare(metadata ptr %flags.dbg.spill, metadata !1639, metadata !DIExpression()), !dbg !1669
  %2 = load i64, ptr @0, align 8, !dbg !1669, !range !1375, !noundef !29
  %3 = load i64, ptr getelementptr inbounds (i8, ptr @0, i64 8), align 8, !dbg !1669
  store i64 %2, ptr %precision.dbg.spill, align 8, !dbg !1670
  %4 = getelementptr inbounds i8, ptr %precision.dbg.spill, i64 8, !dbg !1670
  store i64 %3, ptr %4, align 8, !dbg !1670
  call void @llvm.dbg.declare(metadata ptr %precision.dbg.spill, metadata !1640, metadata !DIExpression()), !dbg !1670
  %5 = load i64, ptr @1, align 8, !dbg !1670, !range !1375, !noundef !29
  %6 = load i64, ptr getelementptr inbounds (i8, ptr @1, i64 8), align 8, !dbg !1670
  store i64 %5, ptr %width.dbg.spill, align 8, !dbg !1671
  %7 = getelementptr inbounds i8, ptr %width.dbg.spill, i64 8, !dbg !1671
  store i64 %6, ptr %7, align 8, !dbg !1671
  call void @llvm.dbg.declare(metadata ptr %width.dbg.spill, metadata !1641, metadata !DIExpression()), !dbg !1671
  call void @llvm.dbg.declare(metadata ptr %_unsafe_arg.dbg.spill, metadata !1672, metadata !DIExpression()), !dbg !1679
  store i64 1, ptr %count.dbg.spill, align 8, !dbg !1680
  call void @llvm.dbg.declare(metadata ptr %count.dbg.spill, metadata !1685, metadata !DIExpression()), !dbg !1680
  store i64 1, ptr %count.dbg.spill1, align 8, !dbg !1687
  call void @llvm.dbg.declare(metadata ptr %count.dbg.spill1, metadata !1692, metadata !DIExpression()), !dbg !1687
  store i64 1, ptr %self.dbg.spill, align 8, !dbg !1694
  call void @llvm.dbg.declare(metadata ptr %self.dbg.spill, metadata !1699, metadata !DIExpression()), !dbg !1694
  store i64 0, ptr %self.dbg.spill2, align 8, !dbg !1701
  call void @llvm.dbg.declare(metadata ptr %self.dbg.spill2, metadata !1706, metadata !DIExpression()), !dbg !1701
  store i64 1, ptr %rhs.dbg.spill, align 8, !dbg !1701
  call void @llvm.dbg.declare(metadata ptr %rhs.dbg.spill, metadata !1707, metadata !DIExpression()), !dbg !1701
  store i64 -1, ptr %count.dbg.spill3, align 8, !dbg !1709
  call void @llvm.dbg.declare(metadata ptr %count.dbg.spill3, metadata !1714, metadata !DIExpression()), !dbg !1709
  call void @llvm.dbg.declare(metadata ptr %metadata.dbg.spill, metadata !1716, metadata !DIExpression()), !dbg !1721
  store ptr %ptr, ptr %ptr.dbg.spill, align 8, !dbg !1721
  call void @llvm.dbg.declare(metadata ptr %ptr.dbg.spill, metadata !1618, metadata !DIExpression()), !dbg !1729
  call void @llvm.dbg.declare(metadata ptr %ptr.dbg.spill, metadata !1730, metadata !DIExpression()), !dbg !1738
  call void @llvm.dbg.declare(metadata ptr %ptr.dbg.spill, metadata !1740, metadata !DIExpression()), !dbg !1744
  call void @llvm.dbg.declare(metadata ptr %ptr.dbg.spill, metadata !1734, metadata !DIExpression()), !dbg !1746
  call void @llvm.dbg.declare(metadata ptr %ptr.dbg.spill, metadata !1736, metadata !DIExpression()), !dbg !1748
  call void @llvm.dbg.declare(metadata ptr %make_custom.dbg.spill, metadata !1619, metadata !DIExpression()), !dbg !1750
  call void @llvm.dbg.declare(metadata ptr %bits, metadata !1620, metadata !DIExpression()), !dbg !1751
  call void @llvm.dbg.declare(metadata ptr %self, metadata !1662, metadata !DIExpression()), !dbg !1752
  call void @llvm.dbg.declare(metadata ptr %self4, metadata !1753, metadata !DIExpression()), !dbg !1757
  store i8 1, ptr %_25, align 1, !dbg !1759
  store ptr %ptr, ptr %meta.dbg.spill, align 8, !dbg !1760
  call void @llvm.dbg.declare(metadata ptr %meta.dbg.spill, metadata !1727, metadata !DIExpression()), !dbg !1761
  call void @llvm.dbg.declare(metadata ptr %meta.dbg.spill, metadata !1762, metadata !DIExpression()), !dbg !1766
  store ptr %ptr, ptr %self.dbg.spill5, align 8, !dbg !1760
  call void @llvm.dbg.declare(metadata ptr %self.dbg.spill5, metadata !1768, metadata !DIExpression()), !dbg !1772
  call void @llvm.dbg.declare(metadata ptr %self.dbg.spill5, metadata !1774, metadata !DIExpression()), !dbg !1778
  call void @llvm.dbg.declare(metadata ptr %self.dbg.spill5, metadata !1684, metadata !DIExpression()), !dbg !1780
  call void @llvm.dbg.declare(metadata ptr %self.dbg.spill5, metadata !1781, metadata !DIExpression()), !dbg !1785
  %8 = ptrtoint ptr %ptr to i64, !dbg !1787
  store i64 %8, ptr %bits, align 8, !dbg !1787
  %_6 = load i64, ptr %bits, align 8, !dbg !1788, !noundef !29
  %_5 = and i64 %_6, 3, !dbg !1788
  switch i64 %_5, label %bb1 [
    i64 2, label %bb2
    i64 3, label %bb3
    i64 0, label %bb5
    i64 1, label %bb6
  ], !dbg !1789

bb1:                                              ; preds = %start
; invoke core::panicking::panic
  invoke void @_ZN4core9panicking5panic17h5884aad3a9044857E(ptr align 1 @alloc_a500d906b91607583596fa15e63c2ada, i64 40, ptr align 8 @alloc_58a4045e21a346c8c471dc8330ab58ff) #20
          to label %unreachable unwind label %cleanup, !dbg !1790

bb2:                                              ; preds = %start
  %_10 = load i64, ptr %bits, align 8, !dbg !1791, !noundef !29
  %_8 = ashr i64 %_10, 32, !dbg !1792
  %code = trunc i64 %_8 to i32, !dbg !1792
  store i32 %code, ptr %code.dbg.spill, align 4, !dbg !1792
  call void @llvm.dbg.declare(metadata ptr %code.dbg.spill, metadata !1622, metadata !DIExpression()), !dbg !1793
  %9 = getelementptr inbounds i8, ptr %_0, i64 4, !dbg !1794
  store i32 %code, ptr %9, align 4, !dbg !1794
  store i8 0, ptr %_0, align 8, !dbg !1794
  br label %bb10, !dbg !1795

bb3:                                              ; preds = %start
  %_13 = load i64, ptr %bits, align 8, !dbg !1796, !noundef !29
  %_12 = lshr i64 %_13, 32, !dbg !1797
  %kind_bits = trunc i64 %_12 to i32, !dbg !1797
  store i32 %kind_bits, ptr %kind_bits.dbg.spill, align 4, !dbg !1797
  call void @llvm.dbg.declare(metadata ptr %kind_bits.dbg.spill, metadata !1624, metadata !DIExpression()), !dbg !1798
; invoke std::io::error::repr_bitpacked::kind_from_prim
  %10 = invoke i8 @_ZN3std2io5error14repr_bitpacked14kind_from_prim17h737d35933360d152E(i32 %kind_bits)
          to label %bb4 unwind label %cleanup, !dbg !1799, !range !1565

bb5:                                              ; preds = %start
  store ptr %ptr, ptr %self4, align 8, !dbg !1800
  %11 = getelementptr inbounds i8, ptr %_0, i64 8, !dbg !1801
  store ptr %ptr, ptr %11, align 8, !dbg !1801
  store i8 2, ptr %_0, align 8, !dbg !1801
  br label %bb10, !dbg !1795

bb6:                                              ; preds = %start
  store ptr %ptr, ptr %self.dbg.spill6, align 8, !dbg !1802
  call void @llvm.dbg.declare(metadata ptr %self.dbg.spill6, metadata !1691, metadata !DIExpression()), !dbg !1803
  call void @llvm.dbg.declare(metadata ptr %self.dbg.spill6, metadata !1713, metadata !DIExpression()), !dbg !1804
  %12 = getelementptr i8, ptr %ptr, i64 -1, !dbg !1805
  store ptr %12, ptr %0, align 8, !dbg !1805
  %_39 = load ptr, ptr %0, align 8, !dbg !1805, !noundef !29
  store ptr %_39, ptr %self.dbg.spill7, align 8, !dbg !1805
  call void @llvm.dbg.declare(metadata ptr %self.dbg.spill7, metadata !1726, metadata !DIExpression()), !dbg !1806
  store ptr %_39, ptr %data_pointer.dbg.spill, align 8, !dbg !1807
  call void @llvm.dbg.declare(metadata ptr %data_pointer.dbg.spill, metadata !1720, metadata !DIExpression()), !dbg !1808
  store ptr %_39, ptr %_43, align 8, !dbg !1809
  call void @llvm.memcpy.p0.p0.i64(ptr align 8 %_42, ptr align 8 %_43, i64 8, i1 false), !dbg !1810
  %self8 = load ptr, ptr %_42, align 8, !dbg !1810, !noundef !29
  store ptr %self8, ptr %self.dbg.spill9, align 8, !dbg !1810
  call void @llvm.dbg.declare(metadata ptr %self.dbg.spill9, metadata !1811, metadata !DIExpression()), !dbg !1815
  store ptr %self8, ptr %custom.dbg.spill, align 8, !dbg !1817
  call void @llvm.dbg.declare(metadata ptr %custom.dbg.spill, metadata !1628, metadata !DIExpression()), !dbg !1818
  store i8 0, ptr %_25, align 1, !dbg !1819
  store ptr %self8, ptr %_23, align 8, !dbg !1819
  %13 = load ptr, ptr %_23, align 8, !dbg !1819, !noundef !29
; invoke <std::io::error::repr_bitpacked::Repr as core::ops::drop::Drop>::drop::{{closure}}
  %_21 = invoke align 8 ptr @"_ZN78_$LT$std..io..error..repr_bitpacked..Repr$u20$as$u20$core..ops..drop..Drop$GT$4drop28_$u7b$$u7b$closure$u7d$$u7d$17h19e8855aa685e3f7E"(ptr %13)
          to label %bb7 unwind label %cleanup, !dbg !1819

bb10:                                             ; preds = %bb5, %bb15, %bb2
  br label %bb8, !dbg !1795

bb12:                                             ; preds = %cleanup
  %14 = load i8, ptr %_25, align 1, !dbg !1795, !range !662, !noundef !29
  %15 = trunc i8 %14 to i1, !dbg !1795
  br i1 %15, label %bb11, label %bb9, !dbg !1795

cleanup:                                          ; preds = %bb1, %bb6, %bb3
  %16 = landingpad { ptr, i32 }
          cleanup
  %17 = extractvalue { ptr, i32 } %16, 0
  %18 = extractvalue { ptr, i32 } %16, 1
  store ptr %17, ptr %1, align 8
  %19 = getelementptr inbounds i8, ptr %1, i64 8
  store i32 %18, ptr %19, align 8
  br label %bb12

bb4:                                              ; preds = %bb3
  store i8 %10, ptr %self, align 1, !dbg !1799
  store ptr %bits, ptr %f.dbg.spill, align 8, !dbg !1820
  call void @llvm.dbg.declare(metadata ptr %f.dbg.spill, metadata !1663, metadata !DIExpression()), !dbg !1821
  call void @llvm.dbg.declare(metadata ptr %f.dbg.spill, metadata !1652, metadata !DIExpression(DW_OP_deref)), !dbg !1822
  %20 = load i8, ptr %self, align 1, !dbg !1823, !range !1565, !noundef !29
  %21 = icmp eq i8 %20, 41, !dbg !1823
  %_27 = select i1 %21, i64 0, i64 1, !dbg !1823
  %22 = icmp eq i64 %_27, 0, !dbg !1824
  br i1 %22, label %bb14, label %bb15, !dbg !1824

bb14:                                             ; preds = %bb4
; call core::hint::unreachable_unchecked::precondition_check
  call void @_ZN4core4hint21unreachable_unchecked18precondition_check17hc64fba99a384bb26E() #21, !dbg !1825
  br label %bb13, !dbg !1825

bb15:                                             ; preds = %bb4
  %kind = load i8, ptr %self, align 1, !dbg !1829, !range !1604, !noundef !29
  store i8 %kind, ptr %kind.dbg.spill, align 1, !dbg !1829
  call void @llvm.dbg.declare(metadata ptr %kind.dbg.spill, metadata !1626, metadata !DIExpression()), !dbg !1830
  call void @llvm.dbg.declare(metadata ptr %kind.dbg.spill, metadata !1664, metadata !DIExpression()), !dbg !1831
  %23 = getelementptr inbounds i8, ptr %_0, i64 1, !dbg !1832
  store i8 %kind, ptr %23, align 1, !dbg !1832
  store i8 1, ptr %_0, align 8, !dbg !1832
  br label %bb10, !dbg !1795

bb13:                                             ; preds = %bb14
  unreachable, !dbg !1823

bb8:                                              ; preds = %bb7, %bb10
  ret void, !dbg !1833

bb7:                                              ; preds = %bb6
  %24 = getelementptr inbounds i8, ptr %_0, i64 8, !dbg !1834
  store ptr %_21, ptr %24, align 8, !dbg !1834
  store i8 3, ptr %_0, align 8, !dbg !1834
  br label %bb8, !dbg !1795

unreachable:                                      ; preds = %bb1
  unreachable

bb9:                                              ; preds = %bb11, %bb12
  %25 = load ptr, ptr %1, align 8, !dbg !1835, !noundef !29
  %26 = getelementptr inbounds i8, ptr %1, i64 8, !dbg !1835
  %27 = load i32, ptr %26, align 8, !dbg !1835, !noundef !29
  %28 = insertvalue { ptr, i32 } poison, ptr %25, 0, !dbg !1835
  %29 = insertvalue { ptr, i32 } %28, i32 %27, 1, !dbg !1835
  resume { ptr, i32 } %29, !dbg !1835

bb11:                                             ; preds = %bb12
  br label %bb9, !dbg !1795
}

; std::io::error::repr_bitpacked::kind_from_prim
; Function Attrs: inlinehint uwtable
define internal i8 @_ZN3std2io5error14repr_bitpacked14kind_from_prim17h737d35933360d152E(i32 %0) unnamed_addr #0 !dbg !1836 {
start:
  %v.dbg.spill121 = alloca i32, align 4
  %v.dbg.spill119 = alloca ptr, align 8
  %v.dbg.spill118 = alloca i32, align 4
  %v.dbg.spill116 = alloca ptr, align 8
  %v.dbg.spill115 = alloca i32, align 4
  %v.dbg.spill113 = alloca ptr, align 8
  %v.dbg.spill112 = alloca i32, align 4
  %v.dbg.spill110 = alloca ptr, align 8
  %v.dbg.spill109 = alloca i32, align 4
  %v.dbg.spill107 = alloca ptr, align 8
  %v.dbg.spill106 = alloca i32, align 4
  %v.dbg.spill104 = alloca ptr, align 8
  %v.dbg.spill103 = alloca i32, align 4
  %v.dbg.spill101 = alloca ptr, align 8
  %v.dbg.spill100 = alloca i32, align 4
  %v.dbg.spill98 = alloca ptr, align 8
  %v.dbg.spill97 = alloca i32, align 4
  %v.dbg.spill95 = alloca ptr, align 8
  %v.dbg.spill94 = alloca i32, align 4
  %v.dbg.spill92 = alloca ptr, align 8
  %v.dbg.spill91 = alloca i32, align 4
  %v.dbg.spill89 = alloca ptr, align 8
  %v.dbg.spill88 = alloca i32, align 4
  %v.dbg.spill86 = alloca ptr, align 8
  %v.dbg.spill85 = alloca i32, align 4
  %v.dbg.spill83 = alloca ptr, align 8
  %v.dbg.spill82 = alloca i32, align 4
  %v.dbg.spill80 = alloca ptr, align 8
  %v.dbg.spill79 = alloca i32, align 4
  %v.dbg.spill77 = alloca ptr, align 8
  %v.dbg.spill76 = alloca i32, align 4
  %v.dbg.spill74 = alloca ptr, align 8
  %v.dbg.spill73 = alloca i32, align 4
  %v.dbg.spill71 = alloca ptr, align 8
  %v.dbg.spill70 = alloca i32, align 4
  %v.dbg.spill68 = alloca ptr, align 8
  %v.dbg.spill67 = alloca i32, align 4
  %v.dbg.spill65 = alloca ptr, align 8
  %v.dbg.spill64 = alloca i32, align 4
  %v.dbg.spill62 = alloca ptr, align 8
  %v.dbg.spill61 = alloca i32, align 4
  %v.dbg.spill59 = alloca ptr, align 8
  %v.dbg.spill58 = alloca i32, align 4
  %v.dbg.spill56 = alloca ptr, align 8
  %v.dbg.spill55 = alloca i32, align 4
  %v.dbg.spill53 = alloca ptr, align 8
  %v.dbg.spill52 = alloca i32, align 4
  %v.dbg.spill50 = alloca ptr, align 8
  %v.dbg.spill49 = alloca i32, align 4
  %v.dbg.spill47 = alloca ptr, align 8
  %v.dbg.spill46 = alloca i32, align 4
  %v.dbg.spill44 = alloca ptr, align 8
  %v.dbg.spill43 = alloca i32, align 4
  %v.dbg.spill41 = alloca ptr, align 8
  %v.dbg.spill40 = alloca i32, align 4
  %v.dbg.spill38 = alloca ptr, align 8
  %v.dbg.spill37 = alloca i32, align 4
  %v.dbg.spill35 = alloca ptr, align 8
  %v.dbg.spill34 = alloca i32, align 4
  %v.dbg.spill32 = alloca ptr, align 8
  %v.dbg.spill31 = alloca i32, align 4
  %v.dbg.spill29 = alloca ptr, align 8
  %v.dbg.spill28 = alloca i32, align 4
  %v.dbg.spill26 = alloca ptr, align 8
  %v.dbg.spill25 = alloca i32, align 4
  %v.dbg.spill23 = alloca ptr, align 8
  %v.dbg.spill22 = alloca i32, align 4
  %v.dbg.spill20 = alloca ptr, align 8
  %v.dbg.spill19 = alloca i32, align 4
  %v.dbg.spill17 = alloca ptr, align 8
  %v.dbg.spill16 = alloca i32, align 4
  %v.dbg.spill14 = alloca ptr, align 8
  %v.dbg.spill13 = alloca i32, align 4
  %v.dbg.spill11 = alloca ptr, align 8
  %v.dbg.spill10 = alloca i32, align 4
  %v.dbg.spill8 = alloca ptr, align 8
  %v.dbg.spill7 = alloca i32, align 4
  %v.dbg.spill5 = alloca ptr, align 8
  %v.dbg.spill4 = alloca i32, align 4
  %v.dbg.spill2 = alloca ptr, align 8
  %v.dbg.spill1 = alloca i32, align 4
  %v.dbg.spill = alloca ptr, align 8
  %_0 = alloca i8, align 1
  %ek = alloca i32, align 4
  store i32 %0, ptr %ek, align 4
  call void @llvm.dbg.declare(metadata ptr %ek, metadata !1840, metadata !DIExpression()), !dbg !1964
  store ptr %ek, ptr %v.dbg.spill, align 8, !dbg !1965
  call void @llvm.dbg.declare(metadata ptr %v.dbg.spill, metadata !1843, metadata !DIExpression()), !dbg !1966
  %_4 = load i32, ptr %ek, align 4, !dbg !1965, !noundef !29
  %1 = icmp eq i32 %_4, 0, !dbg !1965
  br i1 %1, label %bb1, label %bb2, !dbg !1965

bb1:                                              ; preds = %start
  %v = load i32, ptr %ek, align 4, !dbg !1965, !noundef !29
  store i32 %v, ptr %v.dbg.spill1, align 4, !dbg !1965
  call void @llvm.dbg.declare(metadata ptr %v.dbg.spill1, metadata !1841, metadata !DIExpression()), !dbg !1966
  store i8 0, ptr %_0, align 1, !dbg !1966
  br label %bb83, !dbg !1965

bb2:                                              ; preds = %start
  store ptr %ek, ptr %v.dbg.spill2, align 8, !dbg !1965
  call void @llvm.dbg.declare(metadata ptr %v.dbg.spill2, metadata !1846, metadata !DIExpression()), !dbg !1967
  %_7 = load i32, ptr %ek, align 4, !dbg !1965, !noundef !29
  %2 = icmp eq i32 %_7, 1, !dbg !1965
  br i1 %2, label %bb3, label %bb4, !dbg !1965

bb83:                                             ; preds = %bb82, %bb81, %bb79, %bb77, %bb75, %bb73, %bb71, %bb69, %bb67, %bb65, %bb63, %bb61, %bb59, %bb57, %bb55, %bb53, %bb51, %bb49, %bb47, %bb45, %bb43, %bb41, %bb39, %bb37, %bb35, %bb33, %bb31, %bb29, %bb27, %bb25, %bb23, %bb21, %bb19, %bb17, %bb15, %bb13, %bb11, %bb9, %bb7, %bb5, %bb3, %bb1
  %3 = load i8, ptr %_0, align 1, !dbg !1968, !range !1565, !noundef !29
  ret i8 %3, !dbg !1968

bb3:                                              ; preds = %bb2
  %v3 = load i32, ptr %ek, align 4, !dbg !1965, !noundef !29
  store i32 %v3, ptr %v.dbg.spill4, align 4, !dbg !1965
  call void @llvm.dbg.declare(metadata ptr %v.dbg.spill4, metadata !1844, metadata !DIExpression()), !dbg !1967
  store i8 1, ptr %_0, align 1, !dbg !1967
  br label %bb83, !dbg !1965

bb4:                                              ; preds = %bb2
  store ptr %ek, ptr %v.dbg.spill5, align 8, !dbg !1965
  call void @llvm.dbg.declare(metadata ptr %v.dbg.spill5, metadata !1849, metadata !DIExpression()), !dbg !1969
  %_10 = load i32, ptr %ek, align 4, !dbg !1965, !noundef !29
  %4 = icmp eq i32 %_10, 2, !dbg !1965
  br i1 %4, label %bb5, label %bb6, !dbg !1965

bb5:                                              ; preds = %bb4
  %v6 = load i32, ptr %ek, align 4, !dbg !1965, !noundef !29
  store i32 %v6, ptr %v.dbg.spill7, align 4, !dbg !1965
  call void @llvm.dbg.declare(metadata ptr %v.dbg.spill7, metadata !1847, metadata !DIExpression()), !dbg !1969
  store i8 2, ptr %_0, align 1, !dbg !1969
  br label %bb83, !dbg !1965

bb6:                                              ; preds = %bb4
  store ptr %ek, ptr %v.dbg.spill8, align 8, !dbg !1965
  call void @llvm.dbg.declare(metadata ptr %v.dbg.spill8, metadata !1852, metadata !DIExpression()), !dbg !1970
  %_13 = load i32, ptr %ek, align 4, !dbg !1965, !noundef !29
  %5 = icmp eq i32 %_13, 3, !dbg !1965
  br i1 %5, label %bb7, label %bb8, !dbg !1965

bb7:                                              ; preds = %bb6
  %v9 = load i32, ptr %ek, align 4, !dbg !1965, !noundef !29
  store i32 %v9, ptr %v.dbg.spill10, align 4, !dbg !1965
  call void @llvm.dbg.declare(metadata ptr %v.dbg.spill10, metadata !1850, metadata !DIExpression()), !dbg !1970
  store i8 3, ptr %_0, align 1, !dbg !1970
  br label %bb83, !dbg !1965

bb8:                                              ; preds = %bb6
  store ptr %ek, ptr %v.dbg.spill11, align 8, !dbg !1965
  call void @llvm.dbg.declare(metadata ptr %v.dbg.spill11, metadata !1855, metadata !DIExpression()), !dbg !1971
  %_16 = load i32, ptr %ek, align 4, !dbg !1965, !noundef !29
  %6 = icmp eq i32 %_16, 4, !dbg !1965
  br i1 %6, label %bb9, label %bb10, !dbg !1965

bb9:                                              ; preds = %bb8
  %v12 = load i32, ptr %ek, align 4, !dbg !1965, !noundef !29
  store i32 %v12, ptr %v.dbg.spill13, align 4, !dbg !1965
  call void @llvm.dbg.declare(metadata ptr %v.dbg.spill13, metadata !1853, metadata !DIExpression()), !dbg !1971
  store i8 4, ptr %_0, align 1, !dbg !1971
  br label %bb83, !dbg !1965

bb10:                                             ; preds = %bb8
  store ptr %ek, ptr %v.dbg.spill14, align 8, !dbg !1965
  call void @llvm.dbg.declare(metadata ptr %v.dbg.spill14, metadata !1858, metadata !DIExpression()), !dbg !1972
  %_19 = load i32, ptr %ek, align 4, !dbg !1965, !noundef !29
  %7 = icmp eq i32 %_19, 5, !dbg !1965
  br i1 %7, label %bb11, label %bb12, !dbg !1965

bb11:                                             ; preds = %bb10
  %v15 = load i32, ptr %ek, align 4, !dbg !1965, !noundef !29
  store i32 %v15, ptr %v.dbg.spill16, align 4, !dbg !1965
  call void @llvm.dbg.declare(metadata ptr %v.dbg.spill16, metadata !1856, metadata !DIExpression()), !dbg !1972
  store i8 5, ptr %_0, align 1, !dbg !1972
  br label %bb83, !dbg !1965

bb12:                                             ; preds = %bb10
  store ptr %ek, ptr %v.dbg.spill17, align 8, !dbg !1965
  call void @llvm.dbg.declare(metadata ptr %v.dbg.spill17, metadata !1861, metadata !DIExpression()), !dbg !1973
  %_22 = load i32, ptr %ek, align 4, !dbg !1965, !noundef !29
  %8 = icmp eq i32 %_22, 6, !dbg !1965
  br i1 %8, label %bb13, label %bb14, !dbg !1965

bb13:                                             ; preds = %bb12
  %v18 = load i32, ptr %ek, align 4, !dbg !1965, !noundef !29
  store i32 %v18, ptr %v.dbg.spill19, align 4, !dbg !1965
  call void @llvm.dbg.declare(metadata ptr %v.dbg.spill19, metadata !1859, metadata !DIExpression()), !dbg !1973
  store i8 6, ptr %_0, align 1, !dbg !1973
  br label %bb83, !dbg !1965

bb14:                                             ; preds = %bb12
  store ptr %ek, ptr %v.dbg.spill20, align 8, !dbg !1965
  call void @llvm.dbg.declare(metadata ptr %v.dbg.spill20, metadata !1864, metadata !DIExpression()), !dbg !1974
  %_25 = load i32, ptr %ek, align 4, !dbg !1965, !noundef !29
  %9 = icmp eq i32 %_25, 7, !dbg !1965
  br i1 %9, label %bb15, label %bb16, !dbg !1965

bb15:                                             ; preds = %bb14
  %v21 = load i32, ptr %ek, align 4, !dbg !1965, !noundef !29
  store i32 %v21, ptr %v.dbg.spill22, align 4, !dbg !1965
  call void @llvm.dbg.declare(metadata ptr %v.dbg.spill22, metadata !1862, metadata !DIExpression()), !dbg !1974
  store i8 7, ptr %_0, align 1, !dbg !1974
  br label %bb83, !dbg !1965

bb16:                                             ; preds = %bb14
  store ptr %ek, ptr %v.dbg.spill23, align 8, !dbg !1965
  call void @llvm.dbg.declare(metadata ptr %v.dbg.spill23, metadata !1867, metadata !DIExpression()), !dbg !1975
  %_28 = load i32, ptr %ek, align 4, !dbg !1965, !noundef !29
  %10 = icmp eq i32 %_28, 8, !dbg !1965
  br i1 %10, label %bb17, label %bb18, !dbg !1965

bb17:                                             ; preds = %bb16
  %v24 = load i32, ptr %ek, align 4, !dbg !1965, !noundef !29
  store i32 %v24, ptr %v.dbg.spill25, align 4, !dbg !1965
  call void @llvm.dbg.declare(metadata ptr %v.dbg.spill25, metadata !1865, metadata !DIExpression()), !dbg !1975
  store i8 8, ptr %_0, align 1, !dbg !1975
  br label %bb83, !dbg !1965

bb18:                                             ; preds = %bb16
  store ptr %ek, ptr %v.dbg.spill26, align 8, !dbg !1965
  call void @llvm.dbg.declare(metadata ptr %v.dbg.spill26, metadata !1870, metadata !DIExpression()), !dbg !1976
  %_31 = load i32, ptr %ek, align 4, !dbg !1965, !noundef !29
  %11 = icmp eq i32 %_31, 9, !dbg !1965
  br i1 %11, label %bb19, label %bb20, !dbg !1965

bb19:                                             ; preds = %bb18
  %v27 = load i32, ptr %ek, align 4, !dbg !1965, !noundef !29
  store i32 %v27, ptr %v.dbg.spill28, align 4, !dbg !1965
  call void @llvm.dbg.declare(metadata ptr %v.dbg.spill28, metadata !1868, metadata !DIExpression()), !dbg !1976
  store i8 9, ptr %_0, align 1, !dbg !1976
  br label %bb83, !dbg !1965

bb20:                                             ; preds = %bb18
  store ptr %ek, ptr %v.dbg.spill29, align 8, !dbg !1965
  call void @llvm.dbg.declare(metadata ptr %v.dbg.spill29, metadata !1873, metadata !DIExpression()), !dbg !1977
  %_34 = load i32, ptr %ek, align 4, !dbg !1965, !noundef !29
  %12 = icmp eq i32 %_34, 10, !dbg !1965
  br i1 %12, label %bb21, label %bb22, !dbg !1965

bb21:                                             ; preds = %bb20
  %v30 = load i32, ptr %ek, align 4, !dbg !1965, !noundef !29
  store i32 %v30, ptr %v.dbg.spill31, align 4, !dbg !1965
  call void @llvm.dbg.declare(metadata ptr %v.dbg.spill31, metadata !1871, metadata !DIExpression()), !dbg !1977
  store i8 10, ptr %_0, align 1, !dbg !1977
  br label %bb83, !dbg !1965

bb22:                                             ; preds = %bb20
  store ptr %ek, ptr %v.dbg.spill32, align 8, !dbg !1965
  call void @llvm.dbg.declare(metadata ptr %v.dbg.spill32, metadata !1876, metadata !DIExpression()), !dbg !1978
  %_37 = load i32, ptr %ek, align 4, !dbg !1965, !noundef !29
  %13 = icmp eq i32 %_37, 11, !dbg !1965
  br i1 %13, label %bb23, label %bb24, !dbg !1965

bb23:                                             ; preds = %bb22
  %v33 = load i32, ptr %ek, align 4, !dbg !1965, !noundef !29
  store i32 %v33, ptr %v.dbg.spill34, align 4, !dbg !1965
  call void @llvm.dbg.declare(metadata ptr %v.dbg.spill34, metadata !1874, metadata !DIExpression()), !dbg !1978
  store i8 11, ptr %_0, align 1, !dbg !1978
  br label %bb83, !dbg !1965

bb24:                                             ; preds = %bb22
  store ptr %ek, ptr %v.dbg.spill35, align 8, !dbg !1965
  call void @llvm.dbg.declare(metadata ptr %v.dbg.spill35, metadata !1879, metadata !DIExpression()), !dbg !1979
  %_40 = load i32, ptr %ek, align 4, !dbg !1965, !noundef !29
  %14 = icmp eq i32 %_40, 12, !dbg !1965
  br i1 %14, label %bb25, label %bb26, !dbg !1965

bb25:                                             ; preds = %bb24
  %v36 = load i32, ptr %ek, align 4, !dbg !1965, !noundef !29
  store i32 %v36, ptr %v.dbg.spill37, align 4, !dbg !1965
  call void @llvm.dbg.declare(metadata ptr %v.dbg.spill37, metadata !1877, metadata !DIExpression()), !dbg !1979
  store i8 12, ptr %_0, align 1, !dbg !1979
  br label %bb83, !dbg !1965

bb26:                                             ; preds = %bb24
  store ptr %ek, ptr %v.dbg.spill38, align 8, !dbg !1965
  call void @llvm.dbg.declare(metadata ptr %v.dbg.spill38, metadata !1882, metadata !DIExpression()), !dbg !1980
  %_43 = load i32, ptr %ek, align 4, !dbg !1965, !noundef !29
  %15 = icmp eq i32 %_43, 13, !dbg !1965
  br i1 %15, label %bb27, label %bb28, !dbg !1965

bb27:                                             ; preds = %bb26
  %v39 = load i32, ptr %ek, align 4, !dbg !1965, !noundef !29
  store i32 %v39, ptr %v.dbg.spill40, align 4, !dbg !1965
  call void @llvm.dbg.declare(metadata ptr %v.dbg.spill40, metadata !1880, metadata !DIExpression()), !dbg !1980
  store i8 13, ptr %_0, align 1, !dbg !1980
  br label %bb83, !dbg !1965

bb28:                                             ; preds = %bb26
  store ptr %ek, ptr %v.dbg.spill41, align 8, !dbg !1965
  call void @llvm.dbg.declare(metadata ptr %v.dbg.spill41, metadata !1885, metadata !DIExpression()), !dbg !1981
  %_46 = load i32, ptr %ek, align 4, !dbg !1965, !noundef !29
  %16 = icmp eq i32 %_46, 14, !dbg !1965
  br i1 %16, label %bb29, label %bb30, !dbg !1965

bb29:                                             ; preds = %bb28
  %v42 = load i32, ptr %ek, align 4, !dbg !1965, !noundef !29
  store i32 %v42, ptr %v.dbg.spill43, align 4, !dbg !1965
  call void @llvm.dbg.declare(metadata ptr %v.dbg.spill43, metadata !1883, metadata !DIExpression()), !dbg !1981
  store i8 14, ptr %_0, align 1, !dbg !1981
  br label %bb83, !dbg !1965

bb30:                                             ; preds = %bb28
  store ptr %ek, ptr %v.dbg.spill44, align 8, !dbg !1965
  call void @llvm.dbg.declare(metadata ptr %v.dbg.spill44, metadata !1888, metadata !DIExpression()), !dbg !1982
  %_49 = load i32, ptr %ek, align 4, !dbg !1965, !noundef !29
  %17 = icmp eq i32 %_49, 15, !dbg !1965
  br i1 %17, label %bb31, label %bb32, !dbg !1965

bb31:                                             ; preds = %bb30
  %v45 = load i32, ptr %ek, align 4, !dbg !1965, !noundef !29
  store i32 %v45, ptr %v.dbg.spill46, align 4, !dbg !1965
  call void @llvm.dbg.declare(metadata ptr %v.dbg.spill46, metadata !1886, metadata !DIExpression()), !dbg !1982
  store i8 15, ptr %_0, align 1, !dbg !1982
  br label %bb83, !dbg !1965

bb32:                                             ; preds = %bb30
  store ptr %ek, ptr %v.dbg.spill47, align 8, !dbg !1965
  call void @llvm.dbg.declare(metadata ptr %v.dbg.spill47, metadata !1891, metadata !DIExpression()), !dbg !1983
  %_52 = load i32, ptr %ek, align 4, !dbg !1965, !noundef !29
  %18 = icmp eq i32 %_52, 16, !dbg !1965
  br i1 %18, label %bb33, label %bb34, !dbg !1965

bb33:                                             ; preds = %bb32
  %v48 = load i32, ptr %ek, align 4, !dbg !1965, !noundef !29
  store i32 %v48, ptr %v.dbg.spill49, align 4, !dbg !1965
  call void @llvm.dbg.declare(metadata ptr %v.dbg.spill49, metadata !1889, metadata !DIExpression()), !dbg !1983
  store i8 16, ptr %_0, align 1, !dbg !1983
  br label %bb83, !dbg !1965

bb34:                                             ; preds = %bb32
  store ptr %ek, ptr %v.dbg.spill50, align 8, !dbg !1965
  call void @llvm.dbg.declare(metadata ptr %v.dbg.spill50, metadata !1894, metadata !DIExpression()), !dbg !1984
  %_55 = load i32, ptr %ek, align 4, !dbg !1965, !noundef !29
  %19 = icmp eq i32 %_55, 17, !dbg !1965
  br i1 %19, label %bb35, label %bb36, !dbg !1965

bb35:                                             ; preds = %bb34
  %v51 = load i32, ptr %ek, align 4, !dbg !1965, !noundef !29
  store i32 %v51, ptr %v.dbg.spill52, align 4, !dbg !1965
  call void @llvm.dbg.declare(metadata ptr %v.dbg.spill52, metadata !1892, metadata !DIExpression()), !dbg !1984
  store i8 17, ptr %_0, align 1, !dbg !1984
  br label %bb83, !dbg !1965

bb36:                                             ; preds = %bb34
  store ptr %ek, ptr %v.dbg.spill53, align 8, !dbg !1965
  call void @llvm.dbg.declare(metadata ptr %v.dbg.spill53, metadata !1897, metadata !DIExpression()), !dbg !1985
  %_58 = load i32, ptr %ek, align 4, !dbg !1965, !noundef !29
  %20 = icmp eq i32 %_58, 18, !dbg !1965
  br i1 %20, label %bb37, label %bb38, !dbg !1965

bb37:                                             ; preds = %bb36
  %v54 = load i32, ptr %ek, align 4, !dbg !1965, !noundef !29
  store i32 %v54, ptr %v.dbg.spill55, align 4, !dbg !1965
  call void @llvm.dbg.declare(metadata ptr %v.dbg.spill55, metadata !1895, metadata !DIExpression()), !dbg !1985
  store i8 18, ptr %_0, align 1, !dbg !1985
  br label %bb83, !dbg !1965

bb38:                                             ; preds = %bb36
  store ptr %ek, ptr %v.dbg.spill56, align 8, !dbg !1965
  call void @llvm.dbg.declare(metadata ptr %v.dbg.spill56, metadata !1900, metadata !DIExpression()), !dbg !1986
  %_61 = load i32, ptr %ek, align 4, !dbg !1965, !noundef !29
  %21 = icmp eq i32 %_61, 19, !dbg !1965
  br i1 %21, label %bb39, label %bb40, !dbg !1965

bb39:                                             ; preds = %bb38
  %v57 = load i32, ptr %ek, align 4, !dbg !1965, !noundef !29
  store i32 %v57, ptr %v.dbg.spill58, align 4, !dbg !1965
  call void @llvm.dbg.declare(metadata ptr %v.dbg.spill58, metadata !1898, metadata !DIExpression()), !dbg !1986
  store i8 19, ptr %_0, align 1, !dbg !1986
  br label %bb83, !dbg !1965

bb40:                                             ; preds = %bb38
  store ptr %ek, ptr %v.dbg.spill59, align 8, !dbg !1965
  call void @llvm.dbg.declare(metadata ptr %v.dbg.spill59, metadata !1903, metadata !DIExpression()), !dbg !1987
  %_64 = load i32, ptr %ek, align 4, !dbg !1965, !noundef !29
  %22 = icmp eq i32 %_64, 20, !dbg !1965
  br i1 %22, label %bb41, label %bb42, !dbg !1965

bb41:                                             ; preds = %bb40
  %v60 = load i32, ptr %ek, align 4, !dbg !1965, !noundef !29
  store i32 %v60, ptr %v.dbg.spill61, align 4, !dbg !1965
  call void @llvm.dbg.declare(metadata ptr %v.dbg.spill61, metadata !1901, metadata !DIExpression()), !dbg !1987
  store i8 20, ptr %_0, align 1, !dbg !1987
  br label %bb83, !dbg !1965

bb42:                                             ; preds = %bb40
  store ptr %ek, ptr %v.dbg.spill62, align 8, !dbg !1965
  call void @llvm.dbg.declare(metadata ptr %v.dbg.spill62, metadata !1906, metadata !DIExpression()), !dbg !1988
  %_67 = load i32, ptr %ek, align 4, !dbg !1965, !noundef !29
  %23 = icmp eq i32 %_67, 21, !dbg !1965
  br i1 %23, label %bb43, label %bb44, !dbg !1965

bb43:                                             ; preds = %bb42
  %v63 = load i32, ptr %ek, align 4, !dbg !1965, !noundef !29
  store i32 %v63, ptr %v.dbg.spill64, align 4, !dbg !1965
  call void @llvm.dbg.declare(metadata ptr %v.dbg.spill64, metadata !1904, metadata !DIExpression()), !dbg !1988
  store i8 21, ptr %_0, align 1, !dbg !1988
  br label %bb83, !dbg !1965

bb44:                                             ; preds = %bb42
  store ptr %ek, ptr %v.dbg.spill65, align 8, !dbg !1965
  call void @llvm.dbg.declare(metadata ptr %v.dbg.spill65, metadata !1909, metadata !DIExpression()), !dbg !1989
  %_70 = load i32, ptr %ek, align 4, !dbg !1965, !noundef !29
  %24 = icmp eq i32 %_70, 22, !dbg !1965
  br i1 %24, label %bb45, label %bb46, !dbg !1965

bb45:                                             ; preds = %bb44
  %v66 = load i32, ptr %ek, align 4, !dbg !1965, !noundef !29
  store i32 %v66, ptr %v.dbg.spill67, align 4, !dbg !1965
  call void @llvm.dbg.declare(metadata ptr %v.dbg.spill67, metadata !1907, metadata !DIExpression()), !dbg !1989
  store i8 22, ptr %_0, align 1, !dbg !1989
  br label %bb83, !dbg !1965

bb46:                                             ; preds = %bb44
  store ptr %ek, ptr %v.dbg.spill68, align 8, !dbg !1965
  call void @llvm.dbg.declare(metadata ptr %v.dbg.spill68, metadata !1912, metadata !DIExpression()), !dbg !1990
  %_73 = load i32, ptr %ek, align 4, !dbg !1965, !noundef !29
  %25 = icmp eq i32 %_73, 23, !dbg !1965
  br i1 %25, label %bb47, label %bb48, !dbg !1965

bb47:                                             ; preds = %bb46
  %v69 = load i32, ptr %ek, align 4, !dbg !1965, !noundef !29
  store i32 %v69, ptr %v.dbg.spill70, align 4, !dbg !1965
  call void @llvm.dbg.declare(metadata ptr %v.dbg.spill70, metadata !1910, metadata !DIExpression()), !dbg !1990
  store i8 23, ptr %_0, align 1, !dbg !1990
  br label %bb83, !dbg !1965

bb48:                                             ; preds = %bb46
  store ptr %ek, ptr %v.dbg.spill71, align 8, !dbg !1965
  call void @llvm.dbg.declare(metadata ptr %v.dbg.spill71, metadata !1915, metadata !DIExpression()), !dbg !1991
  %_76 = load i32, ptr %ek, align 4, !dbg !1965, !noundef !29
  %26 = icmp eq i32 %_76, 24, !dbg !1965
  br i1 %26, label %bb49, label %bb50, !dbg !1965

bb49:                                             ; preds = %bb48
  %v72 = load i32, ptr %ek, align 4, !dbg !1965, !noundef !29
  store i32 %v72, ptr %v.dbg.spill73, align 4, !dbg !1965
  call void @llvm.dbg.declare(metadata ptr %v.dbg.spill73, metadata !1913, metadata !DIExpression()), !dbg !1991
  store i8 24, ptr %_0, align 1, !dbg !1991
  br label %bb83, !dbg !1965

bb50:                                             ; preds = %bb48
  store ptr %ek, ptr %v.dbg.spill74, align 8, !dbg !1965
  call void @llvm.dbg.declare(metadata ptr %v.dbg.spill74, metadata !1918, metadata !DIExpression()), !dbg !1992
  %_79 = load i32, ptr %ek, align 4, !dbg !1965, !noundef !29
  %27 = icmp eq i32 %_79, 25, !dbg !1965
  br i1 %27, label %bb51, label %bb52, !dbg !1965

bb51:                                             ; preds = %bb50
  %v75 = load i32, ptr %ek, align 4, !dbg !1965, !noundef !29
  store i32 %v75, ptr %v.dbg.spill76, align 4, !dbg !1965
  call void @llvm.dbg.declare(metadata ptr %v.dbg.spill76, metadata !1916, metadata !DIExpression()), !dbg !1992
  store i8 25, ptr %_0, align 1, !dbg !1992
  br label %bb83, !dbg !1965

bb52:                                             ; preds = %bb50
  store ptr %ek, ptr %v.dbg.spill77, align 8, !dbg !1965
  call void @llvm.dbg.declare(metadata ptr %v.dbg.spill77, metadata !1921, metadata !DIExpression()), !dbg !1993
  %_82 = load i32, ptr %ek, align 4, !dbg !1965, !noundef !29
  %28 = icmp eq i32 %_82, 26, !dbg !1965
  br i1 %28, label %bb53, label %bb54, !dbg !1965

bb53:                                             ; preds = %bb52
  %v78 = load i32, ptr %ek, align 4, !dbg !1965, !noundef !29
  store i32 %v78, ptr %v.dbg.spill79, align 4, !dbg !1965
  call void @llvm.dbg.declare(metadata ptr %v.dbg.spill79, metadata !1919, metadata !DIExpression()), !dbg !1993
  store i8 26, ptr %_0, align 1, !dbg !1993
  br label %bb83, !dbg !1965

bb54:                                             ; preds = %bb52
  store ptr %ek, ptr %v.dbg.spill80, align 8, !dbg !1965
  call void @llvm.dbg.declare(metadata ptr %v.dbg.spill80, metadata !1924, metadata !DIExpression()), !dbg !1994
  %_85 = load i32, ptr %ek, align 4, !dbg !1965, !noundef !29
  %29 = icmp eq i32 %_85, 27, !dbg !1965
  br i1 %29, label %bb55, label %bb56, !dbg !1965

bb55:                                             ; preds = %bb54
  %v81 = load i32, ptr %ek, align 4, !dbg !1965, !noundef !29
  store i32 %v81, ptr %v.dbg.spill82, align 4, !dbg !1965
  call void @llvm.dbg.declare(metadata ptr %v.dbg.spill82, metadata !1922, metadata !DIExpression()), !dbg !1994
  store i8 27, ptr %_0, align 1, !dbg !1994
  br label %bb83, !dbg !1965

bb56:                                             ; preds = %bb54
  store ptr %ek, ptr %v.dbg.spill83, align 8, !dbg !1965
  call void @llvm.dbg.declare(metadata ptr %v.dbg.spill83, metadata !1927, metadata !DIExpression()), !dbg !1995
  %_88 = load i32, ptr %ek, align 4, !dbg !1965, !noundef !29
  %30 = icmp eq i32 %_88, 28, !dbg !1965
  br i1 %30, label %bb57, label %bb58, !dbg !1965

bb57:                                             ; preds = %bb56
  %v84 = load i32, ptr %ek, align 4, !dbg !1965, !noundef !29
  store i32 %v84, ptr %v.dbg.spill85, align 4, !dbg !1965
  call void @llvm.dbg.declare(metadata ptr %v.dbg.spill85, metadata !1925, metadata !DIExpression()), !dbg !1995
  store i8 28, ptr %_0, align 1, !dbg !1995
  br label %bb83, !dbg !1965

bb58:                                             ; preds = %bb56
  store ptr %ek, ptr %v.dbg.spill86, align 8, !dbg !1965
  call void @llvm.dbg.declare(metadata ptr %v.dbg.spill86, metadata !1930, metadata !DIExpression()), !dbg !1996
  %_91 = load i32, ptr %ek, align 4, !dbg !1965, !noundef !29
  %31 = icmp eq i32 %_91, 29, !dbg !1965
  br i1 %31, label %bb59, label %bb60, !dbg !1965

bb59:                                             ; preds = %bb58
  %v87 = load i32, ptr %ek, align 4, !dbg !1965, !noundef !29
  store i32 %v87, ptr %v.dbg.spill88, align 4, !dbg !1965
  call void @llvm.dbg.declare(metadata ptr %v.dbg.spill88, metadata !1928, metadata !DIExpression()), !dbg !1996
  store i8 29, ptr %_0, align 1, !dbg !1996
  br label %bb83, !dbg !1965

bb60:                                             ; preds = %bb58
  store ptr %ek, ptr %v.dbg.spill89, align 8, !dbg !1965
  call void @llvm.dbg.declare(metadata ptr %v.dbg.spill89, metadata !1933, metadata !DIExpression()), !dbg !1997
  %_94 = load i32, ptr %ek, align 4, !dbg !1965, !noundef !29
  %32 = icmp eq i32 %_94, 30, !dbg !1965
  br i1 %32, label %bb61, label %bb62, !dbg !1965

bb61:                                             ; preds = %bb60
  %v90 = load i32, ptr %ek, align 4, !dbg !1965, !noundef !29
  store i32 %v90, ptr %v.dbg.spill91, align 4, !dbg !1965
  call void @llvm.dbg.declare(metadata ptr %v.dbg.spill91, metadata !1931, metadata !DIExpression()), !dbg !1997
  store i8 30, ptr %_0, align 1, !dbg !1997
  br label %bb83, !dbg !1965

bb62:                                             ; preds = %bb60
  store ptr %ek, ptr %v.dbg.spill92, align 8, !dbg !1965
  call void @llvm.dbg.declare(metadata ptr %v.dbg.spill92, metadata !1936, metadata !DIExpression()), !dbg !1998
  %_97 = load i32, ptr %ek, align 4, !dbg !1965, !noundef !29
  %33 = icmp eq i32 %_97, 31, !dbg !1965
  br i1 %33, label %bb63, label %bb64, !dbg !1965

bb63:                                             ; preds = %bb62
  %v93 = load i32, ptr %ek, align 4, !dbg !1965, !noundef !29
  store i32 %v93, ptr %v.dbg.spill94, align 4, !dbg !1965
  call void @llvm.dbg.declare(metadata ptr %v.dbg.spill94, metadata !1934, metadata !DIExpression()), !dbg !1998
  store i8 31, ptr %_0, align 1, !dbg !1998
  br label %bb83, !dbg !1965

bb64:                                             ; preds = %bb62
  store ptr %ek, ptr %v.dbg.spill95, align 8, !dbg !1965
  call void @llvm.dbg.declare(metadata ptr %v.dbg.spill95, metadata !1939, metadata !DIExpression()), !dbg !1999
  %_100 = load i32, ptr %ek, align 4, !dbg !1965, !noundef !29
  %34 = icmp eq i32 %_100, 32, !dbg !1965
  br i1 %34, label %bb65, label %bb66, !dbg !1965

bb65:                                             ; preds = %bb64
  %v96 = load i32, ptr %ek, align 4, !dbg !1965, !noundef !29
  store i32 %v96, ptr %v.dbg.spill97, align 4, !dbg !1965
  call void @llvm.dbg.declare(metadata ptr %v.dbg.spill97, metadata !1937, metadata !DIExpression()), !dbg !1999
  store i8 32, ptr %_0, align 1, !dbg !1999
  br label %bb83, !dbg !1965

bb66:                                             ; preds = %bb64
  store ptr %ek, ptr %v.dbg.spill98, align 8, !dbg !1965
  call void @llvm.dbg.declare(metadata ptr %v.dbg.spill98, metadata !1942, metadata !DIExpression()), !dbg !2000
  %_103 = load i32, ptr %ek, align 4, !dbg !1965, !noundef !29
  %35 = icmp eq i32 %_103, 33, !dbg !1965
  br i1 %35, label %bb67, label %bb68, !dbg !1965

bb67:                                             ; preds = %bb66
  %v99 = load i32, ptr %ek, align 4, !dbg !1965, !noundef !29
  store i32 %v99, ptr %v.dbg.spill100, align 4, !dbg !1965
  call void @llvm.dbg.declare(metadata ptr %v.dbg.spill100, metadata !1940, metadata !DIExpression()), !dbg !2000
  store i8 33, ptr %_0, align 1, !dbg !2000
  br label %bb83, !dbg !1965

bb68:                                             ; preds = %bb66
  store ptr %ek, ptr %v.dbg.spill101, align 8, !dbg !1965
  call void @llvm.dbg.declare(metadata ptr %v.dbg.spill101, metadata !1945, metadata !DIExpression()), !dbg !2001
  %_106 = load i32, ptr %ek, align 4, !dbg !1965, !noundef !29
  %36 = icmp eq i32 %_106, 34, !dbg !1965
  br i1 %36, label %bb69, label %bb70, !dbg !1965

bb69:                                             ; preds = %bb68
  %v102 = load i32, ptr %ek, align 4, !dbg !1965, !noundef !29
  store i32 %v102, ptr %v.dbg.spill103, align 4, !dbg !1965
  call void @llvm.dbg.declare(metadata ptr %v.dbg.spill103, metadata !1943, metadata !DIExpression()), !dbg !2001
  store i8 34, ptr %_0, align 1, !dbg !2001
  br label %bb83, !dbg !1965

bb70:                                             ; preds = %bb68
  store ptr %ek, ptr %v.dbg.spill104, align 8, !dbg !1965
  call void @llvm.dbg.declare(metadata ptr %v.dbg.spill104, metadata !1948, metadata !DIExpression()), !dbg !2002
  %_109 = load i32, ptr %ek, align 4, !dbg !1965, !noundef !29
  %37 = icmp eq i32 %_109, 35, !dbg !1965
  br i1 %37, label %bb71, label %bb72, !dbg !1965

bb71:                                             ; preds = %bb70
  %v105 = load i32, ptr %ek, align 4, !dbg !1965, !noundef !29
  store i32 %v105, ptr %v.dbg.spill106, align 4, !dbg !1965
  call void @llvm.dbg.declare(metadata ptr %v.dbg.spill106, metadata !1946, metadata !DIExpression()), !dbg !2002
  store i8 35, ptr %_0, align 1, !dbg !2002
  br label %bb83, !dbg !1965

bb72:                                             ; preds = %bb70
  store ptr %ek, ptr %v.dbg.spill107, align 8, !dbg !1965
  call void @llvm.dbg.declare(metadata ptr %v.dbg.spill107, metadata !1951, metadata !DIExpression()), !dbg !2003
  %_112 = load i32, ptr %ek, align 4, !dbg !1965, !noundef !29
  %38 = icmp eq i32 %_112, 39, !dbg !1965
  br i1 %38, label %bb73, label %bb74, !dbg !1965

bb73:                                             ; preds = %bb72
  %v108 = load i32, ptr %ek, align 4, !dbg !1965, !noundef !29
  store i32 %v108, ptr %v.dbg.spill109, align 4, !dbg !1965
  call void @llvm.dbg.declare(metadata ptr %v.dbg.spill109, metadata !1949, metadata !DIExpression()), !dbg !2003
  store i8 39, ptr %_0, align 1, !dbg !2003
  br label %bb83, !dbg !1965

bb74:                                             ; preds = %bb72
  store ptr %ek, ptr %v.dbg.spill110, align 8, !dbg !1965
  call void @llvm.dbg.declare(metadata ptr %v.dbg.spill110, metadata !1954, metadata !DIExpression()), !dbg !2004
  %_115 = load i32, ptr %ek, align 4, !dbg !1965, !noundef !29
  %39 = icmp eq i32 %_115, 37, !dbg !1965
  br i1 %39, label %bb75, label %bb76, !dbg !1965

bb75:                                             ; preds = %bb74
  %v111 = load i32, ptr %ek, align 4, !dbg !1965, !noundef !29
  store i32 %v111, ptr %v.dbg.spill112, align 4, !dbg !1965
  call void @llvm.dbg.declare(metadata ptr %v.dbg.spill112, metadata !1952, metadata !DIExpression()), !dbg !2004
  store i8 37, ptr %_0, align 1, !dbg !2004
  br label %bb83, !dbg !1965

bb76:                                             ; preds = %bb74
  store ptr %ek, ptr %v.dbg.spill113, align 8, !dbg !1965
  call void @llvm.dbg.declare(metadata ptr %v.dbg.spill113, metadata !1957, metadata !DIExpression()), !dbg !2005
  %_118 = load i32, ptr %ek, align 4, !dbg !1965, !noundef !29
  %40 = icmp eq i32 %_118, 36, !dbg !1965
  br i1 %40, label %bb77, label %bb78, !dbg !1965

bb77:                                             ; preds = %bb76
  %v114 = load i32, ptr %ek, align 4, !dbg !1965, !noundef !29
  store i32 %v114, ptr %v.dbg.spill115, align 4, !dbg !1965
  call void @llvm.dbg.declare(metadata ptr %v.dbg.spill115, metadata !1955, metadata !DIExpression()), !dbg !2005
  store i8 36, ptr %_0, align 1, !dbg !2005
  br label %bb83, !dbg !1965

bb78:                                             ; preds = %bb76
  store ptr %ek, ptr %v.dbg.spill116, align 8, !dbg !1965
  call void @llvm.dbg.declare(metadata ptr %v.dbg.spill116, metadata !1960, metadata !DIExpression()), !dbg !2006
  %_121 = load i32, ptr %ek, align 4, !dbg !1965, !noundef !29
  %41 = icmp eq i32 %_121, 38, !dbg !1965
  br i1 %41, label %bb79, label %bb80, !dbg !1965

bb79:                                             ; preds = %bb78
  %v117 = load i32, ptr %ek, align 4, !dbg !1965, !noundef !29
  store i32 %v117, ptr %v.dbg.spill118, align 4, !dbg !1965
  call void @llvm.dbg.declare(metadata ptr %v.dbg.spill118, metadata !1958, metadata !DIExpression()), !dbg !2006
  store i8 38, ptr %_0, align 1, !dbg !2006
  br label %bb83, !dbg !1965

bb80:                                             ; preds = %bb78
  store ptr %ek, ptr %v.dbg.spill119, align 8, !dbg !1965
  call void @llvm.dbg.declare(metadata ptr %v.dbg.spill119, metadata !1963, metadata !DIExpression()), !dbg !2007
  %_124 = load i32, ptr %ek, align 4, !dbg !1965, !noundef !29
  %42 = icmp eq i32 %_124, 40, !dbg !1965
  br i1 %42, label %bb81, label %bb82, !dbg !1965

bb81:                                             ; preds = %bb80
  %v120 = load i32, ptr %ek, align 4, !dbg !1965, !noundef !29
  store i32 %v120, ptr %v.dbg.spill121, align 4, !dbg !1965
  call void @llvm.dbg.declare(metadata ptr %v.dbg.spill121, metadata !1961, metadata !DIExpression()), !dbg !2007
  store i8 40, ptr %_0, align 1, !dbg !2007
  br label %bb83, !dbg !1965

bb82:                                             ; preds = %bb80
  store i8 41, ptr %_0, align 1, !dbg !1965
  br label %bb83, !dbg !1965
}

; std::io::error::repr_bitpacked::Repr::data::{{closure}}
; Function Attrs: inlinehint uwtable
define align 8 ptr @"_ZN3std2io5error14repr_bitpacked4Repr4data28_$u7b$$u7b$closure$u7d$$u7d$17h1c6be1df34032ff1E"(ptr %c) unnamed_addr #0 !dbg !2008 {
start:
  %c.dbg.spill = alloca ptr, align 8
  %_1.dbg.spill = alloca %"{closure@std::io::error::repr_bitpacked::Repr::data::{closure#0}}", align 1
  call void @llvm.dbg.declare(metadata ptr %_1.dbg.spill, metadata !2013, metadata !DIExpression()), !dbg !2014
  store ptr %c, ptr %c.dbg.spill, align 8
  call void @llvm.dbg.declare(metadata ptr %c.dbg.spill, metadata !2012, metadata !DIExpression()), !dbg !2015
  ret ptr %c, !dbg !2016
}

; std::io::error::Error::is_interrupted
; Function Attrs: inlinehint uwtable
define internal zeroext i1 @_ZN3std2io5error5Error14is_interrupted17h55bc1ad157ccca7bE(ptr align 8 %self) unnamed_addr #0 !dbg !2017 {
start:
  %__self_tag.dbg.spill14 = alloca i64, align 8
  %self.dbg.spill12 = alloca ptr, align 8
  %c.dbg.spill = alloca ptr, align 8
  %__self_tag.dbg.spill10 = alloca i64, align 8
  %self.dbg.spill8 = alloca ptr, align 8
  %m.dbg.spill = alloca ptr, align 8
  %__self_tag.dbg.spill = alloca i64, align 8
  %self.dbg.spill6 = alloca ptr, align 8
  %code.dbg.spill = alloca i32, align 4
  %self.dbg.spill5 = alloca ptr, align 8
  %self.dbg.spill = alloca ptr, align 8
  %kind = alloca i8, align 1
  %_2 = alloca %"std::io::error::ErrorData<&std::io::error::Custom>", align 8
  %_0 = alloca i8, align 1
  %__arg1_tag.dbg.spill4 = alloca i64, align 8
  %other.dbg.spill3 = alloca ptr, align 8
  %__arg1_tag.dbg.spill2 = alloca i64, align 8
  %other.dbg.spill1 = alloca ptr, align 8
  %__arg1_tag.dbg.spill = alloca i64, align 8
  %other.dbg.spill = alloca ptr, align 8
  store ptr @alloc_915544995c76d19b0d8d87d991dcd459, ptr %other.dbg.spill, align 8, !dbg !2031
  call void @llvm.dbg.declare(metadata ptr %other.dbg.spill, metadata !2040, metadata !DIExpression()), !dbg !2031
  store i64 35, ptr %__arg1_tag.dbg.spill, align 8, !dbg !2060
  call void @llvm.dbg.declare(metadata ptr %__arg1_tag.dbg.spill, metadata !2043, metadata !DIExpression()), !dbg !2060
  store ptr @alloc_915544995c76d19b0d8d87d991dcd459, ptr %other.dbg.spill1, align 8, !dbg !2061
  call void @llvm.dbg.declare(metadata ptr %other.dbg.spill1, metadata !2047, metadata !DIExpression()), !dbg !2061
  store i64 35, ptr %__arg1_tag.dbg.spill2, align 8, !dbg !2063
  call void @llvm.dbg.declare(metadata ptr %__arg1_tag.dbg.spill2, metadata !2050, metadata !DIExpression()), !dbg !2063
  store ptr @alloc_915544995c76d19b0d8d87d991dcd459, ptr %other.dbg.spill3, align 8, !dbg !2064
  call void @llvm.dbg.declare(metadata ptr %other.dbg.spill3, metadata !2054, metadata !DIExpression()), !dbg !2064
  store i64 35, ptr %__arg1_tag.dbg.spill4, align 8, !dbg !2066
  call void @llvm.dbg.declare(metadata ptr %__arg1_tag.dbg.spill4, metadata !2057, metadata !DIExpression()), !dbg !2066
  store ptr %self, ptr %self.dbg.spill, align 8, !dbg !2066
  call void @llvm.dbg.declare(metadata ptr %self.dbg.spill, metadata !2022, metadata !DIExpression()), !dbg !2067
  call void @llvm.dbg.declare(metadata ptr %kind, metadata !2027, metadata !DIExpression()), !dbg !2068
  store ptr %self, ptr %self.dbg.spill5, align 8, !dbg !2069
  call void @llvm.dbg.declare(metadata ptr %self.dbg.spill5, metadata !2070, metadata !DIExpression()), !dbg !2078
  %_12 = load ptr, ptr %self, align 8, !dbg !2080, !nonnull !29, !noundef !29
; call std::io::error::repr_bitpacked::decode_repr
  call void @_ZN3std2io5error14repr_bitpacked11decode_repr17h2a2d0bd281a42b6fE(ptr sret(%"std::io::error::ErrorData<&std::io::error::Custom>") align 8 %_2, ptr %_12), !dbg !2081
  %0 = load i8, ptr %_2, align 8, !dbg !2069, !range !2082, !noundef !29
  %_4 = zext i8 %0 to i64, !dbg !2069
  switch i64 %_4, label %bb1 [
    i64 0, label %bb3
    i64 1, label %bb5
    i64 2, label %bb2
    i64 3, label %bb4
  ], !dbg !2083

bb1:                                              ; preds = %start
  unreachable, !dbg !2069

bb3:                                              ; preds = %start
  %1 = getelementptr inbounds i8, ptr %_2, i64 4, !dbg !2084
  %code = load i32, ptr %1, align 4, !dbg !2084, !noundef !29
  store i32 %code, ptr %code.dbg.spill, align 4, !dbg !2084
  call void @llvm.dbg.declare(metadata ptr %code.dbg.spill, metadata !2023, metadata !DIExpression()), !dbg !2085
  call void @llvm.dbg.declare(metadata ptr %code.dbg.spill, metadata !2086, metadata !DIExpression()), !dbg !2093
  %2 = icmp eq i32 %code, 4, !dbg !2095
  %3 = zext i1 %2 to i8, !dbg !2095
  store i8 %3, ptr %_0, align 1, !dbg !2095
  br label %bb6, !dbg !2096

bb5:                                              ; preds = %start
  %4 = getelementptr inbounds i8, ptr %_2, i64 1, !dbg !2097
  %5 = load i8, ptr %4, align 1, !dbg !2097, !range !1604, !noundef !29
  store i8 %5, ptr %kind, align 1, !dbg !2097
  store ptr %kind, ptr %self.dbg.spill6, align 8, !dbg !2065
  call void @llvm.dbg.declare(metadata ptr %self.dbg.spill6, metadata !2052, metadata !DIExpression()), !dbg !2064
  %6 = load i8, ptr %kind, align 1, !dbg !2064, !range !1604, !noundef !29
  %__self_tag = zext i8 %6 to i64, !dbg !2064
  store i64 %__self_tag, ptr %__self_tag.dbg.spill, align 8, !dbg !2064
  call void @llvm.dbg.declare(metadata ptr %__self_tag.dbg.spill, metadata !2055, metadata !DIExpression()), !dbg !2098
  %7 = icmp eq i64 %__self_tag, 35, !dbg !2066
  %8 = zext i1 %7 to i8, !dbg !2066
  store i8 %8, ptr %_0, align 1, !dbg !2066
  br label %bb6, !dbg !2099

bb2:                                              ; preds = %start
  %9 = getelementptr inbounds i8, ptr %_2, i64 8, !dbg !2100
  %m = load ptr, ptr %9, align 8, !dbg !2100, !nonnull !29, !align !854, !noundef !29
  store ptr %m, ptr %m.dbg.spill, align 8, !dbg !2100
  call void @llvm.dbg.declare(metadata ptr %m.dbg.spill, metadata !2029, metadata !DIExpression()), !dbg !2101
  %self7 = getelementptr inbounds i8, ptr %m, i64 16, !dbg !2059
  store ptr %self7, ptr %self.dbg.spill8, align 8, !dbg !2059
  call void @llvm.dbg.declare(metadata ptr %self.dbg.spill8, metadata !2039, metadata !DIExpression()), !dbg !2031
  %10 = getelementptr inbounds i8, ptr %m, i64 16, !dbg !2031
  %11 = load i8, ptr %10, align 8, !dbg !2031, !range !1604, !noundef !29
  %__self_tag9 = zext i8 %11 to i64, !dbg !2031
  store i64 %__self_tag9, ptr %__self_tag.dbg.spill10, align 8, !dbg !2031
  call void @llvm.dbg.declare(metadata ptr %__self_tag.dbg.spill10, metadata !2041, metadata !DIExpression()), !dbg !2102
  %12 = icmp eq i64 %__self_tag9, 35, !dbg !2060
  %13 = zext i1 %12 to i8, !dbg !2060
  store i8 %13, ptr %_0, align 1, !dbg !2060
  br label %bb6, !dbg !2103

bb4:                                              ; preds = %start
  %14 = getelementptr inbounds i8, ptr %_2, i64 8, !dbg !2104
  %c = load ptr, ptr %14, align 8, !dbg !2104, !nonnull !29, !align !854, !noundef !29
  store ptr %c, ptr %c.dbg.spill, align 8, !dbg !2104
  call void @llvm.dbg.declare(metadata ptr %c.dbg.spill, metadata !2025, metadata !DIExpression()), !dbg !2105
  %self11 = getelementptr inbounds i8, ptr %c, i64 16, !dbg !2062
  store ptr %self11, ptr %self.dbg.spill12, align 8, !dbg !2062
  call void @llvm.dbg.declare(metadata ptr %self.dbg.spill12, metadata !2045, metadata !DIExpression()), !dbg !2061
  %15 = getelementptr inbounds i8, ptr %c, i64 16, !dbg !2061
  %16 = load i8, ptr %15, align 8, !dbg !2061, !range !1604, !noundef !29
  %__self_tag13 = zext i8 %16 to i64, !dbg !2061
  store i64 %__self_tag13, ptr %__self_tag.dbg.spill14, align 8, !dbg !2061
  call void @llvm.dbg.declare(metadata ptr %__self_tag.dbg.spill14, metadata !2048, metadata !DIExpression()), !dbg !2106
  %17 = icmp eq i64 %__self_tag13, 35, !dbg !2063
  %18 = zext i1 %17 to i8, !dbg !2063
  store i8 %18, ptr %_0, align 1, !dbg !2063
  br label %bb6, !dbg !2107

bb6:                                              ; preds = %bb4, %bb2, %bb5, %bb3
  %19 = load i8, ptr %_0, align 1, !dbg !2108, !range !662, !noundef !29
  %20 = trunc i8 %19 to i1, !dbg !2108
  ret i1 %20, !dbg !2108
}

; std::sys::thread_local::fast_local::Key<T>::try_initialize
; Function Attrs: noinline uwtable
define align 8 ptr @"_ZN3std3sys12thread_local10fast_local12Key$LT$T$GT$14try_initialize17he40c6b5d193e11c5E"(ptr align 8 %self, ptr align 8 %init) unnamed_addr #2 personality ptr @rust_eh_personality !dbg !2109 {
start:
  %0 = alloca { ptr, i32, [1 x i32] }, align 8
  %1 = alloca i8, align 1
  %init.dbg.spill = alloca ptr, align 8
  %self.dbg.spill = alloca ptr, align 8
  %_8 = alloca i8, align 1
  %_0 = alloca ptr, align 8
  store ptr %self, ptr %self.dbg.spill, align 8
  call void @llvm.dbg.declare(metadata ptr %self.dbg.spill, metadata !2148, metadata !DIExpression()), !dbg !2150
  store ptr %init, ptr %init.dbg.spill, align 8
  call void @llvm.dbg.declare(metadata ptr %init.dbg.spill, metadata !2149, metadata !DIExpression()), !dbg !2151
  store i8 1, ptr %_8, align 1, !dbg !2152
  store i8 1, ptr %1, align 1, !dbg !2153
  %2 = load i8, ptr %1, align 1, !dbg !2153, !range !662, !noundef !29
  %_3 = trunc i8 %2 to i1, !dbg !2153
  br i1 %_3, label %bb1, label %bb3, !dbg !2152

bb3:                                              ; preds = %bb2, %start
  store i8 0, ptr %_8, align 1, !dbg !2160
; invoke std::sys::thread_local::lazy::LazyKeyInner<T>::initialize
  %_5 = invoke align 8 ptr @"_ZN3std3sys12thread_local4lazy21LazyKeyInner$LT$T$GT$10initialize17hc5523e61db7dfd1bE"(ptr align 8 %self, ptr align 8 %init)
          to label %bb4 unwind label %cleanup, !dbg !2161

bb1:                                              ; preds = %start
; invoke std::sys::thread_local::fast_local::Key<T>::try_register_dtor
  %_4 = invoke zeroext i1 @"_ZN3std3sys12thread_local10fast_local12Key$LT$T$GT$17try_register_dtor17h900a725ac4565a24E"(ptr align 8 %self)
          to label %bb2 unwind label %cleanup, !dbg !2162

bb9:                                              ; preds = %cleanup
  %3 = load i8, ptr %_8, align 1, !dbg !2163, !range !662, !noundef !29
  %4 = trunc i8 %3 to i1, !dbg !2163
  br i1 %4, label %bb8, label %bb7, !dbg !2163

cleanup:                                          ; preds = %bb3, %bb1
  %5 = landingpad { ptr, i32 }
          cleanup
  %6 = extractvalue { ptr, i32 } %5, 0
  %7 = extractvalue { ptr, i32 } %5, 1
  store ptr %6, ptr %0, align 8
  %8 = getelementptr inbounds i8, ptr %0, i64 8
  store i32 %7, ptr %8, align 8
  br label %bb9

bb2:                                              ; preds = %bb1
  br i1 %_4, label %bb3, label %bb5, !dbg !2164

bb5:                                              ; preds = %bb2
  store ptr null, ptr %_0, align 8, !dbg !2165
  br label %bb6, !dbg !2163

bb6:                                              ; preds = %bb4, %bb5
  %9 = load ptr, ptr %_0, align 8, !dbg !2166, !align !854, !noundef !29
  ret ptr %9, !dbg !2166

bb4:                                              ; preds = %bb3
  store ptr %_5, ptr %_0, align 8, !dbg !2167
  br label %bb6, !dbg !2163

bb7:                                              ; preds = %bb8, %bb9
  %10 = load ptr, ptr %0, align 8, !dbg !2168, !noundef !29
  %11 = getelementptr inbounds i8, ptr %0, i64 8, !dbg !2168
  %12 = load i32, ptr %11, align 8, !dbg !2168, !noundef !29
  %13 = insertvalue { ptr, i32 } poison, ptr %10, 0, !dbg !2168
  %14 = insertvalue { ptr, i32 } %13, i32 %12, 1, !dbg !2168
  resume { ptr, i32 } %14, !dbg !2168

bb8:                                              ; preds = %bb9
  br label %bb7, !dbg !2163
}

; std::sys::thread_local::fast_local::Key<T>::try_register_dtor
; Function Attrs: uwtable
define zeroext i1 @"_ZN3std3sys12thread_local10fast_local12Key$LT$T$GT$17try_register_dtor17h900a725ac4565a24E"(ptr align 8 %self) unnamed_addr #1 !dbg !2169 {
start:
  %result.dbg.spill = alloca i8, align 1
  %dest.dbg.spill = alloca ptr, align 8
  %self.dbg.spill10 = alloca ptr, align 8
  %self.dbg.spill8 = alloca ptr, align 8
  %self.dbg.spill6 = alloca ptr, align 8
  %self.dbg.spill4 = alloca ptr, align 8
  %self.dbg.spill = alloca ptr, align 8
  %_2 = alloca i8, align 1
  %_0 = alloca i8, align 1
  %src.dbg.spill2 = alloca i8, align 1
  %src.dbg.spill = alloca i8, align 1
  %val.dbg.spill1 = alloca i8, align 1
  %val.dbg.spill = alloca i8, align 1
  store i8 1, ptr %val.dbg.spill, align 1, !dbg !2175
  call void @llvm.dbg.declare(metadata ptr %val.dbg.spill, metadata !2185, metadata !DIExpression()), !dbg !2175
  store i8 1, ptr %val.dbg.spill1, align 1, !dbg !2187
  call void @llvm.dbg.declare(metadata ptr %val.dbg.spill1, metadata !2195, metadata !DIExpression()), !dbg !2187
  store i8 1, ptr %src.dbg.spill, align 1, !dbg !2197
  call void @llvm.dbg.declare(metadata ptr %src.dbg.spill, metadata !2206, metadata !DIExpression()), !dbg !2197
  store i8 1, ptr %src.dbg.spill2, align 1, !dbg !2210
  call void @llvm.dbg.declare(metadata ptr %src.dbg.spill2, metadata !2218, metadata !DIExpression()), !dbg !2210
  store ptr %self, ptr %self.dbg.spill, align 8, !dbg !2210
  call void @llvm.dbg.declare(metadata ptr %self.dbg.spill, metadata !2174, metadata !DIExpression()), !dbg !2220
  %self3 = getelementptr inbounds i8, ptr %self, i64 8, !dbg !2221
  store ptr %self3, ptr %self.dbg.spill4, align 8, !dbg !2221
  call void @llvm.dbg.declare(metadata ptr %self.dbg.spill4, metadata !2222, metadata !DIExpression()), !dbg !2229
  %self5 = getelementptr inbounds i8, ptr %self, i64 8, !dbg !2231
  store ptr %self5, ptr %self.dbg.spill6, align 8, !dbg !2231
  call void @llvm.dbg.declare(metadata ptr %self.dbg.spill6, metadata !2232, metadata !DIExpression()), !dbg !2242
  %_12 = getelementptr inbounds i8, ptr %self, i64 8, !dbg !2244
  %0 = load i8, ptr %_12, align 1, !dbg !2245, !range !2246, !noundef !29
  store i8 %0, ptr %_2, align 1, !dbg !2245
  %1 = load i8, ptr %_2, align 1, !dbg !2221, !range !2246, !noundef !29
  %_4 = zext i8 %1 to i64, !dbg !2221
  switch i64 %_4, label %bb1 [
    i64 0, label %bb3
    i64 1, label %bb5
    i64 2, label %bb2
  ], !dbg !2247

bb1:                                              ; preds = %start
  unreachable, !dbg !2221

bb3:                                              ; preds = %start
; call std::sys::pal::unix::thread_local_dtor::register_dtor
  call void @_ZN3std3sys3pal4unix17thread_local_dtor13register_dtor17haedd75d30b23036dE(ptr %self, ptr @_ZN3std3sys12thread_local10fast_local13destroy_value17hd793abddf36a2658E), !dbg !2248
  %self7 = getelementptr inbounds i8, ptr %self, i64 8, !dbg !2249
  store ptr %self7, ptr %self.dbg.spill8, align 8, !dbg !2249
  call void @llvm.dbg.declare(metadata ptr %self.dbg.spill8, metadata !2184, metadata !DIExpression()), !dbg !2250
  call void @llvm.dbg.declare(metadata ptr %self.dbg.spill8, metadata !2194, metadata !DIExpression()), !dbg !2251
  %self9 = getelementptr inbounds i8, ptr %self, i64 8, !dbg !2252
  store ptr %self9, ptr %self.dbg.spill10, align 8, !dbg !2252
  call void @llvm.dbg.declare(metadata ptr %self.dbg.spill10, metadata !2240, metadata !DIExpression()), !dbg !2253
  %_16 = getelementptr inbounds i8, ptr %self, i64 8, !dbg !2255
  store ptr %_16, ptr %dest.dbg.spill, align 8, !dbg !2255
  call void @llvm.dbg.declare(metadata ptr %dest.dbg.spill, metadata !2204, metadata !DIExpression()), !dbg !2256
  call void @llvm.dbg.declare(metadata ptr %dest.dbg.spill, metadata !2257, metadata !DIExpression()), !dbg !2264
  call void @llvm.dbg.declare(metadata ptr %dest.dbg.spill, metadata !2217, metadata !DIExpression()), !dbg !2266
  %result = load i8, ptr %_16, align 1, !dbg !2267, !range !2246, !noundef !29
  store i8 %result, ptr %result.dbg.spill, align 1, !dbg !2267
  call void @llvm.dbg.declare(metadata ptr %result.dbg.spill, metadata !2207, metadata !DIExpression()), !dbg !2268
  store i8 1, ptr %_16, align 1, !dbg !2269
  store i8 1, ptr %_0, align 1, !dbg !2270
  br label %bb6, !dbg !2270

bb5:                                              ; preds = %start
  store i8 1, ptr %_0, align 1, !dbg !2271
  br label %bb6, !dbg !2271

bb2:                                              ; preds = %start
  store i8 0, ptr %_0, align 1, !dbg !2272
  br label %bb6, !dbg !2272

bb6:                                              ; preds = %bb2, %bb5, %bb3
  %2 = load i8, ptr %_0, align 1, !dbg !2273, !range !662, !noundef !29
  %3 = trunc i8 %2 to i1, !dbg !2273
  ret i1 %3, !dbg !2273
}

; std::sys::thread_local::fast_local::Key<T>::get
; Function Attrs: uwtable
define align 8 ptr @"_ZN3std3sys12thread_local10fast_local12Key$LT$T$GT$3get17h715b39fdecaae47dE"(ptr align 8 %self, ptr align 8 %init) unnamed_addr #1 personality ptr @rust_eh_personality !dbg !2274 {
start:
  %val.dbg.spill = alloca ptr, align 8
  %x.dbg.spill = alloca ptr, align 8
  %0 = alloca { ptr, i32, [1 x i32] }, align 8
  %self.dbg.spill3 = alloca ptr, align 8
  %self.dbg.spill2 = alloca ptr, align 8
  %self.dbg.spill1 = alloca ptr, align 8
  %init.dbg.spill = alloca ptr, align 8
  %self.dbg.spill = alloca ptr, align 8
  %_3 = alloca ptr, align 8
  %_0 = alloca ptr, align 8
  store ptr %self, ptr %self.dbg.spill, align 8
  call void @llvm.dbg.declare(metadata ptr %self.dbg.spill, metadata !2277, metadata !DIExpression()), !dbg !2281
  store ptr %init, ptr %init.dbg.spill, align 8
  call void @llvm.dbg.declare(metadata ptr %init.dbg.spill, metadata !2278, metadata !DIExpression()), !dbg !2282
  store ptr %self, ptr %self.dbg.spill1, align 8, !dbg !2283
  call void @llvm.dbg.declare(metadata ptr %self.dbg.spill1, metadata !2284, metadata !DIExpression()), !dbg !2293
  store ptr %self, ptr %self.dbg.spill2, align 8, !dbg !2295
  call void @llvm.dbg.declare(metadata ptr %self.dbg.spill2, metadata !2296, metadata !DIExpression()), !dbg !2305
  store ptr %self, ptr %self.dbg.spill3, align 8, !dbg !2307
  call void @llvm.dbg.declare(metadata ptr %self.dbg.spill3, metadata !2308, metadata !DIExpression()), !dbg !2318
  %1 = load ptr, ptr %self, align 8, !dbg !2320, !noundef !29
  %2 = ptrtoint ptr %1 to i64, !dbg !2320
  %3 = icmp eq i64 %2, 0, !dbg !2320
  %_11 = select i1 %3, i64 0, i64 1, !dbg !2320
  %4 = icmp eq i64 %_11, 0, !dbg !2321
  br i1 %4, label %bb7, label %bb8, !dbg !2321

bb7:                                              ; preds = %start
; invoke std::sys::thread_local::fast_local::Key<T>::try_initialize
  %5 = invoke align 8 ptr @"_ZN3std3sys12thread_local10fast_local12Key$LT$T$GT$14try_initialize17he40c6b5d193e11c5E"(ptr align 8 %self, ptr align 8 %init)
          to label %bb2 unwind label %cleanup, !dbg !2322

bb8:                                              ; preds = %start
  store ptr %self, ptr %x.dbg.spill, align 8, !dbg !2323
  call void @llvm.dbg.declare(metadata ptr %x.dbg.spill, metadata !2316, metadata !DIExpression()), !dbg !2324
  store ptr %self, ptr %_3, align 8, !dbg !2325
  %val = load ptr, ptr %_3, align 8, !dbg !2326, !nonnull !29, !align !854, !noundef !29
  store ptr %val, ptr %val.dbg.spill, align 8, !dbg !2326
  call void @llvm.dbg.declare(metadata ptr %val.dbg.spill, metadata !2279, metadata !DIExpression()), !dbg !2327
  store ptr %val, ptr %_0, align 8, !dbg !2328
  br label %bb3, !dbg !2329

bb6:                                              ; preds = %cleanup
  br label %bb4, !dbg !2329

cleanup:                                          ; preds = %bb7
  %6 = landingpad { ptr, i32 }
          cleanup
  %7 = extractvalue { ptr, i32 } %6, 0
  %8 = extractvalue { ptr, i32 } %6, 1
  store ptr %7, ptr %0, align 8
  %9 = getelementptr inbounds i8, ptr %0, i64 8
  store i32 %8, ptr %9, align 8
  br label %bb6

bb2:                                              ; preds = %bb7
  store ptr %5, ptr %_0, align 8, !dbg !2322
  br label %bb3, !dbg !2329

bb3:                                              ; preds = %bb8, %bb2
  %10 = load ptr, ptr %_0, align 8, !dbg !2330, !align !854, !noundef !29
  ret ptr %10, !dbg !2330

bb4:                                              ; preds = %bb5, %bb6
  %11 = load ptr, ptr %0, align 8, !dbg !2331, !noundef !29
  %12 = getelementptr inbounds i8, ptr %0, i64 8, !dbg !2331
  %13 = load i32, ptr %12, align 8, !dbg !2331, !noundef !29
  %14 = insertvalue { ptr, i32 } poison, ptr %11, 0, !dbg !2331
  %15 = insertvalue { ptr, i32 } %14, i32 %13, 1, !dbg !2331
  resume { ptr, i32 } %15, !dbg !2331

bb5:                                              ; No predecessors!
  br label %bb4, !dbg !2329

bb1:                                              ; No predecessors!
  unreachable, !dbg !2283
}

; std::sys::thread_local::fast_local::destroy_value
; Function Attrs: uwtable
define void @_ZN3std3sys12thread_local10fast_local13destroy_value17hd793abddf36a2658E(ptr %ptr) unnamed_addr #1 personality ptr @rust_eh_personality !dbg !2332 {
start:
  %pieces.dbg.spill2 = alloca { ptr, i64 }, align 8
  %args.dbg.spill = alloca { ptr, i64 }, align 8
  %pieces.dbg.spill = alloca { ptr, i64 }, align 8
  %ptr.dbg.spill = alloca ptr, align 8
  %_22 = alloca %"core::fmt::Arguments<'_>", align 8
  %_15 = alloca [0 x %"core::fmt::rt::Argument<'_>"], align 8
  %_11 = alloca %"core::fmt::Arguments<'_>", align 8
  %_9 = alloca ptr, align 8
  %_8 = alloca %"std::sys::pal::unix::stdio::Stderr", align 1
  %_5 = alloca ptr, align 8
  %f = alloca ptr, align 8
  %_3 = alloca %"core::result::Result<(), alloc::boxed::Box<dyn core::any::Any + core::marker::Send>>", align 8
  %ptr1 = alloca ptr, align 8
  %out.dbg.spill = alloca %"std::sys::pal::unix::stdio::Stderr", align 1
  call void @llvm.dbg.declare(metadata ptr %out.dbg.spill, metadata !2339, metadata !DIExpression()), !dbg !2343
  store ptr %ptr, ptr %ptr.dbg.spill, align 8, !dbg !2343
  call void @llvm.dbg.declare(metadata ptr %ptr.dbg.spill, metadata !2336, metadata !DIExpression()), !dbg !2344
  call void @llvm.dbg.declare(metadata ptr %ptr1, metadata !2337, metadata !DIExpression()), !dbg !2345
  call void @llvm.dbg.declare(metadata ptr %f, metadata !2346, metadata !DIExpression()), !dbg !2377
  store ptr %ptr, ptr %ptr1, align 8, !dbg !2379
  store ptr %ptr1, ptr %_5, align 8, !dbg !2380
  %0 = load ptr, ptr %_5, align 8, !dbg !2381, !nonnull !29, !align !854, !noundef !29
  store ptr %0, ptr %f, align 8, !dbg !2381
  %1 = load ptr, ptr %f, align 8, !dbg !2382, !nonnull !29, !align !854, !noundef !29
; invoke std::panicking::try
  %2 = invoke { ptr, ptr } @_ZN3std9panicking3try17hdaf56e7bcb5e995cE(ptr align 8 %1)
          to label %bb6 unwind label %terminate, !dbg !2382

terminate:                                        ; preds = %bb4, %bb9, %bb3, %bb2, %bb10, %start
  %3 = landingpad { ptr, i32 }
          filter [0 x ptr] zeroinitializer
  %4 = extractvalue { ptr, i32 } %3, 0
  %5 = extractvalue { ptr, i32 } %3, 1
; call core::panicking::panic_cannot_unwind
  call void @_ZN4core9panicking19panic_cannot_unwind17h3626040c0976c0c3E() #23, !dbg !2383
  unreachable, !dbg !2383

bb6:                                              ; preds = %start
  %6 = extractvalue { ptr, ptr } %2, 0, !dbg !2382
  %7 = extractvalue { ptr, ptr } %2, 1, !dbg !2382
  store ptr %6, ptr %_3, align 8, !dbg !2382
  %8 = getelementptr inbounds i8, ptr %_3, i64 8, !dbg !2382
  store ptr %7, ptr %8, align 8, !dbg !2382
  %9 = load ptr, ptr %_3, align 8, !dbg !2384, !noundef !29
  %10 = ptrtoint ptr %9 to i64, !dbg !2384
  %11 = icmp eq i64 %10, 0, !dbg !2384
  %_7 = select i1 %11, i64 0, i64 1, !dbg !2384
  %12 = icmp eq i64 %_7, 1, !dbg !2384
  br i1 %12, label %bb1, label %bb4, !dbg !2384

bb1:                                              ; preds = %bb6
  store ptr @alloc_f7c18d5ab6a04e64e435b4d6f64423e3, ptr %pieces.dbg.spill, align 8, !dbg !2343
  %13 = getelementptr inbounds i8, ptr %pieces.dbg.spill, i64 8, !dbg !2343
  store i64 1, ptr %13, align 8, !dbg !2343
  call void @llvm.dbg.declare(metadata ptr %pieces.dbg.spill, metadata !2385, metadata !DIExpression()), !dbg !2393
  store ptr %_15, ptr %args.dbg.spill, align 8, !dbg !2343
  %14 = getelementptr inbounds i8, ptr %args.dbg.spill, i64 8, !dbg !2343
  store i64 0, ptr %14, align 8, !dbg !2343
  call void @llvm.dbg.declare(metadata ptr %args.dbg.spill, metadata !2392, metadata !DIExpression()), !dbg !2395
  br label %bb7, !dbg !2396

bb4:                                              ; preds = %bb6
; invoke core::ptr::drop_in_place<core::result::Result<(),alloc::boxed::Box<dyn core::any::Any+core::marker::Send>>>
  invoke void @"_ZN4core3ptr130drop_in_place$LT$core..result..Result$LT$$LP$$RP$$C$alloc..boxed..Box$LT$dyn$u20$core..any..Any$u2b$core..marker..Send$GT$$GT$$GT$17h2f66de69fb16a9ceE"(ptr align 8 %_3)
          to label %bb5 unwind label %terminate, !dbg !2397

bb7:                                              ; preds = %bb1
  br label %bb10, !dbg !2398

bb10:                                             ; preds = %bb7
  store ptr @alloc_f7c18d5ab6a04e64e435b4d6f64423e3, ptr %_11, align 8, !dbg !2399
  %15 = getelementptr inbounds i8, ptr %_11, i64 8, !dbg !2399
  store i64 1, ptr %15, align 8, !dbg !2399
  %16 = load ptr, ptr @2, align 8, !dbg !2399, !align !854, !noundef !29
  %17 = load i64, ptr getelementptr inbounds (i8, ptr @2, i64 8), align 8, !dbg !2399
  %18 = getelementptr inbounds i8, ptr %_11, i64 32, !dbg !2399
  store ptr %16, ptr %18, align 8, !dbg !2399
  %19 = getelementptr inbounds i8, ptr %18, i64 8, !dbg !2399
  store i64 %17, ptr %19, align 8, !dbg !2399
  %20 = getelementptr inbounds i8, ptr %_11, i64 16, !dbg !2399
  store ptr %_15, ptr %20, align 8, !dbg !2399
  %21 = getelementptr inbounds i8, ptr %20, i64 8, !dbg !2399
  store i64 0, ptr %21, align 8, !dbg !2399
; invoke std::io::Write::write_fmt
  %22 = invoke ptr @_ZN3std2io5Write9write_fmt17haa3bc8e72b5188f8E(ptr align 1 %_8, ptr align 8 %_11)
          to label %bb2 unwind label %terminate, !dbg !2343

bb2:                                              ; preds = %bb10
  store ptr %22, ptr %_9, align 8, !dbg !2343
; invoke core::ptr::drop_in_place<core::result::Result<(),std::io::error::Error>>
  invoke void @"_ZN4core3ptr81drop_in_place$LT$core..result..Result$LT$$LP$$RP$$C$std..io..error..Error$GT$$GT$17hed6044483f7746b1E"(ptr align 8 %_9)
          to label %bb3 unwind label %terminate, !dbg !2343

bb3:                                              ; preds = %bb2
; invoke std::sys::pal::unix::abort_internal
  invoke void @_ZN3std3sys3pal4unix14abort_internal17hac2a6a2e34ccd929E() #20
          to label %unreachable unwind label %terminate, !dbg !2400

unreachable:                                      ; preds = %bb9, %bb3
  unreachable

bb8:                                              ; No predecessors!
  br label %bb9, !dbg !2401

bb9:                                              ; preds = %bb8
  store ptr @alloc_af99043bc04c419363a7f04d23183506, ptr %pieces.dbg.spill2, align 8, !dbg !2402
  %23 = getelementptr inbounds i8, ptr %pieces.dbg.spill2, i64 8, !dbg !2402
  store i64 1, ptr %23, align 8, !dbg !2402
  call void @llvm.dbg.declare(metadata ptr %pieces.dbg.spill2, metadata !2403, metadata !DIExpression()), !dbg !2410
  store ptr @alloc_af99043bc04c419363a7f04d23183506, ptr %_22, align 8, !dbg !2413
  %24 = getelementptr inbounds i8, ptr %_22, i64 8, !dbg !2413
  store i64 1, ptr %24, align 8, !dbg !2413
  %25 = load ptr, ptr @2, align 8, !dbg !2413, !align !854, !noundef !29
  %26 = load i64, ptr getelementptr inbounds (i8, ptr @2, i64 8), align 8, !dbg !2413
  %27 = getelementptr inbounds i8, ptr %_22, i64 32, !dbg !2413
  store ptr %25, ptr %27, align 8, !dbg !2413
  %28 = getelementptr inbounds i8, ptr %27, i64 8, !dbg !2413
  store i64 %26, ptr %28, align 8, !dbg !2413
  %29 = getelementptr inbounds i8, ptr %_22, i64 16, !dbg !2413
  store ptr @alloc_513570631223a12912d85da2bec3b15a, ptr %29, align 8, !dbg !2413
  %30 = getelementptr inbounds i8, ptr %29, i64 8, !dbg !2413
  store i64 0, ptr %30, align 8, !dbg !2413
; invoke core::panicking::panic_fmt
  invoke void @_ZN4core9panicking9panic_fmt17ha6d62ade15192290E(ptr align 8 %_22, ptr align 8 @alloc_4ba2c5ddff77a51f3765b0dd5f2851cc) #20
          to label %unreachable unwind label %terminate, !dbg !2414

bb5:                                              ; preds = %bb4
  ret void, !dbg !2415

bb11:                                             ; No predecessors!
  unreachable, !dbg !2383
}

; std::sys::thread_local::fast_local::destroy_value::{{closure}}
; Function Attrs: inlinehint uwtable
define void @"_ZN3std3sys12thread_local10fast_local13destroy_value28_$u7b$$u7b$closure$u7d$$u7d$17h543a66ec8d42ccc9E"(ptr align 8 %_1) unnamed_addr #0 !dbg !2416 {
start:
  %result.dbg.spill = alloca i8, align 1
  %dest.dbg.spill = alloca ptr, align 8
  %self.dbg.spill7 = alloca ptr, align 8
  %self.dbg.spill5 = alloca ptr, align 8
  %value.dbg.spill = alloca ptr, align 8
  %self.dbg.spill4 = alloca ptr, align 8
  %self.dbg.spill3 = alloca ptr, align 8
  %self.dbg.spill = alloca ptr, align 8
  %_1.dbg.spill = alloca ptr, align 8
  %src = alloca ptr, align 8
  %_x = alloca ptr, align 8
  %src.dbg.spill2 = alloca i8, align 1
  %src.dbg.spill = alloca i8, align 1
  %val.dbg.spill1 = alloca i8, align 1
  %val.dbg.spill = alloca i8, align 1
  store i8 2, ptr %val.dbg.spill, align 1, !dbg !2424
  call void @llvm.dbg.declare(metadata ptr %val.dbg.spill, metadata !2429, metadata !DIExpression()), !dbg !2424
  store i8 2, ptr %val.dbg.spill1, align 1, !dbg !2431
  call void @llvm.dbg.declare(metadata ptr %val.dbg.spill1, metadata !2436, metadata !DIExpression()), !dbg !2431
  store i8 2, ptr %src.dbg.spill, align 1, !dbg !2438
  call void @llvm.dbg.declare(metadata ptr %src.dbg.spill, metadata !2443, metadata !DIExpression()), !dbg !2438
  store i8 2, ptr %src.dbg.spill2, align 1, !dbg !2447
  call void @llvm.dbg.declare(metadata ptr %src.dbg.spill2, metadata !2452, metadata !DIExpression()), !dbg !2447
  store ptr %_1, ptr %_1.dbg.spill, align 8, !dbg !2447
  call void @llvm.dbg.declare(metadata ptr %_1.dbg.spill, metadata !2421, metadata !DIExpression(DW_OP_deref, DW_OP_deref)), !dbg !2454
  call void @llvm.dbg.declare(metadata ptr %_x, metadata !2455, metadata !DIExpression()), !dbg !2461
  call void @llvm.dbg.declare(metadata ptr %src, metadata !2463, metadata !DIExpression()), !dbg !2472
  call void @llvm.dbg.declare(metadata ptr %src, metadata !2491, metadata !DIExpression()), !dbg !2498
  %_6 = load ptr, ptr %_1, align 8, !dbg !2500, !nonnull !29, !align !854, !noundef !29
  %_7 = load ptr, ptr %_6, align 8, !dbg !2500, !noundef !29
  store ptr %_7, ptr %self.dbg.spill, align 8, !dbg !2500
  call void @llvm.dbg.declare(metadata ptr %self.dbg.spill, metadata !2489, metadata !DIExpression()), !dbg !2501
  store ptr %_7, ptr %self.dbg.spill3, align 8, !dbg !2502
  call void @llvm.dbg.declare(metadata ptr %self.dbg.spill3, metadata !2503, metadata !DIExpression()), !dbg !2507
  store ptr %_7, ptr %self.dbg.spill4, align 8, !dbg !2509
  call void @llvm.dbg.declare(metadata ptr %self.dbg.spill4, metadata !2480, metadata !DIExpression()), !dbg !2510
  call void @llvm.dbg.declare(metadata ptr %self.dbg.spill4, metadata !2469, metadata !DIExpression()), !dbg !2511
  call void @llvm.dbg.declare(metadata ptr %self.dbg.spill4, metadata !2512, metadata !DIExpression()), !dbg !2519
  call void @llvm.dbg.declare(metadata ptr %self.dbg.spill4, metadata !2497, metadata !DIExpression()), !dbg !2521
  store ptr null, ptr %src, align 8, !dbg !2522
  %value = load ptr, ptr %_7, align 8, !dbg !2523, !noundef !29
  store ptr %value, ptr %value.dbg.spill, align 8, !dbg !2523
  call void @llvm.dbg.declare(metadata ptr %value.dbg.spill, metadata !2422, metadata !DIExpression()), !dbg !2524
  call void @llvm.dbg.declare(metadata ptr %value.dbg.spill, metadata !2470, metadata !DIExpression()), !dbg !2525
  %0 = load ptr, ptr %src, align 8, !dbg !2526, !noundef !29
  store ptr %0, ptr %_7, align 8, !dbg !2526
  %self = getelementptr inbounds i8, ptr %_7, i64 8, !dbg !2527
  store ptr %self, ptr %self.dbg.spill5, align 8, !dbg !2527
  call void @llvm.dbg.declare(metadata ptr %self.dbg.spill5, metadata !2428, metadata !DIExpression()), !dbg !2528
  call void @llvm.dbg.declare(metadata ptr %self.dbg.spill5, metadata !2435, metadata !DIExpression()), !dbg !2529
  %self6 = getelementptr inbounds i8, ptr %_7, i64 8, !dbg !2530
  store ptr %self6, ptr %self.dbg.spill7, align 8, !dbg !2530
  call void @llvm.dbg.declare(metadata ptr %self.dbg.spill7, metadata !2531, metadata !DIExpression()), !dbg !2535
  %_15 = getelementptr inbounds i8, ptr %_7, i64 8, !dbg !2537
  store ptr %_15, ptr %dest.dbg.spill, align 8, !dbg !2537
  call void @llvm.dbg.declare(metadata ptr %dest.dbg.spill, metadata !2442, metadata !DIExpression()), !dbg !2538
  call void @llvm.dbg.declare(metadata ptr %dest.dbg.spill, metadata !2539, metadata !DIExpression()), !dbg !2543
  call void @llvm.dbg.declare(metadata ptr %dest.dbg.spill, metadata !2451, metadata !DIExpression()), !dbg !2545
  %result = load i8, ptr %_15, align 1, !dbg !2546, !range !2246, !noundef !29
  store i8 %result, ptr %result.dbg.spill, align 1, !dbg !2546
  call void @llvm.dbg.declare(metadata ptr %result.dbg.spill, metadata !2444, metadata !DIExpression()), !dbg !2547
  store i8 2, ptr %_15, align 1, !dbg !2548
  store ptr %value, ptr %_x, align 8, !dbg !2549
; call core::ptr::drop_in_place<core::option::Option<alloc::rc::Rc<core::cell::UnsafeCell<rand::rngs::adapter::reseeding::ReseedingRng<rand_chacha::chacha::ChaCha12Core,rand_core::os::OsRng>>>>>
  call void @"_ZN4core3ptr208drop_in_place$LT$core..option..Option$LT$alloc..rc..Rc$LT$core..cell..UnsafeCell$LT$rand..rngs..adapter..reseeding..ReseedingRng$LT$rand_chacha..chacha..ChaCha12Core$C$rand_core..os..OsRng$GT$$GT$$GT$$GT$$GT$17hc86071cd7f024ee9E"(ptr align 8 %_x), !dbg !2550
  ret void, !dbg !2551
}

; std::sys::thread_local::lazy::LazyKeyInner<T>::initialize
; Function Attrs: uwtable
define align 8 ptr @"_ZN3std3sys12thread_local4lazy21LazyKeyInner$LT$T$GT$10initialize17hc5523e61db7dfd1bE"(ptr align 8 %self, ptr align 8 %init) unnamed_addr #1 !dbg !2552 {
start:
  %x.dbg.spill = alloca ptr, align 8
  %ptr.dbg.spill = alloca ptr, align 8
  %self.dbg.spill1 = alloca ptr, align 8
  %value.dbg.spill = alloca ptr, align 8
  %init.dbg.spill = alloca ptr, align 8
  %self.dbg.spill = alloca ptr, align 8
  %src = alloca ptr, align 8
  %result = alloca ptr, align 8
  store ptr %self, ptr %self.dbg.spill, align 8
  call void @llvm.dbg.declare(metadata ptr %self.dbg.spill, metadata !2557, metadata !DIExpression()), !dbg !2565
  store ptr %init, ptr %init.dbg.spill, align 8
  call void @llvm.dbg.declare(metadata ptr %init.dbg.spill, metadata !2558, metadata !DIExpression()), !dbg !2566
  call void @llvm.dbg.declare(metadata ptr %result, metadata !2567, metadata !DIExpression()), !dbg !2574
  call void @llvm.dbg.declare(metadata ptr %src, metadata !2573, metadata !DIExpression()), !dbg !2576
  call void @llvm.dbg.declare(metadata ptr %src, metadata !2577, metadata !DIExpression()), !dbg !2582
; call rand::rngs::thread::THREAD_RNG_KEY::__getit::{{closure}}
  %value = call ptr @"_ZN4rand4rngs6thread14THREAD_RNG_KEY7__getit28_$u7b$$u7b$closure$u7d$$u7d$17h72c3e2821e0915d4E"(ptr align 8 %init), !dbg !2584
  store ptr %value, ptr %value.dbg.spill, align 8, !dbg !2584
  call void @llvm.dbg.declare(metadata ptr %value.dbg.spill, metadata !2559, metadata !DIExpression()), !dbg !2585
  store ptr %self, ptr %self.dbg.spill1, align 8, !dbg !2586
  call void @llvm.dbg.declare(metadata ptr %self.dbg.spill1, metadata !2587, metadata !DIExpression()), !dbg !2591
  store ptr %self, ptr %ptr.dbg.spill, align 8, !dbg !2593
  call void @llvm.dbg.declare(metadata ptr %ptr.dbg.spill, metadata !2561, metadata !DIExpression()), !dbg !2594
  call void @llvm.dbg.declare(metadata ptr %ptr.dbg.spill, metadata !2572, metadata !DIExpression()), !dbg !2595
  call void @llvm.dbg.declare(metadata ptr %ptr.dbg.spill, metadata !2596, metadata !DIExpression()), !dbg !2600
  call void @llvm.dbg.declare(metadata ptr %ptr.dbg.spill, metadata !2581, metadata !DIExpression()), !dbg !2602
  store ptr %value, ptr %src, align 8, !dbg !2603
  %0 = load ptr, ptr %self, align 8, !dbg !2604, !noundef !29
  store ptr %0, ptr %result, align 8, !dbg !2604
  %1 = load ptr, ptr %src, align 8, !dbg !2605, !noundef !29
  store ptr %1, ptr %self, align 8, !dbg !2605
; call core::ptr::drop_in_place<core::option::Option<alloc::rc::Rc<core::cell::UnsafeCell<rand::rngs::adapter::reseeding::ReseedingRng<rand_chacha::chacha::ChaCha12Core,rand_core::os::OsRng>>>>>
  call void @"_ZN4core3ptr208drop_in_place$LT$core..option..Option$LT$alloc..rc..Rc$LT$core..cell..UnsafeCell$LT$rand..rngs..adapter..reseeding..ReseedingRng$LT$rand_chacha..chacha..ChaCha12Core$C$rand_core..os..OsRng$GT$$GT$$GT$$GT$$GT$17hc86071cd7f024ee9E"(ptr align 8 %result), !dbg !2606
  %2 = load ptr, ptr %self, align 8, !dbg !2607, !noundef !29
  %3 = ptrtoint ptr %2 to i64, !dbg !2607
  %4 = icmp eq i64 %3, 0, !dbg !2607
  %_8 = select i1 %4, i64 0, i64 1, !dbg !2607
  %5 = icmp eq i64 %_8, 0, !dbg !2608
  br i1 %5, label %bb4, label %bb5, !dbg !2608

bb4:                                              ; preds = %start
; call core::hint::unreachable_unchecked::precondition_check
  call void @_ZN4core4hint21unreachable_unchecked18precondition_check17hc64fba99a384bb26E() #21, !dbg !2609
  br label %bb3, !dbg !2609

bb5:                                              ; preds = %start
  store ptr %self, ptr %x.dbg.spill, align 8, !dbg !2613
  call void @llvm.dbg.declare(metadata ptr %x.dbg.spill, metadata !2563, metadata !DIExpression()), !dbg !2614
  ret ptr %self, !dbg !2615

bb3:                                              ; preds = %bb4
  unreachable, !dbg !2607
}

; std::sync::once::Once::call_once
; Function Attrs: inlinehint uwtable
define void @_ZN3std4sync4once4Once9call_once17h02e91cf078e102f0E(ptr align 8 %self, ptr align 8 %0) unnamed_addr #0 personality ptr @rust_eh_personality !dbg !2616 {
start:
  %self.dbg.spill5 = alloca ptr, align 8
  %1 = alloca { ptr, i32, [1 x i32] }, align 8
  %self.dbg.spill3 = alloca ptr, align 8
  %self.dbg.spill2 = alloca ptr, align 8
  %self.dbg.spill1 = alloca ptr, align 8
  %f.dbg.spill = alloca %"{closure@src/rngs/adapter/reseeding.rs:318:28: 318:30}", align 1
  %self.dbg.spill = alloca ptr, align 8
  %_13 = alloca i8, align 1
  %_11 = alloca ptr, align 8
  %f = alloca i8, align 1
  %order.dbg.spill = alloca i8, align 1
  store i8 2, ptr %order.dbg.spill, align 1, !dbg !2629
  call void @llvm.dbg.declare(metadata ptr %order.dbg.spill, metadata !2639, metadata !DIExpression()), !dbg !2629
  store ptr %self, ptr %self.dbg.spill, align 8, !dbg !2629
  call void @llvm.dbg.declare(metadata ptr %self.dbg.spill, metadata !2625, metadata !DIExpression()), !dbg !2651
  call void @llvm.dbg.declare(metadata ptr %f.dbg.spill, metadata !2626, metadata !DIExpression()), !dbg !2652
  call void @llvm.dbg.declare(metadata ptr %f, metadata !2627, metadata !DIExpression()), !dbg !2653
  store i8 1, ptr %_13, align 1, !dbg !2654
  store ptr %self, ptr %self.dbg.spill1, align 8, !dbg !2655
  call void @llvm.dbg.declare(metadata ptr %self.dbg.spill1, metadata !2649, metadata !DIExpression()), !dbg !2656
  store ptr %self, ptr %self.dbg.spill2, align 8, !dbg !2657
  call void @llvm.dbg.declare(metadata ptr %self.dbg.spill2, metadata !2638, metadata !DIExpression()), !dbg !2658
  store ptr %self, ptr %self.dbg.spill3, align 8, !dbg !2659
  call void @llvm.dbg.declare(metadata ptr %self.dbg.spill3, metadata !2660, metadata !DIExpression()), !dbg !2669
; invoke core::sync::atomic::atomic_load
  %self4 = invoke ptr @_ZN4core4sync6atomic11atomic_load17h02b8a871cfdef2beE(ptr %self, i8 2)
          to label %bb10 unwind label %cleanup, !dbg !2671

bb9:                                              ; preds = %bb6, %cleanup
  %2 = load i8, ptr %_13, align 1, !dbg !2672, !range !662, !noundef !29
  %3 = trunc i8 %2 to i1, !dbg !2672
  br i1 %3, label %bb8, label %bb7, !dbg !2672

cleanup:                                          ; preds = %start
  %4 = landingpad { ptr, i32 }
          cleanup
  %5 = extractvalue { ptr, i32 } %4, 0
  %6 = extractvalue { ptr, i32 } %4, 1
  store ptr %5, ptr %1, align 8
  %7 = getelementptr inbounds i8, ptr %1, i64 8
  store i32 %6, ptr %7, align 8
  br label %bb9

bb10:                                             ; preds = %start
  store ptr %self4, ptr %self.dbg.spill5, align 8, !dbg !2671
  call void @llvm.dbg.declare(metadata ptr %self.dbg.spill5, metadata !2673, metadata !DIExpression()), !dbg !2677
  call void @llvm.dbg.declare(metadata ptr %self.dbg.spill5, metadata !2679, metadata !DIExpression()), !dbg !2683
  %_14 = ptrtoint ptr %self4 to i64, !dbg !2685
  %_3 = icmp eq i64 %_14, 3, !dbg !2657
  br i1 %_3, label %bb1, label %bb2, !dbg !2655

bb2:                                              ; preds = %bb10
  store i8 0, ptr %_13, align 1, !dbg !2686
  store i8 1, ptr %f, align 1, !dbg !2687
  store ptr %f, ptr %_11, align 8, !dbg !2688
; invoke std::sys_common::once::queue::Once::call
  invoke void @_ZN3std10sys_common4once5queue4Once4call17h9f8e2e687b33360eE(ptr align 8 %self, i1 zeroext false, ptr align 1 %_11, ptr align 8 @vtable.2, ptr align 8 %0)
          to label %bb3 unwind label %cleanup6, !dbg !2689

bb1:                                              ; preds = %bb10
  br label %bb5, !dbg !2672

bb6:                                              ; preds = %cleanup6
  br label %bb9, !dbg !2672

cleanup6:                                         ; preds = %bb2
  %8 = landingpad { ptr, i32 }
          cleanup
  %9 = extractvalue { ptr, i32 } %8, 0
  %10 = extractvalue { ptr, i32 } %8, 1
  store ptr %9, ptr %1, align 8
  %11 = getelementptr inbounds i8, ptr %1, i64 8
  store i32 %10, ptr %11, align 8
  br label %bb6

bb3:                                              ; preds = %bb2
  br label %bb4, !dbg !2672

bb4:                                              ; preds = %bb3
  br label %bb5, !dbg !2672

bb5:                                              ; preds = %bb1, %bb4
  ret void, !dbg !2690

bb7:                                              ; preds = %bb8, %bb9
  %12 = load ptr, ptr %1, align 8, !dbg !2691, !noundef !29
  %13 = getelementptr inbounds i8, ptr %1, i64 8, !dbg !2691
  %14 = load i32, ptr %13, align 8, !dbg !2691, !noundef !29
  %15 = insertvalue { ptr, i32 } poison, ptr %12, 0, !dbg !2691
  %16 = insertvalue { ptr, i32 } %15, i32 %14, 1, !dbg !2691
  resume { ptr, i32 } %16, !dbg !2691

bb8:                                              ; preds = %bb9
  br label %bb7, !dbg !2672
}

; std::sync::once::Once::call_once::{{closure}}
; Function Attrs: inlinehint uwtable
define void @"_ZN3std4sync4once4Once9call_once28_$u7b$$u7b$closure$u7d$$u7d$17h3b8187d9a8a67879E"(ptr align 8 %_1, ptr align 8 %_2) unnamed_addr #0 !dbg !2692 {
start:
  %self.dbg.spill = alloca ptr, align 8
  %val.dbg.spill = alloca %"{closure@src/rngs/adapter/reseeding.rs:318:28: 318:30}", align 1
  %_2.dbg.spill = alloca ptr, align 8
  %_1.dbg.spill = alloca ptr, align 8
  %src = alloca i8, align 1
  %result = alloca i8, align 1
  store ptr %_1, ptr %_1.dbg.spill, align 8
  call void @llvm.dbg.declare(metadata ptr %_1.dbg.spill, metadata !2708, metadata !DIExpression(DW_OP_deref, DW_OP_deref)), !dbg !2710
  store ptr %_2, ptr %_2.dbg.spill, align 8
  call void @llvm.dbg.declare(metadata ptr %_2.dbg.spill, metadata !2709, metadata !DIExpression()), !dbg !2711
  call void @llvm.dbg.declare(metadata ptr %val.dbg.spill, metadata !2712, metadata !DIExpression()), !dbg !2721
  call void @llvm.dbg.declare(metadata ptr %result, metadata !2723, metadata !DIExpression()), !dbg !2734
  call void @llvm.dbg.declare(metadata ptr %result, metadata !2720, metadata !DIExpression()), !dbg !2744
  call void @llvm.dbg.declare(metadata ptr %src, metadata !2731, metadata !DIExpression()), !dbg !2745
  call void @llvm.dbg.declare(metadata ptr %src, metadata !2746, metadata !DIExpression()), !dbg !2754
  %self = load ptr, ptr %_1, align 8, !dbg !2756, !nonnull !29, !align !967, !noundef !29
  store ptr %self, ptr %self.dbg.spill, align 8, !dbg !2756
  call void @llvm.dbg.declare(metadata ptr %self.dbg.spill, metadata !2742, metadata !DIExpression()), !dbg !2757
  call void @llvm.dbg.declare(metadata ptr %self.dbg.spill, metadata !2730, metadata !DIExpression()), !dbg !2758
  call void @llvm.dbg.declare(metadata ptr %self.dbg.spill, metadata !2759, metadata !DIExpression()), !dbg !2766
  call void @llvm.dbg.declare(metadata ptr %self.dbg.spill, metadata !2753, metadata !DIExpression()), !dbg !2768
  store i8 0, ptr %src, align 1, !dbg !2769
  %0 = load i8, ptr %self, align 1, !dbg !2770, !range !662, !noundef !29
  %1 = trunc i8 %0 to i1, !dbg !2770
  %2 = zext i1 %1 to i8, !dbg !2770
  store i8 %2, ptr %result, align 1, !dbg !2770
  %3 = load i8, ptr %src, align 1, !dbg !2771, !range !662, !noundef !29
  %4 = trunc i8 %3 to i1, !dbg !2771
  %5 = zext i1 %4 to i8, !dbg !2771
  store i8 %5, ptr %self, align 1, !dbg !2771
  %6 = load i8, ptr %result, align 1, !dbg !2772, !range !662, !noundef !29
  %7 = trunc i8 %6 to i1, !dbg !2772
  %_7 = zext i1 %7 to i64, !dbg !2772
  %8 = icmp eq i64 %_7, 0, !dbg !2773
  br i1 %8, label %bb3, label %bb4, !dbg !2773

bb3:                                              ; preds = %start
; call core::option::unwrap_failed
  call void @_ZN4core6option13unwrap_failed17h30d0e12d963f0916E(ptr align 8 @alloc_80034dd298b5beea2bd4989e1a8a7cce) #20, !dbg !2774
  unreachable, !dbg !2774

bb4:                                              ; preds = %start
; call rand::rngs::adapter::reseeding::fork::register_fork_handler::{{closure}}
  call void @"_ZN4rand4rngs7adapter9reseeding4fork21register_fork_handler28_$u7b$$u7b$closure$u7d$$u7d$17he3434801323aa01fE"(), !dbg !2756
  ret void, !dbg !2775

bb2:                                              ; No predecessors!
  unreachable, !dbg !2772
}

; std::thread::local::LocalKey<T>::with
; Function Attrs: uwtable
define ptr @"_ZN3std6thread5local17LocalKey$LT$T$GT$4with17h176bdd44f99204b0E"(ptr align 8 %self) unnamed_addr #1 !dbg !2776 {
start:
  %f.dbg.spill = alloca %"{closure@src/rngs/thread.rs:112:35: 112:38}", align 1
  %self.dbg.spill = alloca ptr, align 8
  store ptr %self, ptr %self.dbg.spill, align 8
  call void @llvm.dbg.declare(metadata ptr %self.dbg.spill, metadata !2794, metadata !DIExpression()), !dbg !2796
  call void @llvm.dbg.declare(metadata ptr %f.dbg.spill, metadata !2795, metadata !DIExpression()), !dbg !2797
; call std::thread::local::LocalKey<T>::try_with
  %_3 = call ptr @"_ZN3std6thread5local17LocalKey$LT$T$GT$8try_with17h4b181f8665682ef3E"(ptr align 8 %self), !dbg !2798
; call core::result::Result<T,E>::expect
  %_0 = call ptr @"_ZN4core6result19Result$LT$T$C$E$GT$6expect17h9a905b8d684e2975E"(ptr %_3, ptr align 1 @alloc_2ee7ba9733a263ad3a32ba87b5ec3eae, i64 70, ptr align 8 @alloc_00aa40083825d612354fd68663f71701), !dbg !2798
  ret ptr %_0, !dbg !2799
}

; std::thread::local::LocalKey<T>::try_with
; Function Attrs: inlinehint uwtable
define ptr @"_ZN3std6thread5local17LocalKey$LT$T$GT$8try_with17h4b181f8665682ef3E"(ptr align 8 %self) unnamed_addr #0 personality ptr @rust_eh_personality !dbg !2800 {
start:
  %thread_local.dbg.spill = alloca ptr, align 8
  %v.dbg.spill6 = alloca ptr, align 8
  %v.dbg.spill = alloca ptr, align 8
  %0 = alloca { ptr, i32, [1 x i32] }, align 8
  %f.dbg.spill = alloca %"{closure@src/rngs/thread.rs:112:35: 112:38}", align 1
  %self.dbg.spill = alloca ptr, align 8
  %_11 = alloca i8, align 1
  %_10 = alloca ptr, align 8
  %self4 = alloca ptr, align 8
  %self3 = alloca ptr, align 8
  %_3 = alloca ptr, align 8
  %_0 = alloca ptr, align 8
  %t.dbg.spill = alloca %"std::thread::local::AccessError", align 1
  %e.dbg.spill2 = alloca %"std::thread::local::AccessError", align 1
  %residual.dbg.spill1 = alloca %"core::result::Result<core::convert::Infallible, std::thread::local::AccessError>::Err", align 1
  %e.dbg.spill = alloca %"std::thread::local::AccessError", align 1
  %err.dbg.spill = alloca %"std::thread::local::AccessError", align 1
  %residual.dbg.spill = alloca %"core::result::Result<core::convert::Infallible, std::thread::local::AccessError>::Err", align 1
  call void @llvm.dbg.declare(metadata ptr %residual.dbg.spill, metadata !2824, metadata !DIExpression()), !dbg !2841
  call void @llvm.dbg.declare(metadata ptr %err.dbg.spill, metadata !2842, metadata !DIExpression()), !dbg !2866
  call void @llvm.dbg.declare(metadata ptr %e.dbg.spill, metadata !2868, metadata !DIExpression()), !dbg !2895
  call void @llvm.dbg.declare(metadata ptr %residual.dbg.spill1, metadata !2897, metadata !DIExpression()), !dbg !2907
  call void @llvm.dbg.declare(metadata ptr %e.dbg.spill2, metadata !2903, metadata !DIExpression()), !dbg !2909
  call void @llvm.dbg.declare(metadata ptr %t.dbg.spill, metadata !2910, metadata !DIExpression()), !dbg !2918
  store ptr %self, ptr %self.dbg.spill, align 8, !dbg !2918
  call void @llvm.dbg.declare(metadata ptr %self.dbg.spill, metadata !2820, metadata !DIExpression()), !dbg !2920
  call void @llvm.dbg.declare(metadata ptr %f.dbg.spill, metadata !2821, metadata !DIExpression()), !dbg !2921
  call void @llvm.dbg.declare(metadata ptr %self3, metadata !2892, metadata !DIExpression()), !dbg !2922
  call void @llvm.dbg.declare(metadata ptr %self4, metadata !2863, metadata !DIExpression()), !dbg !2923
  store i8 1, ptr %_11, align 1, !dbg !2924
  %_6 = load ptr, ptr %self, align 8, !dbg !2896, !nonnull !29, !noundef !29
  %1 = invoke align 8 ptr %_6(ptr align 8 null)
          to label %bb1 unwind label %cleanup, !dbg !2896

bb7:                                              ; preds = %cleanup
  %2 = load i8, ptr %_11, align 1, !dbg !2925, !range !662, !noundef !29
  %3 = trunc i8 %2 to i1, !dbg !2925
  br i1 %3, label %bb6, label %bb5, !dbg !2925

cleanup:                                          ; preds = %bb9, %start
  %4 = landingpad { ptr, i32 }
          cleanup
  %5 = extractvalue { ptr, i32 } %4, 0
  %6 = extractvalue { ptr, i32 } %4, 1
  store ptr %5, ptr %0, align 8
  %7 = getelementptr inbounds i8, ptr %0, i64 8
  store i32 %6, ptr %7, align 8
  br label %bb7

bb1:                                              ; preds = %start
  store ptr %1, ptr %self4, align 8, !dbg !2896
  %8 = load ptr, ptr %self4, align 8, !dbg !2926, !noundef !29
  %9 = ptrtoint ptr %8 to i64, !dbg !2926
  %10 = icmp eq i64 %9, 0, !dbg !2926
  %_12 = select i1 %10, i64 0, i64 1, !dbg !2926
  %11 = icmp eq i64 %_12, 0, !dbg !2927
  br i1 %11, label %bb8, label %bb9, !dbg !2927

bb8:                                              ; preds = %bb1
  store ptr null, ptr %self3, align 8, !dbg !2928
  store ptr null, ptr %_0, align 8, !dbg !2929
  br label %bb4, !dbg !2925

bb9:                                              ; preds = %bb1
  %v = load ptr, ptr %self4, align 8, !dbg !2930, !nonnull !29, !align !854, !noundef !29
  store ptr %v, ptr %v.dbg.spill, align 8, !dbg !2930
  call void @llvm.dbg.declare(metadata ptr %v.dbg.spill, metadata !2864, metadata !DIExpression()), !dbg !2931
  store ptr %v, ptr %self3, align 8, !dbg !2932
  %v5 = load ptr, ptr %self3, align 8, !dbg !2933, !nonnull !29, !align !854, !noundef !29
  store ptr %v5, ptr %v.dbg.spill6, align 8, !dbg !2933
  call void @llvm.dbg.declare(metadata ptr %v.dbg.spill6, metadata !2893, metadata !DIExpression()), !dbg !2934
  store ptr %v5, ptr %_3, align 8, !dbg !2935
  %thread_local = load ptr, ptr %_3, align 8, !dbg !2896, !nonnull !29, !align !854, !noundef !29
  store ptr %thread_local, ptr %thread_local.dbg.spill, align 8, !dbg !2896
  call void @llvm.dbg.declare(metadata ptr %thread_local.dbg.spill, metadata !2822, metadata !DIExpression()), !dbg !2936
  call void @llvm.dbg.declare(metadata ptr %thread_local.dbg.spill, metadata !2839, metadata !DIExpression()), !dbg !2937
  store i8 0, ptr %_11, align 1, !dbg !2938
  store ptr %thread_local, ptr %_10, align 8, !dbg !2938
  %12 = load ptr, ptr %_10, align 8, !dbg !2938, !nonnull !29, !align !854, !noundef !29
; invoke rand::rngs::thread::thread_rng::{{closure}}
  %_8 = invoke ptr @"_ZN4rand4rngs6thread10thread_rng28_$u7b$$u7b$closure$u7d$$u7d$17h232022d76160d776E"(ptr align 8 %12)
          to label %bb3 unwind label %cleanup, !dbg !2938

bb4:                                              ; preds = %bb3, %bb8
  %13 = load ptr, ptr %_0, align 8, !dbg !2939, !noundef !29
  ret ptr %13, !dbg !2939

bb3:                                              ; preds = %bb9
  store ptr %_8, ptr %_0, align 8, !dbg !2940
  br label %bb4, !dbg !2925

bb2:                                              ; No predecessors!
  unreachable, !dbg !2896

bb5:                                              ; preds = %bb6, %bb7
  %14 = load ptr, ptr %0, align 8, !dbg !2941, !noundef !29
  %15 = getelementptr inbounds i8, ptr %0, i64 8, !dbg !2941
  %16 = load i32, ptr %15, align 8, !dbg !2941, !noundef !29
  %17 = insertvalue { ptr, i32 } poison, ptr %14, 0, !dbg !2941
  %18 = insertvalue { ptr, i32 } %17, i32 %16, 1, !dbg !2941
  resume { ptr, i32 } %18, !dbg !2941

bb6:                                              ; preds = %bb7
  br label %bb5, !dbg !2925
}

; std::panicking::try
; Function Attrs: uwtable
define { ptr, ptr } @_ZN3std9panicking3try17hdaf56e7bcb5e995cE(ptr align 8 %f) unnamed_addr #1 !dbg !2942 {
start:
  %slot.dbg.spill1 = alloca %"core::mem::manually_drop::ManuallyDrop<alloc::boxed::Box<dyn core::any::Any + core::marker::Send>>", align 8
  %0 = alloca i32, align 4
  %data_ptr.dbg.spill = alloca ptr, align 8
  %slot.dbg.spill = alloca %"core::mem::manually_drop::ManuallyDrop<()>", align 1
  %f.dbg.spill = alloca ptr, align 8
  %_3 = alloca ptr, align 8
  %data = alloca %"std::panicking::r#try::Data<core::panic::unwind_safe::AssertUnwindSafe<{closure@std::sys::thread_local::fast_local::destroy_value<alloc::rc::Rc<core::cell::UnsafeCell<rngs::adapter::reseeding::ReseedingRng<rand_chacha::chacha::ChaCha12Core, rand_core::os::OsRng>>>>::{closure#0}}>, ()>", align 8
  %_0 = alloca %"core::result::Result<(), alloc::boxed::Box<dyn core::any::Any + core::marker::Send>>", align 8
  store ptr %f, ptr %f.dbg.spill, align 8
  call void @llvm.dbg.declare(metadata ptr %f.dbg.spill, metadata !2946, metadata !DIExpression()), !dbg !2972
  call void @llvm.dbg.declare(metadata ptr %f.dbg.spill, metadata !2973, metadata !DIExpression()), !dbg !2981
  call void @llvm.dbg.declare(metadata ptr %data, metadata !2947, metadata !DIExpression()), !dbg !2983
  call void @llvm.dbg.declare(metadata ptr %slot.dbg.spill, metadata !2984, metadata !DIExpression()), !dbg !2991
  store ptr %f, ptr %_3, align 8, !dbg !2993
  %1 = load ptr, ptr %_3, align 8, !dbg !2994, !nonnull !29, !align !854, !noundef !29
  store ptr %1, ptr %data, align 8, !dbg !2994
  store ptr %data, ptr %data_ptr.dbg.spill, align 8, !dbg !2995
  call void @llvm.dbg.declare(metadata ptr %data_ptr.dbg.spill, metadata !2969, metadata !DIExpression()), !dbg !2996
  %2 = call i32 @__rust_try(ptr @_ZN3std9panicking3try7do_call17h306f134ce5f9372cE, ptr %data, ptr @_ZN3std9panicking3try8do_catch17ha4ad44aa3a8fa9d7E), !dbg !2997
  store i32 %2, ptr %0, align 4, !dbg !2997
  %_6 = load i32, ptr %0, align 4, !dbg !2997, !noundef !29
  %3 = icmp eq i32 %_6, 0, !dbg !2997
  br i1 %3, label %bb2, label %bb3, !dbg !2997

bb2:                                              ; preds = %start
  store ptr null, ptr %_0, align 8, !dbg !2998
  br label %bb4, !dbg !2999

bb3:                                              ; preds = %start
  %slot.0 = load ptr, ptr %data, align 8, !dbg !3000, !nonnull !29, !align !967, !noundef !29
  %4 = getelementptr inbounds i8, ptr %data, i64 8, !dbg !3000
  %slot.1 = load ptr, ptr %4, align 8, !dbg !3000, !nonnull !29, !align !854, !noundef !29
  store ptr %slot.0, ptr %slot.dbg.spill1, align 8, !dbg !3000
  %5 = getelementptr inbounds i8, ptr %slot.dbg.spill1, i64 8, !dbg !3000
  store ptr %slot.1, ptr %5, align 8, !dbg !3000
  call void @llvm.dbg.declare(metadata ptr %slot.dbg.spill1, metadata !3001, metadata !DIExpression()), !dbg !3008
  store ptr %slot.0, ptr %_0, align 8, !dbg !3010
  %6 = getelementptr inbounds i8, ptr %_0, i64 8, !dbg !3010
  store ptr %slot.1, ptr %6, align 8, !dbg !3010
  br label %bb4, !dbg !2999

bb4:                                              ; preds = %bb3, %bb2
  %7 = load ptr, ptr %_0, align 8, !dbg !3011, !align !967, !noundef !29
  %8 = getelementptr inbounds i8, ptr %_0, i64 8, !dbg !3011
  %9 = load ptr, ptr %8, align 8, !dbg !3011
  %10 = insertvalue { ptr, ptr } poison, ptr %7, 0, !dbg !3011
  %11 = insertvalue { ptr, ptr } %10, ptr %9, 1, !dbg !3011
  ret { ptr, ptr } %11, !dbg !3011
}

; std::panicking::try::do_call
; Function Attrs: inlinehint uwtable
define void @_ZN3std9panicking3try7do_call17h306f134ce5f9372cE(ptr %data) unnamed_addr #0 !dbg !3012 {
start:
  %f.dbg.spill = alloca ptr, align 8
  %src.dbg.spill = alloca ptr, align 8
  %slot.dbg.spill = alloca ptr, align 8
  %data.dbg.spill1 = alloca ptr, align 8
  %value.dbg.spill = alloca {}, align 1
  %data.dbg.spill = alloca ptr, align 8
  store ptr %data, ptr %data.dbg.spill, align 8
  call void @llvm.dbg.declare(metadata ptr %data.dbg.spill, metadata !3014, metadata !DIExpression()), !dbg !3022
  call void @llvm.dbg.declare(metadata ptr %value.dbg.spill, metadata !3023, metadata !DIExpression()), !dbg !3030
  store ptr %data, ptr %data.dbg.spill1, align 8, !dbg !3032
  call void @llvm.dbg.declare(metadata ptr %data.dbg.spill1, metadata !3015, metadata !DIExpression()), !dbg !3033
  call void @llvm.dbg.declare(metadata ptr %data.dbg.spill1, metadata !3018, metadata !DIExpression()), !dbg !3034
  store ptr %data, ptr %slot.dbg.spill, align 8, !dbg !3035
  call void @llvm.dbg.declare(metadata ptr %slot.dbg.spill, metadata !3036, metadata !DIExpression()), !dbg !3044
  store ptr %data, ptr %src.dbg.spill, align 8, !dbg !3046
  call void @llvm.dbg.declare(metadata ptr %src.dbg.spill, metadata !3047, metadata !DIExpression()), !dbg !3054
  %f = load ptr, ptr %data, align 8, !dbg !3056, !nonnull !29, !align !854, !noundef !29
  store ptr %f, ptr %f.dbg.spill, align 8, !dbg !3056
  call void @llvm.dbg.declare(metadata ptr %f.dbg.spill, metadata !3020, metadata !DIExpression()), !dbg !3057
; call <core::panic::unwind_safe::AssertUnwindSafe<F> as core::ops::function::FnOnce<()>>::call_once
  call void @"_ZN115_$LT$core..panic..unwind_safe..AssertUnwindSafe$LT$F$GT$$u20$as$u20$core..ops..function..FnOnce$LT$$LP$$RP$$GT$$GT$9call_once17h2db972e9c159fbe4E"(ptr align 8 %f), !dbg !3058
  ret void, !dbg !3059
}

; std::panicking::try::do_catch
; Function Attrs: inlinehint nounwind uwtable
define void @_ZN3std9panicking3try8do_catch17ha4ad44aa3a8fa9d7E(ptr %data, ptr %payload) unnamed_addr #3 personality ptr @rust_eh_personality !dbg !3060 {
start:
  %obj.dbg.spill = alloca %"alloc::boxed::Box<dyn core::any::Any + core::marker::Send>", align 8
  %data.dbg.spill1 = alloca ptr, align 8
  %payload.dbg.spill = alloca ptr, align 8
  %data.dbg.spill = alloca ptr, align 8
  %_5 = alloca %"core::mem::manually_drop::ManuallyDrop<alloc::boxed::Box<dyn core::any::Any + core::marker::Send>>", align 8
  store ptr %data, ptr %data.dbg.spill, align 8
  call void @llvm.dbg.declare(metadata ptr %data.dbg.spill, metadata !3064, metadata !DIExpression()), !dbg !3072
  store ptr %payload, ptr %payload.dbg.spill, align 8
  call void @llvm.dbg.declare(metadata ptr %payload.dbg.spill, metadata !3065, metadata !DIExpression()), !dbg !3073
  store ptr %data, ptr %data.dbg.spill1, align 8, !dbg !3074
  call void @llvm.dbg.declare(metadata ptr %data.dbg.spill1, metadata !3066, metadata !DIExpression()), !dbg !3075
  call void @llvm.dbg.declare(metadata ptr %data.dbg.spill1, metadata !3068, metadata !DIExpression()), !dbg !3076
; invoke std::panicking::try::cleanup
  %0 = invoke { ptr, ptr } @_ZN3std9panicking3try7cleanup17hb30b1a9bff254d79E(ptr %payload)
          to label %bb1 unwind label %terminate, !dbg !3077

terminate:                                        ; preds = %start
  %1 = landingpad { ptr, i32 }
          filter [0 x ptr] zeroinitializer
  %2 = extractvalue { ptr, i32 } %1, 0
  %3 = extractvalue { ptr, i32 } %1, 1
; call core::panicking::panic_cannot_unwind
  call void @_ZN4core9panicking19panic_cannot_unwind17h3626040c0976c0c3E() #23, !dbg !3078
  unreachable, !dbg !3078

bb1:                                              ; preds = %start
  %obj.0 = extractvalue { ptr, ptr } %0, 0, !dbg !3077
  %obj.1 = extractvalue { ptr, ptr } %0, 1, !dbg !3077
  store ptr %obj.0, ptr %obj.dbg.spill, align 8, !dbg !3077
  %4 = getelementptr inbounds i8, ptr %obj.dbg.spill, i64 8, !dbg !3077
  store ptr %obj.1, ptr %4, align 8, !dbg !3077
  call void @llvm.dbg.declare(metadata ptr %obj.dbg.spill, metadata !3070, metadata !DIExpression()), !dbg !3079
  call void @llvm.dbg.declare(metadata ptr %obj.dbg.spill, metadata !3080, metadata !DIExpression()), !dbg !3087
  store ptr %obj.0, ptr %_5, align 8, !dbg !3089
  %5 = getelementptr inbounds i8, ptr %_5, i64 8, !dbg !3089
  store ptr %obj.1, ptr %5, align 8, !dbg !3089
  %6 = load ptr, ptr %_5, align 8, !dbg !3090, !nonnull !29, !align !967, !noundef !29
  %7 = getelementptr inbounds i8, ptr %_5, i64 8, !dbg !3090
  %8 = load ptr, ptr %7, align 8, !dbg !3090, !nonnull !29, !align !854, !noundef !29
  store ptr %6, ptr %data, align 8, !dbg !3090
  %9 = getelementptr inbounds i8, ptr %data, i64 8, !dbg !3090
  store ptr %8, ptr %9, align 8, !dbg !3090
  ret void, !dbg !3091
}

; core::intrinsics::is_aligned_and_not_null
; Function Attrs: inlinehint uwtable
define internal zeroext i1 @_ZN4core10intrinsics23is_aligned_and_not_null17h115124cfbac1602dE(ptr %ptr, i64 %align) unnamed_addr #0 !dbg !3092 {
start:
  %pieces.dbg.spill = alloca { ptr, i64 }, align 8
  %0 = alloca i64, align 8
  %ptr.dbg.spill1 = alloca ptr, align 8
  %align.dbg.spill = alloca i64, align 8
  %ptr.dbg.spill = alloca ptr, align 8
  %_6 = alloca %"core::fmt::Arguments<'_>", align 8
  %_0 = alloca i8, align 1
  store ptr %ptr, ptr %ptr.dbg.spill, align 8
  call void @llvm.dbg.declare(metadata ptr %ptr.dbg.spill, metadata !3098, metadata !DIExpression()), !dbg !3100
  call void @llvm.dbg.declare(metadata ptr %ptr.dbg.spill, metadata !3101, metadata !DIExpression()), !dbg !3110
  call void @llvm.dbg.declare(metadata ptr %ptr.dbg.spill, metadata !3112, metadata !DIExpression()), !dbg !3117
  call void @llvm.dbg.declare(metadata ptr %ptr.dbg.spill, metadata !3119, metadata !DIExpression()), !dbg !3127
  call void @llvm.dbg.declare(metadata ptr %ptr.dbg.spill, metadata !3129, metadata !DIExpression()), !dbg !3135
  call void @llvm.dbg.declare(metadata ptr %ptr.dbg.spill, metadata !3137, metadata !DIExpression()), !dbg !3143
  call void @llvm.dbg.declare(metadata ptr %ptr.dbg.spill, metadata !3125, metadata !DIExpression()), !dbg !3145
  store i64 %align, ptr %align.dbg.spill, align 8
  call void @llvm.dbg.declare(metadata ptr %align.dbg.spill, metadata !3099, metadata !DIExpression()), !dbg !3147
  call void @llvm.dbg.declare(metadata ptr %align.dbg.spill, metadata !3116, metadata !DIExpression()), !dbg !3148
  call void @llvm.dbg.declare(metadata ptr %align.dbg.spill, metadata !3149, metadata !DIExpression()), !dbg !3158
  call void @llvm.dbg.declare(metadata ptr %align.dbg.spill, metadata !3160, metadata !DIExpression()), !dbg !3167
  call void @llvm.dbg.declare(metadata ptr %align.dbg.spill, metadata !3134, metadata !DIExpression()), !dbg !3169
  store ptr %ptr, ptr %ptr.dbg.spill1, align 8, !dbg !3170
  call void @llvm.dbg.declare(metadata ptr %ptr.dbg.spill1, metadata !3171, metadata !DIExpression()), !dbg !3179
  call void @llvm.dbg.declare(metadata ptr %ptr.dbg.spill1, metadata !3181, metadata !DIExpression()), !dbg !3187
  call void @llvm.dbg.declare(metadata ptr %ptr.dbg.spill1, metadata !3189, metadata !DIExpression()), !dbg !3195
  %_4 = ptrtoint ptr %ptr to i64, !dbg !3197
  %1 = icmp eq i64 %_4, 0, !dbg !3198
  br i1 %1, label %bb1, label %bb2, !dbg !3198

bb1:                                              ; preds = %start
  store i8 0, ptr %_0, align 1, !dbg !3199
  br label %bb3, !dbg !3199

bb2:                                              ; preds = %start
  %2 = call i64 @llvm.ctpop.i64(i64 %align), !dbg !3167
  store i64 %2, ptr %0, align 8, !dbg !3167
  %_9 = load i64, ptr %0, align 8, !dbg !3167, !noundef !29
  %_8 = trunc i64 %_9 to i32, !dbg !3167
  %3 = icmp eq i32 %_8, 1, !dbg !3200
  br i1 %3, label %bb4, label %bb5, !dbg !3200

bb3:                                              ; preds = %bb4, %bb1
  %4 = load i8, ptr %_0, align 1, !dbg !3201, !range !662, !noundef !29
  %5 = trunc i8 %4 to i1, !dbg !3201
  ret i1 %5, !dbg !3201

bb4:                                              ; preds = %bb2
  %_13 = sub i64 %align, 1, !dbg !3202
  %_12 = and i64 %_4, %_13, !dbg !3203
  %6 = icmp eq i64 %_12, 0, !dbg !3203
  %7 = zext i1 %6 to i8, !dbg !3203
  store i8 %7, ptr %_0, align 1, !dbg !3203
  br label %bb3, !dbg !3199

bb5:                                              ; preds = %bb2
  store ptr @alloc_041983ee8170efdaaf95ba67fd072d26, ptr %pieces.dbg.spill, align 8, !dbg !3204
  %8 = getelementptr inbounds i8, ptr %pieces.dbg.spill, i64 8, !dbg !3204
  store i64 1, ptr %8, align 8, !dbg !3204
  call void @llvm.dbg.declare(metadata ptr %pieces.dbg.spill, metadata !3205, metadata !DIExpression()), !dbg !3209
  store ptr @alloc_041983ee8170efdaaf95ba67fd072d26, ptr %_6, align 8, !dbg !3212
  %9 = getelementptr inbounds i8, ptr %_6, i64 8, !dbg !3212
  store i64 1, ptr %9, align 8, !dbg !3212
  %10 = load ptr, ptr @2, align 8, !dbg !3212, !align !854, !noundef !29
  %11 = load i64, ptr getelementptr inbounds (i8, ptr @2, i64 8), align 8, !dbg !3212
  %12 = getelementptr inbounds i8, ptr %_6, i64 32, !dbg !3212
  store ptr %10, ptr %12, align 8, !dbg !3212
  %13 = getelementptr inbounds i8, ptr %12, i64 8, !dbg !3212
  store i64 %11, ptr %13, align 8, !dbg !3212
  %14 = getelementptr inbounds i8, ptr %_6, i64 16, !dbg !3212
  store ptr @alloc_513570631223a12912d85da2bec3b15a, ptr %14, align 8, !dbg !3212
  %15 = getelementptr inbounds i8, ptr %14, i64 8, !dbg !3212
  store i64 0, ptr %15, align 8, !dbg !3212
; call core::panicking::panic_fmt
  call void @_ZN4core9panicking9panic_fmt17ha6d62ade15192290E(ptr align 8 %_6, ptr align 8 @alloc_33f991fa5bbac1da9d8a778b0f014caf) #20, !dbg !3213
  unreachable, !dbg !3213
}

; core::intrinsics::unlikely
; Function Attrs: nounwind uwtable
define internal zeroext i1 @_ZN4core10intrinsics8unlikely17h67a722beadc9bdb6E(i1 zeroext %b) unnamed_addr #4 !dbg !3214 {
start:
  %b.dbg.spill = alloca i8, align 1
  %0 = zext i1 %b to i8
  store i8 %0, ptr %b.dbg.spill, align 1
  call void @llvm.dbg.declare(metadata ptr %b.dbg.spill, metadata !3218, metadata !DIExpression()), !dbg !3219
  ret i1 %b, !dbg !3220
}

; core::cmp::impls::<impl core::cmp::PartialEq for ()>::eq
; Function Attrs: inlinehint uwtable
define internal zeroext i1 @"_ZN4core3cmp5impls59_$LT$impl$u20$core..cmp..PartialEq$u20$for$u20$$LP$$RP$$GT$2eq17h87a757b2bb86b9f7E"(ptr align 1 %self, ptr align 1 %_other) unnamed_addr #0 !dbg !3221 {
start:
  %_other.dbg.spill = alloca ptr, align 8
  %self.dbg.spill = alloca ptr, align 8
  store ptr %self, ptr %self.dbg.spill, align 8
  call void @llvm.dbg.declare(metadata ptr %self.dbg.spill, metadata !3228, metadata !DIExpression()), !dbg !3230
  store ptr %_other, ptr %_other.dbg.spill, align 8
  call void @llvm.dbg.declare(metadata ptr %_other.dbg.spill, metadata !3229, metadata !DIExpression()), !dbg !3231
  ret i1 true, !dbg !3232
}

; core::cmp::impls::<impl core::cmp::PartialEq<&B> for &A>::eq
; Function Attrs: inlinehint uwtable
define zeroext i1 @"_ZN4core3cmp5impls69_$LT$impl$u20$core..cmp..PartialEq$LT$$RF$B$GT$$u20$for$u20$$RF$A$GT$2eq17h2217b99d9b5074f9E"(ptr align 8 %self, ptr align 8 %other) unnamed_addr #0 !dbg !3233 {
start:
  %other.dbg.spill = alloca ptr, align 8
  %self.dbg.spill = alloca ptr, align 8
  store ptr %self, ptr %self.dbg.spill, align 8
  call void @llvm.dbg.declare(metadata ptr %self.dbg.spill, metadata !3261, metadata !DIExpression()), !dbg !3266
  store ptr %other, ptr %other.dbg.spill, align 8
  call void @llvm.dbg.declare(metadata ptr %other.dbg.spill, metadata !3262, metadata !DIExpression()), !dbg !3267
  %_3 = load ptr, ptr %self, align 8, !dbg !3268, !nonnull !29, !align !854, !noundef !29
  %_4 = load ptr, ptr %other, align 8, !dbg !3269, !nonnull !29, !align !854, !noundef !29
; call alloc::vec::partial_eq::<impl core::cmp::PartialEq<alloc::vec::Vec<U,A2>> for alloc::vec::Vec<T,A1>>::eq
  %_0 = call zeroext i1 @"_ZN5alloc3vec10partial_eq117_$LT$impl$u20$core..cmp..PartialEq$LT$alloc..vec..Vec$LT$U$C$A2$GT$$GT$$u20$for$u20$alloc..vec..Vec$LT$T$C$A1$GT$$GT$2eq17h67786dd6b4913435E"(ptr align 8 %_3, ptr align 8 %_4), !dbg !3270
  ret i1 %_0, !dbg !3271
}

; core::cmp::impls::<impl core::cmp::PartialEq<&B> for &A>::eq
; Function Attrs: inlinehint uwtable
define zeroext i1 @"_ZN4core3cmp5impls69_$LT$impl$u20$core..cmp..PartialEq$LT$$RF$B$GT$$u20$for$u20$$RF$A$GT$2eq17hd0c5ab09329daaa4E"(ptr align 8 %self, ptr align 8 %other) unnamed_addr #0 !dbg !3272 {
start:
  %other.dbg.spill = alloca ptr, align 8
  %self.dbg.spill = alloca ptr, align 8
  store ptr %self, ptr %self.dbg.spill, align 8
  call void @llvm.dbg.declare(metadata ptr %self.dbg.spill, metadata !3293, metadata !DIExpression()), !dbg !3298
  store ptr %other, ptr %other.dbg.spill, align 8
  call void @llvm.dbg.declare(metadata ptr %other.dbg.spill, metadata !3294, metadata !DIExpression()), !dbg !3299
  %_3 = load ptr, ptr %self, align 8, !dbg !3300, !nonnull !29, !align !854, !noundef !29
  %_4 = load ptr, ptr %other, align 8, !dbg !3301, !nonnull !29, !align !854, !noundef !29
; call alloc::vec::partial_eq::<impl core::cmp::PartialEq<alloc::vec::Vec<U,A2>> for alloc::vec::Vec<T,A1>>::eq
  %_0 = call zeroext i1 @"_ZN5alloc3vec10partial_eq117_$LT$impl$u20$core..cmp..PartialEq$LT$alloc..vec..Vec$LT$U$C$A2$GT$$GT$$u20$for$u20$alloc..vec..Vec$LT$T$C$A1$GT$$GT$2eq17h09f1488b4c208bf9E"(ptr align 8 %_3, ptr align 8 %_4), !dbg !3302
  ret i1 %_0, !dbg !3303
}

; core::fmt::Write::write_char
; Function Attrs: uwtable
define zeroext i1 @_ZN4core3fmt5Write10write_char17h974ef25ecae37b47E(ptr align 8 %self, i32 %c) unnamed_addr #1 !dbg !3304 {
start:
  %v.dbg.spill = alloca { ptr, i64 }, align 8
  %dst.dbg.spill = alloca { ptr, i64 }, align 8
  %c.dbg.spill = alloca i32, align 4
  %self.dbg.spill = alloca ptr, align 8
  %_6 = alloca [4 x i8], align 1
  store ptr %self, ptr %self.dbg.spill, align 8
  call void @llvm.dbg.declare(metadata ptr %self.dbg.spill, metadata !3310, metadata !DIExpression()), !dbg !3314
  store i32 %c, ptr %c.dbg.spill, align 4
  call void @llvm.dbg.declare(metadata ptr %c.dbg.spill, metadata !3311, metadata !DIExpression()), !dbg !3315
  call void @llvm.dbg.declare(metadata ptr %c.dbg.spill, metadata !3316, metadata !DIExpression()), !dbg !3335
  call void @llvm.memset.p0.i64(ptr align 1 %_6, i8 0, i64 4, i1 false), !dbg !3337
  store ptr %_6, ptr %dst.dbg.spill, align 8, !dbg !3338
  %0 = getelementptr inbounds i8, ptr %dst.dbg.spill, i64 8, !dbg !3338
  store i64 4, ptr %0, align 8, !dbg !3338
  call void @llvm.dbg.declare(metadata ptr %dst.dbg.spill, metadata !3334, metadata !DIExpression()), !dbg !3339
; call core::char::methods::encode_utf8_raw
  %1 = call { ptr, i64 } @_ZN4core4char7methods15encode_utf8_raw17h31302f466a66d2afE(i32 %c, ptr align 1 %_6, i64 4), !dbg !3340
  %v.0 = extractvalue { ptr, i64 } %1, 0, !dbg !3340
  %v.1 = extractvalue { ptr, i64 } %1, 1, !dbg !3340
  store ptr %v.0, ptr %v.dbg.spill, align 8, !dbg !3340
  %2 = getelementptr inbounds i8, ptr %v.dbg.spill, i64 8, !dbg !3340
  store i64 %v.1, ptr %2, align 8, !dbg !3340
  call void @llvm.dbg.declare(metadata ptr %v.dbg.spill, metadata !3341, metadata !DIExpression()), !dbg !3350
; call <std::io::Write::write_fmt::Adapter<T> as core::fmt::Write>::write_str
  %_0 = call zeroext i1 @"_ZN80_$LT$std..io..Write..write_fmt..Adapter$LT$T$GT$$u20$as$u20$core..fmt..Write$GT$9write_str17hdb067050d56b5907E"(ptr align 8 %self, ptr align 1 %v.0, i64 %v.1), !dbg !3352
  ret i1 %_0, !dbg !3353
}

; core::fmt::Write::write_fmt
; Function Attrs: uwtable
define zeroext i1 @_ZN4core3fmt5Write9write_fmt17h05a1f4ad116055bbE(ptr align 8 %self, ptr align 8 %args) unnamed_addr #1 !dbg !3354 {
start:
  %self.dbg.spill = alloca ptr, align 8
  store ptr %self, ptr %self.dbg.spill, align 8
  call void @llvm.dbg.declare(metadata ptr %self.dbg.spill, metadata !3358, metadata !DIExpression()), !dbg !3360
  call void @llvm.dbg.declare(metadata ptr %args, metadata !3359, metadata !DIExpression()), !dbg !3361
; call <&mut W as core::fmt::Write::write_fmt::SpecWriteFmt>::spec_write_fmt
  %_0 = call zeroext i1 @"_ZN75_$LT$$RF$mut$u20$W$u20$as$u20$core..fmt..Write..write_fmt..SpecWriteFmt$GT$14spec_write_fmt17h8941eb0bc77a1268E"(ptr align 8 %self, ptr align 8 %args), !dbg !3362
  ret i1 %_0, !dbg !3363
}

; core::fmt::Arguments::as_const_str
; Function Attrs: inlinehint uwtable
define internal { ptr, i64 } @_ZN4core3fmt9Arguments12as_const_str17h3f341cfb4a940a37E(ptr align 8 %self) unnamed_addr #0 !dbg !3364 {
start:
  %0 = alloca i8, align 1
  %self.dbg.spill2 = alloca ptr, align 8
  %s.dbg.spill = alloca ptr, align 8
  %self.dbg.spill = alloca ptr, align 8
  %_4 = alloca i8, align 1
  %s = alloca %"core::option::Option<&str>", align 8
  %_0 = alloca %"core::option::Option<&str>", align 8
  store ptr %self, ptr %self.dbg.spill, align 8
  call void @llvm.dbg.declare(metadata ptr %self.dbg.spill, metadata !3383, metadata !DIExpression()), !dbg !3386
  call void @llvm.dbg.declare(metadata ptr %self.dbg.spill, metadata !3387, metadata !DIExpression()), !dbg !3395
  call void @llvm.dbg.declare(metadata ptr %s, metadata !3384, metadata !DIExpression()), !dbg !3397
  %_6.0 = load ptr, ptr %self, align 8, !dbg !3398, !nonnull !29, !align !854, !noundef !29
  %1 = getelementptr inbounds i8, ptr %self, i64 8, !dbg !3398
  %_6.1 = load i64, ptr %1, align 8, !dbg !3398, !noundef !29
  %2 = getelementptr inbounds i8, ptr %self, i64 16, !dbg !3399
  %_7.0 = load ptr, ptr %2, align 8, !dbg !3399, !nonnull !29, !align !854, !noundef !29
  %3 = getelementptr inbounds i8, ptr %2, i64 8, !dbg !3399
  %_7.1 = load i64, ptr %3, align 8, !dbg !3399, !noundef !29
  %4 = icmp eq i64 %_6.1, 0, !dbg !3400
  br i1 %4, label %bb7, label %bb8, !dbg !3400

bb7:                                              ; preds = %start
  %5 = icmp eq i64 %_7.1, 0, !dbg !3401
  br i1 %5, label %bb10, label %bb6, !dbg !3401

bb8:                                              ; preds = %start
  %6 = icmp eq i64 %_6.1, 1, !dbg !3402
  br i1 %6, label %bb9, label %bb6, !dbg !3402

bb10:                                             ; preds = %bb7
  store ptr @alloc_513570631223a12912d85da2bec3b15a, ptr %s, align 8, !dbg !3403
  %7 = getelementptr inbounds i8, ptr %s, i64 8, !dbg !3403
  store i64 0, ptr %7, align 8, !dbg !3403
  br label %bb5, !dbg !3404

bb6:                                              ; preds = %bb9, %bb8, %bb7
  %8 = load ptr, ptr @2, align 8, !dbg !3405, !align !967, !noundef !29
  %9 = load i64, ptr getelementptr inbounds (i8, ptr @2, i64 8), align 8, !dbg !3405
  store ptr %8, ptr %s, align 8, !dbg !3405
  %10 = getelementptr inbounds i8, ptr %s, i64 8, !dbg !3405
  store i64 %9, ptr %10, align 8, !dbg !3405
  br label %bb5, !dbg !3405

bb5:                                              ; preds = %bb6, %bb11, %bb10
  store ptr %s, ptr %self.dbg.spill2, align 8, !dbg !3406
  call void @llvm.dbg.declare(metadata ptr %self.dbg.spill2, metadata !3407, metadata !DIExpression()), !dbg !3415
  %11 = load ptr, ptr %s, align 8, !dbg !3417, !noundef !29
  %12 = ptrtoint ptr %11 to i64, !dbg !3417
  %13 = icmp eq i64 %12, 0, !dbg !3417
  %_14 = select i1 %13, i64 0, i64 1, !dbg !3417
  %14 = icmp eq i64 %_14, 1, !dbg !3418
  br i1 %14, label %bb14, label %bb13, !dbg !3418

bb9:                                              ; preds = %bb8
  %15 = icmp eq i64 %_7.1, 0, !dbg !3419
  br i1 %15, label %bb11, label %bb6, !dbg !3419

bb11:                                             ; preds = %bb9
  %s1 = getelementptr inbounds [0 x { ptr, i64 }], ptr %_6.0, i64 0, i64 0, !dbg !3420
  store ptr %s1, ptr %s.dbg.spill, align 8, !dbg !3420
  call void @llvm.dbg.declare(metadata ptr %s.dbg.spill, metadata !3392, metadata !DIExpression()), !dbg !3421
  %16 = getelementptr inbounds [0 x { ptr, i64 }], ptr %_6.0, i64 0, i64 0, !dbg !3422
  %_13.0 = load ptr, ptr %16, align 8, !dbg !3422, !nonnull !29, !align !967, !noundef !29
  %17 = getelementptr inbounds i8, ptr %16, i64 8, !dbg !3422
  %_13.1 = load i64, ptr %17, align 8, !dbg !3422, !noundef !29
  store ptr %_13.0, ptr %s, align 8, !dbg !3423
  %18 = getelementptr inbounds i8, ptr %s, i64 8, !dbg !3423
  store i64 %_13.1, ptr %18, align 8, !dbg !3423
  br label %bb5, !dbg !3424

bb14:                                             ; preds = %bb5
  store i8 1, ptr %_4, align 1, !dbg !3418
  br label %bb12, !dbg !3418

bb13:                                             ; preds = %bb5
  store i8 0, ptr %_4, align 1, !dbg !3418
  br label %bb12, !dbg !3418

bb12:                                             ; preds = %bb13, %bb14
  %19 = load i8, ptr %_4, align 1, !dbg !3425, !range !662, !noundef !29
  %20 = trunc i8 %19 to i1, !dbg !3425
  %21 = call i1 @llvm.is.constant.i1(i1 %20), !dbg !3425
  %22 = zext i1 %21 to i8, !dbg !3425
  store i8 %22, ptr %0, align 1, !dbg !3425
  %23 = load i8, ptr %0, align 1, !dbg !3425, !range !662, !noundef !29
  %_3 = trunc i8 %23 to i1, !dbg !3425
  br i1 %_3, label %bb2, label %bb3, !dbg !3425

bb3:                                              ; preds = %bb12
  %24 = load ptr, ptr @2, align 8, !dbg !3426, !align !967, !noundef !29
  %25 = load i64, ptr getelementptr inbounds (i8, ptr @2, i64 8), align 8, !dbg !3426
  store ptr %24, ptr %_0, align 8, !dbg !3426
  %26 = getelementptr inbounds i8, ptr %_0, i64 8, !dbg !3426
  store i64 %25, ptr %26, align 8, !dbg !3426
  br label %bb4, !dbg !3427

bb2:                                              ; preds = %bb12
  %27 = load ptr, ptr %s, align 8, !dbg !3428, !align !967, !noundef !29
  %28 = getelementptr inbounds i8, ptr %s, i64 8, !dbg !3428
  %29 = load i64, ptr %28, align 8, !dbg !3428
  store ptr %27, ptr %_0, align 8, !dbg !3428
  %30 = getelementptr inbounds i8, ptr %_0, i64 8, !dbg !3428
  store i64 %29, ptr %30, align 8, !dbg !3428
  br label %bb4, !dbg !3427

bb4:                                              ; preds = %bb2, %bb3
  %31 = load ptr, ptr %_0, align 8, !dbg !3429, !align !967, !noundef !29
  %32 = getelementptr inbounds i8, ptr %_0, i64 8, !dbg !3429
  %33 = load i64, ptr %32, align 8, !dbg !3429
  %34 = insertvalue { ptr, i64 } poison, ptr %31, 0, !dbg !3429
  %35 = insertvalue { ptr, i64 } %34, i64 %33, 1, !dbg !3429
  ret { ptr, i64 } %35, !dbg !3429

bb15:                                             ; No predecessors!
  unreachable, !dbg !3430
}

; core::fmt::Arguments::new_v1
; Function Attrs: inlinehint uwtable
define internal void @_ZN4core3fmt9Arguments6new_v117h303b5ba360dfbce2E(ptr sret(%"core::fmt::Arguments<'_>") align 8 %_0, ptr align 8 %pieces.0, i64 %pieces.1, ptr align 8 %args.0, i64 %args.1) unnamed_addr #0 !dbg !3431 {
start:
  %pieces.dbg.spill1 = alloca { ptr, i64 }, align 8
  %args.dbg.spill = alloca { ptr, i64 }, align 8
  %pieces.dbg.spill = alloca { ptr, i64 }, align 8
  %_9 = alloca %"core::fmt::Arguments<'_>", align 8
  store ptr %pieces.0, ptr %pieces.dbg.spill, align 8
  %0 = getelementptr inbounds i8, ptr %pieces.dbg.spill, i64 8
  store i64 %pieces.1, ptr %0, align 8
  call void @llvm.dbg.declare(metadata ptr %pieces.dbg.spill, metadata !3433, metadata !DIExpression()), !dbg !3435
  store ptr %args.0, ptr %args.dbg.spill, align 8
  %1 = getelementptr inbounds i8, ptr %args.dbg.spill, i64 8
  store i64 %args.1, ptr %1, align 8
  call void @llvm.dbg.declare(metadata ptr %args.dbg.spill, metadata !3434, metadata !DIExpression()), !dbg !3436
  %_3 = icmp ult i64 %pieces.1, %args.1, !dbg !3437
  br i1 %_3, label %bb3, label %bb1, !dbg !3437

bb1:                                              ; preds = %start
  %_7 = add i64 %args.1, 1, !dbg !3438
  %_6 = icmp ugt i64 %pieces.1, %_7, !dbg !3439
  br i1 %_6, label %bb2, label %bb4, !dbg !3439

bb3:                                              ; preds = %bb2, %start
  store ptr @alloc_af99043bc04c419363a7f04d23183506, ptr %pieces.dbg.spill1, align 8, !dbg !3440
  %2 = getelementptr inbounds i8, ptr %pieces.dbg.spill1, i64 8, !dbg !3440
  store i64 1, ptr %2, align 8, !dbg !3440
  call void @llvm.dbg.declare(metadata ptr %pieces.dbg.spill1, metadata !3441, metadata !DIExpression()), !dbg !3445
  store ptr @alloc_af99043bc04c419363a7f04d23183506, ptr %_9, align 8, !dbg !3448
  %3 = getelementptr inbounds i8, ptr %_9, i64 8, !dbg !3448
  store i64 1, ptr %3, align 8, !dbg !3448
  %4 = load ptr, ptr @2, align 8, !dbg !3448, !align !854, !noundef !29
  %5 = load i64, ptr getelementptr inbounds (i8, ptr @2, i64 8), align 8, !dbg !3448
  %6 = getelementptr inbounds i8, ptr %_9, i64 32, !dbg !3448
  store ptr %4, ptr %6, align 8, !dbg !3448
  %7 = getelementptr inbounds i8, ptr %6, i64 8, !dbg !3448
  store i64 %5, ptr %7, align 8, !dbg !3448
  %8 = getelementptr inbounds i8, ptr %_9, i64 16, !dbg !3448
  store ptr @alloc_513570631223a12912d85da2bec3b15a, ptr %8, align 8, !dbg !3448
  %9 = getelementptr inbounds i8, ptr %8, i64 8, !dbg !3448
  store i64 0, ptr %9, align 8, !dbg !3448
; call core::panicking::panic_fmt
  call void @_ZN4core9panicking9panic_fmt17ha6d62ade15192290E(ptr align 8 %_9, ptr align 8 @alloc_4ba2c5ddff77a51f3765b0dd5f2851cc) #20, !dbg !3449
  unreachable, !dbg !3449

bb4:                                              ; preds = %bb1
  store ptr %pieces.0, ptr %_0, align 8, !dbg !3450
  %10 = getelementptr inbounds i8, ptr %_0, i64 8, !dbg !3450
  store i64 %pieces.1, ptr %10, align 8, !dbg !3450
  %11 = load ptr, ptr @2, align 8, !dbg !3450, !align !854, !noundef !29
  %12 = load i64, ptr getelementptr inbounds (i8, ptr @2, i64 8), align 8, !dbg !3450
  %13 = getelementptr inbounds i8, ptr %_0, i64 32, !dbg !3450
  store ptr %11, ptr %13, align 8, !dbg !3450
  %14 = getelementptr inbounds i8, ptr %13, i64 8, !dbg !3450
  store i64 %12, ptr %14, align 8, !dbg !3450
  %15 = getelementptr inbounds i8, ptr %_0, i64 16, !dbg !3450
  store ptr %args.0, ptr %15, align 8, !dbg !3450
  %16 = getelementptr inbounds i8, ptr %15, i64 8, !dbg !3450
  store i64 %args.1, ptr %16, align 8, !dbg !3450
  ret void, !dbg !3451

bb2:                                              ; preds = %bb1
  br label %bb3, !dbg !3452
}

; core::fmt::Arguments::new_const
; Function Attrs: inlinehint uwtable
define internal void @_ZN4core3fmt9Arguments9new_const17h714a73a139c41d4fE(ptr sret(%"core::fmt::Arguments<'_>") align 8 %_0, ptr align 8 %pieces.0, i64 %pieces.1) unnamed_addr #0 !dbg !3453 {
start:
  %pieces.dbg.spill = alloca { ptr, i64 }, align 8
  %_5 = alloca %"core::fmt::Arguments<'_>", align 8
  store ptr %pieces.0, ptr %pieces.dbg.spill, align 8
  %0 = getelementptr inbounds i8, ptr %pieces.dbg.spill, i64 8
  store i64 %pieces.1, ptr %0, align 8
  call void @llvm.dbg.declare(metadata ptr %pieces.dbg.spill, metadata !3455, metadata !DIExpression()), !dbg !3456
  %_2 = icmp ugt i64 %pieces.1, 1, !dbg !3457
  br i1 %_2, label %bb1, label %bb3, !dbg !3457

bb3:                                              ; preds = %start
  store ptr %pieces.0, ptr %_0, align 8, !dbg !3458
  %1 = getelementptr inbounds i8, ptr %_0, i64 8, !dbg !3458
  store i64 %pieces.1, ptr %1, align 8, !dbg !3458
  %2 = load ptr, ptr @2, align 8, !dbg !3458, !align !854, !noundef !29
  %3 = load i64, ptr getelementptr inbounds (i8, ptr @2, i64 8), align 8, !dbg !3458
  %4 = getelementptr inbounds i8, ptr %_0, i64 32, !dbg !3458
  store ptr %2, ptr %4, align 8, !dbg !3458
  %5 = getelementptr inbounds i8, ptr %4, i64 8, !dbg !3458
  store i64 %3, ptr %5, align 8, !dbg !3458
  %6 = getelementptr inbounds i8, ptr %_0, i64 16, !dbg !3458
  store ptr @alloc_513570631223a12912d85da2bec3b15a, ptr %6, align 8, !dbg !3458
  %7 = getelementptr inbounds i8, ptr %6, i64 8, !dbg !3458
  store i64 0, ptr %7, align 8, !dbg !3458
  ret void, !dbg !3459

bb1:                                              ; preds = %start
; call core::fmt::Arguments::new_const
  call void @_ZN4core3fmt9Arguments9new_const17h714a73a139c41d4fE(ptr sret(%"core::fmt::Arguments<'_>") align 8 %_5, ptr align 8 @alloc_af99043bc04c419363a7f04d23183506, i64 1), !dbg !3460
; call core::panicking::panic_fmt
  call void @_ZN4core9panicking9panic_fmt17ha6d62ade15192290E(ptr align 8 %_5, ptr align 8 @alloc_3d28b95801fd55932918b2920be93f48) #20, !dbg !3460
  unreachable, !dbg !3460
}

; core::fmt::Formatter::write_fmt
; Function Attrs: inlinehint uwtable
define internal zeroext i1 @_ZN4core3fmt9Formatter9write_fmt17h1928b7c085ff162fE(ptr align 8 %self, ptr align 8 %fmt) unnamed_addr #0 !dbg !3461 {
start:
  %s.dbg.spill = alloca { ptr, i64 }, align 8
  %self.dbg.spill = alloca ptr, align 8
  %_7 = alloca %"core::fmt::Arguments<'_>", align 8
  %_3 = alloca %"core::option::Option<&str>", align 8
  %_0 = alloca i8, align 1
  store ptr %self, ptr %self.dbg.spill, align 8
  call void @llvm.dbg.declare(metadata ptr %self.dbg.spill, metadata !3466, metadata !DIExpression()), !dbg !3470
  call void @llvm.dbg.declare(metadata ptr %fmt, metadata !3467, metadata !DIExpression()), !dbg !3471
; call core::fmt::Arguments::as_const_str
  %0 = call { ptr, i64 } @_ZN4core3fmt9Arguments12as_const_str17h3f341cfb4a940a37E(ptr align 8 %fmt), !dbg !3472
  %1 = extractvalue { ptr, i64 } %0, 0, !dbg !3472
  %2 = extractvalue { ptr, i64 } %0, 1, !dbg !3472
  store ptr %1, ptr %_3, align 8, !dbg !3472
  %3 = getelementptr inbounds i8, ptr %_3, i64 8, !dbg !3472
  store i64 %2, ptr %3, align 8, !dbg !3472
  %4 = load ptr, ptr %_3, align 8, !dbg !3473, !noundef !29
  %5 = ptrtoint ptr %4 to i64, !dbg !3473
  %6 = icmp eq i64 %5, 0, !dbg !3473
  %_5 = select i1 %6, i64 0, i64 1, !dbg !3473
  %7 = icmp eq i64 %_5, 1, !dbg !3473
  br i1 %7, label %bb2, label %bb3, !dbg !3473

bb2:                                              ; preds = %start
  %s.0 = load ptr, ptr %_3, align 8, !dbg !3474, !nonnull !29, !align !967, !noundef !29
  %8 = getelementptr inbounds i8, ptr %_3, i64 8, !dbg !3474
  %s.1 = load i64, ptr %8, align 8, !dbg !3474, !noundef !29
  store ptr %s.0, ptr %s.dbg.spill, align 8, !dbg !3474
  %9 = getelementptr inbounds i8, ptr %s.dbg.spill, i64 8, !dbg !3474
  store i64 %s.1, ptr %9, align 8, !dbg !3474
  call void @llvm.dbg.declare(metadata ptr %s.dbg.spill, metadata !3468, metadata !DIExpression()), !dbg !3474
  %10 = getelementptr inbounds i8, ptr %self, i64 32, !dbg !3475
  %_8.0 = load ptr, ptr %10, align 8, !dbg !3475, !nonnull !29, !align !967, !noundef !29
  %11 = getelementptr inbounds i8, ptr %10, i64 8, !dbg !3475
  %_8.1 = load ptr, ptr %11, align 8, !dbg !3475, !nonnull !29, !align !854, !noundef !29
  %12 = getelementptr inbounds ptr, ptr %_8.1, i64 3, !dbg !3475
  %13 = load ptr, ptr %12, align 8, !dbg !3475, !invariant.load !29, !nonnull !29
  %14 = call zeroext i1 %13(ptr align 1 %_8.0, ptr align 1 %s.0, i64 %s.1), !dbg !3475
  %15 = zext i1 %14 to i8, !dbg !3475
  store i8 %15, ptr %_0, align 1, !dbg !3475
  br label %bb5, !dbg !3475

bb3:                                              ; preds = %start
  %16 = getelementptr inbounds i8, ptr %self, i64 32, !dbg !3476
  %_9.0 = load ptr, ptr %16, align 8, !dbg !3476, !nonnull !29, !align !967, !noundef !29
  %17 = getelementptr inbounds i8, ptr %16, i64 8, !dbg !3476
  %_9.1 = load ptr, ptr %17, align 8, !dbg !3476, !nonnull !29, !align !854, !noundef !29
  call void @llvm.memcpy.p0.p0.i64(ptr align 8 %_7, ptr align 8 %fmt, i64 48, i1 false), !dbg !3477
; call core::fmt::write
  %18 = call zeroext i1 @_ZN4core3fmt5write17hd3417f5223b3b5daE(ptr align 1 %_9.0, ptr align 8 %_9.1, ptr align 8 %_7), !dbg !3478
  %19 = zext i1 %18 to i8, !dbg !3478
  store i8 %19, ptr %_0, align 1, !dbg !3478
  br label %bb5, !dbg !3479

bb5:                                              ; preds = %bb3, %bb2
  %20 = load i8, ptr %_0, align 1, !dbg !3480, !range !662, !noundef !29
  %21 = trunc i8 %20 to i1, !dbg !3480
  ret i1 %21, !dbg !3480

bb6:                                              ; No predecessors!
  unreachable, !dbg !3481
}

; core::num::<impl i8>::checked_add
; Function Attrs: inlinehint uwtable
define internal { i1, i8 } @"_ZN4core3num20_$LT$impl$u20$i8$GT$11checked_add17h63d9268a98c6acdbE"(i8 %self, i8 %rhs) unnamed_addr #0 !dbg !3482 {
start:
  %0 = alloca i8, align 1
  %b.dbg.spill = alloca i8, align 1
  %a.dbg.spill = alloca i8, align 1
  %rhs.dbg.spill = alloca i8, align 1
  %self.dbg.spill = alloca i8, align 1
  %_0 = alloca %"core::option::Option<i8>", align 1
  store i8 %self, ptr %self.dbg.spill, align 1
  call void @llvm.dbg.declare(metadata ptr %self.dbg.spill, metadata !3501, metadata !DIExpression()), !dbg !3506
  call void @llvm.dbg.declare(metadata ptr %self.dbg.spill, metadata !3507, metadata !DIExpression()), !dbg !3521
  store i8 %rhs, ptr %rhs.dbg.spill, align 1
  call void @llvm.dbg.declare(metadata ptr %rhs.dbg.spill, metadata !3502, metadata !DIExpression()), !dbg !3523
  call void @llvm.dbg.declare(metadata ptr %rhs.dbg.spill, metadata !3517, metadata !DIExpression()), !dbg !3524
  %1 = call { i8, i1 } @llvm.sadd.with.overflow.i8(i8 %self, i8 %rhs), !dbg !3525
  %_6.0 = extractvalue { i8, i1 } %1, 0, !dbg !3525
  %_6.1 = extractvalue { i8, i1 } %1, 1, !dbg !3525
  store i8 %_6.0, ptr %a.dbg.spill, align 1, !dbg !3526
  call void @llvm.dbg.declare(metadata ptr %a.dbg.spill, metadata !3503, metadata !DIExpression()), !dbg !3527
  call void @llvm.dbg.declare(metadata ptr %a.dbg.spill, metadata !3518, metadata !DIExpression()), !dbg !3528
  %2 = zext i1 %_6.1 to i8, !dbg !3529
  store i8 %2, ptr %b.dbg.spill, align 1, !dbg !3529
  call void @llvm.dbg.declare(metadata ptr %b.dbg.spill, metadata !3505, metadata !DIExpression()), !dbg !3530
  call void @llvm.dbg.declare(metadata ptr %b.dbg.spill, metadata !3520, metadata !DIExpression()), !dbg !3531
  %3 = call i1 @llvm.expect.i1(i1 %_6.1, i1 false), !dbg !3532
  %4 = zext i1 %3 to i8, !dbg !3532
  store i8 %4, ptr %0, align 1, !dbg !3532
  %5 = load i8, ptr %0, align 1, !dbg !3532, !range !662, !noundef !29
  %_3 = trunc i8 %5 to i1, !dbg !3532
  br i1 %_3, label %bb2, label %bb3, !dbg !3532

bb3:                                              ; preds = %start
  %6 = getelementptr inbounds i8, ptr %_0, i64 1, !dbg !3533
  store i8 %_6.0, ptr %6, align 1, !dbg !3533
  store i8 1, ptr %_0, align 1, !dbg !3533
  br label %bb4, !dbg !3534

bb2:                                              ; preds = %start
  %7 = load i8, ptr @3, align 1, !dbg !3535, !range !662, !noundef !29
  %8 = trunc i8 %7 to i1, !dbg !3535
  %9 = load i8, ptr getelementptr inbounds (i8, ptr @3, i64 1), align 1, !dbg !3535
  %10 = zext i1 %8 to i8, !dbg !3535
  store i8 %10, ptr %_0, align 1, !dbg !3535
  %11 = getelementptr inbounds i8, ptr %_0, i64 1, !dbg !3535
  store i8 %9, ptr %11, align 1, !dbg !3535
  br label %bb4, !dbg !3534

bb4:                                              ; preds = %bb2, %bb3
  %12 = load i8, ptr %_0, align 1, !dbg !3536, !range !662, !noundef !29
  %13 = trunc i8 %12 to i1, !dbg !3536
  %14 = getelementptr inbounds i8, ptr %_0, i64 1, !dbg !3536
  %15 = load i8, ptr %14, align 1, !dbg !3536
  %16 = insertvalue { i1, i8 } poison, i1 %13, 0, !dbg !3536
  %17 = insertvalue { i1, i8 } %16, i8 %15, 1, !dbg !3536
  ret { i1, i8 } %17, !dbg !3536
}

; core::num::<impl u8>::checked_add
; Function Attrs: inlinehint uwtable
define internal { i1, i8 } @"_ZN4core3num20_$LT$impl$u20$u8$GT$11checked_add17h8cff3fafa798ccb5E"(i8 %self, i8 %rhs) unnamed_addr #0 !dbg !3537 {
start:
  %0 = alloca i8, align 1
  %b.dbg.spill = alloca i8, align 1
  %a.dbg.spill = alloca i8, align 1
  %rhs.dbg.spill = alloca i8, align 1
  %self.dbg.spill = alloca i8, align 1
  %_0 = alloca %"core::option::Option<u8>", align 1
  store i8 %self, ptr %self.dbg.spill, align 1
  call void @llvm.dbg.declare(metadata ptr %self.dbg.spill, metadata !3553, metadata !DIExpression()), !dbg !3558
  call void @llvm.dbg.declare(metadata ptr %self.dbg.spill, metadata !3559, metadata !DIExpression()), !dbg !3573
  store i8 %rhs, ptr %rhs.dbg.spill, align 1
  call void @llvm.dbg.declare(metadata ptr %rhs.dbg.spill, metadata !3554, metadata !DIExpression()), !dbg !3575
  call void @llvm.dbg.declare(metadata ptr %rhs.dbg.spill, metadata !3569, metadata !DIExpression()), !dbg !3576
  %1 = call { i8, i1 } @llvm.uadd.with.overflow.i8(i8 %self, i8 %rhs), !dbg !3577
  %_6.0 = extractvalue { i8, i1 } %1, 0, !dbg !3577
  %_6.1 = extractvalue { i8, i1 } %1, 1, !dbg !3577
  store i8 %_6.0, ptr %a.dbg.spill, align 1, !dbg !3578
  call void @llvm.dbg.declare(metadata ptr %a.dbg.spill, metadata !3555, metadata !DIExpression()), !dbg !3579
  call void @llvm.dbg.declare(metadata ptr %a.dbg.spill, metadata !3570, metadata !DIExpression()), !dbg !3580
  %2 = zext i1 %_6.1 to i8, !dbg !3581
  store i8 %2, ptr %b.dbg.spill, align 1, !dbg !3581
  call void @llvm.dbg.declare(metadata ptr %b.dbg.spill, metadata !3557, metadata !DIExpression()), !dbg !3582
  call void @llvm.dbg.declare(metadata ptr %b.dbg.spill, metadata !3572, metadata !DIExpression()), !dbg !3583
  %3 = call i1 @llvm.expect.i1(i1 %_6.1, i1 false), !dbg !3584
  %4 = zext i1 %3 to i8, !dbg !3584
  store i8 %4, ptr %0, align 1, !dbg !3584
  %5 = load i8, ptr %0, align 1, !dbg !3584, !range !662, !noundef !29
  %_3 = trunc i8 %5 to i1, !dbg !3584
  br i1 %_3, label %bb2, label %bb3, !dbg !3584

bb3:                                              ; preds = %start
  %6 = getelementptr inbounds i8, ptr %_0, i64 1, !dbg !3585
  store i8 %_6.0, ptr %6, align 1, !dbg !3585
  store i8 1, ptr %_0, align 1, !dbg !3585
  br label %bb4, !dbg !3586

bb2:                                              ; preds = %start
  %7 = load i8, ptr @3, align 1, !dbg !3587, !range !662, !noundef !29
  %8 = trunc i8 %7 to i1, !dbg !3587
  %9 = load i8, ptr getelementptr inbounds (i8, ptr @3, i64 1), align 1, !dbg !3587
  %10 = zext i1 %8 to i8, !dbg !3587
  store i8 %10, ptr %_0, align 1, !dbg !3587
  %11 = getelementptr inbounds i8, ptr %_0, i64 1, !dbg !3587
  store i8 %9, ptr %11, align 1, !dbg !3587
  br label %bb4, !dbg !3586

bb4:                                              ; preds = %bb2, %bb3
  %12 = load i8, ptr %_0, align 1, !dbg !3588, !range !662, !noundef !29
  %13 = trunc i8 %12 to i1, !dbg !3588
  %14 = getelementptr inbounds i8, ptr %_0, i64 1, !dbg !3588
  %15 = load i8, ptr %14, align 1, !dbg !3588
  %16 = insertvalue { i1, i8 } poison, i1 %13, 0, !dbg !3588
  %17 = insertvalue { i1, i8 } %16, i8 %15, 1, !dbg !3588
  ret { i1, i8 } %17, !dbg !3588
}

; core::num::<impl i16>::checked_add
; Function Attrs: inlinehint uwtable
define internal { i16, i16 } @"_ZN4core3num21_$LT$impl$u20$i16$GT$11checked_add17hf9f97c5a6f0f0ebaE"(i16 %self, i16 %rhs) unnamed_addr #0 !dbg !3589 {
start:
  %0 = alloca i8, align 1
  %b.dbg.spill = alloca i8, align 1
  %a.dbg.spill = alloca i16, align 2
  %rhs.dbg.spill = alloca i16, align 2
  %self.dbg.spill = alloca i16, align 2
  %_0 = alloca %"core::option::Option<i16>", align 2
  store i16 %self, ptr %self.dbg.spill, align 2
  call void @llvm.dbg.declare(metadata ptr %self.dbg.spill, metadata !3609, metadata !DIExpression()), !dbg !3614
  call void @llvm.dbg.declare(metadata ptr %self.dbg.spill, metadata !3615, metadata !DIExpression()), !dbg !3629
  store i16 %rhs, ptr %rhs.dbg.spill, align 2
  call void @llvm.dbg.declare(metadata ptr %rhs.dbg.spill, metadata !3610, metadata !DIExpression()), !dbg !3631
  call void @llvm.dbg.declare(metadata ptr %rhs.dbg.spill, metadata !3625, metadata !DIExpression()), !dbg !3632
