; ModuleID = '11yfthea48squq3o'
source_filename = "11yfthea48squq3o"
target datalayout = "e-m:o-i64:64-i128:128-n32:64-S128"
target triple = "arm64-apple-macosx11.0.0"

%"core::ops::control_flow::ControlFlow<(), core::convert::Infallible>::Break" = type { {} }
%"core::ops::range::Range<usize>" = type { i64, i64 }
%"core::ptr::metadata::PtrComponents<[u8]>" = type { ptr, i64 }
%"core::ptr::metadata::PtrRepr<[u8]>" = type { [2 x i64] }
%"core::option::Option<&[u8]>" = type { ptr, [1 x i64] }
%"core::option::Option<(usize, &Comparator)>" = type { [1 x i64], ptr }
%"core::option::Option<core::convert::Infallible>::None" = type {}
%"core::result::Result<VersionReq, parse::Error>" = type { i64, [2 x i64] }
%"parse::Error" = type { %"error::ErrorKind" }
%"error::ErrorKind" = type { i8, [7 x i8] }
%"core::result::Result<core::convert::Infallible, parse::Error>::Err" = type { %"parse::Error" }
%"core::result::Result<Prerelease, parse::Error>" = type { i32, [3 x i32] }
%"core::result::Result<(Prerelease, &str), parse::Error>" = type { ptr, [2 x i64] }
%"core::result::Result<usize, parse::Error>" = type { i32, [3 x i32] }
%"core::result::Result<(BuildMetadata, &str), parse::Error>" = type { ptr, [2 x i64] }
%"core::result::Result<(Comparator, error::Position, &str), parse::Error>" = type { i64, [9 x i64] }
%"core::result::Result<Version, parse::Error>" = type { ptr, [4 x i64] }
%"core::result::Result<Comparator, parse::Error>" = type { i64, [6 x i64] }
%"core::fmt::Error" = type {}
%"core::result::Result<core::convert::Infallible, core::fmt::Error>::Err" = type { %"core::fmt::Error" }
%"core::result::Result<BuildMetadata, parse::Error>" = type { i32, [3 x i32] }
%"core::option::Option<usize>" = type { i64, [1 x i64] }
%"core::fmt::Arguments<'_>" = type { { ptr, i64 }, { ptr, i64 }, %"core::option::Option<&[core::fmt::rt::Placeholder]>" }
%"core::option::Option<&[core::fmt::rt::Placeholder]>" = type { ptr, [1 x i64] }
%"{closure@src/impls.rs:128:36: 128:38}" = type { ptr, ptr }
%"{closure@src/impls.rs:127:36: 127:38}" = type { ptr, ptr }
%"{closure@src/impls.rs:74:30: 74:32}" = type { ptr, ptr }
%"core::option::Option<&str>" = type { ptr, [1 x i64] }
%"identifier::Identifier" = type { ptr, [0 x i8] }
%"core::option::Option<u64>" = type { i64, [1 x i64] }
%Comparator = type { %"core::option::Option<u64>", %"core::option::Option<u64>", %Prerelease, i64, i8, [7 x i8] }
%Prerelease = type { %"identifier::Identifier" }
%"core::option::Option<u32>" = type { i32, [1 x i32] }
%"core::option::Option<(&str, &str)>" = type { ptr, [3 x i64] }
%"core::option::Option<(usize, usize)>" = type { i64, [2 x i64] }
%"core::str::pattern::CharSearcher<'_>" = type { { ptr, i64 }, i64, i64, [4 x i8], i32, i8, [7 x i8] }
%"core::ptr::non_null::NonNull<[u8]>" = type { { ptr, i64 } }
%"core::slice::iter::Iter<'_, u8>" = type { ptr, ptr, %"core::marker::PhantomData<&u8>" }
%"core::marker::PhantomData<&u8>" = type {}
%"core::iter::adapters::copied::Copied<core::slice::iter::Iter<'_, u8>>" = type { %"core::slice::iter::Iter<'_, u8>" }
%"core::str::iter::Bytes<'_>" = type { %"core::iter::adapters::copied::Copied<core::slice::iter::Iter<'_, u8>>" }
%"core::str::iter::Chars<'_>" = type { %"core::slice::iter::Iter<'_, u8>" }
%"core::str::iter::Split<'_, char>" = type { %"core::str::iter::SplitInternal<'_, char>" }
%"core::str::iter::SplitInternal<'_, char>" = type { i64, i64, %"core::str::pattern::CharSearcher<'_>", i8, i8, [6 x i8] }
%"core::str::pattern::SearchStep" = type { i64, [2 x i64] }
%"core::fmt::rt::Argument<'_>" = type { ptr, ptr }
%"core::ops::range::RangeFull" = type {}
%"{closure@core::iter::adapters::copied::copy_try_fold<u8, (), core::ops::control_flow::ControlFlow<()>, {closure@core::iter::traits::iterator::Iterator::all::check<u8, {closure@src/impls.rs:75:34: 75:41}>::{closure#0}}>::{closure#0}}" = type { %"{closure@core::iter::traits::iterator::Iterator::all::check<u8, {closure@src/impls.rs:75:34: 75:41}>::{closure#0}}" }
%"{closure@core::iter::traits::iterator::Iterator::all::check<u8, {closure@src/impls.rs:75:34: 75:41}>::{closure#0}}" = type { %"{closure@src/impls.rs:75:34: 75:41}" }
%"{closure@src/impls.rs:75:34: 75:41}" = type {}
%"{closure@core::iter::adapters::copied::copy_try_fold<u8, (), core::ops::control_flow::ControlFlow<()>, {closure@core::iter::traits::iterator::Iterator::all::check<u8, {closure@src/impls.rs:117:34: 117:41}>::{closure#0}}>::{closure#0}}" = type { %"{closure@core::iter::traits::iterator::Iterator::all::check<u8, {closure@src/impls.rs:117:34: 117:41}>::{closure#0}}" }
%"{closure@core::iter::traits::iterator::Iterator::all::check<u8, {closure@src/impls.rs:117:34: 117:41}>::{closure#0}}" = type { %"{closure@src/impls.rs:117:34: 117:41}" }
%"{closure@src/impls.rs:117:34: 117:41}" = type {}
%"core::iter::adapters::enumerate::Enumerate<core::slice::iter::Iter<'_, Comparator>>" = type { %"core::slice::iter::Iter<'_, Comparator>", i64 }
%"core::slice::iter::Iter<'_, Comparator>" = type { ptr, ptr, %"core::marker::PhantomData<&Comparator>" }
%"core::marker::PhantomData<&Comparator>" = type {}
%"core::alloc::layout::Layout" = type { i64, i64 }
%"core::result::Result<core::alloc::layout::Layout, core::alloc::layout::LayoutError>" = type { i64, [1 x i64] }
%"core::ptr::non_null::NonNull<[Comparator]>" = type { { ptr, i64 } }
%"core::num::error::TryFromIntError" = type { {} }
%"core::result::Result<u8, core::num::error::TryFromIntError>" = type { i8, [1 x i8] }
%"alloc::vec::Vec<Comparator>" = type { %"alloc::raw_vec::RawVec<Comparator>", i64 }
%"alloc::raw_vec::RawVec<Comparator>" = type { i64, ptr, %"alloc::alloc::Global" }
%"alloc::alloc::Global" = type {}
%"core::result::Result<core::ptr::non_null::NonNull<[u8]>, core::alloc::AllocError>" = type { ptr, [1 x i64] }
%"core::alloc::AllocError" = type {}
%"core::result::Result<core::convert::Infallible, core::alloc::AllocError>::Err" = type { %"core::alloc::AllocError" }
%"core::ops::control_flow::ControlFlow<core::result::Result<core::convert::Infallible, core::alloc::AllocError>, core::ptr::non_null::NonNull<[u8]>>" = type { ptr, [1 x i64] }
%"core::result::Result<core::ptr::non_null::NonNull<[u8]>, alloc::collections::TryReserveError>" = type { i64, [2 x i64] }
%"alloc::collections::TryReserveErrorKind" = type { i64, [1 x i64] }
%"alloc::collections::TryReserveError" = type { %"alloc::collections::TryReserveErrorKind" }
%"core::result::Result<core::convert::Infallible, alloc::collections::TryReserveErrorKind>::Err" = type { %"alloc::collections::TryReserveErrorKind" }
%"core::result::Result<core::alloc::layout::Layout, alloc::collections::TryReserveErrorKind>" = type { i64, [2 x i64] }
%"core::ops::control_flow::ControlFlow<core::result::Result<core::convert::Infallible, alloc::collections::TryReserveErrorKind>, core::alloc::layout::Layout>" = type { i64, [2 x i64] }
%"core::result::Result<(), alloc::collections::TryReserveError>" = type { i64, [1 x i64] }
%"core::alloc::layout::LayoutError" = type {}
%"{closure@alloc::raw_vec::finish_grow<alloc::alloc::Global>::{closure#0}}" = type {}
%"core::result::Result<(), alloc::collections::TryReserveErrorKind>" = type { i64, [1 x i64] }
%"{closure@alloc::raw_vec::handle_reserve::{closure#0}}" = type {}
%"core::result::Result<core::convert::Infallible, alloc::collections::TryReserveError>::Err" = type { %"alloc::collections::TryReserveError" }
%"core::option::Option<(core::ptr::non_null::NonNull<u8>, core::alloc::layout::Layout)>" = type { [1 x i64], i64, [1 x i64] }
%"core::ops::control_flow::ControlFlow<core::result::Result<core::convert::Infallible, alloc::collections::TryReserveError>, core::ptr::non_null::NonNull<[u8]>>" = type { i64, [2 x i64] }
%"core::result::Result<usize, alloc::collections::TryReserveErrorKind>" = type { i64, [1 x i64] }
%"core::ops::control_flow::ControlFlow<core::result::Result<core::convert::Infallible, alloc::collections::TryReserveErrorKind>, usize>" = type { i64, [1 x i64] }
%"core::ops::control_flow::ControlFlow<core::result::Result<core::convert::Infallible, alloc::collections::TryReserveError>>" = type { i64, [1 x i64] }
%"core::ptr::metadata::PtrComponents<[Comparator]>" = type { ptr, i64 }
%"core::ptr::metadata::PtrRepr<[Comparator]>" = type { [2 x i64] }
%"core::ops::control_flow::ControlFlow<core::result::Result<core::convert::Infallible, parse::Error>, (Comparator, error::Position, &str)>" = type { i64, [9 x i64] }
%"core::ops::control_flow::ControlFlow<core::result::Result<core::convert::Infallible, parse::Error>, (Prerelease, &str)>" = type { ptr, [2 x i64] }
%"core::ops::control_flow::ControlFlow<core::result::Result<core::convert::Infallible, parse::Error>, (u64, &str)>" = type { [1 x i64], ptr, [1 x i64] }
%"core::ops::control_flow::ControlFlow<core::result::Result<core::convert::Infallible, parse::Error>, usize>" = type { i32, [3 x i32] }
%"core::ops::control_flow::ControlFlow<core::result::Result<core::convert::Infallible, parse::Error>, (BuildMetadata, &str)>" = type { ptr, [2 x i64] }
%BuildMetadata = type { %"identifier::Identifier" }
%"core::ops::control_flow::ControlFlow<core::result::Result<core::convert::Infallible, parse::Error>, (&str, &str)>" = type { ptr, [3 x i64] }
%"core::ops::control_flow::ControlFlow<core::result::Result<core::convert::Infallible, parse::Error>, &str>" = type { ptr, [1 x i64] }
%"{closure@<core::str::iter::Chars<'_> as core::iter::traits::iterator::Iterator>::next::{closure#0}}" = type {}
%"core::ops::control_flow::ControlFlow<core::option::Option<core::convert::Infallible>, &[u8]>" = type { ptr, [1 x i64] }
%"core::fmt::builders::DebugStruct<'_, '_>" = type { ptr, i8, i8, [6 x i8] }
%Version = type { %Prerelease, %BuildMetadata, i64, i64, i64 }
%"core::result::Result<(u64, &str), parse::Error>" = type { [1 x i64], ptr, [1 x i64] }
%"core::result::Result<&str, parse::Error>" = type { ptr, [1 x i64] }
%VersionReq = type { %"alloc::vec::Vec<Comparator>" }
%"core::option::Option<(char, &str)>" = type { i32, [5 x i32] }
%"core::result::Result<(&str, &str), parse::Error>" = type { ptr, [3 x i64] }

@alloc_0dc6db72fcead760fba2799443fc0f82 = private unnamed_addr constant <{ [64 x i8] }> <{ [64 x i8] c"slice::get_unchecked requires that the range is within the slice" }>, align 1
@alloc_8bc4d99c9de504799214701ea609a64b = private unnamed_addr constant <{ [68 x i8] }> <{ [68 x i8] c"slice::get_unchecked_mut requires that the range is within the slice" }>, align 1
@0 = private unnamed_addr constant <{ [8 x i8], [8 x i8] }> <{ [8 x i8] zeroinitializer, [8 x i8] undef }>, align 8
@alloc_a5869cf5c211a4021ad47df57f69cf0d = private unnamed_addr constant <{ [91 x i8] }> <{ [91 x i8] c"/rustc/46b180ec2452d388c5d9c14009442e2e0beb01d7/library/core/src/iter/adapters/enumerate.rs" }>, align 1
@alloc_e644bbe572686fdbe11c9dbdc434ddd2 = private unnamed_addr constant <{ ptr, [16 x i8] }> <{ ptr @alloc_a5869cf5c211a4021ad47df57f69cf0d, [16 x i8] c"[\00\00\00\00\00\00\001\00\00\00\09\00\00\00" }>, align 8
@str.0 = internal unnamed_addr constant [28 x i8] c"attempt to add with overflow"
@alloc_ae6dc619079e3c3b08144a35532ecff7 = private unnamed_addr constant <{ [2 x i8] }> <{ [2 x i8] c"()" }>, align 1
@alloc_53973d2fe29b4adba8bb7390b5678745 = private unnamed_addr constant <{ [8 x i8] }> zeroinitializer, align 8
@alloc_424341b75ece3fa20496f1c69b9fb0ac = private unnamed_addr constant <{ [111 x i8] }> <{ [111 x i8] c"unsafe precondition(s) violated: ptr::write_bytes requires that the destination pointer is aligned and non-null" }>, align 1
@alloc_763310d78c99c2c1ad3f8a9821e942f3 = private unnamed_addr constant <{ [61 x i8] }> <{ [61 x i8] c"is_nonoverlapping: `size_of::<T>() * count` overflows a usize" }>, align 1
@alloc_8df0580a595a87d56789d20c7318e185 = private unnamed_addr constant <{ [166 x i8] }> <{ [166 x i8] c"unsafe precondition(s) violated: ptr::copy_nonoverlapping requires that both pointer arguments are aligned and non-null and the specified memory ranges do not overlap" }>, align 1
@alloc_fad0cd83b7d1858a846a172eb260e593 = private unnamed_addr constant <{ [42 x i8] }> <{ [42 x i8] c"is_aligned_to: align is not a power-of-two" }>, align 1
@alloc_041983ee8170efdaaf95ba67fd072d26 = private unnamed_addr constant <{ ptr, [8 x i8] }> <{ ptr @alloc_fad0cd83b7d1858a846a172eb260e593, [8 x i8] c"*\00\00\00\00\00\00\00" }>, align 8
@alloc_513570631223a12912d85da2bec3b15a = private unnamed_addr constant <{}> zeroinitializer, align 8
@alloc_f1802761b0cba8787ff63a6853b741ad = private unnamed_addr constant <{ [81 x i8] }> <{ [81 x i8] c"/rustc/46b180ec2452d388c5d9c14009442e2e0beb01d7/library/core/src/ptr/const_ptr.rs" }>, align 1
@alloc_33f991fa5bbac1da9d8a778b0f014caf = private unnamed_addr constant <{ ptr, [16 x i8] }> <{ ptr @alloc_f1802761b0cba8787ff63a6853b741ad, [16 x i8] c"Q\00\00\00\00\00\00\00T\06\00\00\0D\00\00\00" }>, align 8
@alloc_91c7fa63c3cfeaa3c795652d5cf060e4 = private unnamed_addr constant <{ [12 x i8] }> <{ [12 x i8] c"invalid args" }>, align 1
@alloc_af99043bc04c419363a7f04d23183506 = private unnamed_addr constant <{ ptr, [8 x i8] }> <{ ptr @alloc_91c7fa63c3cfeaa3c795652d5cf060e4, [8 x i8] c"\0C\00\00\00\00\00\00\00" }>, align 8
@alloc_b471600b253f24fcc8f91ba747bf2f04 = private unnamed_addr constant <{ [75 x i8] }> <{ [75 x i8] c"/rustc/46b180ec2452d388c5d9c14009442e2e0beb01d7/library/core/src/fmt/mod.rs" }>, align 1
@alloc_4ba2c5ddff77a51f3765b0dd5f2851cc = private unnamed_addr constant <{ ptr, [16 x i8] }> <{ ptr @alloc_b471600b253f24fcc8f91ba747bf2f04, [16 x i8] c"K\00\00\00\00\00\00\00U\01\00\00\0D\00\00\00" }>, align 8
@alloc_d83bad394aa3743d4316ebb57a3b65ab = private unnamed_addr constant <{ [92 x i8] }> <{ [92 x i8] c"unsafe precondition(s) violated: NonZero::new_unchecked requires the argument to be non-zero" }>, align 1
@alloc_d4d2a2a8539eafc62756407d946babb3 = private unnamed_addr constant <{ [110 x i8] }> <{ [110 x i8] c"unsafe precondition(s) violated: ptr::read_volatile requires that the pointer argument is aligned and non-null" }>, align 1
@alloc_20b3d155afd5c58c42e598b7e6d186ef = private unnamed_addr constant <{ [93 x i8] }> <{ [93 x i8] c"unsafe precondition(s) violated: NonNull::new_unchecked requires that the pointer is non-null" }>, align 1
@alloc_ec595fc0e82ef92fc59bd74f68296eae = private unnamed_addr constant <{ [73 x i8] }> <{ [73 x i8] c"assertion failed: 0 < pointee_size && pointee_size <= isize::MAX as usize" }>, align 1
@alloc_4e3a3aaf48410eaea90c90938dabe76a = private unnamed_addr constant <{ ptr, [16 x i8] }> <{ ptr @alloc_f1802761b0cba8787ff63a6853b741ad, [16 x i8] c"Q\00\00\00\00\00\00\00:\03\00\00\09\00\00\00" }>, align 8
@alloc_7efb3a7632b3620f628ce83a521b4d9b = private unnamed_addr constant <{ [71 x i8] }> <{ [71 x i8] c"unsafe precondition(s) violated: ptr::sub_ptr requires `self >= origin`" }>, align 1
@1 = private unnamed_addr constant <{ [4 x i8], [4 x i8] }> <{ [4 x i8] zeroinitializer, [4 x i8] undef }>, align 4
@alloc_cb0b34e6cd1967f15b94202ee7db642f = private unnamed_addr constant <{ [75 x i8] }> <{ [75 x i8] c"/rustc/46b180ec2452d388c5d9c14009442e2e0beb01d7/library/core/src/str/mod.rs" }>, align 1
@alloc_195dade483290baef82877ec06a26b67 = private unnamed_addr constant <{ ptr, [16 x i8] }> <{ ptr @alloc_cb0b34e6cd1967f15b94202ee7db642f, [16 x i8] c"K\00\00\00\00\00\00\00\9B\02\00\00\15\00\00\00" }>, align 8
@alloc_b51e084ad98792f1063530f5eecbcef0 = private unnamed_addr constant <{ [69 x i8] }> <{ [69 x i8] c"str::get_unchecked requires that the range is within the string slice" }>, align 1
@alloc_38d865ee598848532cbd764e0d6298fc = private unnamed_addr constant <{ [57 x i8] }> <{ [57 x i8] c"unsafe precondition(s) violated: invalid value for `char`" }>, align 1
@alloc_8b4d80671dc915cc8e9a508581e1d9c7 = private unnamed_addr constant <{ [80 x i8] }> <{ [80 x i8] c"/rustc/46b180ec2452d388c5d9c14009442e2e0beb01d7/library/core/src/char/methods.rs" }>, align 1
@alloc_f63e52aaa984f059a2e6dbe55c3b29c0 = private unnamed_addr constant <{ ptr, [16 x i8] }> <{ ptr @alloc_8b4d80671dc915cc8e9a508581e1d9c7, [16 x i8] c"P\00\00\00\00\00\00\00\05\07\00\00\0D\00\00\00" }>, align 8
@alloc_6b031f9bca8204235732c7c365d04a1d = private unnamed_addr constant <{ [18 x i8] }> <{ [18 x i8] c"encode_utf8: need " }>, align 1
@alloc_28d13efb0f9a95ccb5d02ec33dd195cf = private unnamed_addr constant <{ [19 x i8] }> <{ [19 x i8] c" bytes to encode U+" }>, align 1
@alloc_0d928972d2befd736e581c7fcc5a2f9a = private unnamed_addr constant <{ [21 x i8] }> <{ [21 x i8] c", but the buffer has " }>, align 1
@alloc_d51214f097f67314513b76e97e13aa6b = private unnamed_addr constant <{ ptr, [8 x i8], ptr, [8 x i8], ptr, [8 x i8] }> <{ ptr @alloc_6b031f9bca8204235732c7c365d04a1d, [8 x i8] c"\12\00\00\00\00\00\00\00", ptr @alloc_28d13efb0f9a95ccb5d02ec33dd195cf, [8 x i8] c"\13\00\00\00\00\00\00\00", ptr @alloc_0d928972d2befd736e581c7fcc5a2f9a, [8 x i8] c"\15\00\00\00\00\00\00\00" }>, align 8
@alloc_c75e20ea18464e397f0e51016b47c134 = private unnamed_addr constant <{ ptr, [16 x i8] }> <{ ptr @alloc_8b4d80671dc915cc8e9a508581e1d9c7, [16 x i8] c"P\00\00\00\00\00\00\00\FE\06\00\00\0E\00\00\00" }>, align 8
@alloc_ab14703751a9eb3585c49b2e55e9a9e5 = private unnamed_addr constant <{ [104 x i8] }> <{ [104 x i8] c"unsafe precondition(s) violated: hint::assert_unchecked must never be called when the condition is false" }>, align 1
@alloc_1eb6f53a157dccb32488e066ad957e6d = private unnamed_addr constant <{ [82 x i8] }> <{ [82 x i8] c"unsafe precondition(s) violated: hint::unreachable_unchecked must never be reached" }>, align 1
@alloc_ba0874c83e0d5d922dde9777ace7637c = private unnamed_addr constant <{ [80 x i8] }> <{ [80 x i8] c"/rustc/46b180ec2452d388c5d9c14009442e2e0beb01d7/library/core/src/alloc/layout.rs" }>, align 1
@alloc_f68de2cf1ceb450073519dc71a218631 = private unnamed_addr constant <{ ptr, [16 x i8] }> <{ ptr @alloc_ba0874c83e0d5d922dde9777ace7637c, [16 x i8] c"P\00\00\00\00\00\00\00\C1\01\00\00)\00\00\00" }>, align 8
@str.1 = internal unnamed_addr constant [25 x i8] c"attempt to divide by zero"
@alloc_96d8bf47b8f8068abd4a6033285d2d72 = private unnamed_addr constant <{ [77 x i8] }> <{ [77 x i8] c"/rustc/46b180ec2452d388c5d9c14009442e2e0beb01d7/library/core/src/slice/mod.rs" }>, align 1
@alloc_38f7b9b361ccf0a4dc48e85558c56ecd = private unnamed_addr constant <{ ptr, [16 x i8] }> <{ ptr @alloc_96d8bf47b8f8068abd4a6033285d2d72, [16 x i8] c"M\00\00\00\00\00\00\00\F6\09\00\00+\00\00\00" }>, align 8
@alloc_81f9ea5ad36a4fd02db0f8c6040ce6ce = private unnamed_addr constant <{ [78 x i8] }> <{ [78 x i8] c"/rustc/46b180ec2452d388c5d9c14009442e2e0beb01d7/library/core/src/intrinsics.rs" }>, align 1
@alloc_3ddfd615a577a80e66751be046ca7362 = private unnamed_addr constant <{ ptr, [16 x i8] }> <{ ptr @alloc_81f9ea5ad36a4fd02db0f8c6040ce6ce, [16 x i8] c"N\00\00\00\00\00\00\00\E6\0A\00\006\00\00\00" }>, align 8
@alloc_11195730e5236cfdc15ea13be1c301f9 = private unnamed_addr constant <{ [162 x i8] }> <{ [162 x i8] c"unsafe precondition(s) violated: slice::from_raw_parts requires the pointer to be aligned and non-null, and the total size of the slice not to exceed `isize::MAX`" }>, align 1
@alloc_579834e174e649c4467c33344a1424d3 = private unnamed_addr constant <{ [80 x i8] }> <{ [80 x i8] c"/rustc/46b180ec2452d388c5d9c14009442e2e0beb01d7/library/core/src/slice/memchr.rs" }>, align 1
@alloc_d57f5babac66c1e2571dda7941a83e5c = private unnamed_addr constant <{ ptr, [16 x i8] }> <{ ptr @alloc_579834e174e649c4467c33344a1424d3, [16 x i8] c"P\00\00\00\00\00\00\00+\00\00\00\0C\00\00\00" }>, align 8
@vtable.2 = private constant <{ ptr, [16 x i8], ptr }> <{ ptr @"_ZN4core3ptr54drop_in_place$LT$core..num..error..TryFromIntError$GT$17ha7f640670c7e30e1E", [16 x i8] c"\00\00\00\00\00\00\00\00\01\00\00\00\00\00\00\00", ptr @"_ZN70_$LT$core..num..error..TryFromIntError$u20$as$u20$core..fmt..Debug$GT$3fmt17h91b1da94f4c4979aE" }>, align 8, !dbg !0
@alloc_52b3a24627b09a2a2402c50a054c3b6a = private unnamed_addr constant <{ [42 x i8] }> <{ [42 x i8] c"internal error: entered unreachable code: " }>, align 1
@alloc_f323dd3c87687f4dcb7c5081f5bac745 = private unnamed_addr constant <{ ptr, [8 x i8] }> <{ ptr @alloc_52b3a24627b09a2a2402c50a054c3b6a, [8 x i8] c"*\00\00\00\00\00\00\00" }>, align 8
@2 = private unnamed_addr constant <{ [1 x i8], [1 x i8] }> <{ [1 x i8] c"\01", [1 x i8] undef }>, align 1
@alloc_611ea47e56fe111765d49cc77e8ab451 = private unnamed_addr constant <{ [32 x i8] }> <{ [32 x i8] c"char len should be less than 255" }>, align 1
@alloc_57272ae12ef8af20f00519cc1d95436c = private unnamed_addr constant <{ [79 x i8] }> <{ [79 x i8] c"/rustc/46b180ec2452d388c5d9c14009442e2e0beb01d7/library/core/src/str/pattern.rs" }>, align 1
@alloc_fddc122a4deea779b55bf810d8ecbf55 = private unnamed_addr constant <{ ptr, [16 x i8] }> <{ ptr @alloc_57272ae12ef8af20f00519cc1d95436c, [16 x i8] c"O\00\00\00\00\00\00\00,\02\00\00\0E\00\00\00" }>, align 8
@__rust_no_alloc_shim_is_unstable = external global i8
@3 = private unnamed_addr constant <{ [8 x i8], [8 x i8] }> <{ [8 x i8] c"\01\00\00\00\00\00\00\80", [8 x i8] undef }>, align 8
@alloc_5cb263f26a5d50117adfcc5c7225745e = private unnamed_addr constant <{ [15 x i8] }> <{ [15 x i8] c"TryFromIntError" }>, align 1
@vtable.3 = private constant <{ ptr, [16 x i8], ptr }> <{ ptr @"_ZN4core3ptr33drop_in_place$LT$$RF$$LP$$RP$$GT$17h8a1edbe88791e7a8E", [16 x i8] c"\08\00\00\00\00\00\00\00\08\00\00\00\00\00\00\00", ptr @"_ZN42_$LT$$RF$T$u20$as$u20$core..fmt..Debug$GT$3fmt17h9a3aaf7cede3f8ebE" }>, align 8, !dbg !19
@alloc_8572d294b7d4b9d2125dc5191e02725c = private unnamed_addr constant <{ [64 x i8] }> <{ [64 x i8] c"slice::get_unchecked requires that the index is within the slice" }>, align 1
@alloc_914b2c69d7eca30497b9feaf15ac92f1 = private unnamed_addr constant <{ [1 x i8] }> zeroinitializer, align 1
@alloc_d2ce886924737ab3c5221f2d890ae742 = private unnamed_addr constant <{ ptr, [16 x i8] }> <{ ptr @alloc_57272ae12ef8af20f00519cc1d95436c, [16 x i8] c"O\00\00\00\00\00\00\00\BF\01\00\007\00\00\00" }>, align 8
@alloc_0f52f98e9fa44caf6668aeb0b1c94ca5 = private unnamed_addr constant <{ [1 x i8] }> <{ [1 x i8] c"." }>, align 1
@alloc_f9b82f29287f59f673df24ef332544ba = private unnamed_addr constant <{ ptr, [8 x i8], ptr, [8 x i8], ptr, [8 x i8] }> <{ ptr @alloc_513570631223a12912d85da2bec3b15a, [8 x i8] zeroinitializer, ptr @alloc_0f52f98e9fa44caf6668aeb0b1c94ca5, [8 x i8] c"\01\00\00\00\00\00\00\00", ptr @alloc_0f52f98e9fa44caf6668aeb0b1c94ca5, [8 x i8] c"\01\00\00\00\00\00\00\00" }>, align 8
@alloc_3bb2650aa074fcfb8c10a9c40791bfbc = private unnamed_addr constant <{ [1 x i8] }> <{ [1 x i8] c"-" }>, align 1
@alloc_b75bdd07621472b758c8b6fc5ef4cdb6 = private unnamed_addr constant <{ ptr, [8 x i8] }> <{ ptr @alloc_3bb2650aa074fcfb8c10a9c40791bfbc, [8 x i8] c"\01\00\00\00\00\00\00\00" }>, align 8
@alloc_038d6c5722efbd3955ab3763bdc8cc27 = private unnamed_addr constant <{ [14 x i8] }> <{ [14 x i8] c"src/display.rs" }>, align 1
@alloc_8c7b2ef8c59166f41985343626a17e23 = private unnamed_addr constant <{ ptr, [16 x i8] }> <{ ptr @alloc_038d6c5722efbd3955ab3763bdc8cc27, [16 x i8] c"\0E\00\00\00\00\00\00\00\09\00\00\00\11\00\00\00" }>, align 8
@alloc_88439313272f114aafb8d5d45088d925 = private unnamed_addr constant <{ [1 x i8] }> <{ [1 x i8] c"+" }>, align 1
@alloc_3ebd3eb34cf3c6b7ba96cdba5babed62 = private unnamed_addr constant <{ ptr, [8 x i8] }> <{ ptr @alloc_88439313272f114aafb8d5d45088d925, [8 x i8] c"\01\00\00\00\00\00\00\00" }>, align 8
@alloc_688c3b64512758c3499907271ac99206 = private unnamed_addr constant <{ ptr, [16 x i8] }> <{ ptr @alloc_038d6c5722efbd3955ab3763bdc8cc27, [16 x i8] c"\0E\00\00\00\00\00\00\00\0C\00\00\00\11\00\00\00" }>, align 8
@alloc_97233b62229ba2c0c929ef53a33ed515 = private unnamed_addr constant <{ ptr, [16 x i8] }> <{ ptr @alloc_038d6c5722efbd3955ab3763bdc8cc27, [16 x i8] c"\0E\00\00\00\00\00\00\00\07\00\00\00\0D\00\00\00" }>, align 8
@alloc_d9dead875e63c2b5122498493d29f273 = private unnamed_addr constant <{ ptr, [16 x i8] }> <{ ptr @alloc_038d6c5722efbd3955ab3763bdc8cc27, [16 x i8] c"\0E\00\00\00\00\00\00\00\12\00\00\00\0D\00\00\00" }>, align 8
@alloc_94b00be069aafad82a2c6df764237b82 = private unnamed_addr constant <{ [2 x i8] }> <{ [2 x i8] c", " }>, align 1
@alloc_b99730e73100e73a81f4fbfe74b3821d = private unnamed_addr constant <{ ptr, [8 x i8] }> <{ ptr @alloc_513570631223a12912d85da2bec3b15a, [8 x i8] zeroinitializer }>, align 8
@alloc_65f84fce30447f0e0997fd6595c981cd = private unnamed_addr constant <{ ptr, [16 x i8] }> <{ ptr @alloc_038d6c5722efbd3955ab3763bdc8cc27, [16 x i8] c"\0E\00\00\00\00\00\00\00*\00\00\00\0D\00\00\00" }>, align 8
@alloc_ed1c7247cac494838c71afaac56d108d = private unnamed_addr constant <{ ptr, [16 x i8] }> <{ ptr @alloc_038d6c5722efbd3955ab3763bdc8cc27, [16 x i8] c"\0E\00\00\00\00\00\00\00(\00\00\00\11\00\00\00" }>, align 8
@alloc_09f68c7ae2e79d4408ae53b7c9133001 = private unnamed_addr constant <{ [1 x i8] }> <{ [1 x i8] c"*" }>, align 1
@alloc_219cd7325be98984893e9f7eb51114d4 = private unnamed_addr constant <{ [1 x i8] }> <{ [1 x i8] c"=" }>, align 1
@alloc_b0f75d2f000046282f87eeb3267426fe = private unnamed_addr constant <{ [1 x i8] }> <{ [1 x i8] c">" }>, align 1
@alloc_741317315da44b0b2f7e7f12f6067b99 = private unnamed_addr constant <{ [2 x i8] }> <{ [2 x i8] c">=" }>, align 1
@alloc_069739ecb4f78035aca324a6dc5131a2 = private unnamed_addr constant <{ [1 x i8] }> <{ [1 x i8] c"<" }>, align 1
@alloc_0af7c67d58f546bb732163399e827b82 = private unnamed_addr constant <{ [2 x i8] }> <{ [2 x i8] c"<=" }>, align 1
@alloc_b1e88229fec8d354345b71aa481bcef6 = private unnamed_addr constant <{ [1 x i8] }> <{ [1 x i8] c"~" }>, align 1
@alloc_80d116644445a24338e088de2cc23880 = private unnamed_addr constant <{ [1 x i8] }> <{ [1 x i8] c"^" }>, align 1
@alloc_4a9496f62a8e8df8cc2e6d37900e803f = private unnamed_addr constant <{ ptr, [8 x i8] }> <{ ptr @alloc_0f52f98e9fa44caf6668aeb0b1c94ca5, [8 x i8] c"\01\00\00\00\00\00\00\00" }>, align 8
@alloc_fe1cca65824a09d85d736a0638f02630 = private unnamed_addr constant <{ ptr, [16 x i8] }> <{ ptr @alloc_038d6c5722efbd3955ab3763bdc8cc27, [16 x i8] c"\0E\00\00\00\00\00\00\00E\00\00\00\15\00\00\00" }>, align 8
@alloc_f3a66b3a01fc763fcb4c7849ea320453 = private unnamed_addr constant <{ ptr, [16 x i8] }> <{ ptr @alloc_038d6c5722efbd3955ab3763bdc8cc27, [16 x i8] c"\0E\00\00\00\00\00\00\00C\00\00\00\11\00\00\00" }>, align 8
@alloc_a33517c72d0c95fb0ee72420a320dfd6 = private unnamed_addr constant <{ [1 x i8] }> <{ [1 x i8] c"\07" }>, align 1
@alloc_7e08e8e7d59bce125dcd4a56947b6dc5 = private unnamed_addr constant <{ [2 x i8] }> <{ [2 x i8] c".*" }>, align 1
@alloc_859c673aac13241fdb7cc7e3071d1140 = private unnamed_addr constant <{ ptr, [16 x i8] }> <{ ptr @alloc_038d6c5722efbd3955ab3763bdc8cc27, [16 x i8] c"\0E\00\00\00\00\00\00\00H\00\00\00\11\00\00\00" }>, align 8
@alloc_bdd11e3fb7b500da7a5e0c55a6b3615b = private unnamed_addr constant <{ ptr, [16 x i8] }> <{ ptr @alloc_038d6c5722efbd3955ab3763bdc8cc27, [16 x i8] c"\0E\00\00\00\00\00\00\00A\00\00\00\0D\00\00\00" }>, align 8
@alloc_f895107ee679496b166aefe6206dc49d = private unnamed_addr constant <{ ptr, [16 x i8] }> <{ ptr @alloc_038d6c5722efbd3955ab3763bdc8cc27, [16 x i8] c"\0E\00\00\00\00\00\00\00K\00\00\00\0D\00\00\00" }>, align 8
@alloc_ed653e10b3d7eb6157069bac5fbd52d1 = private unnamed_addr constant <{ ptr, [16 x i8] }> <{ ptr @alloc_038d6c5722efbd3955ab3763bdc8cc27, [16 x i8] c"\0E\00\00\00\00\00\00\00?\00\00\00\09\00\00\00" }>, align 8
@alloc_7519253c33488b9285b1bca2498195c8 = private unnamed_addr constant <{ ptr, [16 x i8] }> <{ ptr @alloc_038d6c5722efbd3955ab3763bdc8cc27, [16 x i8] c"\0E\00\00\00\00\00\00\00>\00\00\00\09\00\00\00" }>, align 8
@alloc_94a6065ee1f45dfce5759e12c7406524 = private unnamed_addr constant <{ [7 x i8] }> <{ [7 x i8] c"Version" }>, align 1
@alloc_4cdb24b42a80f22b6b821bb3f8a02159 = private unnamed_addr constant <{ [5 x i8] }> <{ [5 x i8] c"major" }>, align 1
@vtable.4 = private constant <{ ptr, [16 x i8], ptr }> <{ ptr @"_ZN4core3ptr24drop_in_place$LT$u64$GT$17haf649e894ff6c6edE", [16 x i8] c"\08\00\00\00\00\00\00\00\08\00\00\00\00\00\00\00", ptr @"_ZN4core3fmt3num50_$LT$impl$u20$core..fmt..Debug$u20$for$u20$u64$GT$3fmt17hf7fd86af0195d2b6E" }>, align 8, !dbg !28
@alloc_274e8598b8ce915f77b7aff9fb214dfa = private unnamed_addr constant <{ [5 x i8] }> <{ [5 x i8] c"minor" }>, align 1
@alloc_9b505451451ec50119c3c52e8a43d511 = private unnamed_addr constant <{ [5 x i8] }> <{ [5 x i8] c"patch" }>, align 1
@alloc_8833ed235f5037475ff25293dc66477a = private unnamed_addr constant <{ [3 x i8] }> <{ [3 x i8] c"pre" }>, align 1
@vtable.5 = private constant <{ ptr, [16 x i8], ptr }> <{ ptr @"_ZN4core3ptr39drop_in_place$LT$semver..Prerelease$GT$17h9622912baceb5bd0E", [16 x i8] c"\08\00\00\00\00\00\00\00\08\00\00\00\00\00\00\00", ptr @"_ZN6semver7display65_$LT$impl$u20$core..fmt..Debug$u20$for$u20$semver..Prerelease$GT$3fmt17h008b06846fd5cb8cE" }>, align 8, !dbg !37
@alloc_aa7433f371f3ffe730d38211433d1e95 = private unnamed_addr constant <{ [5 x i8] }> <{ [5 x i8] c"build" }>, align 1
@vtable.6 = private constant <{ ptr, [16 x i8], ptr }> <{ ptr @"_ZN4core3ptr42drop_in_place$LT$semver..BuildMetadata$GT$17hce713eb27874f27fE", [16 x i8] c"\08\00\00\00\00\00\00\00\08\00\00\00\00\00\00\00", ptr @"_ZN6semver7display68_$LT$impl$u20$core..fmt..Debug$u20$for$u20$semver..BuildMetadata$GT$3fmt17h944ba728a7cde8d2E" }>, align 8, !dbg !66
@alloc_386b86cefb1ef17864ef80896fe94aa4 = private unnamed_addr constant <{ [12 x i8] }> <{ [12 x i8] c"Prerelease(\22" }>, align 1
@alloc_cedc83a48704a6af8716f539a3401cbf = private unnamed_addr constant <{ [2 x i8] }> <{ [2 x i8] c"\22)" }>, align 1
@alloc_ffa49c2acab5aaec87db474be9047a00 = private unnamed_addr constant <{ ptr, [8 x i8], ptr, [8 x i8] }> <{ ptr @alloc_386b86cefb1ef17864ef80896fe94aa4, [8 x i8] c"\0C\00\00\00\00\00\00\00", ptr @alloc_cedc83a48704a6af8716f539a3401cbf, [8 x i8] c"\02\00\00\00\00\00\00\00" }>, align 8
@alloc_b57397a41e1420e605461e821faf926b = private unnamed_addr constant <{ [15 x i8] }> <{ [15 x i8] c"BuildMetadata(\22" }>, align 1
@alloc_5a88c12c8ca8d1dd77512e72752247ec = private unnamed_addr constant <{ ptr, [8 x i8], ptr, [8 x i8] }> <{ ptr @alloc_b57397a41e1420e605461e821faf926b, [8 x i8] c"\0F\00\00\00\00\00\00\00", ptr @alloc_cedc83a48704a6af8716f539a3401cbf, [8 x i8] c"\02\00\00\00\00\00\00\00" }>, align 8
@alloc_593d505e654cafc8ca44384e823ece14 = private unnamed_addr constant <{ ptr, [16 x i8] }> <{ ptr @alloc_038d6c5722efbd3955ab3763bdc8cc27, [16 x i8] c"\0E\00\00\00\00\00\00\00\8B\00\00\00\13\00\00\00" }>, align 8
@str.7 = internal unnamed_addr constant [33 x i8] c"attempt to subtract with overflow"
@alloc_bc1e4e425d17b8027ca42632262ffdb2 = private unnamed_addr constant <{ ptr, [16 x i8] }> <{ ptr @alloc_038d6c5722efbd3955ab3763bdc8cc27, [16 x i8] c"\0E\00\00\00\00\00\00\00\8F\00\00\00,\00\00\00" }>, align 8
@alloc_4254dea89a0286db6fc2527b1e9bed28 = private unnamed_addr constant <{ ptr, [16 x i8] }> <{ ptr @alloc_038d6c5722efbd3955ab3763bdc8cc27, [16 x i8] c"\0E\00\00\00\00\00\00\00\9A\00\00\00\09\00\00\00" }>, align 8
@alloc_53128e724bb869ee8fc93db772a005ec = private unnamed_addr constant <{ ptr, [16 x i8] }> <{ ptr @alloc_038d6c5722efbd3955ab3763bdc8cc27, [16 x i8] c"\0E\00\00\00\00\00\00\00\97\00\00\00\05\00\00\00" }>, align 8
@alloc_c12647f45a39bfaf80d72d2333d81b70 = private unnamed_addr constant <{ ptr, [16 x i8] }> <{ ptr @alloc_038d6c5722efbd3955ab3763bdc8cc27, [16 x i8] c"\0E\00\00\00\00\00\00\00\94\00\00\00\09\00\00\00" }>, align 8
@alloc_f64c2167ae231b2bc47871f2c09a5ced = private unnamed_addr constant <{ ptr, [16 x i8] }> <{ ptr @alloc_038d6c5722efbd3955ab3763bdc8cc27, [16 x i8] c"\0E\00\00\00\00\00\00\00\A3\00\00\00\09\00\00\00" }>, align 8
@alloc_93e77da61d32c1c4aaf886de9b2038bb = private unnamed_addr constant <{ [39 x i8] }> <{ [39 x i8] c"empty string, expected a semver version" }>, align 1
@alloc_cec42eec1087e963781e58d8d0c3a3c1 = private unnamed_addr constant <{ [38 x i8] }> <{ [38 x i8] c"unexpected end of input while parsing " }>, align 1
@alloc_7a48a44dab6626f3c2654e9322d77edc = private unnamed_addr constant <{ ptr, [8 x i8] }> <{ ptr @alloc_cec42eec1087e963781e58d8d0c3a3c1, [8 x i8] c"&\00\00\00\00\00\00\00" }>, align 8
@alloc_8350265534ad75267d14113226f32878 = private unnamed_addr constant <{ [21 x i8] }> <{ [21 x i8] c"unexpected character " }>, align 1
@alloc_a4d8fa79f53b480d2525ca6bb54a7d2c = private unnamed_addr constant <{ [15 x i8] }> <{ [15 x i8] c" while parsing " }>, align 1
@alloc_dfecc3c77eed95952cc26021ac30a8a5 = private unnamed_addr constant <{ ptr, [8 x i8], ptr, [8 x i8] }> <{ ptr @alloc_8350265534ad75267d14113226f32878, [8 x i8] c"\15\00\00\00\00\00\00\00", ptr @alloc_a4d8fa79f53b480d2525ca6bb54a7d2c, [8 x i8] c"\0F\00\00\00\00\00\00\00" }>, align 8
@alloc_a22f8f5c548f5c9931f4ce196dc45030 = private unnamed_addr constant <{ [7 x i8] }> <{ [7 x i8] c" after " }>, align 1
@alloc_38313d4c7b1f14d334e125b89015963d = private unnamed_addr constant <{ ptr, [8 x i8], ptr, [8 x i8] }> <{ ptr @alloc_8350265534ad75267d14113226f32878, [8 x i8] c"\15\00\00\00\00\00\00\00", ptr @alloc_a22f8f5c548f5c9931f4ce196dc45030, [8 x i8] c"\07\00\00\00\00\00\00\00" }>, align 8
@alloc_0b16f7deee0f7b5581cfba80321c5cb7 = private unnamed_addr constant <{ [21 x i8] }> <{ [21 x i8] c"expected comma after " }>, align 1
@alloc_7b77aac50f46634a1be5e17e412bb264 = private unnamed_addr constant <{ [8 x i8] }> <{ [8 x i8] c", found " }>, align 1
@alloc_1b64b5bcfdfe675e5845c9554ad507b6 = private unnamed_addr constant <{ ptr, [8 x i8], ptr, [8 x i8] }> <{ ptr @alloc_0b16f7deee0f7b5581cfba80321c5cb7, [8 x i8] c"\15\00\00\00\00\00\00\00", ptr @alloc_7b77aac50f46634a1be5e17e412bb264, [8 x i8] c"\08\00\00\00\00\00\00\00" }>, align 8
@alloc_60b119c54c083ff5024d0f4118591d6a = private unnamed_addr constant <{ [24 x i8] }> <{ [24 x i8] c"invalid leading zero in " }>, align 1
@alloc_e81843ad76df9c273eacfa031bdaf7e5 = private unnamed_addr constant <{ ptr, [8 x i8] }> <{ ptr @alloc_60b119c54c083ff5024d0f4118591d6a, [8 x i8] c"\18\00\00\00\00\00\00\00" }>, align 8
@alloc_7dc57e6f32c4c381688d8706a206539d = private unnamed_addr constant <{ [9 x i8] }> <{ [9 x i8] c"value of " }>, align 1
@alloc_7e6ec8f549f319f44671ef731ac528a7 = private unnamed_addr constant <{ [17 x i8] }> <{ [17 x i8] c" exceeds u64::MAX" }>, align 1
@alloc_3fb3bba9d565a46ebb1c7b31722ee7c3 = private unnamed_addr constant <{ ptr, [8 x i8], ptr, [8 x i8] }> <{ ptr @alloc_7dc57e6f32c4c381688d8706a206539d, [8 x i8] c"\09\00\00\00\00\00\00\00", ptr @alloc_7e6ec8f549f319f44671ef731ac528a7, [8 x i8] c"\11\00\00\00\00\00\00\00" }>, align 8
@alloc_2169a9d03a0ae9c035dd33302591795e = private unnamed_addr constant <{ [28 x i8] }> <{ [28 x i8] c"empty identifier segment in " }>, align 1
@alloc_16af6a4961929c13a6cd7816d26e028b = private unnamed_addr constant <{ ptr, [8 x i8] }> <{ ptr @alloc_2169a9d03a0ae9c035dd33302591795e, [8 x i8] c"\1C\00\00\00\00\00\00\00" }>, align 8
@alloc_fcfedde692a649319aaef82aa4d3efb5 = private unnamed_addr constant <{ [24 x i8] }> <{ [24 x i8] c"unexpected character in " }>, align 1
@alloc_c705c7dcae74d581af8481711e84b149 = private unnamed_addr constant <{ ptr, [8 x i8] }> <{ ptr @alloc_fcfedde692a649319aaef82aa4d3efb5, [8 x i8] c"\18\00\00\00\00\00\00\00" }>, align 8
@alloc_0ad28615350fb55e8251c22da81ef2dd = private unnamed_addr constant <{ [14 x i8] }> <{ [14 x i8] c"wildcard req (" }>, align 1
@alloc_6ec12712cda155d5ae1000eac0239b8d = private unnamed_addr constant <{ [48 x i8] }> <{ [48 x i8] c") must be the only comparator in the version req" }>, align 1
@alloc_f8c4a00a9850d66f44e59c1953003560 = private unnamed_addr constant <{ ptr, [8 x i8], ptr, [8 x i8] }> <{ ptr @alloc_0ad28615350fb55e8251c22da81ef2dd, [8 x i8] c"\0E\00\00\00\00\00\00\00", ptr @alloc_6ec12712cda155d5ae1000eac0239b8d, [8 x i8] c"0\00\00\00\00\00\00\00" }>, align 8
@alloc_eb06a1a2097805c5a6820bd25704c093 = private unnamed_addr constant <{ [50 x i8] }> <{ [50 x i8] c"unexpected character after wildcard in version req" }>, align 1
@alloc_83bbda8aa8e3c8889e134f3548c95fdd = private unnamed_addr constant <{ [39 x i8] }> <{ [39 x i8] c"excessive number of version comparators" }>, align 1
@alloc_49e25dbd382b21559990ba83040e3655 = private unnamed_addr constant <{ [20 x i8] }> <{ [20 x i8] c"major version number" }>, align 1
@alloc_a5eb0f64d7e2596d20f7a368933fdcf8 = private unnamed_addr constant <{ [20 x i8] }> <{ [20 x i8] c"minor version number" }>, align 1
@alloc_368e3a17bcfecf21b91078d0812d55f5 = private unnamed_addr constant <{ [20 x i8] }> <{ [20 x i8] c"patch version number" }>, align 1
@alloc_5ac62e3732869dda6533174acb4f4532 = private unnamed_addr constant <{ [22 x i8] }> <{ [22 x i8] c"pre-release identifier" }>, align 1
@alloc_d20e34d99778cf49a71c8d2fd820cef7 = private unnamed_addr constant <{ [14 x i8] }> <{ [14 x i8] c"build metadata" }>, align 1
@alloc_5852005402e1bc103fa1a604364f2b3c = private unnamed_addr constant <{ [7 x i8] }> <{ [7 x i8] c"Error(\22" }>, align 1
@alloc_fe8659e7a2d2647523b6aa610004c60b = private unnamed_addr constant <{ [12 x i8] }> <{ [12 x i8] c"src/error.rs" }>, align 1
@alloc_364725af39839bf5b43d7aac3e702727 = private unnamed_addr constant <{ ptr, [16 x i8] }> <{ ptr @alloc_fe8659e7a2d2647523b6aa610004c60b, [16 x i8] c"\0C\00\00\00\00\00\00\00l\00\00\00\09\00\00\00" }>, align 8
@alloc_3be11de9f2c2584db3e5508a8d99f855 = private unnamed_addr constant <{ ptr, [16 x i8] }> <{ ptr @alloc_fe8659e7a2d2647523b6aa610004c60b, [16 x i8] c"\0C\00\00\00\00\00\00\00k\00\00\00\09\00\00\00" }>, align 8
@alloc_724a4c90963f5c2fa12fee6327f56c27 = private unnamed_addr constant <{ ptr, [16 x i8] }> <{ ptr @alloc_fe8659e7a2d2647523b6aa610004c60b, [16 x i8] c"\0C\00\00\00\00\00\00\00j\00\00\00\09\00\00\00" }>, align 8
@alloc_73973ff42ea6a90fa53423a15749590d = private unnamed_addr constant <{ [4 x i8] }> <{ [4 x i8] c"'\\0'" }>, align 1
@alloc_b8f6a517090a4a97021319948c8a9217 = private unnamed_addr constant <{ [44 x i8] }> <{ [44 x i8] c"assertion failed: len <= isize::MAX as usize" }>, align 1
@alloc_5e05ce78c185cd98145cb5d43abe0543 = private unnamed_addr constant <{ [17 x i8] }> <{ [17 x i8] c"src/identifier.rs" }>, align 1
@alloc_9675c83bde1e29e30a90e9d6311dd9a8 = private unnamed_addr constant <{ ptr, [16 x i8] }> <{ ptr @alloc_5e05ce78c185cd98145cb5d43abe0543, [16 x i8] c"\11\00\00\00\00\00\00\00l\00\00\00\09\00\00\00" }>, align 8
@alloc_90687b2df7bb861cc6afb736640d1077 = private unnamed_addr constant <{ [67 x i8] }> <{ [67 x i8] c"please refrain from storing >64 petabytes of text in semver version" }>, align 1
@alloc_1f965597df00c708bcb35bc5307cef4b = private unnamed_addr constant <{ ptr, [8 x i8] }> <{ ptr @alloc_90687b2df7bb861cc6afb736640d1077, [8 x i8] c"C\00\00\00\00\00\00\00" }>, align 8
@alloc_5ed384a1e7ab2510b0ed7a37b205626e = private unnamed_addr constant <{ ptr, [16 x i8] }> <{ ptr @alloc_5e05ce78c185cd98145cb5d43abe0543, [16 x i8] c"\11\00\00\00\00\00\00\00\A4\00\00\00\11\00\00\00" }>, align 8
@alloc_a4a58ec5dc9d0063d1f24765d5a71858 = private unnamed_addr constant <{ ptr, [16 x i8] }> <{ ptr @alloc_5e05ce78c185cd98145cb5d43abe0543, [16 x i8] c"\11\00\00\00\00\00\00\00z\00\00\00\1C\00\00\00" }>, align 8
@alloc_e78fdb93bfb693e5aa93b889453fa449 = private unnamed_addr constant <{ [35 x i8] }> <{ [35 x i8] c"assertion failed: size <= max_alloc" }>, align 1
@alloc_aa3cbb7fa4764c25cb01b5ea1bfb0388 = private unnamed_addr constant <{ ptr, [16 x i8] }> <{ ptr @alloc_5e05ce78c185cd98145cb5d43abe0543, [16 x i8] c"\11\00\00\00\00\00\00\00\87\00\00\00\15\00\00\00" }>, align 8
@alloc_ee0dfa83bf150e8be34e6ea541e25d2c = private unnamed_addr constant <{ ptr, [16 x i8] }> <{ ptr @alloc_5e05ce78c185cd98145cb5d43abe0543, [16 x i8] c"\11\00\00\00\00\00\00\00\B8\00\00\00)\00\00\00" }>, align 8
@str.8 = internal unnamed_addr constant [33 x i8] c"attempt to multiply with overflow"
@alloc_d0513ec29f04d75d9ed8ca74c1a71b83 = private unnamed_addr constant <{ ptr, [16 x i8] }> <{ ptr @alloc_5e05ce78c185cd98145cb5d43abe0543, [16 x i8] c"\11\00\00\00\00\00\00\00\B8\00\00\00(\00\00\00" }>, align 8
@alloc_0054dbb088f37729149ef6be65041f6a = private unnamed_addr constant <{ ptr, [16 x i8] }> <{ ptr @alloc_5e05ce78c185cd98145cb5d43abe0543, [16 x i8] c"\11\00\00\00\00\00\00\00\B8\00\00\00\09\00\00\00" }>, align 8
@str.9 = internal unnamed_addr constant [36 x i8] c"attempt to shift right with overflow"
@alloc_82dd32d1a1d10df659544fa239cc045e = private unnamed_addr constant <{ ptr, [16 x i8] }> <{ ptr @alloc_5e05ce78c185cd98145cb5d43abe0543, [16 x i8] c"\11\00\00\00\00\00\00\00\D8\00\00\00\18\00\00\00" }>, align 8
@alloc_4f9a996e8c32582727ff7b604c448fa7 = private unnamed_addr constant <{ ptr, [16 x i8] }> <{ ptr @alloc_5e05ce78c185cd98145cb5d43abe0543, [16 x i8] c"\11\00\00\00\00\00\00\00\F8\00\00\00\14\00\00\00" }>, align 8
@alloc_bf52849382d62d3ff25a2213da2203ed = private unnamed_addr constant <{ ptr, [16 x i8] }> <{ ptr @alloc_5e05ce78c185cd98145cb5d43abe0543, [16 x i8] c"\11\00\00\00\00\00\00\00O\01\00\00\19\00\00\00" }>, align 8
@alloc_5cad15423530a73e58fefff58ebe0588 = private unnamed_addr constant <{ ptr, [16 x i8] }> <{ ptr @alloc_5e05ce78c185cd98145cb5d43abe0543, [16 x i8] c"\11\00\00\00\00\00\00\00\8B\01\00\00\18\00\00\00" }>, align 8
@str.a = internal unnamed_addr constant [35 x i8] c"attempt to shift left with overflow"
@alloc_cd6792414c00766fbc6f122d129580b0 = private unnamed_addr constant <{ ptr, [16 x i8] }> <{ ptr @alloc_5e05ce78c185cd98145cb5d43abe0543, [16 x i8] c"\11\00\00\00\00\00\00\00\8B\01\00\00\11\00\00\00" }>, align 8
@alloc_eafb14ac453cb4c44f929afc66a58796 = private unnamed_addr constant <{ ptr, [16 x i8] }> <{ ptr @alloc_5e05ce78c185cd98145cb5d43abe0543, [16 x i8] c"\11\00\00\00\00\00\00\00\8C\01\00\00\11\00\00\00" }>, align 8
@alloc_5742ccdbee1ffd93e460f9a2cc7fe9f2 = private unnamed_addr constant <{ ptr, [16 x i8] }> <{ ptr @alloc_5e05ce78c185cd98145cb5d43abe0543, [16 x i8] c"\11\00\00\00\00\00\00\00\A3\01\00\00\16\00\00\00" }>, align 8
@alloc_c9f0d5441def75e3bc446b1659821f4f = private unnamed_addr constant <{ ptr, [16 x i8] }> <{ ptr @alloc_5e05ce78c185cd98145cb5d43abe0543, [16 x i8] c"\11\00\00\00\00\00\00\00\A4\01\00\00\14\00\00\00" }>, align 8
@alloc_410689786567ab8a2081e22563db22ee = private unnamed_addr constant <{ ptr, [16 x i8] }> <{ ptr @alloc_5e05ce78c185cd98145cb5d43abe0543, [16 x i8] c"\11\00\00\00\00\00\00\00\A5\01\00\00\05\00\00\00" }>, align 8
@alloc_9c670576afd62853e59b7f9da2e71e67 = private unnamed_addr constant <{ [12 x i8] }> <{ [12 x i8] c"src/parse.rs" }>, align 1
@alloc_95beeb4d73484563cf048a8e66bd490f = private unnamed_addr constant <{ ptr, [16 x i8] }> <{ ptr @alloc_9c670576afd62853e59b7f9da2e71e67, [16 x i8] c"\0C\00\00\00\00\00\00\002\00\00\00\1F\00\00\00" }>, align 8
@4 = private unnamed_addr constant <{ [8 x i8] }> <{ [8 x i8] c"\FF\FF\FF\FF\FF\FF\FF\FF" }>, align 8
@alloc_fcb140f16bb7927a5ac614d8071e7a1b = private unnamed_addr constant <{ ptr, [16 x i8] }> <{ ptr @alloc_9c670576afd62853e59b7f9da2e71e67, [16 x i8] c"\0C\00\00\00\00\00\00\00=\00\00\00!\00\00\00" }>, align 8
@alloc_128d3b43ad5f6c4f6f4786b5424841ed = private unnamed_addr constant <{ ptr, [16 x i8] }> <{ ptr @alloc_9c670576afd62853e59b7f9da2e71e67, [16 x i8] c"\0C\00\00\00\00\00\00\00*\00\00\00\1D\00\00\00" }>, align 8
@alloc_516447471a3af6e15c6aa2daa7da5846 = private unnamed_addr constant <{ ptr, [16 x i8] }> <{ ptr @alloc_9c670576afd62853e59b7f9da2e71e67, [16 x i8] c"\0C\00\00\00\00\00\00\00'\00\00\00\14\00\00\00" }>, align 8
@alloc_2ae9bd3b9c27fe5e436775387743e324 = private unnamed_addr constant <{ ptr, [16 x i8] }> <{ ptr @alloc_9c670576afd62853e59b7f9da2e71e67, [16 x i8] c"\0C\00\00\00\00\00\00\00&\00\00\00\1D\00\00\00" }>, align 8
@alloc_be4360d5ecdab6fda32245d81f87ece4 = private unnamed_addr constant <{ ptr, [16 x i8] }> <{ ptr @alloc_9c670576afd62853e59b7f9da2e71e67, [16 x i8] c"\0C\00\00\00\00\00\00\00#\00\00\00\14\00\00\00" }>, align 8
@alloc_819e21a54fc54526c6c0e87ba594f6c4 = private unnamed_addr constant <{ ptr, [16 x i8] }> <{ ptr @alloc_9c670576afd62853e59b7f9da2e71e67, [16 x i8] c"\0C\00\00\00\00\00\00\00\22\00\00\00\1D\00\00\00" }>, align 8
@5 = private unnamed_addr constant <{ [24 x i8] }> <{ [24 x i8] c"\00\00\00\00\00\00\00\00\08\00\00\00\00\00\00\00\00\00\00\00\00\00\00\00" }>, align 8
@alloc_e621068e0dfcdec3a0c3f9ee4e477a22 = private unnamed_addr constant <{ ptr, [16 x i8] }> <{ ptr @alloc_9c670576afd62853e59b7f9da2e71e67, [16 x i8] c"\0C\00\00\00\00\00\00\00k\00\00\00\13\00\00\00" }>, align 8
@alloc_c88e0d10928e88fa914d45b77b7867cf = private unnamed_addr constant <{ ptr, [16 x i8] }> <{ ptr @alloc_9c670576afd62853e59b7f9da2e71e67, [16 x i8] c"\0C\00\00\00\00\00\00\00x\00\00\002\00\00\00" }>, align 8
@alloc_252fd9f8b4b49cdaba2047f97e8b368d = private unnamed_addr constant <{ ptr, [16 x i8] }> <{ ptr @alloc_9c670576afd62853e59b7f9da2e71e67, [16 x i8] c"\0C\00\00\00\00\00\00\00v\00\00\00'\00\00\00" }>, align 8
@alloc_2ee9435fde356c97be9cbdf254cf3df0 = private unnamed_addr constant <{ ptr, [16 x i8] }> <{ ptr @alloc_9c670576afd62853e59b7f9da2e71e67, [16 x i8] c"\0C\00\00\00\00\00\00\00\83\00\00\00\1B\00\00\00" }>, align 8
@alloc_870de0078213237febf893146e76018d = private unnamed_addr constant <{ ptr, [16 x i8] }> <{ ptr @alloc_9c670576afd62853e59b7f9da2e71e67, [16 x i8] c"\0C\00\00\00\00\00\00\00\8F\00\00\00\1D\00\00\00" }>, align 8
@alloc_10ef819835585ac0633797de9813c6f2 = private unnamed_addr constant <{ ptr, [16 x i8] }> <{ ptr @alloc_9c670576afd62853e59b7f9da2e71e67, [16 x i8] c"\0C\00\00\00\00\00\00\00\B3\00\00\00\09\00\00\00" }>, align 8
@alloc_4d078cbf79c418b50fee92dcaf2f0d7e = private unnamed_addr constant <{ ptr, [16 x i8] }> <{ ptr @alloc_9c670576afd62853e59b7f9da2e71e67, [16 x i8] c"\0C\00\00\00\00\00\00\00\B8\00\00\00+\00\00\00" }>, align 8
@alloc_081a7ae8df5cf48e2c1d8524e9bca7de = private unnamed_addr constant <{ ptr, [16 x i8] }> <{ ptr @alloc_9c670576afd62853e59b7f9da2e71e67, [16 x i8] c"\0C\00\00\00\00\00\00\00\B7\00\00\00\1A\00\00\00" }>, align 8
@alloc_4381b732c80f41ca81d43d94412bee6b = private unnamed_addr constant <{ ptr, [16 x i8] }> <{ ptr @alloc_9c670576afd62853e59b7f9da2e71e67, [16 x i8] c"\0C\00\00\00\00\00\00\00\AE\00\00\001\00\00\00" }>, align 8
@alloc_72f8480e0dad32ff79c35cd71dd7ca3e = private unnamed_addr constant <{ ptr, [16 x i8] }> <{ ptr @alloc_9c670576afd62853e59b7f9da2e71e67, [16 x i8] c"\0C\00\00\00\00\00\00\00\D6\00\00\00\1A\00\00\00" }>, align 8
@alloc_ed68e37ae5cd10d3b7fea9b9ae4da0b7 = private unnamed_addr constant <{ ptr, [16 x i8] }> <{ ptr @alloc_9c670576afd62853e59b7f9da2e71e67, [16 x i8] c"\0C\00\00\00\00\00\00\00\DC\00\00\00\1A\00\00\00" }>, align 8
@alloc_17496322577659278e572e0f3e477c1d = private unnamed_addr constant <{ ptr, [16 x i8] }> <{ ptr @alloc_9c670576afd62853e59b7f9da2e71e67, [16 x i8] c"\0C\00\00\00\00\00\00\00\E7\00\00\00$\00\00\00" }>, align 8
@alloc_c47e5e9e0d230e49405b8cd6519dab35 = private unnamed_addr constant <{ ptr, [16 x i8] }> <{ ptr @alloc_9c670576afd62853e59b7f9da2e71e67, [16 x i8] c"\0C\00\00\00\00\00\00\00\ED\00\00\00\11\00\00\00" }>, align 8
@alloc_ac4100efcaf7d4bdc809d15522e91362 = private unnamed_addr constant <{ ptr, [16 x i8] }> <{ ptr @alloc_9c670576afd62853e59b7f9da2e71e67, [16 x i8] c"\0C\00\00\00\00\00\00\00\E9\00\00\00\11\00\00\00" }>, align 8
@alloc_1433a4d47e53563626e2f3a0447277b9 = private unnamed_addr constant <{ ptr }> <{ ptr @alloc_0f52f98e9fa44caf6668aeb0b1c94ca5 }>, align 8
@alloc_5ef25d47ce7abcce53750a8a2a946f9a = private unnamed_addr constant <{ [1 x i8] }> <{ [1 x i8] c"\03" }>, align 1
@alloc_86b80e9bdb7270835041dd4b213e3101 = private unnamed_addr constant <{ ptr, [16 x i8] }> <{ ptr @alloc_9c670576afd62853e59b7f9da2e71e67, [16 x i8] c"\0C\00\00\00\00\00\00\00\FA\00\00\00\1D\00\00\00" }>, align 8
@alloc_2b2d5844a01aef6599aea6a5c6326b5e = private unnamed_addr constant <{ ptr, [16 x i8] }> <{ ptr @alloc_9c670576afd62853e59b7f9da2e71e67, [16 x i8] c"\0C\00\00\00\00\00\00\00\FE\00\00\00\11\00\00\00" }>, align 8
@alloc_109f8821f388aeabd4688ac8548ab8c0 = private unnamed_addr constant <{ ptr, [16 x i8] }> <{ ptr @alloc_9c670576afd62853e59b7f9da2e71e67, [16 x i8] c"\0C\00\00\00\00\00\00\00\00\01\00\00\15\00\00\00" }>, align 8
@alloc_54763ced18d5ef51118a8f2d7f7e0f35 = private unnamed_addr constant <{ ptr }> <{ ptr @alloc_219cd7325be98984893e9f7eb51114d4 }>, align 8
@alloc_ec60556351ee47aa0a7c06956eead456 = private unnamed_addr constant <{ ptr }> <{ ptr @alloc_b0f75d2f000046282f87eeb3267426fe }>, align 8
@alloc_7a1ba1c07524f5638e2be8ad232998ee = private unnamed_addr constant <{ ptr }> <{ ptr @alloc_069739ecb4f78035aca324a6dc5131a2 }>, align 8
@alloc_4543cdcfcc166a9cf2fd1ff89bdf428e = private unnamed_addr constant <{ ptr }> <{ ptr @alloc_b1e88229fec8d354345b71aa481bcef6 }>, align 8
@alloc_2d7302050f06ac74464c1892aa9c010f = private unnamed_addr constant <{ ptr }> <{ ptr @alloc_80d116644445a24338e088de2cc23880 }>, align 8
@alloc_c3436f6aa6a9733e8d8f6fc29ce28a72 = private unnamed_addr constant <{ ptr, [16 x i8] }> <{ ptr @alloc_9c670576afd62853e59b7f9da2e71e67, [16 x i8] c"\0C\00\00\00\00\00\00\00\1E\01\00\00\1B\00\00\00" }>, align 8
@alloc_efe9f34d056a8c15bab878cb463a271a = private unnamed_addr constant <{ ptr, [16 x i8] }> <{ ptr @alloc_9c670576afd62853e59b7f9da2e71e67, [16 x i8] c"\0C\00\00\00\00\00\00\00\1C\01\00\00\1B\00\00\00" }>, align 8
@alloc_7f019720a718e335c998daf0ccb2b409 = private unnamed_addr constant <{ ptr, [16 x i8] }> <{ ptr @alloc_9c670576afd62853e59b7f9da2e71e67, [16 x i8] c"\0C\00\00\00\00\00\00\00\19\01\00\00\1E\00\00\00" }>, align 8
@alloc_b9b29e6c259e58345800288154c83490 = private unnamed_addr constant <{ ptr, [16 x i8] }> <{ ptr @alloc_9c670576afd62853e59b7f9da2e71e67, [16 x i8] c"\0C\00\00\00\00\00\00\00\17\01\00\00 \00\00\00" }>, align 8
@alloc_1a475d33845657bdd630f9f60751ef00 = private unnamed_addr constant <{ ptr, [16 x i8] }> <{ ptr @alloc_9c670576afd62853e59b7f9da2e71e67, [16 x i8] c"\0C\00\00\00\00\00\00\00\13\01\00\00!\00\00\00" }>, align 8
@alloc_43cd0a3f0d621ad70b5d62b6af2e7889 = private unnamed_addr constant <{ ptr, [16 x i8] }> <{ ptr @alloc_9c670576afd62853e59b7f9da2e71e67, [16 x i8] c"\0C\00\00\00\00\00\00\00\11\01\00\00#\00\00\00" }>, align 8
@alloc_df061e4e34a41eea70680742361a7e6b = private unnamed_addr constant <{ ptr, [16 x i8] }> <{ ptr @alloc_9c670576afd62853e59b7f9da2e71e67, [16 x i8] c"\0C\00\00\00\00\00\00\00\0E\01\00\00\1B\00\00\00" }>, align 8
@alloc_98007de69333e1505480e4aa17434cf4 = private unnamed_addr constant <{ ptr, [16 x i8] }> <{ ptr @alloc_9c670576afd62853e59b7f9da2e71e67, [16 x i8] c"\0C\00\00\00\00\00\00\006\01\00\00!\00\00\00" }>, align 8
@alloc_3e5c5e559994bf5cbdfa6541e92de8de = private unnamed_addr constant <{ ptr, [16 x i8] }> <{ ptr @alloc_9c670576afd62853e59b7f9da2e71e67, [16 x i8] c"\0C\00\00\00\00\00\00\00G\01\00\00!\00\00\00" }>, align 8
@alloc_af51f665b79205c6c49d6f6bf76c15cd = private unnamed_addr constant <{ ptr, [16 x i8] }> <{ ptr @alloc_9c670576afd62853e59b7f9da2e71e67, [16 x i8] c"\0C\00\00\00\00\00\00\00P\01\00\00\19\00\00\00" }>, align 8
@alloc_97653100cf6d68f67126d4d0eeb076aa = private unnamed_addr constant <{ ptr, [16 x i8] }> <{ ptr @alloc_9c670576afd62853e59b7f9da2e71e67, [16 x i8] c"\0C\00\00\00\00\00\00\00\\\01\00\00\19\00\00\00" }>, align 8
@alloc_3ecbacb51ecbbc0a3acf33275d3d587d = private unnamed_addr constant <{ ptr, [16 x i8] }> <{ ptr @alloc_9c670576afd62853e59b7f9da2e71e67, [16 x i8] c"\0C\00\00\00\00\00\00\00]\01\00\00\1D\00\00\00" }>, align 8
@alloc_345a49553f1a30f55fe4db1acec8c110 = private unnamed_addr constant <{ ptr, [16 x i8] }> <{ ptr @alloc_9c670576afd62853e59b7f9da2e71e67, [16 x i8] c"\0C\00\00\00\00\00\00\00Q\01\00\00\1B\00\00\00" }>, align 8
@alloc_d21f1da12cd411cc2dd1534f744a26e8 = private unnamed_addr constant <{ ptr, [16 x i8] }> <{ ptr @alloc_9c670576afd62853e59b7f9da2e71e67, [16 x i8] c"\0C\00\00\00\00\00\00\00*\01\00\00\19\00\00\00" }>, align 8
@alloc_211dd3666699b1fe461b2e5a3edde7d5 = private unnamed_addr constant <{ ptr, [16 x i8] }> <{ ptr @alloc_9c670576afd62853e59b7f9da2e71e67, [16 x i8] c"\0C\00\00\00\00\00\00\00\8F\01\00\00\08\00\00\00" }>, align 8
@alloc_6a988f01db0068b226da126e66201acf = private unnamed_addr constant <{ ptr, [16 x i8] }> <{ ptr @alloc_9c670576afd62853e59b7f9da2e71e67, [16 x i8] c"\0C\00\00\00\00\00\00\00\96\01\00\00&\00\00\00" }>, align 8
@alloc_7d5fcb61f6224b8d2fb8df885bbf71f7 = private unnamed_addr constant <{ ptr, [16 x i8] }> <{ ptr @alloc_9c670576afd62853e59b7f9da2e71e67, [16 x i8] c"\0C\00\00\00\00\00\00\00\96\01\00\00\0F\00\00\00" }>, align 8
@alloc_7fe167db811748ad4d028940a281a496 = private unnamed_addr constant <{ ptr, [16 x i8] }> <{ ptr @alloc_9c670576afd62853e59b7f9da2e71e67, [16 x i8] c"\0C\00\00\00\00\00\00\00\8A\01\00\00.\00\00\00" }>, align 8
@alloc_0fa81f1f4255b5d30b2250aa97b7ebbf = private unnamed_addr constant <{ ptr, [16 x i8] }> <{ ptr @alloc_9c670576afd62853e59b7f9da2e71e67, [16 x i8] c"\0C\00\00\00\00\00\00\00\82\01\00\00\1B\00\00\00" }>, align 8
@alloc_4c9b390bc49572d174c12b0f40a3f97f = private unnamed_addr constant <{ ptr, [16 x i8] }> <{ ptr @alloc_9c670576afd62853e59b7f9da2e71e67, [16 x i8] c"\0C\00\00\00\00\00\00\00\84\01\00\00\13\00\00\00" }>, align 8

; <core::ops::control_flow::ControlFlow<B,C> as core::ops::try_trait::FromResidual>::from_residual
; Function Attrs: inlinehint uwtable
define zeroext i1 @"_ZN104_$LT$core..ops..control_flow..ControlFlow$LT$B$C$C$GT$$u20$as$u20$core..ops..try_trait..FromResidual$GT$13from_residual17hd0a2349df31771beE"() unnamed_addr #0 !dbg !193 {
start:
  %b.dbg.spill = alloca {}, align 1
  %residual.dbg.spill = alloca %"core::ops::control_flow::ControlFlow<(), core::convert::Infallible>::Break", align 1
  %_0 = alloca i8, align 1
  call void @llvm.dbg.declare(metadata ptr %residual.dbg.spill, metadata !235, metadata !DIExpression()), !dbg !238
  call void @llvm.dbg.declare(metadata ptr %b.dbg.spill, metadata !236, metadata !DIExpression()), !dbg !239
  store i8 1, ptr %_0, align 1, !dbg !240
  %0 = load i8, ptr %_0, align 1, !dbg !241, !range !242, !noundef !18
  %1 = trunc i8 %0 to i1, !dbg !241
  ret i1 %1, !dbg !241
}

; <core::ops::range::Range<usize> as core::slice::index::SliceIndex<[T]>>::get_unchecked
; Function Attrs: inlinehint uwtable
define { ptr, i64 } @"_ZN106_$LT$core..ops..range..Range$LT$usize$GT$$u20$as$u20$core..slice..index..SliceIndex$LT$$u5b$T$u5d$$GT$$GT$13get_unchecked17h19bd0d05e5968e6fE"(i64 %self.0, i64 %self.1, ptr %slice.0, i64 %slice.1) unnamed_addr #0 !dbg !243 {
start:
  %data_pointer.dbg.spill = alloca ptr, align 8
  %data.dbg.spill = alloca ptr, align 8
  %self.dbg.spill1 = alloca ptr, align 8
  %new_len.dbg.spill = alloca i64, align 8
  %count.dbg.spill = alloca i64, align 8
  %slice.dbg.spill = alloca { ptr, i64 }, align 8
  %self.dbg.spill = alloca %"core::ops::range::Range<usize>", align 8
  %_18 = alloca %"core::ptr::metadata::PtrComponents<[u8]>", align 8
  %_17 = alloca %"core::ptr::metadata::PtrRepr<[u8]>", align 8
  %_15 = alloca %"core::ptr::metadata::PtrRepr<[u8]>", align 8
  store i64 %self.0, ptr %self.dbg.spill, align 8
  %0 = getelementptr inbounds i8, ptr %self.dbg.spill, i64 8
  store i64 %self.1, ptr %0, align 8
  call void @llvm.dbg.declare(metadata ptr %self.dbg.spill, metadata !263, metadata !DIExpression()), !dbg !267
  store ptr %slice.0, ptr %slice.dbg.spill, align 8
  %1 = getelementptr inbounds i8, ptr %slice.dbg.spill, i64 8
  store i64 %slice.1, ptr %1, align 8
  call void @llvm.dbg.declare(metadata ptr %slice.dbg.spill, metadata !264, metadata !DIExpression()), !dbg !268
  call void @llvm.dbg.declare(metadata ptr %slice.dbg.spill, metadata !269, metadata !DIExpression()), !dbg !278
  call void @llvm.dbg.declare(metadata ptr %slice.dbg.spill, metadata !280, metadata !DIExpression()), !dbg !286
  call void @llvm.dbg.declare(metadata ptr %slice.dbg.spill, metadata !288, metadata !DIExpression()), !dbg !294
  br label %bb1, !dbg !296

bb1:                                              ; preds = %start
  %_4 = icmp uge i64 %self.1, %self.0, !dbg !297
  br i1 %_4, label %bb2, label %bb5, !dbg !297

bb5:                                              ; preds = %bb1
  br label %bb6, !dbg !298

bb2:                                              ; preds = %bb1
  store ptr %slice.0, ptr %_15, align 8, !dbg !301
  %2 = getelementptr inbounds i8, ptr %_15, i64 8, !dbg !301
  store i64 %slice.1, ptr %2, align 8, !dbg !301
  %3 = getelementptr inbounds i8, ptr %_15, i64 8, !dbg !301
  %_8 = load i64, ptr %3, align 8, !dbg !301, !noundef !18
  %_7 = icmp ule i64 %self.1, %_8, !dbg !302
  br i1 %_7, label %bb3, label %bb4, !dbg !302

bb6:                                              ; preds = %bb4, %bb5
; call core::panicking::panic_nounwind
  call void @_ZN4core9panicking14panic_nounwind17h50c31e15afde233eE(ptr align 1 @alloc_0dc6db72fcead760fba2799443fc0f82, i64 64) #20, !dbg !296
  unreachable, !dbg !296

bb4:                                              ; preds = %bb2
  br label %bb6, !dbg !298

bb3:                                              ; preds = %bb2
  br label %bb7, !dbg !296

bb7:                                              ; preds = %bb3
  store i64 %self.0, ptr %count.dbg.spill, align 8, !dbg !303
  call void @llvm.dbg.declare(metadata ptr %count.dbg.spill, metadata !304, metadata !DIExpression()), !dbg !312
  %new_len = sub nuw i64 %self.1, %self.0, !dbg !314
  store i64 %new_len, ptr %new_len.dbg.spill, align 8, !dbg !314
  call void @llvm.dbg.declare(metadata ptr %new_len.dbg.spill, metadata !265, metadata !DIExpression()), !dbg !315
  call void @llvm.dbg.declare(metadata ptr %new_len.dbg.spill, metadata !316, metadata !DIExpression()), !dbg !324
  call void @llvm.dbg.declare(metadata ptr %new_len.dbg.spill, metadata !326, metadata !DIExpression()), !dbg !333
  store ptr %slice.0, ptr %self.dbg.spill1, align 8, !dbg !335
  call void @llvm.dbg.declare(metadata ptr %self.dbg.spill1, metadata !311, metadata !DIExpression()), !dbg !336
  %data = getelementptr inbounds i8, ptr %slice.0, i64 %self.0, !dbg !337
  store ptr %data, ptr %data.dbg.spill, align 8, !dbg !337
  call void @llvm.dbg.declare(metadata ptr %data.dbg.spill, metadata !323, metadata !DIExpression()), !dbg !338
  call void @llvm.dbg.declare(metadata ptr %data.dbg.spill, metadata !339, metadata !DIExpression()), !dbg !347
  store ptr %data, ptr %data_pointer.dbg.spill, align 8, !dbg !349
  call void @llvm.dbg.declare(metadata ptr %data_pointer.dbg.spill, metadata !332, metadata !DIExpression()), !dbg !350
  store ptr %data, ptr %_18, align 8, !dbg !351
  %4 = getelementptr inbounds i8, ptr %_18, i64 8, !dbg !351
  store i64 %new_len, ptr %4, align 8, !dbg !351
  %5 = load ptr, ptr %_18, align 8, !dbg !352, !noundef !18
  %6 = getelementptr inbounds i8, ptr %_18, i64 8, !dbg !352
  %7 = load i64, ptr %6, align 8, !dbg !352, !noundef !18
  store ptr %5, ptr %_17, align 8, !dbg !352
  %8 = getelementptr inbounds i8, ptr %_17, i64 8, !dbg !352
  store i64 %7, ptr %8, align 8, !dbg !352
  %_0.0 = load ptr, ptr %_17, align 8, !dbg !352, !noundef !18
  %9 = getelementptr inbounds i8, ptr %_17, i64 8, !dbg !352
  %_0.1 = load i64, ptr %9, align 8, !dbg !352, !noundef !18
  %10 = insertvalue { ptr, i64 } poison, ptr %_0.0, 0, !dbg !353
  %11 = insertvalue { ptr, i64 } %10, i64 %_0.1, 1, !dbg !353
  ret { ptr, i64 } %11, !dbg !353
}

; <core::ops::range::Range<usize> as core::slice::index::SliceIndex<[T]>>::get_unchecked_mut
; Function Attrs: inlinehint uwtable
define { ptr, i64 } @"_ZN106_$LT$core..ops..range..Range$LT$usize$GT$$u20$as$u20$core..slice..index..SliceIndex$LT$$u5b$T$u5d$$GT$$GT$17get_unchecked_mut17hc9a060efe1d79c1fE"(i64 %self.0, i64 %self.1, ptr %slice.0, i64 %slice.1) unnamed_addr #0 !dbg !354 {
start:
  %data_pointer.dbg.spill = alloca ptr, align 8
  %data.dbg.spill = alloca ptr, align 8
  %self.dbg.spill1 = alloca ptr, align 8
  %new_len.dbg.spill = alloca i64, align 8
  %count.dbg.spill = alloca i64, align 8
  %ptr.dbg.spill = alloca { ptr, i64 }, align 8
  %slice.dbg.spill = alloca { ptr, i64 }, align 8
  %self.dbg.spill = alloca %"core::ops::range::Range<usize>", align 8
  %_19 = alloca %"core::ptr::metadata::PtrComponents<[u8]>", align 8
  %_18 = alloca %"core::ptr::metadata::PtrRepr<[u8]>", align 8
  %_16 = alloca %"core::ptr::metadata::PtrRepr<[u8]>", align 8
  store i64 %self.0, ptr %self.dbg.spill, align 8
  %0 = getelementptr inbounds i8, ptr %self.dbg.spill, i64 8
  store i64 %self.1, ptr %0, align 8
  call void @llvm.dbg.declare(metadata ptr %self.dbg.spill, metadata !362, metadata !DIExpression()), !dbg !366
  store ptr %slice.0, ptr %slice.dbg.spill, align 8
  %1 = getelementptr inbounds i8, ptr %slice.dbg.spill, i64 8
  store i64 %slice.1, ptr %1, align 8
  call void @llvm.dbg.declare(metadata ptr %slice.dbg.spill, metadata !363, metadata !DIExpression()), !dbg !367
  call void @llvm.dbg.declare(metadata ptr %slice.dbg.spill, metadata !368, metadata !DIExpression()), !dbg !377
  call void @llvm.dbg.declare(metadata ptr %slice.dbg.spill, metadata !379, metadata !DIExpression()), !dbg !386
  br label %bb1, !dbg !388

bb1:                                              ; preds = %start
  %_4 = icmp uge i64 %self.1, %self.0, !dbg !389
  br i1 %_4, label %bb2, label %bb5, !dbg !389

bb5:                                              ; preds = %bb1
  br label %bb6, !dbg !390

bb2:                                              ; preds = %bb1
  store ptr %slice.0, ptr %ptr.dbg.spill, align 8, !dbg !392
  %2 = getelementptr inbounds i8, ptr %ptr.dbg.spill, i64 8, !dbg !392
  store i64 %slice.1, ptr %2, align 8, !dbg !392
  call void @llvm.dbg.declare(metadata ptr %ptr.dbg.spill, metadata !393, metadata !DIExpression()), !dbg !397
  store ptr %slice.0, ptr %_16, align 8, !dbg !399
  %3 = getelementptr inbounds i8, ptr %_16, i64 8, !dbg !399
  store i64 %slice.1, ptr %3, align 8, !dbg !399
  %4 = getelementptr inbounds i8, ptr %_16, i64 8, !dbg !399
  %_8 = load i64, ptr %4, align 8, !dbg !399, !noundef !18
  %_7 = icmp ule i64 %self.1, %_8, !dbg !400
  br i1 %_7, label %bb3, label %bb4, !dbg !400

bb6:                                              ; preds = %bb4, %bb5
; call core::panicking::panic_nounwind
  call void @_ZN4core9panicking14panic_nounwind17h50c31e15afde233eE(ptr align 1 @alloc_8bc4d99c9de504799214701ea609a64b, i64 68) #20, !dbg !388
  unreachable, !dbg !388

bb4:                                              ; preds = %bb2
  br label %bb6, !dbg !390

bb3:                                              ; preds = %bb2
  br label %bb7, !dbg !388

bb7:                                              ; preds = %bb3
  store i64 %self.0, ptr %count.dbg.spill, align 8, !dbg !401
  call void @llvm.dbg.declare(metadata ptr %count.dbg.spill, metadata !402, metadata !DIExpression()), !dbg !410
  %new_len = sub nuw i64 %self.1, %self.0, !dbg !412
  store i64 %new_len, ptr %new_len.dbg.spill, align 8, !dbg !412
  call void @llvm.dbg.declare(metadata ptr %new_len.dbg.spill, metadata !364, metadata !DIExpression()), !dbg !413
  call void @llvm.dbg.declare(metadata ptr %new_len.dbg.spill, metadata !414, metadata !DIExpression()), !dbg !421
  call void @llvm.dbg.declare(metadata ptr %new_len.dbg.spill, metadata !423, metadata !DIExpression()), !dbg !431
  store ptr %slice.0, ptr %self.dbg.spill1, align 8, !dbg !433
  call void @llvm.dbg.declare(metadata ptr %self.dbg.spill1, metadata !409, metadata !DIExpression()), !dbg !434
  %data = getelementptr inbounds i8, ptr %slice.0, i64 %self.0, !dbg !435
  store ptr %data, ptr %data.dbg.spill, align 8, !dbg !435
  call void @llvm.dbg.declare(metadata ptr %data.dbg.spill, metadata !420, metadata !DIExpression()), !dbg !436
  call void @llvm.dbg.declare(metadata ptr %data.dbg.spill, metadata !437, metadata !DIExpression()), !dbg !443
  store ptr %data, ptr %data_pointer.dbg.spill, align 8, !dbg !445
  call void @llvm.dbg.declare(metadata ptr %data_pointer.dbg.spill, metadata !430, metadata !DIExpression()), !dbg !446
  store ptr %data, ptr %_19, align 8, !dbg !447
  %5 = getelementptr inbounds i8, ptr %_19, i64 8, !dbg !447
  store i64 %new_len, ptr %5, align 8, !dbg !447
  %6 = load ptr, ptr %_19, align 8, !dbg !448, !noundef !18
  %7 = getelementptr inbounds i8, ptr %_19, i64 8, !dbg !448
  %8 = load i64, ptr %7, align 8, !dbg !448, !noundef !18
  store ptr %6, ptr %_18, align 8, !dbg !448
  %9 = getelementptr inbounds i8, ptr %_18, i64 8, !dbg !448
  store i64 %8, ptr %9, align 8, !dbg !448
  %_0.0 = load ptr, ptr %_18, align 8, !dbg !448, !noundef !18
  %10 = getelementptr inbounds i8, ptr %_18, i64 8, !dbg !448
  %_0.1 = load i64, ptr %10, align 8, !dbg !448, !noundef !18
  %11 = insertvalue { ptr, i64 } poison, ptr %_0.0, 0, !dbg !449
  %12 = insertvalue { ptr, i64 } %11, i64 %_0.1, 1, !dbg !449
  ret { ptr, i64 } %12, !dbg !449
}

; <core::ops::range::Range<usize> as core::slice::index::SliceIndex<[T]>>::get
; Function Attrs: inlinehint uwtable
define { ptr, i64 } @"_ZN106_$LT$core..ops..range..Range$LT$usize$GT$$u20$as$u20$core..slice..index..SliceIndex$LT$$u5b$T$u5d$$GT$$GT$3get17h6b42bed6da158d5bE"(i64 %self.0, i64 %self.1, ptr align 1 %slice.0, i64 %slice.1) unnamed_addr #0 !dbg !450 {
start:
  %slice.dbg.spill = alloca { ptr, i64 }, align 8
  %self.dbg.spill = alloca %"core::ops::range::Range<usize>", align 8
  %_0 = alloca %"core::option::Option<&[u8]>", align 8
  store i64 %self.0, ptr %self.dbg.spill, align 8
  %0 = getelementptr inbounds i8, ptr %self.dbg.spill, i64 8
  store i64 %self.1, ptr %0, align 8
  call void @llvm.dbg.declare(metadata ptr %self.dbg.spill, metadata !472, metadata !DIExpression()), !dbg !474
  store ptr %slice.0, ptr %slice.dbg.spill, align 8
  %1 = getelementptr inbounds i8, ptr %slice.dbg.spill, i64 8
  store i64 %slice.1, ptr %1, align 8
  call void @llvm.dbg.declare(metadata ptr %slice.dbg.spill, metadata !473, metadata !DIExpression()), !dbg !475
  %_3 = icmp ugt i64 %self.0, %self.1, !dbg !476
  br i1 %_3, label %bb1, label %bb2, !dbg !476

bb2:                                              ; preds = %start
  %_6 = icmp ugt i64 %self.1, %slice.1, !dbg !477
  br i1 %_6, label %bb3, label %bb5, !dbg !477

bb1:                                              ; preds = %start
  br label %bb4, !dbg !478

bb5:                                              ; preds = %bb2
; call <core::ops::range::Range<usize> as core::slice::index::SliceIndex<[T]>>::get_unchecked
  %2 = call { ptr, i64 } @"_ZN106_$LT$core..ops..range..Range$LT$usize$GT$$u20$as$u20$core..slice..index..SliceIndex$LT$$u5b$T$u5d$$GT$$GT$13get_unchecked17h19bd0d05e5968e6fE"(i64 %self.0, i64 %self.1, ptr %slice.0, i64 %slice.1), !dbg !479
  %_9.0 = extractvalue { ptr, i64 } %2, 0, !dbg !479
  %_9.1 = extractvalue { ptr, i64 } %2, 1, !dbg !479
  store ptr %_9.0, ptr %_0, align 8, !dbg !480
  %3 = getelementptr inbounds i8, ptr %_0, i64 8, !dbg !480
  store i64 %_9.1, ptr %3, align 8, !dbg !480
  br label %bb7, !dbg !481

bb3:                                              ; preds = %bb2
  br label %bb4, !dbg !478

bb7:                                              ; preds = %bb4, %bb5
  %4 = load ptr, ptr %_0, align 8, !dbg !482, !align !483, !noundef !18
  %5 = getelementptr inbounds i8, ptr %_0, i64 8, !dbg !482
  %6 = load i64, ptr %5, align 8, !dbg !482
  %7 = insertvalue { ptr, i64 } poison, ptr %4, 0, !dbg !482
  %8 = insertvalue { ptr, i64 } %7, i64 %6, 1, !dbg !482
  ret { ptr, i64 } %8, !dbg !482

bb4:                                              ; preds = %bb1, %bb3
  %9 = load ptr, ptr @0, align 8, !dbg !484, !align !483, !noundef !18
  %10 = load i64, ptr getelementptr inbounds (i8, ptr @0, i64 8), align 8, !dbg !484
  store ptr %9, ptr %_0, align 8, !dbg !484
  %11 = getelementptr inbounds i8, ptr %_0, i64 8, !dbg !484
  store i64 %10, ptr %11, align 8, !dbg !484
  br label %bb7, !dbg !481
}

; <core::ops::range::Range<usize> as core::slice::index::SliceIndex<[T]>>::index_mut
; Function Attrs: inlinehint uwtable
define { ptr, i64 } @"_ZN106_$LT$core..ops..range..Range$LT$usize$GT$$u20$as$u20$core..slice..index..SliceIndex$LT$$u5b$T$u5d$$GT$$GT$9index_mut17h003299564a7182e5E"(i64 %self.0, i64 %self.1, ptr align 1 %slice.0, i64 %slice.1, ptr align 8 %0) unnamed_addr #0 !dbg !485 {
start:
  %slice.dbg.spill = alloca { ptr, i64 }, align 8
  %self.dbg.spill = alloca %"core::ops::range::Range<usize>", align 8
  store i64 %self.0, ptr %self.dbg.spill, align 8
  %1 = getelementptr inbounds i8, ptr %self.dbg.spill, i64 8
  store i64 %self.1, ptr %1, align 8
  call void @llvm.dbg.declare(metadata ptr %self.dbg.spill, metadata !506, metadata !DIExpression()), !dbg !508
  store ptr %slice.0, ptr %slice.dbg.spill, align 8
  %2 = getelementptr inbounds i8, ptr %slice.dbg.spill, i64 8
  store i64 %slice.1, ptr %2, align 8
  call void @llvm.dbg.declare(metadata ptr %slice.dbg.spill, metadata !507, metadata !DIExpression()), !dbg !509
  %_3 = icmp ugt i64 %self.0, %self.1, !dbg !510
  br i1 %_3, label %bb1, label %bb2, !dbg !510

bb2:                                              ; preds = %start
  %_7 = icmp ugt i64 %self.1, %slice.1, !dbg !511
  br i1 %_7, label %bb3, label %bb4, !dbg !511

bb1:                                              ; preds = %start
; call core::slice::index::slice_index_order_fail
  call void @_ZN4core5slice5index22slice_index_order_fail17hb18c43fcae7a83cbE(i64 %self.0, i64 %self.1, ptr align 8 %0) #21, !dbg !512
  unreachable, !dbg !512

bb4:                                              ; preds = %bb2
; call <core::ops::range::Range<usize> as core::slice::index::SliceIndex<[T]>>::get_unchecked_mut
  %3 = call { ptr, i64 } @"_ZN106_$LT$core..ops..range..Range$LT$usize$GT$$u20$as$u20$core..slice..index..SliceIndex$LT$$u5b$T$u5d$$GT$$GT$17get_unchecked_mut17hc9a060efe1d79c1fE"(i64 %self.0, i64 %self.1, ptr %slice.0, i64 %slice.1), !dbg !513
  %_11.0 = extractvalue { ptr, i64 } %3, 0, !dbg !513
  %_11.1 = extractvalue { ptr, i64 } %3, 1, !dbg !513
  %4 = insertvalue { ptr, i64 } poison, ptr %_11.0, 0, !dbg !514
  %5 = insertvalue { ptr, i64 } %4, i64 %_11.1, 1, !dbg !514
  ret { ptr, i64 } %5, !dbg !514

bb3:                                              ; preds = %bb2
; call core::slice::index::slice_end_index_len_fail
  call void @_ZN4core5slice5index24slice_end_index_len_fail17h86c2fd0bdb9be0ffE(i64 %self.1, i64 %slice.1, ptr align 8 %0) #21, !dbg !515
  unreachable, !dbg !515
}

; <core::iter::adapters::enumerate::Enumerate<I> as core::iter::traits::iterator::Iterator>::next
; Function Attrs: inlinehint uwtable
define { i64, ptr } @"_ZN110_$LT$core..iter..adapters..enumerate..Enumerate$LT$I$GT$$u20$as$u20$core..iter..traits..iterator..Iterator$GT$4next17hed479c6340a80065E"(ptr align 8 %self) unnamed_addr #0 personality ptr @rust_eh_personality !dbg !516 {
start:
  %0 = alloca { ptr, i32, [1 x i32] }, align 8
  %i.dbg.spill = alloca i64, align 8
  %a.dbg.spill = alloca ptr, align 8
  %val.dbg.spill = alloca ptr, align 8
  %v.dbg.spill = alloca ptr, align 8
  %self.dbg.spill = alloca ptr, align 8
  %_9 = alloca { i64, ptr }, align 8
  %self2 = alloca ptr, align 8
  %_3 = alloca ptr, align 8
  %_0 = alloca %"core::option::Option<(usize, &Comparator)>", align 8
  %residual.dbg.spill1 = alloca %"core::option::Option<core::convert::Infallible>::None", align 1
  %residual.dbg.spill = alloca %"core::option::Option<core::convert::Infallible>::None", align 1
  call void @llvm.dbg.declare(metadata ptr %residual.dbg.spill, metadata !589, metadata !DIExpression()), !dbg !607
  call void @llvm.dbg.declare(metadata ptr %residual.dbg.spill1, metadata !608, metadata !DIExpression()), !dbg !616
  store ptr %self, ptr %self.dbg.spill, align 8, !dbg !616
  call void @llvm.dbg.declare(metadata ptr %self.dbg.spill, metadata !586, metadata !DIExpression()), !dbg !618
  call void @llvm.dbg.declare(metadata ptr %self2, metadata !619, metadata !DIExpression()), !dbg !655
; call <core::slice::iter::Iter<T> as core::iter::traits::iterator::Iterator>::next
  %1 = call align 8 ptr @"_ZN91_$LT$core..slice..iter..Iter$LT$T$GT$$u20$as$u20$core..iter..traits..iterator..Iterator$GT$4next17h0bc009bf0131c6c7E"(ptr align 8 %self), !dbg !656
  store ptr %1, ptr %self2, align 8, !dbg !656
  %2 = load ptr, ptr %self2, align 8, !dbg !657, !noundef !18
  %3 = ptrtoint ptr %2 to i64, !dbg !657
  %4 = icmp eq i64 %3, 0, !dbg !657
  %_11 = select i1 %4, i64 0, i64 1, !dbg !657
  %5 = icmp eq i64 %_11, 0, !dbg !658
  br i1 %5, label %bb7, label %bb8, !dbg !658

bb7:                                              ; preds = %start
  %6 = getelementptr inbounds i8, ptr %_0, i64 8, !dbg !659
  store ptr null, ptr %6, align 8, !dbg !659
  br label %bb4, !dbg !660

bb8:                                              ; preds = %start
  %v = load ptr, ptr %self2, align 8, !dbg !661, !nonnull !18, !align !662, !noundef !18
  store ptr %v, ptr %v.dbg.spill, align 8, !dbg !661
  call void @llvm.dbg.declare(metadata ptr %v.dbg.spill, metadata !653, metadata !DIExpression()), !dbg !663
  store ptr %v, ptr %_3, align 8, !dbg !664
  %val = load ptr, ptr %_3, align 8, !dbg !656, !nonnull !18, !align !662, !noundef !18
  store ptr %val, ptr %val.dbg.spill, align 8, !dbg !656
  call void @llvm.dbg.declare(metadata ptr %val.dbg.spill, metadata !603, metadata !DIExpression()), !dbg !665
  store ptr %val, ptr %a.dbg.spill, align 8, !dbg !665
  call void @llvm.dbg.declare(metadata ptr %a.dbg.spill, metadata !587, metadata !DIExpression()), !dbg !666
  %7 = getelementptr inbounds i8, ptr %self, i64 16, !dbg !667
  %i = load i64, ptr %7, align 8, !dbg !667, !noundef !18
  store i64 %i, ptr %i.dbg.spill, align 8, !dbg !667
  call void @llvm.dbg.declare(metadata ptr %i.dbg.spill, metadata !605, metadata !DIExpression()), !dbg !668
  %8 = getelementptr inbounds i8, ptr %self, i64 16, !dbg !669
  %9 = load i64, ptr %8, align 8, !dbg !669, !noundef !18
  %10 = call { i64, i1 } @llvm.uadd.with.overflow.i64(i64 %9, i64 1), !dbg !669
  %_8.0 = extractvalue { i64, i1 } %10, 0, !dbg !669
  %_8.1 = extractvalue { i64, i1 } %10, 1, !dbg !669
  %11 = call i1 @llvm.expect.i1(i1 %_8.1, i1 false), !dbg !669
  br i1 %11, label %panic, label %bb3, !dbg !669

bb4:                                              ; preds = %bb3, %bb7
  %12 = load i64, ptr %_0, align 8, !dbg !660
  %13 = getelementptr inbounds i8, ptr %_0, i64 8, !dbg !660
  %14 = load ptr, ptr %13, align 8, !dbg !660, !align !662, !noundef !18
  %15 = insertvalue { i64, ptr } poison, i64 %12, 0, !dbg !660
  %16 = insertvalue { i64, ptr } %15, ptr %14, 1, !dbg !660
  ret { i64, ptr } %16, !dbg !660

bb3:                                              ; preds = %bb8
  %17 = getelementptr inbounds i8, ptr %self, i64 16, !dbg !669
  store i64 %_8.0, ptr %17, align 8, !dbg !669
  store i64 %i, ptr %_9, align 8, !dbg !670
  %18 = getelementptr inbounds i8, ptr %_9, i64 8, !dbg !670
  store ptr %val, ptr %18, align 8, !dbg !670
  %19 = load i64, ptr %_9, align 8, !dbg !671, !noundef !18
  %20 = getelementptr inbounds i8, ptr %_9, i64 8, !dbg !671
  %21 = load ptr, ptr %20, align 8, !dbg !671, !nonnull !18, !align !662, !noundef !18
  store i64 %19, ptr %_0, align 8, !dbg !671
  %22 = getelementptr inbounds i8, ptr %_0, i64 8, !dbg !671
  store ptr %21, ptr %22, align 8, !dbg !671
  br label %bb4, !dbg !660

panic:                                            ; preds = %bb8
; invoke core::panicking::panic
  invoke void @_ZN4core9panicking5panic17h5884aad3a9044857E(ptr align 1 @str.0, i64 28, ptr align 8 @alloc_e644bbe572686fdbe11c9dbdc434ddd2) #21
          to label %unreachable unwind label %cleanup, !dbg !669

bb5:                                              ; preds = %cleanup
  %23 = load ptr, ptr %0, align 8, !dbg !672, !noundef !18
  %24 = getelementptr inbounds i8, ptr %0, i64 8, !dbg !672
  %25 = load i32, ptr %24, align 8, !dbg !672, !noundef !18
  %26 = insertvalue { ptr, i32 } poison, ptr %23, 0, !dbg !672
  %27 = insertvalue { ptr, i32 } %26, i32 %25, 1, !dbg !672
  resume { ptr, i32 } %27, !dbg !672

cleanup:                                          ; preds = %panic
  %28 = landingpad { ptr, i32 }
          cleanup
  %29 = extractvalue { ptr, i32 } %28, 0
  %30 = extractvalue { ptr, i32 } %28, 1
  store ptr %29, ptr %0, align 8
  %31 = getelementptr inbounds i8, ptr %0, i64 8
  store i32 %30, ptr %31, align 8
  br label %bb5

unreachable:                                      ; preds = %panic
  unreachable

bb2:                                              ; No predecessors!
  unreachable, !dbg !656
}

; <core::result::Result<T,F> as core::ops::try_trait::FromResidual<core::result::Result<core::convert::Infallible,E>>>::from_residual
; Function Attrs: inlinehint uwtable
define void @"_ZN153_$LT$core..result..Result$LT$T$C$F$GT$$u20$as$u20$core..ops..try_trait..FromResidual$LT$core..result..Result$LT$core..convert..Infallible$C$E$GT$$GT$$GT$13from_residual17h0b41f08d0a1b1ba7E"(ptr sret(%"core::result::Result<VersionReq, parse::Error>") align 8 %_0, i64 %0, ptr align 8 %1) unnamed_addr #0 !dbg !673 {
start:
  %_0.i = alloca %"parse::Error", align 4
  %2 = alloca i64, align 8
  %t.i = alloca %"parse::Error", align 4
  %3 = alloca i64, align 8
  %_3 = alloca %"parse::Error", align 4
  %e = alloca %"parse::Error", align 4
  %4 = alloca i64, align 8
  %residual = alloca %"core::result::Result<core::convert::Infallible, parse::Error>::Err", align 4
  store i64 %0, ptr %4, align 8
  call void @llvm.memcpy.p0.p0.i64(ptr align 4 %residual, ptr align 8 %4, i64 8, i1 false)
  call void @llvm.dbg.declare(metadata ptr %residual, metadata !792, metadata !DIExpression()), !dbg !797
  call void @llvm.dbg.declare(metadata ptr %e, metadata !793, metadata !DIExpression()), !dbg !798
  call void @llvm.memcpy.p0.p0.i64(ptr align 4 %e, ptr align 4 %residual, i64 8, i1 false), !dbg !799
  %5 = load i64, ptr %e, align 4, !dbg !800
  store i64 %5, ptr %2, align 8
  call void @llvm.memcpy.p0.p0.i64(ptr align 4 %t.i, ptr align 8 %2, i64 8, i1 false)
  call void @llvm.dbg.declare(metadata ptr %t.i, metadata !801, metadata !DIExpression()), !dbg !810
  call void @llvm.memcpy.p0.p0.i64(ptr align 4 %_0.i, ptr align 4 %t.i, i64 8, i1 false), !dbg !812
  %6 = load i64, ptr %_0.i, align 4, !dbg !813
  store i64 %6, ptr %3, align 8, !dbg !800
  call void @llvm.memcpy.p0.p0.i64(ptr align 4 %_3, ptr align 8 %3, i64 8, i1 false), !dbg !800
  %7 = getelementptr inbounds i8, ptr %_0, i64 8, !dbg !814
  call void @llvm.memcpy.p0.p0.i64(ptr align 8 %7, ptr align 4 %_3, i64 8, i1 false), !dbg !814
  store i64 -9223372036854775808, ptr %_0, align 8, !dbg !814
  ret void, !dbg !815
}

; <core::result::Result<T,F> as core::ops::try_trait::FromResidual<core::result::Result<core::convert::Infallible,E>>>::from_residual
; Function Attrs: inlinehint uwtable
define void @"_ZN153_$LT$core..result..Result$LT$T$C$F$GT$$u20$as$u20$core..ops..try_trait..FromResidual$LT$core..result..Result$LT$core..convert..Infallible$C$E$GT$$GT$$GT$13from_residual17h20a778e6e06f7e46E"(ptr sret(%"core::result::Result<Prerelease, parse::Error>") align 8 %_0, i64 %0, ptr align 8 %1) unnamed_addr #0 !dbg !816 {
start:
  %_0.i = alloca %"parse::Error", align 4
  %2 = alloca i64, align 8
  %t.i = alloca %"parse::Error", align 4
  %3 = alloca i64, align 8
  %_3 = alloca %"parse::Error", align 4
  %e = alloca %"parse::Error", align 4
  %4 = alloca i64, align 8
  %residual = alloca %"core::result::Result<core::convert::Infallible, parse::Error>::Err", align 4
  store i64 %0, ptr %4, align 8
  call void @llvm.memcpy.p0.p0.i64(ptr align 4 %residual, ptr align 8 %4, i64 8, i1 false)
  call void @llvm.dbg.declare(metadata ptr %residual, metadata !835, metadata !DIExpression()), !dbg !839
  call void @llvm.dbg.declare(metadata ptr %e, metadata !836, metadata !DIExpression()), !dbg !840
  call void @llvm.memcpy.p0.p0.i64(ptr align 4 %e, ptr align 4 %residual, i64 8, i1 false), !dbg !841
  %5 = load i64, ptr %e, align 4, !dbg !842
  store i64 %5, ptr %2, align 8
  call void @llvm.memcpy.p0.p0.i64(ptr align 4 %t.i, ptr align 8 %2, i64 8, i1 false)
  call void @llvm.dbg.declare(metadata ptr %t.i, metadata !801, metadata !DIExpression()), !dbg !843
  call void @llvm.memcpy.p0.p0.i64(ptr align 4 %_0.i, ptr align 4 %t.i, i64 8, i1 false), !dbg !845
  %6 = load i64, ptr %_0.i, align 4, !dbg !846
  store i64 %6, ptr %3, align 8, !dbg !842
  call void @llvm.memcpy.p0.p0.i64(ptr align 4 %_3, ptr align 8 %3, i64 8, i1 false), !dbg !842
  %7 = getelementptr inbounds i8, ptr %_0, i64 4, !dbg !847
  call void @llvm.memcpy.p0.p0.i64(ptr align 4 %7, ptr align 4 %_3, i64 8, i1 false), !dbg !847
  store i32 1, ptr %_0, align 8, !dbg !847
  ret void, !dbg !848
}

; <core::result::Result<T,F> as core::ops::try_trait::FromResidual<core::result::Result<core::convert::Infallible,E>>>::from_residual
; Function Attrs: inlinehint uwtable
define void @"_ZN153_$LT$core..result..Result$LT$T$C$F$GT$$u20$as$u20$core..ops..try_trait..FromResidual$LT$core..result..Result$LT$core..convert..Infallible$C$E$GT$$GT$$GT$13from_residual17h38fd6b891fe248a9E"(ptr sret(%"core::result::Result<(Prerelease, &str), parse::Error>") align 8 %_0, i64 %0, ptr align 8 %1) unnamed_addr #0 !dbg !849 {
start:
  %_0.i = alloca %"parse::Error", align 4
  %2 = alloca i64, align 8
  %t.i = alloca %"parse::Error", align 4
  %3 = alloca i64, align 8
  %_3 = alloca %"parse::Error", align 4
  %e = alloca %"parse::Error", align 4
  %4 = alloca i64, align 8
  %residual = alloca %"core::result::Result<core::convert::Infallible, parse::Error>::Err", align 4
  store i64 %0, ptr %4, align 8
  call void @llvm.memcpy.p0.p0.i64(ptr align 4 %residual, ptr align 8 %4, i64 8, i1 false)
  call void @llvm.dbg.declare(metadata ptr %residual, metadata !872, metadata !DIExpression()), !dbg !876
  call void @llvm.dbg.declare(metadata ptr %e, metadata !873, metadata !DIExpression()), !dbg !877
  call void @llvm.memcpy.p0.p0.i64(ptr align 4 %e, ptr align 4 %residual, i64 8, i1 false), !dbg !878
  %5 = load i64, ptr %e, align 4, !dbg !879
  store i64 %5, ptr %2, align 8
  call void @llvm.memcpy.p0.p0.i64(ptr align 4 %t.i, ptr align 8 %2, i64 8, i1 false)
  call void @llvm.dbg.declare(metadata ptr %t.i, metadata !801, metadata !DIExpression()), !dbg !880
  call void @llvm.memcpy.p0.p0.i64(ptr align 4 %_0.i, ptr align 4 %t.i, i64 8, i1 false), !dbg !882
  %6 = load i64, ptr %_0.i, align 4, !dbg !883
  store i64 %6, ptr %3, align 8, !dbg !879
  call void @llvm.memcpy.p0.p0.i64(ptr align 4 %_3, ptr align 8 %3, i64 8, i1 false), !dbg !879
  %7 = getelementptr inbounds i8, ptr %_0, i64 8, !dbg !884
  call void @llvm.memcpy.p0.p0.i64(ptr align 8 %7, ptr align 4 %_3, i64 8, i1 false), !dbg !884
  store ptr null, ptr %_0, align 8, !dbg !884
  ret void, !dbg !885
}

; <core::result::Result<T,F> as core::ops::try_trait::FromResidual<core::result::Result<core::convert::Infallible,E>>>::from_residual
; Function Attrs: inlinehint uwtable
define void @"_ZN153_$LT$core..result..Result$LT$T$C$F$GT$$u20$as$u20$core..ops..try_trait..FromResidual$LT$core..result..Result$LT$core..convert..Infallible$C$E$GT$$GT$$GT$13from_residual17h409a6b1c678c01a2E"(ptr sret(%"core::result::Result<usize, parse::Error>") align 8 %_0, i64 %0, ptr align 8 %1) unnamed_addr #0 !dbg !886 {
start:
  %_0.i = alloca %"parse::Error", align 4
  %2 = alloca i64, align 8
  %t.i = alloca %"parse::Error", align 4
  %3 = alloca i64, align 8
  %_3 = alloca %"parse::Error", align 4
  %e = alloca %"parse::Error", align 4
  %4 = alloca i64, align 8
  %residual = alloca %"core::result::Result<core::convert::Infallible, parse::Error>::Err", align 4
  store i64 %0, ptr %4, align 8
  call void @llvm.memcpy.p0.p0.i64(ptr align 4 %residual, ptr align 8 %4, i64 8, i1 false)
  call void @llvm.dbg.declare(metadata ptr %residual, metadata !905, metadata !DIExpression()), !dbg !909
  call void @llvm.dbg.declare(metadata ptr %e, metadata !906, metadata !DIExpression()), !dbg !910
  call void @llvm.memcpy.p0.p0.i64(ptr align 4 %e, ptr align 4 %residual, i64 8, i1 false), !dbg !911
  %5 = load i64, ptr %e, align 4, !dbg !912
  store i64 %5, ptr %2, align 8
  call void @llvm.memcpy.p0.p0.i64(ptr align 4 %t.i, ptr align 8 %2, i64 8, i1 false)
  call void @llvm.dbg.declare(metadata ptr %t.i, metadata !801, metadata !DIExpression()), !dbg !913
  call void @llvm.memcpy.p0.p0.i64(ptr align 4 %_0.i, ptr align 4 %t.i, i64 8, i1 false), !dbg !915
  %6 = load i64, ptr %_0.i, align 4, !dbg !916
  store i64 %6, ptr %3, align 8, !dbg !912
  call void @llvm.memcpy.p0.p0.i64(ptr align 4 %_3, ptr align 8 %3, i64 8, i1 false), !dbg !912
  %7 = getelementptr inbounds i8, ptr %_0, i64 4, !dbg !917
  call void @llvm.memcpy.p0.p0.i64(ptr align 4 %7, ptr align 4 %_3, i64 8, i1 false), !dbg !917
  store i32 1, ptr %_0, align 8, !dbg !917
  ret void, !dbg !918
}

; <core::result::Result<T,F> as core::ops::try_trait::FromResidual<core::result::Result<core::convert::Infallible,E>>>::from_residual
; Function Attrs: inlinehint uwtable
define void @"_ZN153_$LT$core..result..Result$LT$T$C$F$GT$$u20$as$u20$core..ops..try_trait..FromResidual$LT$core..result..Result$LT$core..convert..Infallible$C$E$GT$$GT$$GT$13from_residual17h42874ce18665fb9eE"(ptr sret(%"core::result::Result<(BuildMetadata, &str), parse::Error>") align 8 %_0, i64 %0, ptr align 8 %1) unnamed_addr #0 !dbg !919 {
start:
  %_0.i = alloca %"parse::Error", align 4
  %2 = alloca i64, align 8
  %t.i = alloca %"parse::Error", align 4
  %3 = alloca i64, align 8
  %_3 = alloca %"parse::Error", align 4
  %e = alloca %"parse::Error", align 4
  %4 = alloca i64, align 8
  %residual = alloca %"core::result::Result<core::convert::Infallible, parse::Error>::Err", align 4
  store i64 %0, ptr %4, align 8
  call void @llvm.memcpy.p0.p0.i64(ptr align 4 %residual, ptr align 8 %4, i64 8, i1 false)
  call void @llvm.dbg.declare(metadata ptr %residual, metadata !942, metadata !DIExpression()), !dbg !946
  call void @llvm.dbg.declare(metadata ptr %e, metadata !943, metadata !DIExpression()), !dbg !947
  call void @llvm.memcpy.p0.p0.i64(ptr align 4 %e, ptr align 4 %residual, i64 8, i1 false), !dbg !948
  %5 = load i64, ptr %e, align 4, !dbg !949
  store i64 %5, ptr %2, align 8
  call void @llvm.memcpy.p0.p0.i64(ptr align 4 %t.i, ptr align 8 %2, i64 8, i1 false)
  call void @llvm.dbg.declare(metadata ptr %t.i, metadata !801, metadata !DIExpression()), !dbg !950
  call void @llvm.memcpy.p0.p0.i64(ptr align 4 %_0.i, ptr align 4 %t.i, i64 8, i1 false), !dbg !952
  %6 = load i64, ptr %_0.i, align 4, !dbg !953
  store i64 %6, ptr %3, align 8, !dbg !949
  call void @llvm.memcpy.p0.p0.i64(ptr align 4 %_3, ptr align 8 %3, i64 8, i1 false), !dbg !949
  %7 = getelementptr inbounds i8, ptr %_0, i64 8, !dbg !954
  call void @llvm.memcpy.p0.p0.i64(ptr align 8 %7, ptr align 4 %_3, i64 8, i1 false), !dbg !954
  store ptr null, ptr %_0, align 8, !dbg !954
  ret void, !dbg !955
}

; <core::result::Result<T,F> as core::ops::try_trait::FromResidual<core::result::Result<core::convert::Infallible,E>>>::from_residual
; Function Attrs: inlinehint uwtable
define void @"_ZN153_$LT$core..result..Result$LT$T$C$F$GT$$u20$as$u20$core..ops..try_trait..FromResidual$LT$core..result..Result$LT$core..convert..Infallible$C$E$GT$$GT$$GT$13from_residual17h68380937ac565086E"(ptr sret(%"core::result::Result<(Comparator, error::Position, &str), parse::Error>") align 8 %_0, i64 %0, ptr align 8 %1) unnamed_addr #0 !dbg !956 {
start:
  %_0.i = alloca %"parse::Error", align 4
  %2 = alloca i64, align 8
  %t.i = alloca %"parse::Error", align 4
  %3 = alloca i64, align 8
  %_3 = alloca %"parse::Error", align 4
  %e = alloca %"parse::Error", align 4
  %4 = alloca i64, align 8
  %residual = alloca %"core::result::Result<core::convert::Infallible, parse::Error>::Err", align 4
  store i64 %0, ptr %4, align 8
  call void @llvm.memcpy.p0.p0.i64(ptr align 4 %residual, ptr align 8 %4, i64 8, i1 false)
  call void @llvm.dbg.declare(metadata ptr %residual, metadata !980, metadata !DIExpression()), !dbg !984
  call void @llvm.dbg.declare(metadata ptr %e, metadata !981, metadata !DIExpression()), !dbg !985
  call void @llvm.memcpy.p0.p0.i64(ptr align 4 %e, ptr align 4 %residual, i64 8, i1 false), !dbg !986
  %5 = load i64, ptr %e, align 4, !dbg !987
  store i64 %5, ptr %2, align 8
  call void @llvm.memcpy.p0.p0.i64(ptr align 4 %t.i, ptr align 8 %2, i64 8, i1 false)
  call void @llvm.dbg.declare(metadata ptr %t.i, metadata !801, metadata !DIExpression()), !dbg !988
  call void @llvm.memcpy.p0.p0.i64(ptr align 4 %_0.i, ptr align 4 %t.i, i64 8, i1 false), !dbg !990
  %6 = load i64, ptr %_0.i, align 4, !dbg !991
  store i64 %6, ptr %3, align 8, !dbg !987
  call void @llvm.memcpy.p0.p0.i64(ptr align 4 %_3, ptr align 8 %3, i64 8, i1 false), !dbg !987
  %7 = getelementptr inbounds i8, ptr %_0, i64 8, !dbg !992
  call void @llvm.memcpy.p0.p0.i64(ptr align 8 %7, ptr align 4 %_3, i64 8, i1 false), !dbg !992
  store i64 2, ptr %_0, align 8, !dbg !992
  ret void, !dbg !993
}

; <core::result::Result<T,F> as core::ops::try_trait::FromResidual<core::result::Result<core::convert::Infallible,E>>>::from_residual
; Function Attrs: inlinehint uwtable
define void @"_ZN153_$LT$core..result..Result$LT$T$C$F$GT$$u20$as$u20$core..ops..try_trait..FromResidual$LT$core..result..Result$LT$core..convert..Infallible$C$E$GT$$GT$$GT$13from_residual17had480bee0c4fac50E"(ptr sret(%"core::result::Result<Version, parse::Error>") align 8 %_0, i64 %0, ptr align 8 %1) unnamed_addr #0 !dbg !994 {
start:
  %_0.i = alloca %"parse::Error", align 4
  %2 = alloca i64, align 8
  %t.i = alloca %"parse::Error", align 4
  %3 = alloca i64, align 8
  %_3 = alloca %"parse::Error", align 4
  %e = alloca %"parse::Error", align 4
  %4 = alloca i64, align 8
  %residual = alloca %"core::result::Result<core::convert::Infallible, parse::Error>::Err", align 4
  store i64 %0, ptr %4, align 8
  call void @llvm.memcpy.p0.p0.i64(ptr align 4 %residual, ptr align 8 %4, i64 8, i1 false)
  call void @llvm.dbg.declare(metadata ptr %residual, metadata !1020, metadata !DIExpression()), !dbg !1024
  call void @llvm.dbg.declare(metadata ptr %e, metadata !1021, metadata !DIExpression()), !dbg !1025
  call void @llvm.memcpy.p0.p0.i64(ptr align 4 %e, ptr align 4 %residual, i64 8, i1 false), !dbg !1026
  %5 = load i64, ptr %e, align 4, !dbg !1027
  store i64 %5, ptr %2, align 8
  call void @llvm.memcpy.p0.p0.i64(ptr align 4 %t.i, ptr align 8 %2, i64 8, i1 false)
  call void @llvm.dbg.declare(metadata ptr %t.i, metadata !801, metadata !DIExpression()), !dbg !1028
  call void @llvm.memcpy.p0.p0.i64(ptr align 4 %_0.i, ptr align 4 %t.i, i64 8, i1 false), !dbg !1030
  %6 = load i64, ptr %_0.i, align 4, !dbg !1031
  store i64 %6, ptr %3, align 8, !dbg !1027
  call void @llvm.memcpy.p0.p0.i64(ptr align 4 %_3, ptr align 8 %3, i64 8, i1 false), !dbg !1027
  %7 = getelementptr inbounds i8, ptr %_0, i64 8, !dbg !1032
  call void @llvm.memcpy.p0.p0.i64(ptr align 8 %7, ptr align 4 %_3, i64 8, i1 false), !dbg !1032
  store ptr null, ptr %_0, align 8, !dbg !1032
  ret void, !dbg !1033
}

; <core::result::Result<T,F> as core::ops::try_trait::FromResidual<core::result::Result<core::convert::Infallible,E>>>::from_residual
; Function Attrs: inlinehint uwtable
define void @"_ZN153_$LT$core..result..Result$LT$T$C$F$GT$$u20$as$u20$core..ops..try_trait..FromResidual$LT$core..result..Result$LT$core..convert..Infallible$C$E$GT$$GT$$GT$13from_residual17hd9dd1c8aec712b34E"(ptr sret(%"core::result::Result<Comparator, parse::Error>") align 8 %_0, i64 %0, ptr align 8 %1) unnamed_addr #0 !dbg !1034 {
start:
  %_0.i = alloca %"parse::Error", align 4
  %2 = alloca i64, align 8
  %t.i = alloca %"parse::Error", align 4
  %3 = alloca i64, align 8
  %_3 = alloca %"parse::Error", align 4
  %e = alloca %"parse::Error", align 4
  %4 = alloca i64, align 8
  %residual = alloca %"core::result::Result<core::convert::Infallible, parse::Error>::Err", align 4
  store i64 %0, ptr %4, align 8
  call void @llvm.memcpy.p0.p0.i64(ptr align 4 %residual, ptr align 8 %4, i64 8, i1 false)
  call void @llvm.dbg.declare(metadata ptr %residual, metadata !1052, metadata !DIExpression()), !dbg !1056
  call void @llvm.dbg.declare(metadata ptr %e, metadata !1053, metadata !DIExpression()), !dbg !1057
  call void @llvm.memcpy.p0.p0.i64(ptr align 4 %e, ptr align 4 %residual, i64 8, i1 false), !dbg !1058
  %5 = load i64, ptr %e, align 4, !dbg !1059
  store i64 %5, ptr %2, align 8
  call void @llvm.memcpy.p0.p0.i64(ptr align 4 %t.i, ptr align 8 %2, i64 8, i1 false)
  call void @llvm.dbg.declare(metadata ptr %t.i, metadata !801, metadata !DIExpression()), !dbg !1060
  call void @llvm.memcpy.p0.p0.i64(ptr align 4 %_0.i, ptr align 4 %t.i, i64 8, i1 false), !dbg !1062
  %6 = load i64, ptr %_0.i, align 4, !dbg !1063
  store i64 %6, ptr %3, align 8, !dbg !1059
  call void @llvm.memcpy.p0.p0.i64(ptr align 4 %_3, ptr align 8 %3, i64 8, i1 false), !dbg !1059
  %7 = getelementptr inbounds i8, ptr %_0, i64 8, !dbg !1064
  call void @llvm.memcpy.p0.p0.i64(ptr align 8 %7, ptr align 4 %_3, i64 8, i1 false), !dbg !1064
  store i64 2, ptr %_0, align 8, !dbg !1064
  ret void, !dbg !1065
}

; <core::result::Result<T,F> as core::ops::try_trait::FromResidual<core::result::Result<core::convert::Infallible,E>>>::from_residual
; Function Attrs: inlinehint uwtable
define zeroext i1 @"_ZN153_$LT$core..result..Result$LT$T$C$F$GT$$u20$as$u20$core..ops..try_trait..FromResidual$LT$core..result..Result$LT$core..convert..Infallible$C$E$GT$$GT$$GT$13from_residual17hf620747e6709f279E"(ptr align 8 %0) unnamed_addr #0 !dbg !1066 {
start:
  %e.dbg.spill = alloca %"core::fmt::Error", align 1
  %residual.dbg.spill = alloca %"core::result::Result<core::convert::Infallible, core::fmt::Error>::Err", align 1
  %_0 = alloca i8, align 1
  call void @llvm.dbg.declare(metadata ptr %residual.dbg.spill, metadata !1100, metadata !DIExpression()), !dbg !1105
  call void @llvm.dbg.declare(metadata ptr %e.dbg.spill, metadata !1101, metadata !DIExpression()), !dbg !1106
  call void @llvm.dbg.declare(metadata ptr undef, metadata !1107, metadata !DIExpression()), !dbg !1114
  store i8 1, ptr %_0, align 1, !dbg !1116
  %1 = load i8, ptr %_0, align 1, !dbg !1117, !range !242, !noundef !18
  %2 = trunc i8 %1 to i1, !dbg !1117
  ret i1 %2, !dbg !1117
}

; <core::result::Result<T,F> as core::ops::try_trait::FromResidual<core::result::Result<core::convert::Infallible,E>>>::from_residual
; Function Attrs: inlinehint uwtable
define void @"_ZN153_$LT$core..result..Result$LT$T$C$F$GT$$u20$as$u20$core..ops..try_trait..FromResidual$LT$core..result..Result$LT$core..convert..Infallible$C$E$GT$$GT$$GT$13from_residual17hf77e4e7bedd42756E"(ptr sret(%"core::result::Result<BuildMetadata, parse::Error>") align 8 %_0, i64 %0, ptr align 8 %1) unnamed_addr #0 !dbg !1118 {
start:
  %_0.i = alloca %"parse::Error", align 4
  %2 = alloca i64, align 8
  %t.i = alloca %"parse::Error", align 4
  %3 = alloca i64, align 8
  %_3 = alloca %"parse::Error", align 4
  %e = alloca %"parse::Error", align 4
  %4 = alloca i64, align 8
  %residual = alloca %"core::result::Result<core::convert::Infallible, parse::Error>::Err", align 4
  store i64 %0, ptr %4, align 8
  call void @llvm.memcpy.p0.p0.i64(ptr align 4 %residual, ptr align 8 %4, i64 8, i1 false)
  call void @llvm.dbg.declare(metadata ptr %residual, metadata !1137, metadata !DIExpression()), !dbg !1141
  call void @llvm.dbg.declare(metadata ptr %e, metadata !1138, metadata !DIExpression()), !dbg !1142
  call void @llvm.memcpy.p0.p0.i64(ptr align 4 %e, ptr align 4 %residual, i64 8, i1 false), !dbg !1143
  %5 = load i64, ptr %e, align 4, !dbg !1144
  store i64 %5, ptr %2, align 8
  call void @llvm.memcpy.p0.p0.i64(ptr align 4 %t.i, ptr align 8 %2, i64 8, i1 false)
  call void @llvm.dbg.declare(metadata ptr %t.i, metadata !801, metadata !DIExpression()), !dbg !1145
  call void @llvm.memcpy.p0.p0.i64(ptr align 4 %_0.i, ptr align 4 %t.i, i64 8, i1 false), !dbg !1147
  %6 = load i64, ptr %_0.i, align 4, !dbg !1148
  store i64 %6, ptr %3, align 8, !dbg !1144
  call void @llvm.memcpy.p0.p0.i64(ptr align 4 %_3, ptr align 8 %3, i64 8, i1 false), !dbg !1144
  %7 = getelementptr inbounds i8, ptr %_0, i64 4, !dbg !1149
  call void @llvm.memcpy.p0.p0.i64(ptr align 4 %7, ptr align 4 %_3, i64 8, i1 false), !dbg !1149
  store i32 1, ptr %_0, align 8, !dbg !1149
  ret void, !dbg !1150
}

; <&T as core::fmt::Debug>::fmt
; Function Attrs: uwtable
define zeroext i1 @"_ZN42_$LT$$RF$T$u20$as$u20$core..fmt..Debug$GT$3fmt17h9a3aaf7cede3f8ebE"(ptr align 8 %self, ptr align 8 %f) unnamed_addr #1 !dbg !1151 {
start:
  %f.dbg.spill = alloca ptr, align 8
  %self.dbg.spill = alloca ptr, align 8
  store ptr %self, ptr %self.dbg.spill, align 8
  call void @llvm.dbg.declare(metadata ptr %self.dbg.spill, metadata !1189, metadata !DIExpression()), !dbg !1192
  store ptr %f, ptr %f.dbg.spill, align 8
  call void @llvm.dbg.declare(metadata ptr %f.dbg.spill, metadata !1190, metadata !DIExpression()), !dbg !1193
  %_3 = load ptr, ptr %self, align 8, !dbg !1194, !nonnull !18, !align !483, !noundef !18
; call <() as core::fmt::Debug>::fmt
  %_0 = call zeroext i1 @"_ZN45_$LT$$LP$$RP$$u20$as$u20$core..fmt..Debug$GT$3fmt17h44cedc47378dd653E"(ptr align 1 %_3, ptr align 8 %f), !dbg !1195
  ret i1 %_0, !dbg !1196
}

; <&T as core::fmt::Display>::fmt
; Function Attrs: uwtable
define zeroext i1 @"_ZN44_$LT$$RF$T$u20$as$u20$core..fmt..Display$GT$3fmt17h036c851a968ef62fE"(ptr align 8 %self, ptr align 8 %f) unnamed_addr #1 !dbg !1197 {
start:
  %f.dbg.spill = alloca ptr, align 8
  %self.dbg.spill = alloca ptr, align 8
  store ptr %self, ptr %self.dbg.spill, align 8
  call void @llvm.dbg.declare(metadata ptr %self.dbg.spill, metadata !1204, metadata !DIExpression()), !dbg !1207
  store ptr %f, ptr %f.dbg.spill, align 8
  call void @llvm.dbg.declare(metadata ptr %f.dbg.spill, metadata !1205, metadata !DIExpression()), !dbg !1208
  %_3 = load ptr, ptr %self, align 8, !dbg !1209, !nonnull !18, !align !662, !noundef !18
; call semver::display::<impl core::fmt::Display for semver::Prerelease>::fmt
  %_0 = call zeroext i1 @"_ZN6semver7display67_$LT$impl$u20$core..fmt..Display$u20$for$u20$semver..Prerelease$GT$3fmt17hf170baf0f5c816d6E"(ptr align 8 %_3, ptr align 8 %f), !dbg !1210
  ret i1 %_0, !dbg !1211
}

; <&T as core::fmt::Display>::fmt
; Function Attrs: uwtable
define zeroext i1 @"_ZN44_$LT$$RF$T$u20$as$u20$core..fmt..Display$GT$3fmt17h2e6e70c35cd85049E"(ptr align 8 %self, ptr align 8 %f) unnamed_addr #1 !dbg !1212 {
start:
  %f.dbg.spill = alloca ptr, align 8
  %self.dbg.spill = alloca ptr, align 8
  store ptr %self, ptr %self.dbg.spill, align 8
  call void @llvm.dbg.declare(metadata ptr %self.dbg.spill, metadata !1218, metadata !DIExpression()), !dbg !1222
  store ptr %f, ptr %f.dbg.spill, align 8
  call void @llvm.dbg.declare(metadata ptr %f.dbg.spill, metadata !1219, metadata !DIExpression()), !dbg !1223
  %_3 = load ptr, ptr %self, align 8, !dbg !1224, !nonnull !18, !align !483, !noundef !18
; call <semver::error::Position as core::fmt::Display>::fmt
  %_0 = call zeroext i1 @"_ZN62_$LT$semver..error..Position$u20$as$u20$core..fmt..Display$GT$3fmt17h68b001d44053fbdbE"(ptr align 1 %_3, ptr align 8 %f), !dbg !1225
  ret i1 %_0, !dbg !1226
}

; <&T as core::fmt::Display>::fmt
; Function Attrs: uwtable
define zeroext i1 @"_ZN44_$LT$$RF$T$u20$as$u20$core..fmt..Display$GT$3fmt17h65ce04e4cf2df26dE"(ptr align 8 %self, ptr align 8 %f) unnamed_addr #1 !dbg !1227 {
start:
  %f.dbg.spill = alloca ptr, align 8
  %self.dbg.spill = alloca ptr, align 8
  store ptr %self, ptr %self.dbg.spill, align 8
  call void @llvm.dbg.declare(metadata ptr %self.dbg.spill, metadata !1233, metadata !DIExpression()), !dbg !1235
  store ptr %f, ptr %f.dbg.spill, align 8
  call void @llvm.dbg.declare(metadata ptr %f.dbg.spill, metadata !1234, metadata !DIExpression()), !dbg !1236
  %_3 = load ptr, ptr %self, align 8, !dbg !1237, !nonnull !18, !align !662, !noundef !18
; call core::fmt::num::imp::<impl core::fmt::Display for u64>::fmt
  %_0 = call zeroext i1 @"_ZN4core3fmt3num3imp52_$LT$impl$u20$core..fmt..Display$u20$for$u20$u64$GT$3fmt17h635a5ac542120a0cE"(ptr align 8 %_3, ptr align 8 %f), !dbg !1238
  ret i1 %_0, !dbg !1239
}

; <&T as core::fmt::Display>::fmt
; Function Attrs: uwtable
define zeroext i1 @"_ZN44_$LT$$RF$T$u20$as$u20$core..fmt..Display$GT$3fmt17h787b8ff23633af0bE"(ptr align 8 %self, ptr align 8 %f) unnamed_addr #1 !dbg !1240 {
start:
  %f.dbg.spill = alloca ptr, align 8
  %self.dbg.spill = alloca ptr, align 8
  store ptr %self, ptr %self.dbg.spill, align 8
  call void @llvm.dbg.declare(metadata ptr %self.dbg.spill, metadata !1245, metadata !DIExpression()), !dbg !1247
  store ptr %f, ptr %f.dbg.spill, align 8
  call void @llvm.dbg.declare(metadata ptr %f.dbg.spill, metadata !1246, metadata !DIExpression()), !dbg !1248
  %_3 = load ptr, ptr %self, align 8, !dbg !1249, !nonnull !18, !align !662, !noundef !18
; call semver::display::<impl core::fmt::Display for semver::Comparator>::fmt
  %_0 = call zeroext i1 @"_ZN6semver7display67_$LT$impl$u20$core..fmt..Display$u20$for$u20$semver..Comparator$GT$3fmt17he032694d62d13122E"(ptr align 8 %_3, ptr align 8 %f), !dbg !1250
  ret i1 %_0, !dbg !1251
}

; <&T as core::fmt::Display>::fmt
; Function Attrs: uwtable
define zeroext i1 @"_ZN44_$LT$$RF$T$u20$as$u20$core..fmt..Display$GT$3fmt17hb87a142350a6cf6fE"(ptr align 8 %self, ptr align 8 %f) unnamed_addr #1 !dbg !1252 {
start:
  %f.dbg.spill = alloca ptr, align 8
  %self.dbg.spill = alloca ptr, align 8
  store ptr %self, ptr %self.dbg.spill, align 8
  call void @llvm.dbg.declare(metadata ptr %self.dbg.spill, metadata !1257, metadata !DIExpression()), !dbg !1259
  store ptr %f, ptr %f.dbg.spill, align 8
  call void @llvm.dbg.declare(metadata ptr %f.dbg.spill, metadata !1258, metadata !DIExpression()), !dbg !1260
  %_3.0 = load ptr, ptr %self, align 8, !dbg !1261, !nonnull !18, !align !483, !noundef !18
  %0 = getelementptr inbounds i8, ptr %self, i64 8, !dbg !1261
  %_3.1 = load i64, ptr %0, align 8, !dbg !1261, !noundef !18
; call <str as core::fmt::Display>::fmt
  %_0 = call zeroext i1 @"_ZN42_$LT$str$u20$as$u20$core..fmt..Display$GT$3fmt17h50d95ecc07d0417eE"(ptr align 1 %_3.0, i64 %_3.1, ptr align 8 %f), !dbg !1262
  ret i1 %_0, !dbg !1263
}

; <&T as core::fmt::Display>::fmt
; Function Attrs: uwtable
define zeroext i1 @"_ZN44_$LT$$RF$T$u20$as$u20$core..fmt..Display$GT$3fmt17hd4068fe5f5c7f98eE"(ptr align 8 %self, ptr align 8 %f) unnamed_addr #1 !dbg !1264 {
start:
  %f.dbg.spill = alloca ptr, align 8
  %self.dbg.spill = alloca ptr, align 8
  store ptr %self, ptr %self.dbg.spill, align 8
  call void @llvm.dbg.declare(metadata ptr %self.dbg.spill, metadata !1270, metadata !DIExpression()), !dbg !1274
  store ptr %f, ptr %f.dbg.spill, align 8
  call void @llvm.dbg.declare(metadata ptr %f.dbg.spill, metadata !1271, metadata !DIExpression()), !dbg !1275
  %_3 = load ptr, ptr %self, align 8, !dbg !1276, !nonnull !18, !align !1277, !noundef !18
; call <char as core::fmt::Display>::fmt
  %_0 = call zeroext i1 @"_ZN43_$LT$char$u20$as$u20$core..fmt..Display$GT$3fmt17h33e67fb454f6942aE"(ptr align 4 %_3, ptr align 8 %f), !dbg !1278
  ret i1 %_0, !dbg !1279
}

; <&T as core::fmt::Display>::fmt
; Function Attrs: uwtable
define zeroext i1 @"_ZN44_$LT$$RF$T$u20$as$u20$core..fmt..Display$GT$3fmt17hf8ed63f3b4459841E"(ptr align 8 %self, ptr align 8 %f) unnamed_addr #1 !dbg !1280 {
start:
  %f.dbg.spill = alloca ptr, align 8
  %self.dbg.spill = alloca ptr, align 8
  store ptr %self, ptr %self.dbg.spill, align 8
  call void @llvm.dbg.declare(metadata ptr %self.dbg.spill, metadata !1286, metadata !DIExpression()), !dbg !1289
  store ptr %f, ptr %f.dbg.spill, align 8
  call void @llvm.dbg.declare(metadata ptr %f.dbg.spill, metadata !1287, metadata !DIExpression()), !dbg !1290
  %_3 = load ptr, ptr %self, align 8, !dbg !1291, !nonnull !18, !align !662, !noundef !18
; call semver::display::<impl core::fmt::Display for semver::BuildMetadata>::fmt
  %_0 = call zeroext i1 @"_ZN6semver7display70_$LT$impl$u20$core..fmt..Display$u20$for$u20$semver..BuildMetadata$GT$3fmt17h86ba45832c3df6bfE"(ptr align 8 %_3, ptr align 8 %f), !dbg !1292
  ret i1 %_0, !dbg !1293
}

; <() as core::fmt::Debug>::fmt
; Function Attrs: inlinehint uwtable
define internal zeroext i1 @"_ZN45_$LT$$LP$$RP$$u20$as$u20$core..fmt..Debug$GT$3fmt17h44cedc47378dd653E"(ptr align 1 %self, ptr align 8 %f) unnamed_addr #0 !dbg !1294 {
start:
  %f.dbg.spill = alloca ptr, align 8
  %self.dbg.spill = alloca ptr, align 8
  store ptr %self, ptr %self.dbg.spill, align 8
  call void @llvm.dbg.declare(metadata ptr %self.dbg.spill, metadata !1299, metadata !DIExpression()), !dbg !1301
  store ptr %f, ptr %f.dbg.spill, align 8
  call void @llvm.dbg.declare(metadata ptr %f.dbg.spill, metadata !1300, metadata !DIExpression()), !dbg !1302
; call core::fmt::Formatter::pad
  %_0 = call zeroext i1 @_ZN4core3fmt9Formatter3pad17h2f69a4922a0818bbE(ptr align 8 %f, ptr align 1 @alloc_ae6dc619079e3c3b08144a35532ecff7, i64 2), !dbg !1303
  ret i1 %_0, !dbg !1304
}

; <u8 as core::slice::cmp::SliceOrd>::compare
; Function Attrs: inlinehint uwtable
define internal i8 @"_ZN49_$LT$u8$u20$as$u20$core..slice..cmp..SliceOrd$GT$7compare17h5747ddddf81efbd0E"(ptr align 1 %left.0, i64 %left.1, ptr align 1 %right.0, i64 %right.1) unnamed_addr #0 !dbg !1305 {
start:
  %self.dbg.spill = alloca ptr, align 8
  %0 = alloca i32, align 4
  %diff.dbg.spill = alloca i64, align 8
  %right.dbg.spill = alloca { ptr, i64 }, align 8
  %left.dbg.spill = alloca { ptr, i64 }, align 8
  %order = alloca i64, align 8
  %len = alloca i64, align 8
  %_0 = alloca i8, align 1
  %other.dbg.spill = alloca ptr, align 8
  store ptr @alloc_53973d2fe29b4adba8bb7390b5678745, ptr %other.dbg.spill, align 8, !dbg !1321
  call void @llvm.dbg.declare(metadata ptr %other.dbg.spill, metadata !1332, metadata !DIExpression()), !dbg !1321
  store ptr %left.0, ptr %left.dbg.spill, align 8, !dbg !1321
  %1 = getelementptr inbounds i8, ptr %left.dbg.spill, i64 8, !dbg !1321
  store i64 %left.1, ptr %1, align 8, !dbg !1321
  call void @llvm.dbg.declare(metadata ptr %left.dbg.spill, metadata !1312, metadata !DIExpression()), !dbg !1334
  call void @llvm.dbg.declare(metadata ptr %left.dbg.spill, metadata !1335, metadata !DIExpression()), !dbg !1345
  store ptr %right.0, ptr %right.dbg.spill, align 8, !dbg !1321
  %2 = getelementptr inbounds i8, ptr %right.dbg.spill, i64 8, !dbg !1321
  store i64 %right.1, ptr %2, align 8, !dbg !1321
  call void @llvm.dbg.declare(metadata ptr %right.dbg.spill, metadata !1313, metadata !DIExpression()), !dbg !1347
  call void @llvm.dbg.declare(metadata ptr %right.dbg.spill, metadata !1343, metadata !DIExpression()), !dbg !1348
  call void @llvm.dbg.declare(metadata ptr %len, metadata !1317, metadata !DIExpression()), !dbg !1350
  call void @llvm.dbg.declare(metadata ptr %order, metadata !1319, metadata !DIExpression()), !dbg !1351
  %diff = sub i64 %left.1, %right.1, !dbg !1352
  store i64 %diff, ptr %diff.dbg.spill, align 8, !dbg !1352
  call void @llvm.dbg.declare(metadata ptr %diff.dbg.spill, metadata !1314, metadata !DIExpression()), !dbg !1353
  %_9 = icmp ult i64 %left.1, %right.1, !dbg !1354
  br i1 %_9, label %bb1, label %bb2, !dbg !1354

bb2:                                              ; preds = %start
  store i64 %right.1, ptr %len, align 8, !dbg !1355
  br label %bb3, !dbg !1356

bb1:                                              ; preds = %start
  store i64 %left.1, ptr %len, align 8, !dbg !1357
  br label %bb3, !dbg !1356

bb3:                                              ; preds = %bb1, %bb2
  %_14 = load i64, ptr %len, align 8, !dbg !1358, !noundef !18
  %3 = call i32 @memcmp(ptr %left.0, ptr %right.0, i64 %_14), !dbg !1359
  store i32 %3, ptr %0, align 4, !dbg !1359
  %_11 = load i32, ptr %0, align 4, !dbg !1359, !noundef !18
  %4 = sext i32 %_11 to i64, !dbg !1359
  store i64 %4, ptr %order, align 8, !dbg !1359
  %_15 = load i64, ptr %order, align 8, !dbg !1360, !noundef !18
  %5 = icmp eq i64 %_15, 0, !dbg !1360
  br i1 %5, label %bb5, label %bb6, !dbg !1360

bb5:                                              ; preds = %bb3
  store i64 %diff, ptr %order, align 8, !dbg !1361
  br label %bb7, !dbg !1362

bb6:                                              ; preds = %bb3
  br label %bb7, !dbg !1362

bb7:                                              ; preds = %bb6, %bb5
  store ptr %order, ptr %self.dbg.spill, align 8, !dbg !1363
  call void @llvm.dbg.declare(metadata ptr %self.dbg.spill, metadata !1331, metadata !DIExpression()), !dbg !1321
  %_20 = load i64, ptr %order, align 8, !dbg !1321, !noundef !18
  %_19 = icmp slt i64 %_20, 0, !dbg !1321
  br i1 %_19, label %bb8, label %bb9, !dbg !1321

bb9:                                              ; preds = %bb7
  %6 = icmp eq i64 %_20, 0, !dbg !1321
  br i1 %6, label %bb10, label %bb11, !dbg !1321

bb8:                                              ; preds = %bb7
  store i8 -1, ptr %_0, align 1, !dbg !1321
  br label %bb13, !dbg !1321

bb10:                                             ; preds = %bb9
  store i8 0, ptr %_0, align 1, !dbg !1321
  br label %bb12, !dbg !1321

bb11:                                             ; preds = %bb9
  store i8 1, ptr %_0, align 1, !dbg !1321
  br label %bb12, !dbg !1321

bb12:                                             ; preds = %bb11, %bb10
  br label %bb13, !dbg !1321

bb13:                                             ; preds = %bb8, %bb12
  %7 = load i8, ptr %_0, align 1, !dbg !1364, !range !1365, !noundef !18
  ret i8 %7, !dbg !1364
}

; <usize as core::iter::range::Step>::forward_unchecked
; Function Attrs: inlinehint uwtable
define internal i64 @"_ZN49_$LT$usize$u20$as$u20$core..iter..range..Step$GT$17forward_unchecked17h016c4400cf71fcd8E"(i64 %start1, i64 %n) unnamed_addr #0 !dbg !1366 {
start:
  %n.dbg.spill = alloca i64, align 8
  %start.dbg.spill = alloca i64, align 8
  store i64 %start1, ptr %start.dbg.spill, align 8
  call void @llvm.dbg.declare(metadata ptr %start.dbg.spill, metadata !1373, metadata !DIExpression()), !dbg !1375
  call void @llvm.dbg.declare(metadata ptr %start.dbg.spill, metadata !1376, metadata !DIExpression()), !dbg !1385
  store i64 %n, ptr %n.dbg.spill, align 8
  call void @llvm.dbg.declare(metadata ptr %n.dbg.spill, metadata !1374, metadata !DIExpression()), !dbg !1387
  call void @llvm.dbg.declare(metadata ptr %n.dbg.spill, metadata !1384, metadata !DIExpression()), !dbg !1385
  %_0 = add nuw i64 %start1, %n, !dbg !1385
  ret i64 %_0, !dbg !1388
}

; core::intrinsics::write_bytes::precondition_check
; Function Attrs: inlinehint nounwind uwtable
define internal void @_ZN4core10intrinsics11write_bytes18precondition_check17h83ece0b0fe5194edE(ptr %addr, i64 %align) unnamed_addr #2 personality ptr @rust_eh_personality !dbg !1389 {
start:
  %align.dbg.spill = alloca i64, align 8
  %addr.dbg.spill = alloca ptr, align 8
  store ptr %addr, ptr %addr.dbg.spill, align 8
  call void @llvm.dbg.declare(metadata ptr %addr.dbg.spill, metadata !1396, metadata !DIExpression()), !dbg !1398
  store i64 %align, ptr %align.dbg.spill, align 8
  call void @llvm.dbg.declare(metadata ptr %align.dbg.spill, metadata !1397, metadata !DIExpression()), !dbg !1398
; invoke core::intrinsics::is_aligned_and_not_null
  %_3 = invoke zeroext i1 @_ZN4core10intrinsics23is_aligned_and_not_null17h5305ef718ff5a156E(ptr %addr, i64 %align)
          to label %bb1 unwind label %terminate, !dbg !1399

terminate:                                        ; preds = %start
  %0 = landingpad { ptr, i32 }
          filter [0 x ptr] zeroinitializer
  %1 = extractvalue { ptr, i32 } %0, 0
  %2 = extractvalue { ptr, i32 } %0, 1
; call core::panicking::panic_cannot_unwind
  call void @_ZN4core9panicking19panic_cannot_unwind17h3626040c0976c0c3E() #22, !dbg !1400
  unreachable, !dbg !1400

bb1:                                              ; preds = %start
  br i1 %_3, label %bb2, label %bb3, !dbg !1399

bb3:                                              ; preds = %bb1
; call core::panicking::panic_nounwind
  call void @_ZN4core9panicking14panic_nounwind17h50c31e15afde233eE(ptr align 1 @alloc_424341b75ece3fa20496f1c69b9fb0ac, i64 111) #20, !dbg !1401
  unreachable, !dbg !1401

bb2:                                              ; preds = %bb1
  ret void, !dbg !1402
}

; core::intrinsics::is_nonoverlapping
; Function Attrs: inlinehint uwtable
define internal zeroext i1 @_ZN4core10intrinsics17is_nonoverlapping17hd5637025affb3307E(ptr %src, ptr %dst, i64 %size, i64 %count) unnamed_addr #0 !dbg !1403 {
start:
  %size.dbg.spill3 = alloca i64, align 8
  %0 = alloca i8, align 1
  %a.dbg.spill1 = alloca i64, align 8
  %b.dbg.spill = alloca i8, align 1
  %a.dbg.spill = alloca i64, align 8
  %dst_usize.dbg.spill = alloca i64, align 8
  %src_usize.dbg.spill = alloca i64, align 8
  %count.dbg.spill = alloca i64, align 8
  %size.dbg.spill = alloca i64, align 8
  %dst.dbg.spill = alloca ptr, align 8
  %src.dbg.spill = alloca ptr, align 8
  %diff = alloca i64, align 8
  %_9 = alloca %"core::option::Option<usize>", align 8
  store ptr %src, ptr %src.dbg.spill, align 8
  call void @llvm.dbg.declare(metadata ptr %src.dbg.spill, metadata !1408, metadata !DIExpression()), !dbg !1420
  call void @llvm.dbg.declare(metadata ptr %src.dbg.spill, metadata !1421, metadata !DIExpression()), !dbg !1429
  call void @llvm.dbg.declare(metadata ptr %src.dbg.spill, metadata !1431, metadata !DIExpression()), !dbg !1440
  store ptr %dst, ptr %dst.dbg.spill, align 8
  call void @llvm.dbg.declare(metadata ptr %dst.dbg.spill, metadata !1409, metadata !DIExpression()), !dbg !1442
  call void @llvm.dbg.declare(metadata ptr %dst.dbg.spill, metadata !1427, metadata !DIExpression()), !dbg !1443
  call void @llvm.dbg.declare(metadata ptr %dst.dbg.spill, metadata !1437, metadata !DIExpression()), !dbg !1445
  store i64 %size, ptr %size.dbg.spill, align 8
  call void @llvm.dbg.declare(metadata ptr %size.dbg.spill, metadata !1410, metadata !DIExpression()), !dbg !1447
  call void @llvm.dbg.declare(metadata ptr %size.dbg.spill, metadata !1448, metadata !DIExpression()), !dbg !1460
  call void @llvm.dbg.declare(metadata ptr %size.dbg.spill, metadata !1462, metadata !DIExpression()), !dbg !1478
  store i64 %count, ptr %count.dbg.spill, align 8
  call void @llvm.dbg.declare(metadata ptr %count.dbg.spill, metadata !1411, metadata !DIExpression()), !dbg !1480
  call void @llvm.dbg.declare(metadata ptr %count.dbg.spill, metadata !1455, metadata !DIExpression()), !dbg !1460
  call void @llvm.dbg.declare(metadata ptr %count.dbg.spill, metadata !1473, metadata !DIExpression()), !dbg !1478
  call void @llvm.dbg.declare(metadata ptr %diff, metadata !1418, metadata !DIExpression()), !dbg !1481
  %src_usize = ptrtoint ptr %src to i64, !dbg !1482
  store i64 %src_usize, ptr %src_usize.dbg.spill, align 8, !dbg !1482
  call void @llvm.dbg.declare(metadata ptr %src_usize.dbg.spill, metadata !1412, metadata !DIExpression()), !dbg !1483
  call void @llvm.dbg.declare(metadata ptr %src_usize.dbg.spill, metadata !1484, metadata !DIExpression()), !dbg !1490
  %dst_usize = ptrtoint ptr %dst to i64, !dbg !1492
  store i64 %dst_usize, ptr %dst_usize.dbg.spill, align 8, !dbg !1492
  call void @llvm.dbg.declare(metadata ptr %dst_usize.dbg.spill, metadata !1414, metadata !DIExpression()), !dbg !1493
  call void @llvm.dbg.declare(metadata ptr %dst_usize.dbg.spill, metadata !1489, metadata !DIExpression()), !dbg !1490
  %1 = call { i64, i1 } @llvm.umul.with.overflow.i64(i64 %size, i64 %count), !dbg !1478
  %_15.0 = extractvalue { i64, i1 } %1, 0, !dbg !1478
  %_15.1 = extractvalue { i64, i1 } %1, 1, !dbg !1478
  store i64 %_15.0, ptr %a.dbg.spill, align 8, !dbg !1478
  call void @llvm.dbg.declare(metadata ptr %a.dbg.spill, metadata !1474, metadata !DIExpression()), !dbg !1494
  %2 = zext i1 %_15.1 to i8, !dbg !1478
  store i8 %2, ptr %b.dbg.spill, align 1, !dbg !1478
  call void @llvm.dbg.declare(metadata ptr %b.dbg.spill, metadata !1459, metadata !DIExpression()), !dbg !1495
  call void @llvm.dbg.declare(metadata ptr %b.dbg.spill, metadata !1477, metadata !DIExpression()), !dbg !1494
  store i64 %_15.0, ptr %a.dbg.spill1, align 8, !dbg !1494
  call void @llvm.dbg.declare(metadata ptr %a.dbg.spill1, metadata !1456, metadata !DIExpression()), !dbg !1495
  %3 = call i1 @llvm.expect.i1(i1 %_15.1, i1 false), !dbg !1495
  %4 = zext i1 %3 to i8, !dbg !1495
  store i8 %4, ptr %0, align 1, !dbg !1495
  %5 = load i8, ptr %0, align 1, !dbg !1495, !range !242, !noundef !18
  %_12 = trunc i8 %5 to i1, !dbg !1495
  br i1 %_12, label %bb2, label %bb3, !dbg !1495

bb3:                                              ; preds = %start
  %6 = getelementptr inbounds i8, ptr %_9, i64 8, !dbg !1495
  store i64 %_15.0, ptr %6, align 8, !dbg !1495
  store i64 1, ptr %_9, align 8, !dbg !1495
  %7 = getelementptr inbounds i8, ptr %_9, i64 8, !dbg !1496
  %size2 = load i64, ptr %7, align 8, !dbg !1496, !noundef !18
  store i64 %size2, ptr %size.dbg.spill3, align 8, !dbg !1496
  call void @llvm.dbg.declare(metadata ptr %size.dbg.spill3, metadata !1416, metadata !DIExpression()), !dbg !1497
  %_22 = icmp ult i64 %src_usize, %dst_usize, !dbg !1490
  br i1 %_22, label %bb4, label %bb5, !dbg !1490

bb2:                                              ; preds = %start
; call core::panicking::panic_nounwind
  call void @_ZN4core9panicking14panic_nounwind17h50c31e15afde233eE(ptr align 1 @alloc_763310d78c99c2c1ad3f8a9821e942f3, i64 61) #20, !dbg !1498
  unreachable, !dbg !1498

bb5:                                              ; preds = %bb3
  %8 = sub i64 %src_usize, %dst_usize, !dbg !1490
  store i64 %8, ptr %diff, align 8, !dbg !1490
  br label %bb6, !dbg !1490

bb4:                                              ; preds = %bb3
  %9 = sub i64 %dst_usize, %src_usize, !dbg !1490
  store i64 %9, ptr %diff, align 8, !dbg !1490
  br label %bb6, !dbg !1490

bb6:                                              ; preds = %bb4, %bb5
  %_11 = load i64, ptr %diff, align 8, !dbg !1499, !noundef !18
  %_0 = icmp uge i64 %_11, %size2, !dbg !1499
  ret i1 %_0, !dbg !1500
}

; core::intrinsics::copy_nonoverlapping::precondition_check
; Function Attrs: inlinehint nounwind uwtable
define internal void @_ZN4core10intrinsics19copy_nonoverlapping18precondition_check17h06159af16c48c03bE(ptr %src, ptr %dst, i64 %size, i64 %align, i64 %count) unnamed_addr #2 personality ptr @rust_eh_personality !dbg !1501 {
start:
  %count.dbg.spill = alloca i64, align 8
  %align.dbg.spill = alloca i64, align 8
  %size.dbg.spill = alloca i64, align 8
  %dst.dbg.spill = alloca ptr, align 8
  %src.dbg.spill = alloca ptr, align 8
  store ptr %src, ptr %src.dbg.spill, align 8
  call void @llvm.dbg.declare(metadata ptr %src.dbg.spill, metadata !1506, metadata !DIExpression()), !dbg !1511
  store ptr %dst, ptr %dst.dbg.spill, align 8
  call void @llvm.dbg.declare(metadata ptr %dst.dbg.spill, metadata !1507, metadata !DIExpression()), !dbg !1511
  store i64 %size, ptr %size.dbg.spill, align 8
  call void @llvm.dbg.declare(metadata ptr %size.dbg.spill, metadata !1508, metadata !DIExpression()), !dbg !1511
  store i64 %align, ptr %align.dbg.spill, align 8
  call void @llvm.dbg.declare(metadata ptr %align.dbg.spill, metadata !1509, metadata !DIExpression()), !dbg !1511
  store i64 %count, ptr %count.dbg.spill, align 8
  call void @llvm.dbg.declare(metadata ptr %count.dbg.spill, metadata !1510, metadata !DIExpression()), !dbg !1511
; invoke core::intrinsics::is_aligned_and_not_null
  %_6 = invoke zeroext i1 @_ZN4core10intrinsics23is_aligned_and_not_null17h5305ef718ff5a156E(ptr %src, i64 %align)
          to label %bb1 unwind label %terminate, !dbg !1512

terminate:                                        ; preds = %bb4, %bb2, %start
  %0 = landingpad { ptr, i32 }
          filter [0 x ptr] zeroinitializer
  %1 = extractvalue { ptr, i32 } %0, 0
  %2 = extractvalue { ptr, i32 } %0, 1
; call core::panicking::panic_cannot_unwind
  call void @_ZN4core9panicking19panic_cannot_unwind17h3626040c0976c0c3E() #22, !dbg !1513
  unreachable, !dbg !1513

bb1:                                              ; preds = %start
  br i1 %_6, label %bb2, label %bb7, !dbg !1512

bb7:                                              ; preds = %bb5, %bb3, %bb1
; call core::panicking::panic_nounwind
  call void @_ZN4core9panicking14panic_nounwind17h50c31e15afde233eE(ptr align 1 @alloc_8df0580a595a87d56789d20c7318e185, i64 166) #20, !dbg !1514
  unreachable, !dbg !1514

bb2:                                              ; preds = %bb1
; invoke core::intrinsics::is_aligned_and_not_null
  %_7 = invoke zeroext i1 @_ZN4core10intrinsics23is_aligned_and_not_null17h5305ef718ff5a156E(ptr %dst, i64 %align)
          to label %bb3 unwind label %terminate, !dbg !1515

bb3:                                              ; preds = %bb2
  br i1 %_7, label %bb4, label %bb7, !dbg !1515

bb4:                                              ; preds = %bb3
; invoke core::intrinsics::is_nonoverlapping
  %_9 = invoke zeroext i1 @_ZN4core10intrinsics17is_nonoverlapping17hd5637025affb3307E(ptr %src, ptr %dst, i64 %size, i64 %count)
          to label %bb5 unwind label %terminate, !dbg !1516

bb5:                                              ; preds = %bb4
  br i1 %_9, label %bb6, label %bb7, !dbg !1516

bb6:                                              ; preds = %bb5
  ret void, !dbg !1517
}

; core::intrinsics::is_aligned_and_not_null
; Function Attrs: inlinehint uwtable
define internal zeroext i1 @_ZN4core10intrinsics23is_aligned_and_not_null17h5305ef718ff5a156E(ptr %ptr, i64 %align) unnamed_addr #0 !dbg !1518 {
start:
  %pieces.dbg.spill = alloca { ptr, i64 }, align 8
  %0 = alloca i64, align 8
  %ptr.dbg.spill1 = alloca ptr, align 8
  %align.dbg.spill = alloca i64, align 8
  %ptr.dbg.spill = alloca ptr, align 8
  %_6 = alloca %"core::fmt::Arguments<'_>", align 8
  %_0 = alloca i8, align 1
  store ptr %ptr, ptr %ptr.dbg.spill, align 8
  call void @llvm.dbg.declare(metadata ptr %ptr.dbg.spill, metadata !1522, metadata !DIExpression()), !dbg !1524
  call void @llvm.dbg.declare(metadata ptr %ptr.dbg.spill, metadata !1525, metadata !DIExpression()), !dbg !1531
  call void @llvm.dbg.declare(metadata ptr %ptr.dbg.spill, metadata !1533, metadata !DIExpression()), !dbg !1538
  call void @llvm.dbg.declare(metadata ptr %ptr.dbg.spill, metadata !1540, metadata !DIExpression()), !dbg !1546
  call void @llvm.dbg.declare(metadata ptr %ptr.dbg.spill, metadata !1548, metadata !DIExpression()), !dbg !1554
  call void @llvm.dbg.declare(metadata ptr %ptr.dbg.spill, metadata !1556, metadata !DIExpression()), !dbg !1560
  call void @llvm.dbg.declare(metadata ptr %ptr.dbg.spill, metadata !1544, metadata !DIExpression()), !dbg !1562
  store i64 %align, ptr %align.dbg.spill, align 8
  call void @llvm.dbg.declare(metadata ptr %align.dbg.spill, metadata !1523, metadata !DIExpression()), !dbg !1564
  call void @llvm.dbg.declare(metadata ptr %align.dbg.spill, metadata !1537, metadata !DIExpression()), !dbg !1565
  call void @llvm.dbg.declare(metadata ptr %align.dbg.spill, metadata !1566, metadata !DIExpression()), !dbg !1573
  call void @llvm.dbg.declare(metadata ptr %align.dbg.spill, metadata !1575, metadata !DIExpression()), !dbg !1582
  call void @llvm.dbg.declare(metadata ptr %align.dbg.spill, metadata !1553, metadata !DIExpression()), !dbg !1584
  store ptr %ptr, ptr %ptr.dbg.spill1, align 8, !dbg !1585
  call void @llvm.dbg.declare(metadata ptr %ptr.dbg.spill1, metadata !1586, metadata !DIExpression()), !dbg !1593
  call void @llvm.dbg.declare(metadata ptr %ptr.dbg.spill1, metadata !1595, metadata !DIExpression()), !dbg !1601
  call void @llvm.dbg.declare(metadata ptr %ptr.dbg.spill1, metadata !1603, metadata !DIExpression()), !dbg !1607
  %_4 = ptrtoint ptr %ptr to i64, !dbg !1609
  %1 = icmp eq i64 %_4, 0, !dbg !1610
  br i1 %1, label %bb1, label %bb2, !dbg !1610

bb1:                                              ; preds = %start
  store i8 0, ptr %_0, align 1, !dbg !1611
  br label %bb3, !dbg !1611

bb2:                                              ; preds = %start
  %2 = call i64 @llvm.ctpop.i64(i64 %align), !dbg !1582
  store i64 %2, ptr %0, align 8, !dbg !1582
  %_9 = load i64, ptr %0, align 8, !dbg !1582, !noundef !18
  %_8 = trunc i64 %_9 to i32, !dbg !1582
  %3 = icmp eq i32 %_8, 1, !dbg !1612
  br i1 %3, label %bb4, label %bb5, !dbg !1612

bb3:                                              ; preds = %bb4, %bb1
  %4 = load i8, ptr %_0, align 1, !dbg !1613, !range !242, !noundef !18
  %5 = trunc i8 %4 to i1, !dbg !1613
  ret i1 %5, !dbg !1613

bb4:                                              ; preds = %bb2
  %_13 = sub i64 %align, 1, !dbg !1614
  %_12 = and i64 %_4, %_13, !dbg !1615
  %6 = icmp eq i64 %_12, 0, !dbg !1615
  %7 = zext i1 %6 to i8, !dbg !1615
  store i8 %7, ptr %_0, align 1, !dbg !1615
  br label %bb3, !dbg !1611

bb5:                                              ; preds = %bb2
  store ptr @alloc_041983ee8170efdaaf95ba67fd072d26, ptr %pieces.dbg.spill, align 8, !dbg !1616
  %8 = getelementptr inbounds i8, ptr %pieces.dbg.spill, i64 8, !dbg !1616
  store i64 1, ptr %8, align 8, !dbg !1616
  call void @llvm.dbg.declare(metadata ptr %pieces.dbg.spill, metadata !1617, metadata !DIExpression()), !dbg !1690
  store ptr @alloc_041983ee8170efdaaf95ba67fd072d26, ptr %_6, align 8, !dbg !1694
  %9 = getelementptr inbounds i8, ptr %_6, i64 8, !dbg !1694
  store i64 1, ptr %9, align 8, !dbg !1694
  %10 = load ptr, ptr @0, align 8, !dbg !1694, !align !662, !noundef !18
  %11 = load i64, ptr getelementptr inbounds (i8, ptr @0, i64 8), align 8, !dbg !1694
  %12 = getelementptr inbounds i8, ptr %_6, i64 32, !dbg !1694
  store ptr %10, ptr %12, align 8, !dbg !1694
  %13 = getelementptr inbounds i8, ptr %12, i64 8, !dbg !1694
  store i64 %11, ptr %13, align 8, !dbg !1694
  %14 = getelementptr inbounds i8, ptr %_6, i64 16, !dbg !1694
  store ptr @alloc_513570631223a12912d85da2bec3b15a, ptr %14, align 8, !dbg !1694
  %15 = getelementptr inbounds i8, ptr %14, i64 8, !dbg !1694
  store i64 0, ptr %15, align 8, !dbg !1694
; call core::panicking::panic_fmt
  call void @_ZN4core9panicking9panic_fmt17ha6d62ade15192290E(ptr align 8 %_6, ptr align 8 @alloc_33f991fa5bbac1da9d8a778b0f014caf) #21, !dbg !1695
  unreachable, !dbg !1695
}

; core::intrinsics::is_val_statically_known
; Function Attrs: nounwind uwtable
define zeroext i1 @_ZN4core10intrinsics23is_val_statically_known17h092f9faaa608d827E(i1 zeroext %_arg) unnamed_addr #3 !dbg !1696 {
start:
  %_arg.dbg.spill = alloca i8, align 1
  %0 = zext i1 %_arg to i8
  store i8 %0, ptr %_arg.dbg.spill, align 1
  call void @llvm.dbg.declare(metadata ptr %_arg.dbg.spill, metadata !1700, metadata !DIExpression()), !dbg !1703
  ret i1 false, !dbg !1704
}

; core::intrinsics::unlikely
; Function Attrs: nounwind uwtable
define internal zeroext i1 @_ZN4core10intrinsics8unlikely17h092ac6dbed5a97a1E(i1 zeroext %b) unnamed_addr #3 !dbg !1705 {
start:
  %b.dbg.spill = alloca i8, align 1
  %0 = zext i1 %b to i8
  store i8 %0, ptr %b.dbg.spill, align 1
  call void @llvm.dbg.declare(metadata ptr %b.dbg.spill, metadata !1707, metadata !DIExpression()), !dbg !1708
  ret i1 %b, !dbg !1709
}

; core::cmp::PartialOrd::ge
; Function Attrs: inlinehint uwtable
define zeroext i1 @_ZN4core3cmp10PartialOrd2ge17hd74c90a9d7b4488fE(ptr align 8 %self, ptr align 8 %other) unnamed_addr #0 !dbg !1710 {
start:
  %other.dbg.spill = alloca ptr, align 8
  %self.dbg.spill = alloca ptr, align 8
  %_3 = alloca i8, align 1
  %_0 = alloca i8, align 1
  store ptr %self, ptr %self.dbg.spill, align 8
  call void @llvm.dbg.declare(metadata ptr %self.dbg.spill, metadata !1715, metadata !DIExpression()), !dbg !1720
  store ptr %other, ptr %other.dbg.spill, align 8
  call void @llvm.dbg.declare(metadata ptr %other.dbg.spill, metadata !1716, metadata !DIExpression()), !dbg !1721
; call semver::impls::<impl core::cmp::PartialOrd for semver::Prerelease>::partial_cmp
  %0 = call i8 @"_ZN6semver5impls70_$LT$impl$u20$core..cmp..PartialOrd$u20$for$u20$semver..Prerelease$GT$11partial_cmp17he4951e884df607a6E"(ptr align 8 %self, ptr align 8 %other), !dbg !1722, !range !1723
  store i8 %0, ptr %_3, align 1, !dbg !1722
  %1 = load i8, ptr %_3, align 1, !dbg !1722, !range !1723, !noundef !18
  %2 = icmp eq i8 %1, 2, !dbg !1722
  %_5 = select i1 %2, i64 0, i64 1, !dbg !1722
  %3 = icmp eq i64 %_5, 1, !dbg !1724
  br i1 %3, label %bb3, label %bb2, !dbg !1724

bb3:                                              ; preds = %start
  %_4 = load i8, ptr %_3, align 1, !dbg !1722, !range !1365, !noundef !18
  switch i8 %_4, label %bb6 [
    i8 0, label %bb4
    i8 1, label %bb4
    i8 -1, label %bb2
  ], !dbg !1724

bb2:                                              ; preds = %bb3, %start
  store i8 0, ptr %_0, align 1, !dbg !1724
  br label %bb5, !dbg !1724

bb6:                                              ; preds = %bb3
  unreachable, !dbg !1725

bb4:                                              ; preds = %bb3, %bb3
  store i8 1, ptr %_0, align 1, !dbg !1724
  br label %bb5, !dbg !1724

bb5:                                              ; preds = %bb2, %bb4
  %4 = load i8, ptr %_0, align 1, !dbg !1726, !range !242, !noundef !18
  %5 = trunc i8 %4 to i1, !dbg !1726
  ret i1 %5, !dbg !1726
}

; core::cmp::PartialOrd::gt
; Function Attrs: inlinehint uwtable
define zeroext i1 @_ZN4core3cmp10PartialOrd2gt17h269981a3e1b7870dE(ptr align 8 %self, ptr align 8 %other) unnamed_addr #0 !dbg !1727 {
start:
  %other.dbg.spill = alloca ptr, align 8
  %self.dbg.spill = alloca ptr, align 8
  %_3 = alloca i8, align 1
  %_0 = alloca i8, align 1
  store ptr %self, ptr %self.dbg.spill, align 8
  call void @llvm.dbg.declare(metadata ptr %self.dbg.spill, metadata !1729, metadata !DIExpression()), !dbg !1731
  store ptr %other, ptr %other.dbg.spill, align 8
  call void @llvm.dbg.declare(metadata ptr %other.dbg.spill, metadata !1730, metadata !DIExpression()), !dbg !1732
; call semver::impls::<impl core::cmp::PartialOrd for semver::Prerelease>::partial_cmp
  %0 = call i8 @"_ZN6semver5impls70_$LT$impl$u20$core..cmp..PartialOrd$u20$for$u20$semver..Prerelease$GT$11partial_cmp17he4951e884df607a6E"(ptr align 8 %self, ptr align 8 %other), !dbg !1733, !range !1723
  store i8 %0, ptr %_3, align 1, !dbg !1733
  %1 = load i8, ptr %_3, align 1, !dbg !1733, !range !1723, !noundef !18
  %2 = icmp eq i8 %1, 2, !dbg !1733
  %_5 = select i1 %2, i64 0, i64 1, !dbg !1733
  %3 = icmp eq i64 %_5, 1, !dbg !1734
  br i1 %3, label %bb3, label %bb2, !dbg !1734

bb3:                                              ; preds = %start
  %_4 = load i8, ptr %_3, align 1, !dbg !1733, !range !1365, !noundef !18
  %4 = icmp eq i8 %_4, 1, !dbg !1734
  %5 = zext i1 %4 to i8, !dbg !1734
  store i8 %5, ptr %_0, align 1, !dbg !1734
  br label %bb4, !dbg !1734

bb2:                                              ; preds = %start
  store i8 0, ptr %_0, align 1, !dbg !1734
  br label %bb4, !dbg !1734

bb4:                                              ; preds = %bb2, %bb3
  %6 = load i8, ptr %_0, align 1, !dbg !1735, !range !242, !noundef !18
  %7 = trunc i8 %6 to i1, !dbg !1735
  ret i1 %7, !dbg !1735

bb5:                                              ; No predecessors!
  unreachable, !dbg !1736
}

; core::cmp::PartialOrd::lt
; Function Attrs: inlinehint uwtable
define zeroext i1 @_ZN4core3cmp10PartialOrd2lt17h322952a879a10f44E(ptr align 8 %self, ptr align 8 %other) unnamed_addr #0 !dbg !1737 {
start:
  %other.dbg.spill = alloca ptr, align 8
  %self.dbg.spill = alloca ptr, align 8
  %_3 = alloca i8, align 1
  %_0 = alloca i8, align 1
  store ptr %self, ptr %self.dbg.spill, align 8
  call void @llvm.dbg.declare(metadata ptr %self.dbg.spill, metadata !1739, metadata !DIExpression()), !dbg !1741
  store ptr %other, ptr %other.dbg.spill, align 8
  call void @llvm.dbg.declare(metadata ptr %other.dbg.spill, metadata !1740, metadata !DIExpression()), !dbg !1742
; call semver::impls::<impl core::cmp::PartialOrd for semver::Prerelease>::partial_cmp
  %0 = call i8 @"_ZN6semver5impls70_$LT$impl$u20$core..cmp..PartialOrd$u20$for$u20$semver..Prerelease$GT$11partial_cmp17he4951e884df607a6E"(ptr align 8 %self, ptr align 8 %other), !dbg !1743, !range !1723
  store i8 %0, ptr %_3, align 1, !dbg !1743
  %1 = load i8, ptr %_3, align 1, !dbg !1743, !range !1723, !noundef !18
  %2 = icmp eq i8 %1, 2, !dbg !1743
  %_5 = select i1 %2, i64 0, i64 1, !dbg !1743
  %3 = icmp eq i64 %_5, 1, !dbg !1744
  br i1 %3, label %bb3, label %bb2, !dbg !1744

bb3:                                              ; preds = %start
  %_4 = load i8, ptr %_3, align 1, !dbg !1743, !range !1365, !noundef !18
  %4 = icmp eq i8 %_4, -1, !dbg !1744
  %5 = zext i1 %4 to i8, !dbg !1744
  store i8 %5, ptr %_0, align 1, !dbg !1744
  br label %bb4, !dbg !1744

bb2:                                              ; preds = %start
  store i8 0, ptr %_0, align 1, !dbg !1744
  br label %bb4, !dbg !1744

bb4:                                              ; preds = %bb2, %bb3
  %6 = load i8, ptr %_0, align 1, !dbg !1745, !range !242, !noundef !18
  %7 = trunc i8 %6 to i1, !dbg !1745
  ret i1 %7, !dbg !1745

bb5:                                              ; No predecessors!
  unreachable, !dbg !1746
}

; core::cmp::impls::<impl core::cmp::Ord for u64>::cmp
; Function Attrs: inlinehint uwtable
define internal i8 @"_ZN4core3cmp5impls48_$LT$impl$u20$core..cmp..Ord$u20$for$u20$u64$GT$3cmp17h6a550bbc17826ac0E"(ptr align 8 %self, ptr align 8 %other) unnamed_addr #0 !dbg !1747 {
start:
  %other.dbg.spill = alloca ptr, align 8
  %self.dbg.spill = alloca ptr, align 8
  %_0 = alloca i8, align 1
  store ptr %self, ptr %self.dbg.spill, align 8
  call void @llvm.dbg.declare(metadata ptr %self.dbg.spill, metadata !1752, metadata !DIExpression()), !dbg !1754
  store ptr %other, ptr %other.dbg.spill, align 8
  call void @llvm.dbg.declare(metadata ptr %other.dbg.spill, metadata !1753, metadata !DIExpression()), !dbg !1755
  %_4 = load i64, ptr %self, align 8, !dbg !1756, !noundef !18
  %_5 = load i64, ptr %other, align 8, !dbg !1757, !noundef !18
  %_3 = icmp ult i64 %_4, %_5, !dbg !1756
  br i1 %_3, label %bb1, label %bb2, !dbg !1756

bb2:                                              ; preds = %start
  %_6 = icmp eq i64 %_4, %_5, !dbg !1758
  br i1 %_6, label %bb3, label %bb4, !dbg !1758

bb1:                                              ; preds = %start
  store i8 -1, ptr %_0, align 1, !dbg !1759
  br label %bb6, !dbg !1760

bb4:                                              ; preds = %bb2
  store i8 1, ptr %_0, align 1, !dbg !1761
  br label %bb5, !dbg !1762

bb3:                                              ; preds = %bb2
  store i8 0, ptr %_0, align 1, !dbg !1763
  br label %bb5, !dbg !1762

bb5:                                              ; preds = %bb3, %bb4
  br label %bb6, !dbg !1760

bb6:                                              ; preds = %bb1, %bb5
  %0 = load i8, ptr %_0, align 1, !dbg !1764, !range !1365, !noundef !18
  ret i8 %0, !dbg !1764
}

; core::cmp::impls::<impl core::cmp::Ord for &A>::cmp
; Function Attrs: inlinehint uwtable
define i8 @"_ZN4core3cmp5impls50_$LT$impl$u20$core..cmp..Ord$u20$for$u20$$RF$A$GT$3cmp17h89719bd7963944e0E"(ptr align 8 %self, ptr align 8 %other) unnamed_addr #0 !dbg !1765 {
start:
  %other.dbg.spill = alloca ptr, align 8
  %self.dbg.spill = alloca ptr, align 8
  store ptr %self, ptr %self.dbg.spill, align 8
  call void @llvm.dbg.declare(metadata ptr %self.dbg.spill, metadata !1770, metadata !DIExpression()), !dbg !1774
  store ptr %other, ptr %other.dbg.spill, align 8
  call void @llvm.dbg.declare(metadata ptr %other.dbg.spill, metadata !1771, metadata !DIExpression()), !dbg !1775
  %_3 = load ptr, ptr %self, align 8, !dbg !1776, !nonnull !18, !align !662, !noundef !18
  %_4 = load ptr, ptr %other, align 8, !dbg !1777, !nonnull !18, !align !662, !noundef !18
; call semver::impls::<impl core::cmp::Ord for semver::Prerelease>::cmp
  %_0 = call i8 @"_ZN6semver5impls63_$LT$impl$u20$core..cmp..Ord$u20$for$u20$semver..Prerelease$GT$3cmp17h508a782b9a5d216aE"(ptr align 8 %_3, ptr align 8 %_4), !dbg !1778, !range !1365
  ret i8 %_0, !dbg !1779
}

; core::cmp::impls::<impl core::cmp::Ord for usize>::cmp
; Function Attrs: inlinehint uwtable
define internal i8 @"_ZN4core3cmp5impls50_$LT$impl$u20$core..cmp..Ord$u20$for$u20$usize$GT$3cmp17h58262826b205221bE"(ptr align 8 %self, ptr align 8 %other) unnamed_addr #0 !dbg !1780 {
start:
  %other.dbg.spill = alloca ptr, align 8
  %self.dbg.spill = alloca ptr, align 8
  %_0 = alloca i8, align 1
  store ptr %self, ptr %self.dbg.spill, align 8
  call void @llvm.dbg.declare(metadata ptr %self.dbg.spill, metadata !1786, metadata !DIExpression()), !dbg !1788
  store ptr %other, ptr %other.dbg.spill, align 8
  call void @llvm.dbg.declare(metadata ptr %other.dbg.spill, metadata !1787, metadata !DIExpression()), !dbg !1789
  %_4 = load i64, ptr %self, align 8, !dbg !1790, !noundef !18
  %_5 = load i64, ptr %other, align 8, !dbg !1791, !noundef !18
  %_3 = icmp ult i64 %_4, %_5, !dbg !1790
  br i1 %_3, label %bb1, label %bb2, !dbg !1790

bb2:                                              ; preds = %start
  %_6 = icmp eq i64 %_4, %_5, !dbg !1792
  br i1 %_6, label %bb3, label %bb4, !dbg !1792

bb1:                                              ; preds = %start
  store i8 -1, ptr %_0, align 1, !dbg !1793
  br label %bb6, !dbg !1794

bb4:                                              ; preds = %bb2
  store i8 1, ptr %_0, align 1, !dbg !1795
  br label %bb5, !dbg !1796

bb3:                                              ; preds = %bb2
  store i8 0, ptr %_0, align 1, !dbg !1797
  br label %bb5, !dbg !1796

bb5:                                              ; preds = %bb3, %bb4
  br label %bb6, !dbg !1794

bb6:                                              ; preds = %bb1, %bb5
  %0 = load i8, ptr %_0, align 1, !dbg !1798, !range !1365, !noundef !18
  ret i8 %0, !dbg !1798
}

; core::cmp::impls::<impl core::cmp::PartialEq for u8>::eq
; Function Attrs: inlinehint uwtable
define internal zeroext i1 @"_ZN4core3cmp5impls53_$LT$impl$u20$core..cmp..PartialEq$u20$for$u20$u8$GT$2eq17h2e22ce9bc4eea750E"(ptr align 1 %self, ptr align 1 %other) unnamed_addr #0 !dbg !1799 {
start:
  %other.dbg.spill = alloca ptr, align 8
  %self.dbg.spill = alloca ptr, align 8
  store ptr %self, ptr %self.dbg.spill, align 8
  call void @llvm.dbg.declare(metadata ptr %self.dbg.spill, metadata !1805, metadata !DIExpression()), !dbg !1807
  store ptr %other, ptr %other.dbg.spill, align 8
  call void @llvm.dbg.declare(metadata ptr %other.dbg.spill, metadata !1806, metadata !DIExpression()), !dbg !1808
  %_3 = load i8, ptr %self, align 1, !dbg !1809, !noundef !18
  %_4 = load i8, ptr %other, align 1, !dbg !1810, !noundef !18
  %_0 = icmp eq i8 %_3, %_4, !dbg !1809
  ret i1 %_0, !dbg !1811
}

; core::cmp::impls::<impl core::cmp::PartialEq for u64>::eq
; Function Attrs: inlinehint uwtable
define internal zeroext i1 @"_ZN4core3cmp5impls54_$LT$impl$u20$core..cmp..PartialEq$u20$for$u20$u64$GT$2eq17ha0e4b9b47e56a061E"(ptr align 8 %self, ptr align 8 %other) unnamed_addr #0 !dbg !1812 {
start:
  %other.dbg.spill = alloca ptr, align 8
  %self.dbg.spill = alloca ptr, align 8
  store ptr %self, ptr %self.dbg.spill, align 8
  call void @llvm.dbg.declare(metadata ptr %self.dbg.spill, metadata !1817, metadata !DIExpression()), !dbg !1819
  store ptr %other, ptr %other.dbg.spill, align 8
  call void @llvm.dbg.declare(metadata ptr %other.dbg.spill, metadata !1818, metadata !DIExpression()), !dbg !1820
  %_3 = load i64, ptr %self, align 8, !dbg !1821, !noundef !18
  %_4 = load i64, ptr %other, align 8, !dbg !1822, !noundef !18
  %_0 = icmp eq i64 %_3, %_4, !dbg !1821
  ret i1 %_0, !dbg !1823
}

; core::cmp::impls::<impl core::cmp::PartialEq for ()>::eq
; Function Attrs: inlinehint uwtable
define internal zeroext i1 @"_ZN4core3cmp5impls59_$LT$impl$u20$core..cmp..PartialEq$u20$for$u20$$LP$$RP$$GT$2eq17h99bd81a7c615538aE"(ptr align 1 %self, ptr align 1 %_other) unnamed_addr #0 !dbg !1824 {
start:
  %_other.dbg.spill = alloca ptr, align 8
  %self.dbg.spill = alloca ptr, align 8
  store ptr %self, ptr %self.dbg.spill, align 8
  call void @llvm.dbg.declare(metadata ptr %self.dbg.spill, metadata !1829, metadata !DIExpression()), !dbg !1831
  store ptr %_other, ptr %_other.dbg.spill, align 8
  call void @llvm.dbg.declare(metadata ptr %_other.dbg.spill, metadata !1830, metadata !DIExpression()), !dbg !1832
  ret i1 true, !dbg !1833
}

; core::cmp::impls::<impl core::cmp::PartialEq<&B> for &A>::eq
; Function Attrs: inlinehint uwtable
define zeroext i1 @"_ZN4core3cmp5impls69_$LT$impl$u20$core..cmp..PartialEq$LT$$RF$B$GT$$u20$for$u20$$RF$A$GT$2eq17h62a61d2cde882683E"(ptr align 8 %self, ptr align 8 %other) unnamed_addr #0 !dbg !1834 {
start:
  %other.dbg.spill = alloca ptr, align 8
  %self.dbg.spill = alloca ptr, align 8
  store ptr %self, ptr %self.dbg.spill, align 8
  call void @llvm.dbg.declare(metadata ptr %self.dbg.spill, metadata !1839, metadata !DIExpression()), !dbg !1844
  store ptr %other, ptr %other.dbg.spill, align 8
  call void @llvm.dbg.declare(metadata ptr %other.dbg.spill, metadata !1840, metadata !DIExpression()), !dbg !1845
  %_3.0 = load ptr, ptr %self, align 8, !dbg !1846, !nonnull !18, !align !483, !noundef !18
  %0 = getelementptr inbounds i8, ptr %self, i64 8, !dbg !1846
  %_3.1 = load i64, ptr %0, align 8, !dbg !1846, !noundef !18
  %_4.0 = load ptr, ptr %other, align 8, !dbg !1847, !nonnull !18, !align !483, !noundef !18
  %1 = getelementptr inbounds i8, ptr %other, i64 8, !dbg !1847
  %_4.1 = load i64, ptr %1, align 8, !dbg !1847, !noundef !18
; call core::str::traits::<impl core::cmp::PartialEq for str>::eq
  %_0 = call zeroext i1 @"_ZN4core3str6traits54_$LT$impl$u20$core..cmp..PartialEq$u20$for$u20$str$GT$2eq17h2a8efcad6e86a41bE"(ptr align 1 %_3.0, i64 %_3.1, ptr align 1 %_4.0, i64 %_4.1), !dbg !1848
  ret i1 %_0, !dbg !1849
}

; core::cmp::impls::<impl core::cmp::PartialEq<&B> for &A>::eq
; Function Attrs: inlinehint uwtable
define zeroext i1 @"_ZN4core3cmp5impls69_$LT$impl$u20$core..cmp..PartialEq$LT$$RF$B$GT$$u20$for$u20$$RF$A$GT$2eq17ha45b1015d3512271E"(ptr align 8 %self, ptr align 8 %other) unnamed_addr #0 !dbg !1850 {
start:
  %other.dbg.spill = alloca ptr, align 8
  %self.dbg.spill = alloca ptr, align 8
  store ptr %self, ptr %self.dbg.spill, align 8
  call void @llvm.dbg.declare(metadata ptr %self.dbg.spill, metadata !1855, metadata !DIExpression()), !dbg !1857
  store ptr %other, ptr %other.dbg.spill, align 8
  call void @llvm.dbg.declare(metadata ptr %other.dbg.spill, metadata !1856, metadata !DIExpression()), !dbg !1858
  %_3 = load ptr, ptr %self, align 8, !dbg !1859, !nonnull !18, !align !483, !noundef !18
  %_4 = load ptr, ptr %other, align 8, !dbg !1860, !nonnull !18, !align !483, !noundef !18
; call core::cmp::impls::<impl core::cmp::PartialEq for u8>::eq
  %_0 = call zeroext i1 @"_ZN4core3cmp5impls53_$LT$impl$u20$core..cmp..PartialEq$u20$for$u20$u8$GT$2eq17h2e22ce9bc4eea750E"(ptr align 1 %_3, ptr align 1 %_4), !dbg !1861
  ret i1 %_0, !dbg !1862
}

; core::cmp::Ordering::then_with
; Function Attrs: inlinehint uwtable
define i8 @_ZN4core3cmp8Ordering9then_with17h1b98c9823e19db81E(i8 %0, ptr align 8 %f.0, ptr align 8 %f.1) unnamed_addr #0 !dbg !1863 {
start:
  %f.dbg.spill = alloca %"{closure@src/impls.rs:128:36: 128:38}", align 8
  %_0 = alloca i8, align 1
  %self = alloca i8, align 1
  store i8 %0, ptr %self, align 1
  call void @llvm.dbg.declare(metadata ptr %self, metadata !1877, metadata !DIExpression()), !dbg !1879
  store ptr %f.0, ptr %f.dbg.spill, align 8
  %1 = getelementptr inbounds i8, ptr %f.dbg.spill, i64 8
  store ptr %f.1, ptr %1, align 8
  call void @llvm.dbg.declare(metadata ptr %f.dbg.spill, metadata !1878, metadata !DIExpression()), !dbg !1880
  %_3 = load i8, ptr %self, align 1, !dbg !1881, !range !1365, !noundef !18
  %2 = icmp eq i8 %_3, 0, !dbg !1882
  br i1 %2, label %bb2, label %bb1, !dbg !1882

bb2:                                              ; preds = %start
; call semver::impls::<impl core::cmp::Ord for semver::BuildMetadata>::cmp::{{closure}}
  %3 = call i8 @"_ZN6semver5impls66_$LT$impl$u20$core..cmp..Ord$u20$for$u20$semver..BuildMetadata$GT$3cmp28_$u7b$$u7b$closure$u7d$$u7d$17h9e9bb17db7d89c74E"(ptr align 8 %f.0, ptr align 8 %f.1), !dbg !1883, !range !1365
  store i8 %3, ptr %_0, align 1, !dbg !1883
  br label %bb4, !dbg !1884

bb1:                                              ; preds = %start
  %4 = load i8, ptr %self, align 1, !dbg !1885, !range !1365, !noundef !18
  store i8 %4, ptr %_0, align 1, !dbg !1885
  br label %bb4, !dbg !1886

bb4:                                              ; preds = %bb1, %bb2
  %5 = load i8, ptr %_0, align 1, !dbg !1887, !range !1365, !noundef !18
  ret i8 %5, !dbg !1887
}

; core::cmp::Ordering::then_with
; Function Attrs: inlinehint uwtable
define i8 @_ZN4core3cmp8Ordering9then_with17h681207e221c8af4cE(i8 %0, ptr align 8 %f.0, ptr align 8 %f.1) unnamed_addr #0 !dbg !1888 {
start:
  %f.dbg.spill = alloca %"{closure@src/impls.rs:127:36: 127:38}", align 8
  %_0 = alloca i8, align 1
  %self = alloca i8, align 1
  store i8 %0, ptr %self, align 1
  call void @llvm.dbg.declare(metadata ptr %self, metadata !1899, metadata !DIExpression()), !dbg !1901
  store ptr %f.0, ptr %f.dbg.spill, align 8
  %1 = getelementptr inbounds i8, ptr %f.dbg.spill, i64 8
  store ptr %f.1, ptr %1, align 8
  call void @llvm.dbg.declare(metadata ptr %f.dbg.spill, metadata !1900, metadata !DIExpression()), !dbg !1902
  %_3 = load i8, ptr %self, align 1, !dbg !1903, !range !1365, !noundef !18
  %2 = icmp eq i8 %_3, 0, !dbg !1904
  br i1 %2, label %bb2, label %bb1, !dbg !1904

bb2:                                              ; preds = %start
; call semver::impls::<impl core::cmp::Ord for semver::BuildMetadata>::cmp::{{closure}}
  %3 = call i8 @"_ZN6semver5impls66_$LT$impl$u20$core..cmp..Ord$u20$for$u20$semver..BuildMetadata$GT$3cmp28_$u7b$$u7b$closure$u7d$$u7d$17h7b3f24fc54a86d51E"(ptr align 8 %f.0, ptr align 8 %f.1), !dbg !1905, !range !1365
  store i8 %3, ptr %_0, align 1, !dbg !1905
  br label %bb4, !dbg !1906

bb1:                                              ; preds = %start
  %4 = load i8, ptr %self, align 1, !dbg !1907, !range !1365, !noundef !18
  store i8 %4, ptr %_0, align 1, !dbg !1907
  br label %bb4, !dbg !1908

bb4:                                              ; preds = %bb1, %bb2
  %5 = load i8, ptr %_0, align 1, !dbg !1909, !range !1365, !noundef !18
  ret i8 %5, !dbg !1909
}

; core::cmp::Ordering::then_with
; Function Attrs: inlinehint uwtable
define i8 @_ZN4core3cmp8Ordering9then_with17hea2392a99615a6daE(i8 %0, ptr align 8 %f.0, ptr align 8 %f.1) unnamed_addr #0 !dbg !1910 {
start:
  %f.dbg.spill = alloca %"{closure@src/impls.rs:74:30: 74:32}", align 8
  %_0 = alloca i8, align 1
  %self = alloca i8, align 1
  store i8 %0, ptr %self, align 1
  call void @llvm.dbg.declare(metadata ptr %self, metadata !1923, metadata !DIExpression()), !dbg !1925
  store ptr %f.0, ptr %f.dbg.spill, align 8
  %1 = getelementptr inbounds i8, ptr %f.dbg.spill, i64 8
  store ptr %f.1, ptr %1, align 8
  call void @llvm.dbg.declare(metadata ptr %f.dbg.spill, metadata !1924, metadata !DIExpression()), !dbg !1926
  %_3 = load i8, ptr %self, align 1, !dbg !1927, !range !1365, !noundef !18
  %2 = icmp eq i8 %_3, 0, !dbg !1928
  br i1 %2, label %bb2, label %bb1, !dbg !1928

bb2:                                              ; preds = %start
; call core::ops::function::FnOnce::call_once
  %3 = call i8 @_ZN4core3ops8function6FnOnce9call_once17h86f325a2c6ab3d57E(ptr align 8 %f.0, ptr align 8 %f.1), !dbg !1929, !range !1365
  store i8 %3, ptr %_0, align 1, !dbg !1929
  br label %bb4, !dbg !1930

bb1:                                              ; preds = %start
  %4 = load i8, ptr %self, align 1, !dbg !1931, !range !1365, !noundef !18
  store i8 %4, ptr %_0, align 1, !dbg !1931
  br label %bb4, !dbg !1932

bb4:                                              ; preds = %bb1, %bb2
  %5 = load i8, ptr %_0, align 1, !dbg !1933, !range !1365, !noundef !18
  ret i8 %5, !dbg !1933
}

; core::cmp::PartialEq::ne
; Function Attrs: inlinehint uwtable
define zeroext i1 @_ZN4core3cmp9PartialEq2ne17h623473070a8ca7b1E(ptr align 8 %self, ptr align 8 %other) unnamed_addr #0 !dbg !1934 {
start:
  %other.dbg.spill = alloca ptr, align 8
  %self.dbg.spill = alloca ptr, align 8
  store ptr %self, ptr %self.dbg.spill, align 8
  call void @llvm.dbg.declare(metadata ptr %self.dbg.spill, metadata !1953, metadata !DIExpression()), !dbg !1958
  store ptr %other, ptr %other.dbg.spill, align 8
  call void @llvm.dbg.declare(metadata ptr %other.dbg.spill, metadata !1954, metadata !DIExpression()), !dbg !1959
; call <core::option::Option<T> as core::cmp::PartialEq>::eq
  %_3 = call zeroext i1 @"_ZN70_$LT$core..option..Option$LT$T$GT$$u20$as$u20$core..cmp..PartialEq$GT$2eq17h1a1b914bb3d69066E"(ptr align 8 %self, ptr align 8 %other), !dbg !1960
  %_0 = xor i1 %_3, true, !dbg !1961
  ret i1 %_0, !dbg !1962
}

; core::cmp::PartialEq::ne
; Function Attrs: inlinehint uwtable
define zeroext i1 @_ZN4core3cmp9PartialEq2ne17hd00c9bb4a48b85c8E(ptr align 1 %self, ptr align 1 %other) unnamed_addr #0 !dbg !1963 {
start:
  %other.dbg.spill = alloca ptr, align 8
  %self.dbg.spill = alloca ptr, align 8
  store ptr %self, ptr %self.dbg.spill, align 8
  call void @llvm.dbg.declare(metadata ptr %self.dbg.spill, metadata !1968, metadata !DIExpression()), !dbg !1973
  store ptr %other, ptr %other.dbg.spill, align 8
  call void @llvm.dbg.declare(metadata ptr %other.dbg.spill, metadata !1969, metadata !DIExpression()), !dbg !1974
; call <core::cmp::Ordering as core::cmp::PartialEq>::eq
  %_3 = call zeroext i1 @"_ZN60_$LT$core..cmp..Ordering$u20$as$u20$core..cmp..PartialEq$GT$2eq17hfdb8e331b8ed3c82E"(ptr align 1 %self, ptr align 1 %other), !dbg !1975
  %_0 = xor i1 %_3, true, !dbg !1976
  ret i1 %_0, !dbg !1977
}

; core::fmt::num::<impl core::fmt::Debug for u64>::fmt
; Function Attrs: inlinehint uwtable
define internal zeroext i1 @"_ZN4core3fmt3num50_$LT$impl$u20$core..fmt..Debug$u20$for$u20$u64$GT$3fmt17hf7fd86af0195d2b6E"(ptr align 8 %self, ptr align 8 %f) unnamed_addr #0 !dbg !1978 {
start:
  %f.dbg.spill = alloca ptr, align 8
  %self.dbg.spill = alloca ptr, align 8
  %_0 = alloca i8, align 1
  store ptr %self, ptr %self.dbg.spill, align 8
  call void @llvm.dbg.declare(metadata ptr %self.dbg.spill, metadata !1985, metadata !DIExpression()), !dbg !1987
  store ptr %f, ptr %f.dbg.spill, align 8
  call void @llvm.dbg.declare(metadata ptr %f.dbg.spill, metadata !1986, metadata !DIExpression()), !dbg !1988
  call void @llvm.dbg.declare(metadata ptr %f.dbg.spill, metadata !1989, metadata !DIExpression()), !dbg !1997
  call void @llvm.dbg.declare(metadata ptr %f.dbg.spill, metadata !1999, metadata !DIExpression()), !dbg !2004
  %0 = getelementptr inbounds i8, ptr %f, i64 52, !dbg !2006
  %_4 = load i32, ptr %0, align 4, !dbg !2006, !noundef !18
  %_3 = and i32 %_4, 16, !dbg !2006
  %1 = icmp eq i32 %_3, 0, !dbg !2007
  br i1 %1, label %bb2, label %bb1, !dbg !2007

bb2:                                              ; preds = %start
  %2 = getelementptr inbounds i8, ptr %f, i64 52, !dbg !2008
  %_6 = load i32, ptr %2, align 4, !dbg !2008, !noundef !18
  %_5 = and i32 %_6, 32, !dbg !2008
  %3 = icmp eq i32 %_5, 0, !dbg !2009
  br i1 %3, label %bb4, label %bb3, !dbg !2009

bb1:                                              ; preds = %start
; call core::fmt::num::<impl core::fmt::LowerHex for u64>::fmt
  %4 = call zeroext i1 @"_ZN4core3fmt3num53_$LT$impl$u20$core..fmt..LowerHex$u20$for$u20$u64$GT$3fmt17hc6b19774a8245548E"(ptr align 8 %self, ptr align 8 %f), !dbg !2010
  %5 = zext i1 %4 to i8, !dbg !2010
  store i8 %5, ptr %_0, align 1, !dbg !2010
  br label %bb6, !dbg !2010

bb4:                                              ; preds = %bb2
; call core::fmt::num::imp::<impl core::fmt::Display for u64>::fmt
  %6 = call zeroext i1 @"_ZN4core3fmt3num3imp52_$LT$impl$u20$core..fmt..Display$u20$for$u20$u64$GT$3fmt17h635a5ac542120a0cE"(ptr align 8 %self, ptr align 8 %f), !dbg !2011
  %7 = zext i1 %6 to i8, !dbg !2011
  store i8 %7, ptr %_0, align 1, !dbg !2011
  br label %bb5, !dbg !2011

bb3:                                              ; preds = %bb2
; call core::fmt::num::<impl core::fmt::UpperHex for u64>::fmt
  %8 = call zeroext i1 @"_ZN4core3fmt3num53_$LT$impl$u20$core..fmt..UpperHex$u20$for$u20$u64$GT$3fmt17h001640d84f411766E"(ptr align 8 %self, ptr align 8 %f), !dbg !2012
  %9 = zext i1 %8 to i8, !dbg !2012
  store i8 %9, ptr %_0, align 1, !dbg !2012
  br label %bb5, !dbg !2012

bb5:                                              ; preds = %bb3, %bb4
  br label %bb6, !dbg !2013

bb6:                                              ; preds = %bb1, %bb5
  %10 = load i8, ptr %_0, align 1, !dbg !2014, !range !242, !noundef !18
  %11 = trunc i8 %10 to i1, !dbg !2014
  ret i1 %11, !dbg !2014
}

; core::fmt::Arguments::as_const_str
; Function Attrs: inlinehint uwtable
define internal { ptr, i64 } @_ZN4core3fmt9Arguments12as_const_str17h5d1a7653f19ad68eE(ptr align 8 %self) unnamed_addr #0 !dbg !2015 {
start:
  %0 = alloca i8, align 1
  %self.dbg.spill2 = alloca ptr, align 8
  %s.dbg.spill = alloca ptr, align 8
  %self.dbg.spill = alloca ptr, align 8
  %_4 = alloca i8, align 1
  %s = alloca %"core::option::Option<&str>", align 8
  %_0 = alloca %"core::option::Option<&str>", align 8
  store ptr %self, ptr %self.dbg.spill, align 8
  call void @llvm.dbg.declare(metadata ptr %self.dbg.spill, metadata !2034, metadata !DIExpression()), !dbg !2037
  call void @llvm.dbg.declare(metadata ptr %self.dbg.spill, metadata !2038, metadata !DIExpression()), !dbg !2045
  call void @llvm.dbg.declare(metadata ptr %s, metadata !2035, metadata !DIExpression()), !dbg !2047
  %_6.0 = load ptr, ptr %self, align 8, !dbg !2048, !nonnull !18, !align !662, !noundef !18
  %1 = getelementptr inbounds i8, ptr %self, i64 8, !dbg !2048
  %_6.1 = load i64, ptr %1, align 8, !dbg !2048, !noundef !18
  %2 = getelementptr inbounds i8, ptr %self, i64 16, !dbg !2049
  %_7.0 = load ptr, ptr %2, align 8, !dbg !2049, !nonnull !18, !align !662, !noundef !18
  %3 = getelementptr inbounds i8, ptr %2, i64 8, !dbg !2049
  %_7.1 = load i64, ptr %3, align 8, !dbg !2049, !noundef !18
  %4 = icmp eq i64 %_6.1, 0, !dbg !2050
  br i1 %4, label %bb7, label %bb8, !dbg !2050

bb7:                                              ; preds = %start
  %5 = icmp eq i64 %_7.1, 0, !dbg !2051
  br i1 %5, label %bb10, label %bb6, !dbg !2051

bb8:                                              ; preds = %start
  %6 = icmp eq i64 %_6.1, 1, !dbg !2052
  br i1 %6, label %bb9, label %bb6, !dbg !2052

bb10:                                             ; preds = %bb7
  store ptr @alloc_513570631223a12912d85da2bec3b15a, ptr %s, align 8, !dbg !2053
  %7 = getelementptr inbounds i8, ptr %s, i64 8, !dbg !2053
  store i64 0, ptr %7, align 8, !dbg !2053
  br label %bb5, !dbg !2054

bb6:                                              ; preds = %bb9, %bb8, %bb7
  %8 = load ptr, ptr @0, align 8, !dbg !2055, !align !483, !noundef !18
  %9 = load i64, ptr getelementptr inbounds (i8, ptr @0, i64 8), align 8, !dbg !2055
  store ptr %8, ptr %s, align 8, !dbg !2055
  %10 = getelementptr inbounds i8, ptr %s, i64 8, !dbg !2055
  store i64 %9, ptr %10, align 8, !dbg !2055
  br label %bb5, !dbg !2055

bb5:                                              ; preds = %bb6, %bb11, %bb10
  store ptr %s, ptr %self.dbg.spill2, align 8, !dbg !2056
  call void @llvm.dbg.declare(metadata ptr %self.dbg.spill2, metadata !2057, metadata !DIExpression()), !dbg !2065
  %11 = load ptr, ptr %s, align 8, !dbg !2067, !noundef !18
  %12 = ptrtoint ptr %11 to i64, !dbg !2067
  %13 = icmp eq i64 %12, 0, !dbg !2067
  %_14 = select i1 %13, i64 0, i64 1, !dbg !2067
  %14 = icmp eq i64 %_14, 1, !dbg !2068
  br i1 %14, label %bb14, label %bb13, !dbg !2068

bb9:                                              ; preds = %bb8
  %15 = icmp eq i64 %_7.1, 0, !dbg !2069
  br i1 %15, label %bb11, label %bb6, !dbg !2069

bb11:                                             ; preds = %bb9
  %s1 = getelementptr inbounds [0 x { ptr, i64 }], ptr %_6.0, i64 0, i64 0, !dbg !2070
  store ptr %s1, ptr %s.dbg.spill, align 8, !dbg !2070
  call void @llvm.dbg.declare(metadata ptr %s.dbg.spill, metadata !2043, metadata !DIExpression()), !dbg !2071
  %16 = getelementptr inbounds [0 x { ptr, i64 }], ptr %_6.0, i64 0, i64 0, !dbg !2072
  %_13.0 = load ptr, ptr %16, align 8, !dbg !2072, !nonnull !18, !align !483, !noundef !18
  %17 = getelementptr inbounds i8, ptr %16, i64 8, !dbg !2072
  %_13.1 = load i64, ptr %17, align 8, !dbg !2072, !noundef !18
  store ptr %_13.0, ptr %s, align 8, !dbg !2073
  %18 = getelementptr inbounds i8, ptr %s, i64 8, !dbg !2073
  store i64 %_13.1, ptr %18, align 8, !dbg !2073
  br label %bb5, !dbg !2074

bb14:                                             ; preds = %bb5
  store i8 1, ptr %_4, align 1, !dbg !2068
  br label %bb12, !dbg !2068

bb13:                                             ; preds = %bb5
  store i8 0, ptr %_4, align 1, !dbg !2068
  br label %bb12, !dbg !2068

bb12:                                             ; preds = %bb13, %bb14
  %19 = load i8, ptr %_4, align 1, !dbg !2075, !range !242, !noundef !18
  %20 = trunc i8 %19 to i1, !dbg !2075
  %21 = call i1 @llvm.is.constant.i1(i1 %20), !dbg !2075
  %22 = zext i1 %21 to i8, !dbg !2075
  store i8 %22, ptr %0, align 1, !dbg !2075
  %23 = load i8, ptr %0, align 1, !dbg !2075, !range !242, !noundef !18
  %_3 = trunc i8 %23 to i1, !dbg !2075
  br i1 %_3, label %bb2, label %bb3, !dbg !2075

bb3:                                              ; preds = %bb12
  %24 = load ptr, ptr @0, align 8, !dbg !2076, !align !483, !noundef !18
  %25 = load i64, ptr getelementptr inbounds (i8, ptr @0, i64 8), align 8, !dbg !2076
  store ptr %24, ptr %_0, align 8, !dbg !2076
  %26 = getelementptr inbounds i8, ptr %_0, i64 8, !dbg !2076
  store i64 %25, ptr %26, align 8, !dbg !2076
  br label %bb4, !dbg !2077

bb2:                                              ; preds = %bb12
  %27 = load ptr, ptr %s, align 8, !dbg !2078, !align !483, !noundef !18
  %28 = getelementptr inbounds i8, ptr %s, i64 8, !dbg !2078
  %29 = load i64, ptr %28, align 8, !dbg !2078
  store ptr %27, ptr %_0, align 8, !dbg !2078
  %30 = getelementptr inbounds i8, ptr %_0, i64 8, !dbg !2078
  store i64 %29, ptr %30, align 8, !dbg !2078
  br label %bb4, !dbg !2077

bb4:                                              ; preds = %bb2, %bb3
  %31 = load ptr, ptr %_0, align 8, !dbg !2079, !align !483, !noundef !18
  %32 = getelementptr inbounds i8, ptr %_0, i64 8, !dbg !2079
  %33 = load i64, ptr %32, align 8, !dbg !2079
  %34 = insertvalue { ptr, i64 } poison, ptr %31, 0, !dbg !2079
  %35 = insertvalue { ptr, i64 } %34, i64 %33, 1, !dbg !2079
  ret { ptr, i64 } %35, !dbg !2079

bb15:                                             ; No predecessors!
  unreachable, !dbg !2080
}

; core::fmt::Arguments::new_v1
; Function Attrs: inlinehint uwtable
define internal void @_ZN4core3fmt9Arguments6new_v117h6d4e8763af3bc9b3E(ptr sret(%"core::fmt::Arguments<'_>") align 8 %_0, ptr align 8 %pieces.0, i64 %pieces.1, ptr align 8 %args.0, i64 %args.1) unnamed_addr #0 !dbg !2081 {
start:
  %pieces.dbg.spill1 = alloca { ptr, i64 }, align 8
  %args.dbg.spill = alloca { ptr, i64 }, align 8
  %pieces.dbg.spill = alloca { ptr, i64 }, align 8
  %_9 = alloca %"core::fmt::Arguments<'_>", align 8
  store ptr %pieces.0, ptr %pieces.dbg.spill, align 8
  %0 = getelementptr inbounds i8, ptr %pieces.dbg.spill, i64 8
  store i64 %pieces.1, ptr %0, align 8
  call void @llvm.dbg.declare(metadata ptr %pieces.dbg.spill, metadata !2086, metadata !DIExpression()), !dbg !2088
  store ptr %args.0, ptr %args.dbg.spill, align 8
  %1 = getelementptr inbounds i8, ptr %args.dbg.spill, i64 8
  store i64 %args.1, ptr %1, align 8
  call void @llvm.dbg.declare(metadata ptr %args.dbg.spill, metadata !2087, metadata !DIExpression()), !dbg !2089
  %_3 = icmp ult i64 %pieces.1, %args.1, !dbg !2090
  br i1 %_3, label %bb3, label %bb1, !dbg !2090

bb1:                                              ; preds = %start
  %_7 = add i64 %args.1, 1, !dbg !2091
  %_6 = icmp ugt i64 %pieces.1, %_7, !dbg !2092
  br i1 %_6, label %bb2, label %bb4, !dbg !2092

bb3:                                              ; preds = %bb2, %start
  store ptr @alloc_af99043bc04c419363a7f04d23183506, ptr %pieces.dbg.spill1, align 8, !dbg !2093
  %2 = getelementptr inbounds i8, ptr %pieces.dbg.spill1, i64 8, !dbg !2093
  store i64 1, ptr %2, align 8, !dbg !2093
  call void @llvm.dbg.declare(metadata ptr %pieces.dbg.spill1, metadata !2094, metadata !DIExpression()), !dbg !2098
  store ptr @alloc_af99043bc04c419363a7f04d23183506, ptr %_9, align 8, !dbg !2101
  %3 = getelementptr inbounds i8, ptr %_9, i64 8, !dbg !2101
  store i64 1, ptr %3, align 8, !dbg !2101
  %4 = load ptr, ptr @0, align 8, !dbg !2101, !align !662, !noundef !18
  %5 = load i64, ptr getelementptr inbounds (i8, ptr @0, i64 8), align 8, !dbg !2101
  %6 = getelementptr inbounds i8, ptr %_9, i64 32, !dbg !2101
  store ptr %4, ptr %6, align 8, !dbg !2101
  %7 = getelementptr inbounds i8, ptr %6, i64 8, !dbg !2101
  store i64 %5, ptr %7, align 8, !dbg !2101
  %8 = getelementptr inbounds i8, ptr %_9, i64 16, !dbg !2101
  store ptr @alloc_513570631223a12912d85da2bec3b15a, ptr %8, align 8, !dbg !2101
  %9 = getelementptr inbounds i8, ptr %8, i64 8, !dbg !2101
  store i64 0, ptr %9, align 8, !dbg !2101
; call core::panicking::panic_fmt
  call void @_ZN4core9panicking9panic_fmt17ha6d62ade15192290E(ptr align 8 %_9, ptr align 8 @alloc_4ba2c5ddff77a51f3765b0dd5f2851cc) #21, !dbg !2102
  unreachable, !dbg !2102

bb4:                                              ; preds = %bb1
  store ptr %pieces.0, ptr %_0, align 8, !dbg !2103
  %10 = getelementptr inbounds i8, ptr %_0, i64 8, !dbg !2103
  store i64 %pieces.1, ptr %10, align 8, !dbg !2103
  %11 = load ptr, ptr @0, align 8, !dbg !2103, !align !662, !noundef !18
  %12 = load i64, ptr getelementptr inbounds (i8, ptr @0, i64 8), align 8, !dbg !2103
  %13 = getelementptr inbounds i8, ptr %_0, i64 32, !dbg !2103
  store ptr %11, ptr %13, align 8, !dbg !2103
  %14 = getelementptr inbounds i8, ptr %13, i64 8, !dbg !2103
  store i64 %12, ptr %14, align 8, !dbg !2103
  %15 = getelementptr inbounds i8, ptr %_0, i64 16, !dbg !2103
  store ptr %args.0, ptr %15, align 8, !dbg !2103
  %16 = getelementptr inbounds i8, ptr %15, i64 8, !dbg !2103
  store i64 %args.1, ptr %16, align 8, !dbg !2103
  ret void, !dbg !2104

bb2:                                              ; preds = %bb1
  br label %bb3, !dbg !2105
}

; core::fmt::Formatter::fill
; Function Attrs: uwtable
define internal i32 @_ZN4core3fmt9Formatter4fill17h10bdbed1c4abbb85E(ptr align 8 %self) unnamed_addr #1 !dbg !2106 {
start:
  %self.dbg.spill = alloca ptr, align 8
  store ptr %self, ptr %self.dbg.spill, align 8
  call void @llvm.dbg.declare(metadata ptr %self.dbg.spill, metadata !2111, metadata !DIExpression()), !dbg !2112
  %0 = getelementptr inbounds i8, ptr %self, i64 48, !dbg !2113
  %_0 = load i32, ptr %0, align 8, !dbg !2113, !range !2114, !noundef !18
  ret i32 %_0, !dbg !2115
}

; core::fmt::Formatter::align
; Function Attrs: uwtable
define internal i8 @_ZN4core3fmt9Formatter5align17h8b09d6ed9a81b667E(ptr align 8 %self) unnamed_addr #1 !dbg !2116 {
start:
  %self.dbg.spill = alloca ptr, align 8
  %_0 = alloca i8, align 1
  store ptr %self, ptr %self.dbg.spill, align 8
  call void @llvm.dbg.declare(metadata ptr %self.dbg.spill, metadata !2134, metadata !DIExpression()), !dbg !2135
  %0 = getelementptr inbounds i8, ptr %self, i64 56, !dbg !2136
  %1 = load i8, ptr %0, align 8, !dbg !2136, !range !2137, !noundef !18
  %_2 = zext i8 %1 to i64, !dbg !2136
  switch i64 %_2, label %bb1 [
    i64 0, label %bb3
    i64 1, label %bb4
    i64 2, label %bb5
    i64 3, label %bb2
  ], !dbg !2138

bb1:                                              ; preds = %start
  unreachable, !dbg !2136

bb3:                                              ; preds = %start
  store i8 0, ptr %_0, align 1, !dbg !2139
  br label %bb6, !dbg !2140

bb4:                                              ; preds = %start
  store i8 1, ptr %_0, align 1, !dbg !2141
  br label %bb6, !dbg !2142

bb5:                                              ; preds = %start
  store i8 2, ptr %_0, align 1, !dbg !2143
  br label %bb6, !dbg !2144

bb2:                                              ; preds = %start
  store i8 3, ptr %_0, align 1, !dbg !2145
  br label %bb6, !dbg !2145

bb6:                                              ; preds = %bb2, %bb5, %bb4, %bb3
  %2 = load i8, ptr %_0, align 1, !dbg !2146, !range !2137, !noundef !18
  ret i8 %2, !dbg !2146
}

; core::fmt::Formatter::width
; Function Attrs: uwtable
define internal { i64, i64 } @_ZN4core3fmt9Formatter5width17hc8412cbc89b858a6E(ptr align 8 %self) unnamed_addr #1 !dbg !2147 {
start:
  %self.dbg.spill = alloca ptr, align 8
  store ptr %self, ptr %self.dbg.spill, align 8
  call void @llvm.dbg.declare(metadata ptr %self.dbg.spill, metadata !2152, metadata !DIExpression()), !dbg !2153
  %_0.0 = load i64, ptr %self, align 8, !dbg !2154, !range !2155, !noundef !18
  %0 = getelementptr inbounds i8, ptr %self, i64 8, !dbg !2154
  %_0.1 = load i64, ptr %0, align 8, !dbg !2154
  %1 = insertvalue { i64, i64 } poison, i64 %_0.0, 0, !dbg !2156
  %2 = insertvalue { i64, i64 } %1, i64 %_0.1, 1, !dbg !2156
  ret { i64, i64 } %2, !dbg !2156
}

; core::fmt::Formatter::write_fmt
; Function Attrs: inlinehint uwtable
define internal zeroext i1 @_ZN4core3fmt9Formatter9write_fmt17h6b448dcfc72587b0E(ptr align 8 %self, ptr align 8 %fmt) unnamed_addr #0 !dbg !2157 {
start:
  %s.dbg.spill = alloca { ptr, i64 }, align 8
  %self.dbg.spill = alloca ptr, align 8
  %_7 = alloca %"core::fmt::Arguments<'_>", align 8
  %_3 = alloca %"core::option::Option<&str>", align 8
  %_0 = alloca i8, align 1
  store ptr %self, ptr %self.dbg.spill, align 8
  call void @llvm.dbg.declare(metadata ptr %self.dbg.spill, metadata !2162, metadata !DIExpression()), !dbg !2166
  call void @llvm.dbg.declare(metadata ptr %fmt, metadata !2163, metadata !DIExpression()), !dbg !2167
; call core::fmt::Arguments::as_const_str
  %0 = call { ptr, i64 } @_ZN4core3fmt9Arguments12as_const_str17h5d1a7653f19ad68eE(ptr align 8 %fmt), !dbg !2168
  %1 = extractvalue { ptr, i64 } %0, 0, !dbg !2168
  %2 = extractvalue { ptr, i64 } %0, 1, !dbg !2168
  store ptr %1, ptr %_3, align 8, !dbg !2168
  %3 = getelementptr inbounds i8, ptr %_3, i64 8, !dbg !2168
  store i64 %2, ptr %3, align 8, !dbg !2168
  %4 = load ptr, ptr %_3, align 8, !dbg !2169, !noundef !18
  %5 = ptrtoint ptr %4 to i64, !dbg !2169
  %6 = icmp eq i64 %5, 0, !dbg !2169
  %_5 = select i1 %6, i64 0, i64 1, !dbg !2169
  %7 = icmp eq i64 %_5, 1, !dbg !2169
  br i1 %7, label %bb2, label %bb3, !dbg !2169

bb2:                                              ; preds = %start
  %s.0 = load ptr, ptr %_3, align 8, !dbg !2170, !nonnull !18, !align !483, !noundef !18
  %8 = getelementptr inbounds i8, ptr %_3, i64 8, !dbg !2170
  %s.1 = load i64, ptr %8, align 8, !dbg !2170, !noundef !18
  store ptr %s.0, ptr %s.dbg.spill, align 8, !dbg !2170
  %9 = getelementptr inbounds i8, ptr %s.dbg.spill, i64 8, !dbg !2170
  store i64 %s.1, ptr %9, align 8, !dbg !2170
  call void @llvm.dbg.declare(metadata ptr %s.dbg.spill, metadata !2164, metadata !DIExpression()), !dbg !2170
  %10 = getelementptr inbounds i8, ptr %self, i64 32, !dbg !2171
  %_8.0 = load ptr, ptr %10, align 8, !dbg !2171, !nonnull !18, !align !483, !noundef !18
  %11 = getelementptr inbounds i8, ptr %10, i64 8, !dbg !2171
  %_8.1 = load ptr, ptr %11, align 8, !dbg !2171, !nonnull !18, !align !662, !noundef !18
  %12 = getelementptr inbounds ptr, ptr %_8.1, i64 3, !dbg !2171
  %13 = load ptr, ptr %12, align 8, !dbg !2171, !invariant.load !18, !nonnull !18
  %14 = call zeroext i1 %13(ptr align 1 %_8.0, ptr align 1 %s.0, i64 %s.1), !dbg !2171
  %15 = zext i1 %14 to i8, !dbg !2171
  store i8 %15, ptr %_0, align 1, !dbg !2171
  br label %bb5, !dbg !2171

bb3:                                              ; preds = %start
  %16 = getelementptr inbounds i8, ptr %self, i64 32, !dbg !2172
  %_9.0 = load ptr, ptr %16, align 8, !dbg !2172, !nonnull !18, !align !483, !noundef !18
  %17 = getelementptr inbounds i8, ptr %16, i64 8, !dbg !2172
  %_9.1 = load ptr, ptr %17, align 8, !dbg !2172, !nonnull !18, !align !662, !noundef !18
  call void @llvm.memcpy.p0.p0.i64(ptr align 8 %_7, ptr align 8 %fmt, i64 48, i1 false), !dbg !2173
; call core::fmt::write
  %18 = call zeroext i1 @_ZN4core3fmt5write17hd3417f5223b3b5daE(ptr align 1 %_9.0, ptr align 8 %_9.1, ptr align 8 %_7), !dbg !2174
  %19 = zext i1 %18 to i8, !dbg !2174
  store i8 %19, ptr %_0, align 1, !dbg !2174
  br label %bb5, !dbg !2175

bb5:                                              ; preds = %bb3, %bb2
  %20 = load i8, ptr %_0, align 1, !dbg !2176, !range !242, !noundef !18
  %21 = trunc i8 %20 to i1, !dbg !2176
  ret i1 %21, !dbg !2176

bb6:                                              ; No predecessors!
  unreachable, !dbg !2177
}

; core::mem::forget
; Function Attrs: inlinehint uwtable
define void @_ZN4core3mem6forget17h5b5f67e9f7d6ecf3E(i64 %0) unnamed_addr #0 !dbg !2178 {
start:
  %1 = alloca i64, align 8
  %t = alloca %"identifier::Identifier", align 8
  store i64 %0, ptr %1, align 8
  call void @llvm.memcpy.p0.p0.i64(ptr align 8 %t, ptr align 8 %1, i64 8, i1 false)
  call void @llvm.dbg.declare(metadata ptr %t, metadata !2184, metadata !DIExpression()), !dbg !2187
  call void @llvm.dbg.declare(metadata ptr %t, metadata !2188, metadata !DIExpression()), !dbg !2200
  ret void, !dbg !2202
}

; core::num::<impl u8>::is_ascii_digit
; Function Attrs: inlinehint uwtable
define internal zeroext i1 @"_ZN4core3num20_$LT$impl$u20$u8$GT$14is_ascii_digit17hf218b36e08f2c9f0E"(ptr align 1 %self) unnamed_addr #0 !dbg !2203 {
start:
  %self.dbg.spill = alloca ptr, align 8
  %_0 = alloca i8, align 1
  store ptr %self, ptr %self.dbg.spill, align 8
  call void @llvm.dbg.declare(metadata ptr %self.dbg.spill, metadata !2208, metadata !DIExpression()), !dbg !2209
  %0 = load i8, ptr %self, align 1, !dbg !2210, !noundef !18
  %_2 = icmp ule i8 48, %0, !dbg !2210
  br i1 %_2, label %bb2, label %bb1, !dbg !2210

bb1:                                              ; preds = %start
  store i8 0, ptr %_0, align 1, !dbg !2211
  br label %bb3, !dbg !2211

bb2:                                              ; preds = %start
  %1 = load i8, ptr %self, align 1, !dbg !2210, !noundef !18
  %_3 = icmp ule i8 %1, 57, !dbg !2210
  %2 = zext i1 %_3 to i8, !dbg !2211
  store i8 %2, ptr %_0, align 1, !dbg !2211
  br label %bb3, !dbg !2210

bb3:                                              ; preds = %bb2, %bb1
  %3 = load i8, ptr %_0, align 1, !dbg !2212, !range !242, !noundef !18
  %4 = trunc i8 %3 to i1, !dbg !2212
  ret i1 %4, !dbg !2212
}

; core::num::<impl u64>::checked_add
; Function Attrs: inlinehint uwtable
define internal { i64, i64 } @"_ZN4core3num21_$LT$impl$u20$u64$GT$11checked_add17h5b33047b6691e368E"(i64 %self, i64 %rhs) unnamed_addr #0 !dbg !2213 {
start:
  %0 = alloca i8, align 1
  %b.dbg.spill = alloca i8, align 1
  %a.dbg.spill = alloca i64, align 8
  %rhs.dbg.spill = alloca i64, align 8
  %self.dbg.spill = alloca i64, align 8
  %_0 = alloca %"core::option::Option<u64>", align 8
  store i64 %self, ptr %self.dbg.spill, align 8
  call void @llvm.dbg.declare(metadata ptr %self.dbg.spill, metadata !2218, metadata !DIExpression()), !dbg !2223
  call void @llvm.dbg.declare(metadata ptr %self.dbg.spill, metadata !2224, metadata !DIExpression()), !dbg !2238
  store i64 %rhs, ptr %rhs.dbg.spill, align 8
  call void @llvm.dbg.declare(metadata ptr %rhs.dbg.spill, metadata !2219, metadata !DIExpression()), !dbg !2240
  call void @llvm.dbg.declare(metadata ptr %rhs.dbg.spill, metadata !2234, metadata !DIExpression()), !dbg !2241
  %1 = call { i64, i1 } @llvm.uadd.with.overflow.i64(i64 %self, i64 %rhs), !dbg !2242
  %_6.0 = extractvalue { i64, i1 } %1, 0, !dbg !2242
  %_6.1 = extractvalue { i64, i1 } %1, 1, !dbg !2242
  store i64 %_6.0, ptr %a.dbg.spill, align 8, !dbg !2243
  call void @llvm.dbg.declare(metadata ptr %a.dbg.spill, metadata !2220, metadata !DIExpression()), !dbg !2244
  call void @llvm.dbg.declare(metadata ptr %a.dbg.spill, metadata !2235, metadata !DIExpression()), !dbg !2245
  %2 = zext i1 %_6.1 to i8, !dbg !2246
  store i8 %2, ptr %b.dbg.spill, align 1, !dbg !2246
  call void @llvm.dbg.declare(metadata ptr %b.dbg.spill, metadata !2222, metadata !DIExpression()), !dbg !2247
  call void @llvm.dbg.declare(metadata ptr %b.dbg.spill, metadata !2237, metadata !DIExpression()), !dbg !2248
  %3 = call i1 @llvm.expect.i1(i1 %_6.1, i1 false), !dbg !2249
  %4 = zext i1 %3 to i8, !dbg !2249
  store i8 %4, ptr %0, align 1, !dbg !2249
  %5 = load i8, ptr %0, align 1, !dbg !2249, !range !242, !noundef !18
  %_3 = trunc i8 %5 to i1, !dbg !2249
  br i1 %_3, label %bb2, label %bb3, !dbg !2249

bb3:                                              ; preds = %start
  %6 = getelementptr inbounds i8, ptr %_0, i64 8, !dbg !2250
  store i64 %_6.0, ptr %6, align 8, !dbg !2250
  store i64 1, ptr %_0, align 8, !dbg !2250
  br label %bb4, !dbg !2251

bb2:                                              ; preds = %start
  %7 = load i64, ptr @0, align 8, !dbg !2252, !range !2155, !noundef !18
  %8 = load i64, ptr getelementptr inbounds (i8, ptr @0, i64 8), align 8, !dbg !2252
  store i64 %7, ptr %_0, align 8, !dbg !2252
  %9 = getelementptr inbounds i8, ptr %_0, i64 8, !dbg !2252
  store i64 %8, ptr %9, align 8, !dbg !2252
  br label %bb4, !dbg !2251

bb4:                                              ; preds = %bb2, %bb3
  %10 = load i64, ptr %_0, align 8, !dbg !2253, !range !2155, !noundef !18
  %11 = getelementptr inbounds i8, ptr %_0, i64 8, !dbg !2253
  %12 = load i64, ptr %11, align 8, !dbg !2253
  %13 = insertvalue { i64, i64 } poison, i64 %10, 0, !dbg !2253
  %14 = insertvalue { i64, i64 } %13, i64 %12, 1, !dbg !2253
  ret { i64, i64 } %14, !dbg !2253
}

; core::num::<impl u64>::checked_mul
; Function Attrs: inlinehint uwtable
define internal { i64, i64 } @"_ZN4core3num21_$LT$impl$u20$u64$GT$11checked_mul17hd9a983e53d58485dE"(i64 %self, i64 %rhs) unnamed_addr #0 !dbg !2254 {
start:
  %0 = alloca i8, align 1
  %b.dbg.spill = alloca i8, align 1
  %a.dbg.spill = alloca i64, align 8
  %rhs.dbg.spill = alloca i64, align 8
  %self.dbg.spill = alloca i64, align 8
  %_0 = alloca %"core::option::Option<u64>", align 8
  store i64 %self, ptr %self.dbg.spill, align 8
  call void @llvm.dbg.declare(metadata ptr %self.dbg.spill, metadata !2256, metadata !DIExpression()), !dbg !2261
  call void @llvm.dbg.declare(metadata ptr %self.dbg.spill, metadata !2262, metadata !DIExpression()), !dbg !2270
  store i64 %rhs, ptr %rhs.dbg.spill, align 8
  call void @llvm.dbg.declare(metadata ptr %rhs.dbg.spill, metadata !2257, metadata !DIExpression()), !dbg !2272
  call void @llvm.dbg.declare(metadata ptr %rhs.dbg.spill, metadata !2266, metadata !DIExpression()), !dbg !2273
  %1 = call { i64, i1 } @llvm.umul.with.overflow.i64(i64 %self, i64 %rhs), !dbg !2274
  %_6.0 = extractvalue { i64, i1 } %1, 0, !dbg !2274
  %_6.1 = extractvalue { i64, i1 } %1, 1, !dbg !2274
  store i64 %_6.0, ptr %a.dbg.spill, align 8, !dbg !2275
  call void @llvm.dbg.declare(metadata ptr %a.dbg.spill, metadata !2258, metadata !DIExpression()), !dbg !2276
  call void @llvm.dbg.declare(metadata ptr %a.dbg.spill, metadata !2267, metadata !DIExpression()), !dbg !2277
  %2 = zext i1 %_6.1 to i8, !dbg !2278
  store i8 %2, ptr %b.dbg.spill, align 1, !dbg !2278
  call void @llvm.dbg.declare(metadata ptr %b.dbg.spill, metadata !2260, metadata !DIExpression()), !dbg !2279
  call void @llvm.dbg.declare(metadata ptr %b.dbg.spill, metadata !2269, metadata !DIExpression()), !dbg !2280
  %3 = call i1 @llvm.expect.i1(i1 %_6.1, i1 false), !dbg !2281
  %4 = zext i1 %3 to i8, !dbg !2281
  store i8 %4, ptr %0, align 1, !dbg !2281
  %5 = load i8, ptr %0, align 1, !dbg !2281, !range !242, !noundef !18
  %_3 = trunc i8 %5 to i1, !dbg !2281
  br i1 %_3, label %bb2, label %bb3, !dbg !2281

bb3:                                              ; preds = %start
  %6 = getelementptr inbounds i8, ptr %_0, i64 8, !dbg !2282
  store i64 %_6.0, ptr %6, align 8, !dbg !2282
  store i64 1, ptr %_0, align 8, !dbg !2282
  br label %bb4, !dbg !2283

bb2:                                              ; preds = %start
  %7 = load i64, ptr @0, align 8, !dbg !2284, !range !2155, !noundef !18
  %8 = load i64, ptr getelementptr inbounds (i8, ptr @0, i64 8), align 8, !dbg !2284
  store i64 %7, ptr %_0, align 8, !dbg !2284
  %9 = getelementptr inbounds i8, ptr %_0, i64 8, !dbg !2284
  store i64 %8, ptr %9, align 8, !dbg !2284
  br label %bb4, !dbg !2283

bb4:                                              ; preds = %bb2, %bb3
  %10 = load i64, ptr %_0, align 8, !dbg !2285, !range !2155, !noundef !18
  %11 = getelementptr inbounds i8, ptr %_0, i64 8, !dbg !2285
  %12 = load i64, ptr %11, align 8, !dbg !2285
  %13 = insertvalue { i64, i64 } poison, i64 %10, 0, !dbg !2285
  %14 = insertvalue { i64, i64 } %13, i64 %12, 1, !dbg !2285
  ret { i64, i64 } %14, !dbg !2285
}

; core::num::nonzero::NonZero<T>::new_unchecked
; Function Attrs: inlinehint uwtable
define i64 @"_ZN4core3num7nonzero16NonZero$LT$T$GT$13new_unchecked17hfccda4d35f4c04a5E"(i64 %n) unnamed_addr #0 !dbg !2286 {
start:
  %n.dbg.spill2 = alloca i64, align 8
  %n.dbg.spill = alloca i64, align 8
  %_2 = alloca i64, align 8
  store i64 %n, ptr %n.dbg.spill, align 8
  call void @llvm.dbg.declare(metadata ptr %n.dbg.spill, metadata !2296, metadata !DIExpression()), !dbg !2299
  call void @llvm.dbg.declare(metadata ptr %n.dbg.spill, metadata !2300, metadata !DIExpression()), !dbg !2320
  store i64 %n, ptr %_2, align 8, !dbg !2322
  %0 = load i64, ptr %_2, align 8, !dbg !2321, !noundef !18
  %1 = icmp eq i64 %0, 0, !dbg !2321
  %_3 = select i1 %1, i64 0, i64 1, !dbg !2321
  %2 = icmp eq i64 %_3, 0, !dbg !2323
  br i1 %2, label %bb2, label %bb3, !dbg !2323

bb2:                                              ; preds = %start
; call core::num::nonzero::NonZero<T>::new_unchecked::precondition_check
  call void @"_ZN4core3num7nonzero16NonZero$LT$T$GT$13new_unchecked18precondition_check17h1a2c9f90aa63e3d2E"() #23, !dbg !2324
  br label %bb1, !dbg !2324

bb3:                                              ; preds = %start
  %n1 = load i64, ptr %_2, align 8, !dbg !2325, !range !2326, !noundef !18
  store i64 %n1, ptr %n.dbg.spill2, align 8, !dbg !2325
  call void @llvm.dbg.declare(metadata ptr %n.dbg.spill2, metadata !2297, metadata !DIExpression()), !dbg !2327
  ret i64 %n1, !dbg !2328

bb1:                                              ; preds = %bb2
  unreachable, !dbg !2321
}

; core::num::nonzero::NonZero<T>::new_unchecked::precondition_check
; Function Attrs: inlinehint nounwind uwtable
define internal void @"_ZN4core3num7nonzero16NonZero$LT$T$GT$13new_unchecked18precondition_check17h1a2c9f90aa63e3d2E"() unnamed_addr #2 !dbg !2329 {
start:
; call core::panicking::panic_nounwind
  call void @_ZN4core9panicking14panic_nounwind17h50c31e15afde233eE(ptr align 1 @alloc_d83bad394aa3743d4316ebb57a3b65ab, i64 92) #20, !dbg !2334
  unreachable, !dbg !2334
}

; core::num::nonzero::NonZero<T>::get
; Function Attrs: inlinehint uwtable
define i64 @"_ZN4core3num7nonzero16NonZero$LT$T$GT$3get17h38b0718567c99a36E"(i64 %self) unnamed_addr #0 !dbg !2335 {
start:
  %n.dbg.spill1 = alloca i64, align 8
  %n.dbg.spill = alloca i64, align 8
  %self.dbg.spill = alloca i64, align 8
  %_2 = alloca i64, align 8
  store i64 %self, ptr %self.dbg.spill, align 8
  call void @llvm.dbg.declare(metadata ptr %self.dbg.spill, metadata !2340, metadata !DIExpression()), !dbg !2343
  store i64 %self, ptr %n.dbg.spill, align 8, !dbg !2344
  call void @llvm.dbg.declare(metadata ptr %n.dbg.spill, metadata !2345, metadata !DIExpression()), !dbg !2349
  store i64 %self, ptr %_2, align 8, !dbg !2351
  %0 = load i64, ptr %_2, align 8, !dbg !2350, !noundef !18
  %1 = icmp eq i64 %0, 0, !dbg !2350
  %_4 = select i1 %1, i64 0, i64 1, !dbg !2350
  %_5 = icmp eq i64 %_4, 1, !dbg !2352
  %n = load i64, ptr %_2, align 8, !dbg !2353, !noundef !18
  store i64 %n, ptr %n.dbg.spill1, align 8, !dbg !2353
  call void @llvm.dbg.declare(metadata ptr %n.dbg.spill1, metadata !2341, metadata !DIExpression()), !dbg !2354
  ret i64 %n, !dbg !2355
}

; core::num::nonzero::NonZero<u64>::leading_zeros
; Function Attrs: inlinehint uwtable
define internal i32 @"_ZN4core3num7nonzero18NonZero$LT$u64$GT$13leading_zeros17h3fa7737686d1e048E"(i64 %self) unnamed_addr #0 !dbg !2356 {
start:
  %0 = alloca i64, align 8
  %n.dbg.spill1 = alloca i64, align 8
  %n.dbg.spill = alloca i64, align 8
  %self.dbg.spill = alloca i64, align 8
  %_4 = alloca i64, align 8
  store i64 %self, ptr %self.dbg.spill, align 8
  call void @llvm.dbg.declare(metadata ptr %self.dbg.spill, metadata !2364, metadata !DIExpression()), !dbg !2365
  call void @llvm.dbg.declare(metadata ptr %self.dbg.spill, metadata !2366, metadata !DIExpression()), !dbg !2375
  store i64 %self, ptr %n.dbg.spill, align 8, !dbg !2377
  call void @llvm.dbg.declare(metadata ptr %n.dbg.spill, metadata !2378, metadata !DIExpression()), !dbg !2398
  store i64 %self, ptr %_4, align 8, !dbg !2400
  %1 = load i64, ptr %_4, align 8, !dbg !2399, !noundef !18
  %2 = icmp eq i64 %1, 0, !dbg !2399
  %_6 = select i1 %2, i64 0, i64 1, !dbg !2399
  %_7 = icmp eq i64 %_6, 1, !dbg !2401
  %n = load i64, ptr %_4, align 8, !dbg !2402, !noundef !18
  store i64 %n, ptr %n.dbg.spill1, align 8, !dbg !2402
  call void @llvm.dbg.declare(metadata ptr %n.dbg.spill1, metadata !2373, metadata !DIExpression()), !dbg !2403
  %3 = call i64 @llvm.ctlz.i64(i64 %n, i1 true), !dbg !2404
  store i64 %3, ptr %0, align 8, !dbg !2404
  %_2 = load i64, ptr %0, align 8, !dbg !2404, !noundef !18
  %_0 = trunc i64 %_2 to i32, !dbg !2404
  ret i32 %_0, !dbg !2405
}

; core::num::nonzero::NonZero<usize>::leading_zeros
; Function Attrs: inlinehint uwtable
define internal i32 @"_ZN4core3num7nonzero20NonZero$LT$usize$GT$13leading_zeros17h1fb6c81419c63759E"(i64 %self) unnamed_addr #0 !dbg !2406 {
start:
  %0 = alloca i64, align 8
  %n.dbg.spill1 = alloca i64, align 8
  %n.dbg.spill = alloca i64, align 8
  %self.dbg.spill = alloca i64, align 8
  %_4 = alloca i64, align 8
  store i64 %self, ptr %self.dbg.spill, align 8
  call void @llvm.dbg.declare(metadata ptr %self.dbg.spill, metadata !2411, metadata !DIExpression()), !dbg !2412
  call void @llvm.dbg.declare(metadata ptr %self.dbg.spill, metadata !2413, metadata !DIExpression()), !dbg !2419
  store i64 %self, ptr %n.dbg.spill, align 8, !dbg !2421
  call void @llvm.dbg.declare(metadata ptr %n.dbg.spill, metadata !2422, metadata !DIExpression()), !dbg !2426
  store i64 %self, ptr %_4, align 8, !dbg !2428
  %1 = load i64, ptr %_4, align 8, !dbg !2427, !noundef !18
  %2 = icmp eq i64 %1, 0, !dbg !2427
  %_6 = select i1 %2, i64 0, i64 1, !dbg !2427
  %_7 = icmp eq i64 %_6, 1, !dbg !2429
  %n = load i64, ptr %_4, align 8, !dbg !2430, !noundef !18
  store i64 %n, ptr %n.dbg.spill1, align 8, !dbg !2430
  call void @llvm.dbg.declare(metadata ptr %n.dbg.spill1, metadata !2417, metadata !DIExpression()), !dbg !2431
  %3 = call i64 @llvm.ctlz.i64(i64 %n, i1 true), !dbg !2432
  store i64 %3, ptr %0, align 8, !dbg !2432
  %_2 = load i64, ptr %0, align 8, !dbg !2432, !noundef !18
  %_0 = trunc i64 %_2 to i32, !dbg !2432
  ret i32 %_0, !dbg !2433
}

; core::ops::function::FnOnce::call_once
; Function Attrs: inlinehint uwtable
define internal zeroext i1 @_ZN4core3ops8function6FnOnce9call_once17h74bbbdf24ca4d274E(ptr align 8 %0, ptr align 8 %1) unnamed_addr #0 personality ptr @rust_eh_personality !dbg !2434 {
start:
  %2 = alloca { ptr, i32, [1 x i32] }, align 8
  %_2 = alloca ptr, align 8
  %_1 = alloca ptr, align 8
  store ptr %0, ptr %_1, align 8
  store ptr %1, ptr %_2, align 8
  call void @llvm.dbg.declare(metadata ptr %_1, metadata !2449, metadata !DIExpression()), !dbg !2457
  call void @llvm.dbg.declare(metadata ptr %_2, metadata !2450, metadata !DIExpression()), !dbg !2457
  %3 = load ptr, ptr %_2, align 8, !dbg !2457, !nonnull !18, !align !662, !noundef !18
; invoke semver::display::<impl core::fmt::Display for semver::Version>::fmt::{{closure}}
  %_0 = invoke zeroext i1 @"_ZN6semver7display64_$LT$impl$u20$core..fmt..Display$u20$for$u20$semver..Version$GT$3fmt28_$u7b$$u7b$closure$u7d$$u7d$17hfd633d48ebb6953dE"(ptr align 8 %_1, ptr align 8 %3)
          to label %bb1 unwind label %cleanup, !dbg !2457

bb3:                                              ; preds = %cleanup
  %4 = load ptr, ptr %2, align 8, !dbg !2457, !noundef !18
  %5 = getelementptr inbounds i8, ptr %2, i64 8, !dbg !2457
  %6 = load i32, ptr %5, align 8, !dbg !2457, !noundef !18
  %7 = insertvalue { ptr, i32 } poison, ptr %4, 0, !dbg !2457
  %8 = insertvalue { ptr, i32 } %7, i32 %6, 1, !dbg !2457
  resume { ptr, i32 } %8, !dbg !2457

cleanup:                                          ; preds = %start
  %9 = landingpad { ptr, i32 }
          cleanup
  %10 = extractvalue { ptr, i32 } %9, 0
  %11 = extractvalue { ptr, i32 } %9, 1
  store ptr %10, ptr %2, align 8
  %12 = getelementptr inbounds i8, ptr %2, i64 8
  store i32 %11, ptr %12, align 8
  br label %bb3

bb1:                                              ; preds = %start
  ret i1 %_0, !dbg !2457
}

; core::ops::function::FnOnce::call_once
; Function Attrs: inlinehint uwtable
define internal i8 @_ZN4core3ops8function6FnOnce9call_once17h86f325a2c6ab3d57E(ptr align 8 %0, ptr align 8 %1) unnamed_addr #0 personality ptr @rust_eh_personality !dbg !2458 {
start:
  %2 = alloca { ptr, i32, [1 x i32] }, align 8
  %_2 = alloca {}, align 1
  %_1 = alloca %"{closure@src/impls.rs:74:30: 74:32}", align 8
  store ptr %0, ptr %_1, align 8
  %3 = getelementptr inbounds i8, ptr %_1, i64 8
  store ptr %1, ptr %3, align 8
  call void @llvm.dbg.declare(metadata ptr %_1, metadata !2462, metadata !DIExpression()), !dbg !2467
  call void @llvm.dbg.declare(metadata ptr %_2, metadata !2463, metadata !DIExpression()), !dbg !2467
; invoke semver::impls::<impl core::cmp::Ord for semver::Prerelease>::cmp::{{closure}}
  %_0 = invoke i8 @"_ZN6semver5impls63_$LT$impl$u20$core..cmp..Ord$u20$for$u20$semver..Prerelease$GT$3cmp28_$u7b$$u7b$closure$u7d$$u7d$17hea9eeb5d353cf8cbE"(ptr align 8 %_1)
          to label %bb1 unwind label %cleanup, !dbg !2467, !range !1365

bb3:                                              ; preds = %cleanup
  %4 = load ptr, ptr %2, align 8, !dbg !2467, !noundef !18
  %5 = getelementptr inbounds i8, ptr %2, i64 8, !dbg !2467
  %6 = load i32, ptr %5, align 8, !dbg !2467, !noundef !18
  %7 = insertvalue { ptr, i32 } poison, ptr %4, 0, !dbg !2467
  %8 = insertvalue { ptr, i32 } %7, i32 %6, 1, !dbg !2467
  resume { ptr, i32 } %8, !dbg !2467

cleanup:                                          ; preds = %start
  %9 = landingpad { ptr, i32 }
          cleanup
  %10 = extractvalue { ptr, i32 } %9, 0
  %11 = extractvalue { ptr, i32 } %9, 1
  store ptr %10, ptr %2, align 8
  %12 = getelementptr inbounds i8, ptr %2, i64 8
  store i32 %11, ptr %12, align 8
  br label %bb3

bb1:                                              ; preds = %start
  ret i8 %_0, !dbg !2467
}

; core::ops::function::FnOnce::call_once
; Function Attrs: inlinehint uwtable
define internal i64 @_ZN4core3ops8function6FnOnce9call_once17hb9e6ba9b68810c0bE(ptr align 8 %0) unnamed_addr #0 personality ptr @rust_eh_personality !dbg !2468 {
start:
  %1 = alloca { ptr, i32, [1 x i32] }, align 8
  %_2 = alloca {}, align 1
  %_1 = alloca ptr, align 8
  store ptr %0, ptr %_1, align 8
  call void @llvm.dbg.declare(metadata ptr %_1, metadata !2475, metadata !DIExpression()), !dbg !2479
  call void @llvm.dbg.declare(metadata ptr %_2, metadata !2476, metadata !DIExpression()), !dbg !2479
; invoke semver::display::<impl core::fmt::Display for semver::Version>::fmt::{{closure}}
  %_0 = invoke i64 @"_ZN6semver7display64_$LT$impl$u20$core..fmt..Display$u20$for$u20$semver..Version$GT$3fmt28_$u7b$$u7b$closure$u7d$$u7d$17hc145cb91f2bfae83E"(ptr align 8 %_1)
          to label %bb1 unwind label %cleanup, !dbg !2479

bb3:                                              ; preds = %cleanup
  %2 = load ptr, ptr %1, align 8, !dbg !2479, !noundef !18
  %3 = getelementptr inbounds i8, ptr %1, i64 8, !dbg !2479
  %4 = load i32, ptr %3, align 8, !dbg !2479, !noundef !18
  %5 = insertvalue { ptr, i32 } poison, ptr %2, 0, !dbg !2479
  %6 = insertvalue { ptr, i32 } %5, i32 %4, 1, !dbg !2479
  resume { ptr, i32 } %6, !dbg !2479

cleanup:                                          ; preds = %start
  %7 = landingpad { ptr, i32 }
          cleanup
  %8 = extractvalue { ptr, i32 } %7, 0
  %9 = extractvalue { ptr, i32 } %7, 1
  store ptr %8, ptr %1, align 8
  %10 = getelementptr inbounds i8, ptr %1, i64 8
  store i32 %9, ptr %10, align 8
  br label %bb3

bb1:                                              ; preds = %start
  ret i64 %_0, !dbg !2479
}

; core::ptr::read_volatile::precondition_check
; Function Attrs: inlinehint nounwind uwtable
define internal void @_ZN4core3ptr13read_volatile18precondition_check17hdb423d1c36865387E(ptr %addr, i64 %align) unnamed_addr #2 personality ptr @rust_eh_personality !dbg !2480 {
start:
  %align.dbg.spill = alloca i64, align 8
  %addr.dbg.spill = alloca ptr, align 8
  store ptr %addr, ptr %addr.dbg.spill, align 8
  call void @llvm.dbg.declare(metadata ptr %addr.dbg.spill, metadata !2483, metadata !DIExpression()), !dbg !2485
  store i64 %align, ptr %align.dbg.spill, align 8
  call void @llvm.dbg.declare(metadata ptr %align.dbg.spill, metadata !2484, metadata !DIExpression()), !dbg !2485
; invoke core::intrinsics::is_aligned_and_not_null
  %_3 = invoke zeroext i1 @_ZN4core10intrinsics23is_aligned_and_not_null17h5305ef718ff5a156E(ptr %addr, i64 %align)
          to label %bb1 unwind label %terminate, !dbg !2486

terminate:                                        ; preds = %start
  %0 = landingpad { ptr, i32 }
          filter [0 x ptr] zeroinitializer
  %1 = extractvalue { ptr, i32 } %0, 0
  %2 = extractvalue { ptr, i32 } %0, 1
; call core::panicking::panic_cannot_unwind
  call void @_ZN4core9panicking19panic_cannot_unwind17h3626040c0976c0c3E() #22, !dbg !2488
  unreachable, !dbg !2488

bb1:                                              ; preds = %start
  br i1 %_3, label %bb2, label %bb3, !dbg !2486

bb3:                                              ; preds = %bb1
; call core::panicking::panic_nounwind
  call void @_ZN4core9panicking14panic_nounwind17h50c31e15afde233eE(ptr align 1 @alloc_d4d2a2a8539eafc62756407d946babb3, i64 110) #20, !dbg !2489
  unreachable, !dbg !2489

bb2:                                              ; preds = %bb1
  ret void, !dbg !2490
}

; core::ptr::drop_in_place<u64>
; Function Attrs: inlinehint uwtable
define internal void @"_ZN4core3ptr24drop_in_place$LT$u64$GT$17haf649e894ff6c6edE"(ptr align 8 %_1) unnamed_addr #0 !dbg !2491 {
start:
  %_1.dbg.spill = alloca ptr, align 8
  store ptr %_1, ptr %_1.dbg.spill, align 8
  call void @llvm.dbg.declare(metadata ptr %_1.dbg.spill, metadata !2496, metadata !DIExpression()), !dbg !2497
  ret void, !dbg !2497
}

; core::ptr::drop_in_place<&()>
; Function Attrs: inlinehint uwtable
define internal void @"_ZN4core3ptr33drop_in_place$LT$$RF$$LP$$RP$$GT$17h8a1edbe88791e7a8E"(ptr align 8 %_1) unnamed_addr #0 !dbg !2498 {
start:
  %_1.dbg.spill = alloca ptr, align 8
  store ptr %_1, ptr %_1.dbg.spill, align 8
  call void @llvm.dbg.declare(metadata ptr %_1.dbg.spill, metadata !2503, metadata !DIExpression()), !dbg !2506
  ret void, !dbg !2506
}

; core::ptr::drop_in_place<semver::Comparator>
; Function Attrs: uwtable
define void @"_ZN4core3ptr39drop_in_place$LT$semver..Comparator$GT$17h0cccbbe5412c0d2fE"(ptr align 8 %_1) unnamed_addr #1 !dbg !2507 {
start:
  %_1.dbg.spill = alloca ptr, align 8
  store ptr %_1, ptr %_1.dbg.spill, align 8
  call void @llvm.dbg.declare(metadata ptr %_1.dbg.spill, metadata !2512, metadata !DIExpression()), !dbg !2513
  %0 = getelementptr inbounds i8, ptr %_1, i64 32, !dbg !2513
; call core::ptr::drop_in_place<semver::Prerelease>
  call void @"_ZN4core3ptr39drop_in_place$LT$semver..Prerelease$GT$17h9622912baceb5bd0E"(ptr align 8 %0), !dbg !2513
  ret void, !dbg !2513
}

; core::ptr::drop_in_place<semver::Prerelease>
; Function Attrs: uwtable
define void @"_ZN4core3ptr39drop_in_place$LT$semver..Prerelease$GT$17h9622912baceb5bd0E"(ptr align 8 %_1) unnamed_addr #1 !dbg !2514 {
start:
  %_1.dbg.spill = alloca ptr, align 8
  store ptr %_1, ptr %_1.dbg.spill, align 8
  call void @llvm.dbg.declare(metadata ptr %_1.dbg.spill, metadata !2519, metadata !DIExpression()), !dbg !2520
; call core::ptr::drop_in_place<semver::identifier::Identifier>
  call void @"_ZN4core3ptr51drop_in_place$LT$semver..identifier..Identifier$GT$17h10d9a276e1970b8aE"(ptr align 8 %_1), !dbg !2520
  ret void, !dbg !2520
}

; core::ptr::drop_in_place<semver::BuildMetadata>
; Function Attrs: uwtable
define void @"_ZN4core3ptr42drop_in_place$LT$semver..BuildMetadata$GT$17hce713eb27874f27fE"(ptr align 8 %_1) unnamed_addr #1 !dbg !2521 {
start:
  %_1.dbg.spill = alloca ptr, align 8
  store ptr %_1, ptr %_1.dbg.spill, align 8
  call void @llvm.dbg.declare(metadata ptr %_1.dbg.spill, metadata !2526, metadata !DIExpression()), !dbg !2527
; call core::ptr::drop_in_place<semver::identifier::Identifier>
  call void @"_ZN4core3ptr51drop_in_place$LT$semver..identifier..Identifier$GT$17h10d9a276e1970b8aE"(ptr align 8 %_1), !dbg !2527
  ret void, !dbg !2527
}

; core::ptr::drop_in_place<[semver::Comparator]>
; Function Attrs: uwtable
define void @"_ZN4core3ptr49drop_in_place$LT$$u5b$semver..Comparator$u5d$$GT$17h8cb653efc9194375E"(ptr align 8 %_1.0, i64 %_1.1) unnamed_addr #1 personality ptr @rust_eh_personality !dbg !2528 {
start:
  %0 = alloca { ptr, i32, [1 x i32] }, align 8
  %_1.dbg.spill = alloca { ptr, i64 }, align 8
  %_3 = alloca i64, align 8
  store ptr %_1.0, ptr %_1.dbg.spill, align 8
  %1 = getelementptr inbounds i8, ptr %_1.dbg.spill, i64 8
  store i64 %_1.1, ptr %1, align 8
  call void @llvm.dbg.declare(metadata ptr %_1.dbg.spill, metadata !2537, metadata !DIExpression()), !dbg !2538
  store i64 0, ptr %_3, align 8, !dbg !2538
  br label %bb6, !dbg !2538

bb6:                                              ; preds = %bb5, %start
  %2 = load i64, ptr %_3, align 8, !dbg !2538, !noundef !18
  %_7 = icmp eq i64 %2, %_1.1, !dbg !2538
  br i1 %_7, label %bb1, label %bb5, !dbg !2538

bb5:                                              ; preds = %bb6
  %3 = load i64, ptr %_3, align 8, !dbg !2538, !noundef !18
  %_6 = getelementptr inbounds [0 x %Comparator], ptr %_1.0, i64 0, i64 %3, !dbg !2538
  %4 = load i64, ptr %_3, align 8, !dbg !2538, !noundef !18
  %5 = add i64 %4, 1, !dbg !2538
  store i64 %5, ptr %_3, align 8, !dbg !2538
; invoke core::ptr::drop_in_place<semver::Comparator>
  invoke void @"_ZN4core3ptr39drop_in_place$LT$semver..Comparator$GT$17h0cccbbe5412c0d2fE"(ptr align 8 %_6)
          to label %bb6 unwind label %cleanup, !dbg !2538

bb1:                                              ; preds = %bb6
  ret void, !dbg !2538

bb4:                                              ; preds = %bb3, %cleanup
  %6 = load i64, ptr %_3, align 8, !dbg !2538, !noundef !18
  %_5 = icmp eq i64 %6, %_1.1, !dbg !2538
  br i1 %_5, label %bb2, label %bb3, !dbg !2538

cleanup:                                          ; preds = %bb5
  %7 = landingpad { ptr, i32 }
          cleanup
  %8 = extractvalue { ptr, i32 } %7, 0
  %9 = extractvalue { ptr, i32 } %7, 1
  store ptr %8, ptr %0, align 8
  %10 = getelementptr inbounds i8, ptr %0, i64 8
  store i32 %9, ptr %10, align 8
  br label %bb4

bb3:                                              ; preds = %bb4
  %11 = load i64, ptr %_3, align 8, !dbg !2538, !noundef !18
  %_4 = getelementptr inbounds [0 x %Comparator], ptr %_1.0, i64 0, i64 %11, !dbg !2538
  %12 = load i64, ptr %_3, align 8, !dbg !2538, !noundef !18
  %13 = add i64 %12, 1, !dbg !2538
  store i64 %13, ptr %_3, align 8, !dbg !2538
; invoke core::ptr::drop_in_place<semver::Comparator>
  invoke void @"_ZN4core3ptr39drop_in_place$LT$semver..Comparator$GT$17h0cccbbe5412c0d2fE"(ptr align 8 %_4) #24
          to label %bb4 unwind label %terminate, !dbg !2538

bb2:                                              ; preds = %bb4
  %14 = load ptr, ptr %0, align 8, !dbg !2538, !noundef !18
  %15 = getelementptr inbounds i8, ptr %0, i64 8, !dbg !2538
  %16 = load i32, ptr %15, align 8, !dbg !2538, !noundef !18
  %17 = insertvalue { ptr, i32 } poison, ptr %14, 0, !dbg !2538
  %18 = insertvalue { ptr, i32 } %17, i32 %16, 1, !dbg !2538
  resume { ptr, i32 } %18, !dbg !2538

terminate:                                        ; preds = %bb3
  %19 = landingpad { ptr, i32 }
          filter [0 x ptr] zeroinitializer
  %20 = extractvalue { ptr, i32 } %19, 0
  %21 = extractvalue { ptr, i32 } %19, 1
; call core::panicking::panic_in_cleanup
  call void @_ZN4core9panicking16panic_in_cleanup17hb45215b029b98411E() #22, !dbg !2538
  unreachable, !dbg !2538
}

; core::ptr::read
; Function Attrs: inlinehint uwtable
define i64 @_ZN4core3ptr4read17h4dcc0291ac98d8daE(ptr %src) unnamed_addr #0 !dbg !2539 {
start:
  %src.dbg.spill = alloca ptr, align 8
  store ptr %src, ptr %src.dbg.spill, align 8
  call void @llvm.dbg.declare(metadata ptr %src.dbg.spill, metadata !2544, metadata !DIExpression()), !dbg !2545
  %_0 = load i64, ptr %src, align 8, !dbg !2546, !range !2326, !noundef !18
  ret i64 %_0, !dbg !2547
}

; core::ptr::read
; Function Attrs: inlinehint uwtable
define i16 @_ZN4core3ptr4read17hb7a0c0753a8d50bbE(ptr %src) unnamed_addr #0 !dbg !2548 {
start:
  %src.dbg.spill = alloca ptr, align 8
  %_0 = alloca [2 x i8], align 1
  store ptr %src, ptr %src.dbg.spill, align 8
  call void @llvm.dbg.declare(metadata ptr %src.dbg.spill, metadata !2556, metadata !DIExpression()), !dbg !2559
  %0 = load <2 x i8>, ptr %src, align 1, !dbg !2560
  store <2 x i8> %0, ptr %_0, align 1, !dbg !2560
  %1 = load i16, ptr %_0, align 1, !dbg !2561
  ret i16 %1, !dbg !2561
}

; core::ptr::drop_in_place<semver::identifier::Identifier>
; Function Attrs: uwtable
define void @"_ZN4core3ptr51drop_in_place$LT$semver..identifier..Identifier$GT$17h10d9a276e1970b8aE"(ptr align 8 %_1) unnamed_addr #1 !dbg !2562 {
start:
  %_1.dbg.spill = alloca ptr, align 8
  store ptr %_1, ptr %_1.dbg.spill, align 8
  call void @llvm.dbg.declare(metadata ptr %_1.dbg.spill, metadata !2567, metadata !DIExpression()), !dbg !2568
; call <semver::identifier::Identifier as core::ops::drop::Drop>::drop
  call void @"_ZN72_$LT$semver..identifier..Identifier$u20$as$u20$core..ops..drop..Drop$GT$4drop17h9995446a8006200bE"(ptr align 8 %_1), !dbg !2568
  ret void, !dbg !2568
}

; core::ptr::drop_in_place<core::num::error::TryFromIntError>
; Function Attrs: inlinehint uwtable
define internal void @"_ZN4core3ptr54drop_in_place$LT$core..num..error..TryFromIntError$GT$17ha7f640670c7e30e1E"(ptr align 1 %_1) unnamed_addr #0 !dbg !2569 {
start:
  %_1.dbg.spill = alloca ptr, align 8
  store ptr %_1, ptr %_1.dbg.spill, align 8
  call void @llvm.dbg.declare(metadata ptr %_1.dbg.spill, metadata !2574, metadata !DIExpression()), !dbg !2577
  ret void, !dbg !2577
}

; core::ptr::write
; Function Attrs: inlinehint uwtable
define void @_ZN4core3ptr5write17h28af8f9a6a1b5c5bE(ptr %dst, i8 %src) unnamed_addr #0 !dbg !2578 {
start:
  %src.dbg.spill = alloca i8, align 1
  %dst.dbg.spill = alloca ptr, align 8
  store ptr %dst, ptr %dst.dbg.spill, align 8
  call void @llvm.dbg.declare(metadata ptr %dst.dbg.spill, metadata !2582, metadata !DIExpression()), !dbg !2584
  store i8 %src, ptr %src.dbg.spill, align 1
  call void @llvm.dbg.declare(metadata ptr %src.dbg.spill, metadata !2583, metadata !DIExpression()), !dbg !2585
  store i8 %src, ptr %dst, align 1, !dbg !2586
  ret void, !dbg !2587
}

; core::ptr::drop_in_place<alloc::vec::Vec<semver::Comparator>>
; Function Attrs: uwtable
define void @"_ZN4core3ptr62drop_in_place$LT$alloc..vec..Vec$LT$semver..Comparator$GT$$GT$17h4959b4961f440c59E"(ptr align 8 %_1) unnamed_addr #1 personality ptr @rust_eh_personality !dbg !2588 {
start:
  %0 = alloca { ptr, i32, [1 x i32] }, align 8
  %_1.dbg.spill = alloca ptr, align 8
  store ptr %_1, ptr %_1.dbg.spill, align 8
  call void @llvm.dbg.declare(metadata ptr %_1.dbg.spill, metadata !2593, metadata !DIExpression()), !dbg !2596
; invoke <alloc::vec::Vec<T,A> as core::ops::drop::Drop>::drop
  invoke void @"_ZN70_$LT$alloc..vec..Vec$LT$T$C$A$GT$$u20$as$u20$core..ops..drop..Drop$GT$4drop17h81d3a800c06ab140E"(ptr align 8 %_1)
          to label %bb4 unwind label %cleanup, !dbg !2596

bb3:                                              ; preds = %cleanup
; invoke core::ptr::drop_in_place<alloc::raw_vec::RawVec<semver::Comparator>>
  invoke void @"_ZN4core3ptr69drop_in_place$LT$alloc..raw_vec..RawVec$LT$semver..Comparator$GT$$GT$17h327c2617adc0899bE"(ptr align 8 %_1) #24
          to label %bb1 unwind label %terminate, !dbg !2596

cleanup:                                          ; preds = %start
  %1 = landingpad { ptr, i32 }
          cleanup
  %2 = extractvalue { ptr, i32 } %1, 0
  %3 = extractvalue { ptr, i32 } %1, 1
  store ptr %2, ptr %0, align 8
  %4 = getelementptr inbounds i8, ptr %0, i64 8
  store i32 %3, ptr %4, align 8
  br label %bb3

bb4:                                              ; preds = %start
; call core::ptr::drop_in_place<alloc::raw_vec::RawVec<semver::Comparator>>
  call void @"_ZN4core3ptr69drop_in_place$LT$alloc..raw_vec..RawVec$LT$semver..Comparator$GT$$GT$17h327c2617adc0899bE"(ptr align 8 %_1), !dbg !2596
  ret void, !dbg !2596

terminate:                                        ; preds = %bb3
  %5 = landingpad { ptr, i32 }
          filter [0 x ptr] zeroinitializer
  %6 = extractvalue { ptr, i32 } %5, 0
  %7 = extractvalue { ptr, i32 } %5, 1
; call core::panicking::panic_in_cleanup
  call void @_ZN4core9panicking16panic_in_cleanup17hb45215b029b98411E() #22, !dbg !2596
  unreachable, !dbg !2596

bb1:                                              ; preds = %bb3
  %8 = load ptr, ptr %0, align 8, !dbg !2596, !noundef !18
  %9 = getelementptr inbounds i8, ptr %0, i64 8, !dbg !2596
  %10 = load i32, ptr %9, align 8, !dbg !2596, !noundef !18
  %11 = insertvalue { ptr, i32 } poison, ptr %8, 0, !dbg !2596
  %12 = insertvalue { ptr, i32 } %11, i32 %10, 1, !dbg !2596
  resume { ptr, i32 } %12, !dbg !2596
}

; core::ptr::drop_in_place<alloc::raw_vec::RawVec<semver::Comparator>>
; Function Attrs: uwtable
define void @"_ZN4core3ptr69drop_in_place$LT$alloc..raw_vec..RawVec$LT$semver..Comparator$GT$$GT$17h327c2617adc0899bE"(ptr align 8 %_1) unnamed_addr #1 !dbg !2597 {
start:
  %_1.dbg.spill = alloca ptr, align 8
  store ptr %_1, ptr %_1.dbg.spill, align 8
  call void @llvm.dbg.declare(metadata ptr %_1.dbg.spill, metadata !2602, metadata !DIExpression()), !dbg !2605
; call <alloc::raw_vec::RawVec<T,A> as core::ops::drop::Drop>::drop
  call void @"_ZN77_$LT$alloc..raw_vec..RawVec$LT$T$C$A$GT$$u20$as$u20$core..ops..drop..Drop$GT$4drop17hfa6f347ca2d20758E"(ptr align 8 %_1), !dbg !2605
  ret void, !dbg !2605
}

; core::ptr::mut_ptr::<impl *mut T>::is_null
; Function Attrs: inlinehint uwtable
define zeroext i1 @"_ZN4core3ptr7mut_ptr31_$LT$impl$u20$$BP$mut$u20$T$GT$7is_null17ha8dbbf39bb007da6E"(ptr %self) unnamed_addr #0 !dbg !2606 {
start:
  %ptr.dbg.spill = alloca ptr, align 8
  %self.dbg.spill = alloca ptr, align 8
  store ptr %self, ptr %self.dbg.spill, align 8
  call void @llvm.dbg.declare(metadata ptr %self.dbg.spill, metadata !2610, metadata !DIExpression()), !dbg !2611
  store ptr %self, ptr %ptr.dbg.spill, align 8, !dbg !2612
  call void @llvm.dbg.declare(metadata ptr %ptr.dbg.spill, metadata !2613, metadata !DIExpression()), !dbg !2618
  call void @llvm.dbg.declare(metadata ptr %ptr.dbg.spill, metadata !2620, metadata !DIExpression()), !dbg !2626
  call void @llvm.dbg.declare(metadata ptr %ptr.dbg.spill, metadata !2628, metadata !DIExpression()), !dbg !2632
  %_3 = ptrtoint ptr %self to i64, !dbg !2634
  %_0 = icmp eq i64 %_3, 0, !dbg !2635
  ret i1 %_0, !dbg !2636
}

; core::ptr::non_null::NonNull<T>::new_unchecked
; Function Attrs: inlinehint uwtable
define ptr @"_ZN4core3ptr8non_null16NonNull$LT$T$GT$13new_unchecked17h491f0b771d6d64ceE"(ptr %ptr) unnamed_addr #0 !dbg !2637 {
start:
  %ptr.dbg.spill = alloca ptr, align 8
  %_0 = alloca ptr, align 8
  store ptr %ptr, ptr %ptr.dbg.spill, align 8
  call void @llvm.dbg.declare(metadata ptr %ptr.dbg.spill, metadata !2643, metadata !DIExpression()), !dbg !2644
  br label %bb1, !dbg !2645

bb1:                                              ; preds = %start
; call core::ptr::non_null::NonNull<T>::new_unchecked::precondition_check
  call void @"_ZN4core3ptr8non_null16NonNull$LT$T$GT$13new_unchecked18precondition_check17h3475ebeadad58682E"(ptr %ptr) #23, !dbg !2645
  br label %bb2, !dbg !2645

bb2:                                              ; preds = %bb1
  store ptr %ptr, ptr %_0, align 8, !dbg !2646
  %0 = load ptr, ptr %_0, align 8, !dbg !2647, !nonnull !18, !noundef !18
  ret ptr %0, !dbg !2647
}

; core::ptr::non_null::NonNull<T>::new_unchecked::precondition_check
; Function Attrs: inlinehint nounwind uwtable
define internal void @"_ZN4core3ptr8non_null16NonNull$LT$T$GT$13new_unchecked18precondition_check17h3475ebeadad58682E"(ptr %ptr) unnamed_addr #2 !dbg !2648 {
start:
  %ptr.dbg.spill1 = alloca ptr, align 8
  %ptr.dbg.spill = alloca ptr, align 8
  store ptr %ptr, ptr %ptr.dbg.spill, align 8
  call void @llvm.dbg.declare(metadata ptr %ptr.dbg.spill, metadata !2654, metadata !DIExpression()), !dbg !2655
  call void @llvm.dbg.declare(metadata ptr %ptr.dbg.spill, metadata !2656, metadata !DIExpression()), !dbg !2662
  store ptr %ptr, ptr %ptr.dbg.spill1, align 8, !dbg !2665
  call void @llvm.dbg.declare(metadata ptr %ptr.dbg.spill1, metadata !2666, metadata !DIExpression()), !dbg !2670
  call void @llvm.dbg.declare(metadata ptr %ptr.dbg.spill1, metadata !2672, metadata !DIExpression()), !dbg !2676
  call void @llvm.dbg.declare(metadata ptr %ptr.dbg.spill1, metadata !2678, metadata !DIExpression()), !dbg !2682
  %_4 = ptrtoint ptr %ptr to i64, !dbg !2684
  %0 = icmp eq i64 %_4, 0, !dbg !2685
  br i1 %0, label %bb1, label %bb2, !dbg !2685

bb1:                                              ; preds = %start
; call core::panicking::panic_nounwind
  call void @_ZN4core9panicking14panic_nounwind17h50c31e15afde233eE(ptr align 1 @alloc_20b3d155afd5c58c42e598b7e6d186ef, i64 93) #20, !dbg !2686
  unreachable, !dbg !2686

bb2:                                              ; preds = %start
  ret void, !dbg !2687
}

; core::ptr::const_ptr::<impl *const T>::sub_ptr
; Function Attrs: inlinehint uwtable
define i64 @"_ZN4core3ptr9const_ptr33_$LT$impl$u20$$BP$const$u20$T$GT$7sub_ptr17h4aa900b0acc601fdE"(ptr %self, ptr %origin) unnamed_addr #0 !dbg !2688 {
start:
  %0 = alloca i64, align 8
  %pointee_size.dbg.spill = alloca i64, align 8
  %origin.dbg.spill = alloca ptr, align 8
  %self.dbg.spill = alloca ptr, align 8
  store ptr %self, ptr %self.dbg.spill, align 8
  call void @llvm.dbg.declare(metadata ptr %self.dbg.spill, metadata !2692, metadata !DIExpression()), !dbg !2696
  store ptr %origin, ptr %origin.dbg.spill, align 8
  call void @llvm.dbg.declare(metadata ptr %origin.dbg.spill, metadata !2693, metadata !DIExpression()), !dbg !2697
  br label %bb1, !dbg !2698

bb1:                                              ; preds = %start
; call core::ptr::const_ptr::<impl *const T>::sub_ptr::precondition_check
  call void @"_ZN4core3ptr9const_ptr33_$LT$impl$u20$$BP$const$u20$T$GT$7sub_ptr18precondition_check17haf6a592865205e4aE"(ptr %self, ptr %origin) #23, !dbg !2698
  br label %bb2, !dbg !2698

bb2:                                              ; preds = %bb1
  store i64 1, ptr %pointee_size.dbg.spill, align 8, !dbg !2699
  call void @llvm.dbg.declare(metadata ptr %pointee_size.dbg.spill, metadata !2694, metadata !DIExpression()), !dbg !2705
  br label %bb3, !dbg !2706

bb3:                                              ; preds = %bb2
  br label %bb4, !dbg !2707

bb4:                                              ; preds = %bb3
  %1 = ptrtoint ptr %self to i64, !dbg !2708
  %2 = ptrtoint ptr %origin to i64, !dbg !2708
  %3 = sub nuw i64 %1, %2, !dbg !2708
  %4 = udiv exact i64 %3, 1, !dbg !2708
  store i64 %4, ptr %0, align 8, !dbg !2708
  %_0 = load i64, ptr %0, align 8, !dbg !2708, !noundef !18
  ret i64 %_0, !dbg !2709

bb5:                                              ; No predecessors!
; call core::panicking::panic
  call void @_ZN4core9panicking5panic17h5884aad3a9044857E(ptr align 1 @alloc_ec595fc0e82ef92fc59bd74f68296eae, i64 73, ptr align 8 @alloc_4e3a3aaf48410eaea90c90938dabe76a) #21, !dbg !2710
  unreachable, !dbg !2710
}

; core::ptr::const_ptr::<impl *const T>::sub_ptr::precondition_check
; Function Attrs: inlinehint nounwind uwtable
define internal void @"_ZN4core3ptr9const_ptr33_$LT$impl$u20$$BP$const$u20$T$GT$7sub_ptr18precondition_check17haf6a592865205e4aE"(ptr %this, ptr %origin) unnamed_addr #2 !dbg !2711 {
start:
  %origin.dbg.spill = alloca ptr, align 8
  %this.dbg.spill = alloca ptr, align 8
  store ptr %this, ptr %this.dbg.spill, align 8
  call void @llvm.dbg.declare(metadata ptr %this.dbg.spill, metadata !2716, metadata !DIExpression()), !dbg !2718
  store ptr %origin, ptr %origin.dbg.spill, align 8
  call void @llvm.dbg.declare(metadata ptr %origin.dbg.spill, metadata !2717, metadata !DIExpression()), !dbg !2718
  %_3 = icmp uge ptr %this, %origin, !dbg !2719
  br i1 %_3, label %bb1, label %bb2, !dbg !2719

bb2:                                              ; preds = %start
; call core::panicking::panic_nounwind
  call void @_ZN4core9panicking14panic_nounwind17h50c31e15afde233eE(ptr align 1 @alloc_7efb3a7632b3620f628ce83a521b4d9b, i64 71) #20, !dbg !2721
  unreachable, !dbg !2721

bb1:                                              ; preds = %start
  ret void, !dbg !2722
}

; core::str::validations::next_code_point
; Function Attrs: inlinehint uwtable
define { i32, i32 } @_ZN4core3str11validations15next_code_point17hdcb27132933baf3aE(ptr align 8 %bytes) unnamed_addr #0 !dbg !2723 {
start:
  %w.dbg.spill = alloca i8, align 1
  %val.dbg.spill11 = alloca ptr, align 8
  %y_z.dbg.spill = alloca i32, align 4
  %z.dbg.spill = alloca i8, align 1
  %val.dbg.spill9 = alloca ptr, align 8
  %ch.dbg.spill = alloca i32, align 4
  %y.dbg.spill = alloca i8, align 1
  %val.dbg.spill6 = alloca ptr, align 8
  %init.dbg.spill = alloca i32, align 4
  %x.dbg.spill = alloca i8, align 1
  %val.dbg.spill = alloca ptr, align 8
  %v.dbg.spill = alloca ptr, align 8
  %bytes.dbg.spill = alloca ptr, align 8
  %self4 = alloca ptr, align 8
  %self3 = alloca ptr, align 8
  %ch = alloca i32, align 4
  %self2 = alloca ptr, align 8
  %self = alloca ptr, align 8
  %_3 = alloca ptr, align 8
  %_0 = alloca %"core::option::Option<u32>", align 4
  %width.dbg.spill = alloca i32, align 4
  %residual.dbg.spill1 = alloca %"core::option::Option<core::convert::Infallible>::None", align 1
  %residual.dbg.spill = alloca %"core::option::Option<core::convert::Infallible>::None", align 1
  call void @llvm.dbg.declare(metadata ptr %residual.dbg.spill, metadata !2753, metadata !DIExpression()), !dbg !2771
  call void @llvm.dbg.declare(metadata ptr %residual.dbg.spill1, metadata !2772, metadata !DIExpression()), !dbg !2778
  store i32 2, ptr %width.dbg.spill, align 4, !dbg !2780
  call void @llvm.dbg.declare(metadata ptr %width.dbg.spill, metadata !2787, metadata !DIExpression()), !dbg !2780
  store ptr %bytes, ptr %bytes.dbg.spill, align 8, !dbg !2780
  call void @llvm.dbg.declare(metadata ptr %bytes.dbg.spill, metadata !2750, metadata !DIExpression()), !dbg !2789
  call void @llvm.dbg.declare(metadata ptr %self, metadata !2790, metadata !DIExpression()), !dbg !2813
  call void @llvm.dbg.declare(metadata ptr %self2, metadata !2815, metadata !DIExpression()), !dbg !2832
  call void @llvm.dbg.declare(metadata ptr %ch, metadata !2761, metadata !DIExpression()), !dbg !2834
  call void @llvm.dbg.declare(metadata ptr %self3, metadata !2824, metadata !DIExpression()), !dbg !2835
  call void @llvm.dbg.declare(metadata ptr %self4, metadata !2828, metadata !DIExpression()), !dbg !2837
; call <core::slice::iter::Iter<T> as core::iter::traits::iterator::Iterator>::next
  %0 = call align 1 ptr @"_ZN91_$LT$core..slice..iter..Iter$LT$T$GT$$u20$as$u20$core..iter..traits..iterator..Iterator$GT$4next17h97603a453263479fE"(ptr align 8 %bytes), !dbg !2814
  store ptr %0, ptr %self, align 8, !dbg !2814
  %1 = load ptr, ptr %self, align 8, !dbg !2839, !noundef !18
  %2 = ptrtoint ptr %1 to i64, !dbg !2839
  %3 = icmp eq i64 %2, 0, !dbg !2839
  %_27 = select i1 %3, i64 0, i64 1, !dbg !2839
  %4 = icmp eq i64 %_27, 0, !dbg !2840
  br i1 %4, label %bb13, label %bb14, !dbg !2840

bb13:                                             ; preds = %start
  %5 = load i32, ptr @1, align 4, !dbg !2841, !range !2842, !noundef !18
  %6 = load i32, ptr getelementptr inbounds (i8, ptr @1, i64 4), align 4, !dbg !2841
  store i32 %5, ptr %_0, align 4, !dbg !2841
  %7 = getelementptr inbounds i8, ptr %_0, i64 4, !dbg !2841
  store i32 %6, ptr %7, align 4, !dbg !2841
  br label %bb12, !dbg !2843

bb14:                                             ; preds = %start
  %v = load ptr, ptr %self, align 8, !dbg !2845, !nonnull !18, !align !483, !noundef !18
  store ptr %v, ptr %v.dbg.spill, align 8, !dbg !2845
  call void @llvm.dbg.declare(metadata ptr %v.dbg.spill, metadata !2811, metadata !DIExpression()), !dbg !2846
  store ptr %v, ptr %_3, align 8, !dbg !2847
  %val = load ptr, ptr %_3, align 8, !dbg !2814, !nonnull !18, !align !483, !noundef !18
  store ptr %val, ptr %val.dbg.spill, align 8, !dbg !2814
  call void @llvm.dbg.declare(metadata ptr %val.dbg.spill, metadata !2755, metadata !DIExpression()), !dbg !2848
  %x = load i8, ptr %val, align 1, !dbg !2849, !noundef !18
  store i8 %x, ptr %x.dbg.spill, align 1, !dbg !2849
  call void @llvm.dbg.declare(metadata ptr %x.dbg.spill, metadata !2751, metadata !DIExpression()), !dbg !2850
  call void @llvm.dbg.declare(metadata ptr %x.dbg.spill, metadata !2786, metadata !DIExpression()), !dbg !2851
  %_6 = icmp ult i8 %x, -128, !dbg !2852
  br i1 %_6, label %bb3, label %bb4, !dbg !2852

bb12:                                             ; preds = %bb3, %bb11, %bb13
  %8 = load i32, ptr %_0, align 4, !dbg !2853, !range !2842, !noundef !18
  %9 = getelementptr inbounds i8, ptr %_0, i64 4, !dbg !2853
  %10 = load i32, ptr %9, align 4, !dbg !2853
  %11 = insertvalue { i32, i32 } poison, i32 %8, 0, !dbg !2853
  %12 = insertvalue { i32, i32 } %11, i32 %10, 1, !dbg !2853
  ret { i32, i32 } %12, !dbg !2853

bb4:                                              ; preds = %bb14
  %_29 = and i8 %x, 31, !dbg !2854
  %init = zext i8 %_29 to i32, !dbg !2854
  store i32 %init, ptr %init.dbg.spill, align 4, !dbg !2854
  call void @llvm.dbg.declare(metadata ptr %init.dbg.spill, metadata !2757, metadata !DIExpression()), !dbg !2855
  call void @llvm.dbg.declare(metadata ptr %init.dbg.spill, metadata !2856, metadata !DIExpression()), !dbg !2869
; call <core::slice::iter::Iter<T> as core::iter::traits::iterator::Iterator>::next
  %13 = call align 1 ptr @"_ZN91_$LT$core..slice..iter..Iter$LT$T$GT$$u20$as$u20$core..iter..traits..iterator..Iterator$GT$4next17h97603a453263479fE"(ptr align 8 %bytes), !dbg !2871
  store ptr %13, ptr %self2, align 8, !dbg !2871
  %14 = load ptr, ptr %self2, align 8, !dbg !2872, !noundef !18
  %15 = ptrtoint ptr %14 to i64, !dbg !2872
  %16 = icmp eq i64 %15, 0, !dbg !2872
  %_30 = select i1 %16, i64 0, i64 1, !dbg !2872
  %17 = icmp eq i64 %_30, 0, !dbg !2873
  br i1 %17, label %bb15, label %bb16, !dbg !2873

bb3:                                              ; preds = %bb14
  %_7 = zext i8 %x to i32, !dbg !2874
  %18 = getelementptr inbounds i8, ptr %_0, i64 4, !dbg !2875
  store i32 %_7, ptr %18, align 4, !dbg !2875
  store i32 1, ptr %_0, align 4, !dbg !2875
  br label %bb12, !dbg !2876

bb15:                                             ; preds = %bb4
; call core::hint::unreachable_unchecked::precondition_check
  call void @_ZN4core4hint21unreachable_unchecked18precondition_check17h2f7470a415ecb8c6E() #23, !dbg !2878
  br label %bb2, !dbg !2878

bb16:                                             ; preds = %bb4
  %val5 = load ptr, ptr %self2, align 8, !dbg !2884, !nonnull !18, !align !483, !noundef !18
  store ptr %val5, ptr %val.dbg.spill6, align 8, !dbg !2884
  call void @llvm.dbg.declare(metadata ptr %val.dbg.spill6, metadata !2822, metadata !DIExpression()), !dbg !2885
  %y = load i8, ptr %val5, align 1, !dbg !2886, !noundef !18
  store i8 %y, ptr %y.dbg.spill, align 1, !dbg !2886
  call void @llvm.dbg.declare(metadata ptr %y.dbg.spill, metadata !2759, metadata !DIExpression()), !dbg !2887
  call void @llvm.dbg.declare(metadata ptr %y.dbg.spill, metadata !2862, metadata !DIExpression()), !dbg !2888
  %_33 = shl i32 %init, 6, !dbg !2889
  %_35 = and i8 %y, 63, !dbg !2890
  %ch7 = zext i8 %_35 to i32, !dbg !2890
  store i32 %ch7, ptr %ch.dbg.spill, align 4, !dbg !2890
  call void @llvm.dbg.declare(metadata ptr %ch.dbg.spill, metadata !2863, metadata !DIExpression()), !dbg !2891
  %19 = or i32 %_33, %ch7, !dbg !2889
  store i32 %19, ptr %ch, align 4, !dbg !2889
  %_13 = icmp uge i8 %x, -32, !dbg !2893
  br i1 %_13, label %bb6, label %bb11, !dbg !2893

bb2:                                              ; preds = %bb19, %bb17, %bb15
  unreachable, !dbg !2814

bb11:                                             ; preds = %bb10, %bb16
  %_26 = load i32, ptr %ch, align 4, !dbg !2894, !noundef !18
  %20 = getelementptr inbounds i8, ptr %_0, i64 4, !dbg !2895
  store i32 %_26, ptr %20, align 4, !dbg !2895
  store i32 1, ptr %_0, align 4, !dbg !2895
  br label %bb12, !dbg !2853

bb6:                                              ; preds = %bb16
; call <core::slice::iter::Iter<T> as core::iter::traits::iterator::Iterator>::next
  %21 = call align 1 ptr @"_ZN91_$LT$core..slice..iter..Iter$LT$T$GT$$u20$as$u20$core..iter..traits..iterator..Iterator$GT$4next17h97603a453263479fE"(ptr align 8 %bytes), !dbg !2896
  store ptr %21, ptr %self3, align 8, !dbg !2896
  %22 = load ptr, ptr %self3, align 8, !dbg !2897, !noundef !18
  %23 = ptrtoint ptr %22 to i64, !dbg !2897
  %24 = icmp eq i64 %23, 0, !dbg !2897
  %_36 = select i1 %24, i64 0, i64 1, !dbg !2897
  %25 = icmp eq i64 %_36, 0, !dbg !2898
  br i1 %25, label %bb17, label %bb18, !dbg !2898

bb17:                                             ; preds = %bb6
; call core::hint::unreachable_unchecked::precondition_check
  call void @_ZN4core4hint21unreachable_unchecked18precondition_check17h2f7470a415ecb8c6E() #23, !dbg !2899
  br label %bb2, !dbg !2899

bb18:                                             ; preds = %bb6
  %val8 = load ptr, ptr %self3, align 8, !dbg !2902, !nonnull !18, !align !483, !noundef !18
  store ptr %val8, ptr %val.dbg.spill9, align 8, !dbg !2902
  call void @llvm.dbg.declare(metadata ptr %val.dbg.spill9, metadata !2826, metadata !DIExpression()), !dbg !2903
  %z = load i8, ptr %val8, align 1, !dbg !2904, !noundef !18
  store i8 %z, ptr %z.dbg.spill, align 1, !dbg !2904
  call void @llvm.dbg.declare(metadata ptr %z.dbg.spill, metadata !2763, metadata !DIExpression()), !dbg !2905
  call void @llvm.dbg.declare(metadata ptr %z.dbg.spill, metadata !2865, metadata !DIExpression()), !dbg !2906
  %_39 = shl i32 %ch7, 6, !dbg !2907
  %_41 = and i8 %z, 63, !dbg !2908
  %_40 = zext i8 %_41 to i32, !dbg !2908
  %y_z = or i32 %_39, %_40, !dbg !2907
  store i32 %y_z, ptr %y_z.dbg.spill, align 4, !dbg !2907
  call void @llvm.dbg.declare(metadata ptr %y_z.dbg.spill, metadata !2765, metadata !DIExpression()), !dbg !2909
  call void @llvm.dbg.declare(metadata ptr %y_z.dbg.spill, metadata !2866, metadata !DIExpression()), !dbg !2910
  %_18 = shl i32 %init, 12, !dbg !2912
  %26 = or i32 %_18, %y_z, !dbg !2913
  store i32 %26, ptr %ch, align 4, !dbg !2913
  %_19 = icmp uge i8 %x, -16, !dbg !2914
  br i1 %_19, label %bb8, label %bb10, !dbg !2914

bb10:                                             ; preds = %bb20, %bb18
  br label %bb11, !dbg !2915

bb8:                                              ; preds = %bb18
; call <core::slice::iter::Iter<T> as core::iter::traits::iterator::Iterator>::next
  %27 = call align 1 ptr @"_ZN91_$LT$core..slice..iter..Iter$LT$T$GT$$u20$as$u20$core..iter..traits..iterator..Iterator$GT$4next17h97603a453263479fE"(ptr align 8 %bytes), !dbg !2916
  store ptr %27, ptr %self4, align 8, !dbg !2916
  %28 = load ptr, ptr %self4, align 8, !dbg !2917, !noundef !18
  %29 = ptrtoint ptr %28 to i64, !dbg !2917
  %30 = icmp eq i64 %29, 0, !dbg !2917
  %_42 = select i1 %30, i64 0, i64 1, !dbg !2917
  %31 = icmp eq i64 %_42, 0, !dbg !2918
  br i1 %31, label %bb19, label %bb20, !dbg !2918

bb19:                                             ; preds = %bb8
; call core::hint::unreachable_unchecked::precondition_check
  call void @_ZN4core4hint21unreachable_unchecked18precondition_check17h2f7470a415ecb8c6E() #23, !dbg !2919
  br label %bb2, !dbg !2919

bb20:                                             ; preds = %bb8
  %val10 = load ptr, ptr %self4, align 8, !dbg !2922, !nonnull !18, !align !483, !noundef !18
  store ptr %val10, ptr %val.dbg.spill11, align 8, !dbg !2922
  call void @llvm.dbg.declare(metadata ptr %val.dbg.spill11, metadata !2830, metadata !DIExpression()), !dbg !2923
  %w = load i8, ptr %val10, align 1, !dbg !2924, !noundef !18
  store i8 %w, ptr %w.dbg.spill, align 1, !dbg !2924
  call void @llvm.dbg.declare(metadata ptr %w.dbg.spill, metadata !2767, metadata !DIExpression()), !dbg !2925
  call void @llvm.dbg.declare(metadata ptr %w.dbg.spill, metadata !2868, metadata !DIExpression()), !dbg !2926
  %_24 = and i32 %init, 7, !dbg !2927
  %_23 = shl i32 %_24, 18, !dbg !2927
  %_45 = shl i32 %y_z, 6, !dbg !2928
  %_47 = and i8 %w, 63, !dbg !2929
  %_46 = zext i8 %_47 to i32, !dbg !2929
  %_25 = or i32 %_45, %_46, !dbg !2928
  %32 = or i32 %_23, %_25, !dbg !2930
  store i32 %32, ptr %ch, align 4, !dbg !2930
  br label %bb10, !dbg !2931
}

; core::str::<impl str>::starts_with
; Function Attrs: uwtable
define zeroext i1 @"_ZN4core3str21_$LT$impl$u20$str$GT$11starts_with17h70f7e8d563c43661E"(ptr align 1 %self.0, i64 %self.1, i32 %pat) unnamed_addr #1 !dbg !2932 {
start:
  %pat.dbg.spill = alloca i32, align 4
  %self.dbg.spill = alloca { ptr, i64 }, align 8
  store ptr %self.0, ptr %self.dbg.spill, align 8
  %0 = getelementptr inbounds i8, ptr %self.dbg.spill, i64 8
  store i64 %self.1, ptr %0, align 8
  call void @llvm.dbg.declare(metadata ptr %self.dbg.spill, metadata !2938, metadata !DIExpression()), !dbg !2942
  store i32 %pat, ptr %pat.dbg.spill, align 4
  call void @llvm.dbg.declare(metadata ptr %pat.dbg.spill, metadata !2939, metadata !DIExpression()), !dbg !2943
; call <char as core::str::pattern::Pattern>::is_prefix_of
  %_0 = call zeroext i1 @"_ZN52_$LT$char$u20$as$u20$core..str..pattern..Pattern$GT$12is_prefix_of17h7b0adaad4f4365e8E"(i32 %pat, ptr align 1 %self.0, i64 %self.1), !dbg !2944
  ret i1 %_0, !dbg !2945
}

; core::str::<impl str>::strip_prefix
; Function Attrs: uwtable
define { ptr, i64 } @"_ZN4core3str21_$LT$impl$u20$str$GT$12strip_prefix17h4a5c1e109f68ddccE"(ptr align 1 %self.0, i64 %self.1, i32 %prefix) unnamed_addr #1 !dbg !2946 {
start:
  %prefix.dbg.spill = alloca i32, align 4
  %self.dbg.spill = alloca { ptr, i64 }, align 8
  store ptr %self.0, ptr %self.dbg.spill, align 8
  %0 = getelementptr inbounds i8, ptr %self.dbg.spill, i64 8
  store i64 %self.1, ptr %0, align 8
  call void @llvm.dbg.declare(metadata ptr %self.dbg.spill, metadata !2950, metadata !DIExpression()), !dbg !2952
  store i32 %prefix, ptr %prefix.dbg.spill, align 4
  call void @llvm.dbg.declare(metadata ptr %prefix.dbg.spill, metadata !2951, metadata !DIExpression()), !dbg !2953
; call <char as core::str::pattern::Pattern>::strip_prefix_of
  %1 = call { ptr, i64 } @"_ZN52_$LT$char$u20$as$u20$core..str..pattern..Pattern$GT$15strip_prefix_of17h7c3d82eb1e40f4ffE"(i32 %prefix, ptr align 1 %self.0, i64 %self.1), !dbg !2954
  %_0.0 = extractvalue { ptr, i64 } %1, 0, !dbg !2954
  %_0.1 = extractvalue { ptr, i64 } %1, 1, !dbg !2954
  %2 = insertvalue { ptr, i64 } poison, ptr %_0.0, 0, !dbg !2955
  %3 = insertvalue { ptr, i64 } %2, i64 %_0.1, 1, !dbg !2955
  ret { ptr, i64 } %3, !dbg !2955
}

; core::str::<impl str>::is_char_boundary
; Function Attrs: inlinehint uwtable
define internal zeroext i1 @"_ZN4core3str21_$LT$impl$u20$str$GT$16is_char_boundary17h73d528374cead619E"(ptr align 1 %self.0, i64 %self.1, i64 %index) unnamed_addr #0 !dbg !2956 {
start:
  %b.dbg.spill = alloca i8, align 1
  %self.dbg.spill1 = alloca { ptr, i64 }, align 8
  %index.dbg.spill = alloca i64, align 8
  %self.dbg.spill = alloca { ptr, i64 }, align 8
  %_3 = alloca ptr, align 8
  %_0 = alloca i8, align 1
  store ptr %self.0, ptr %self.dbg.spill, align 8
  %0 = getelementptr inbounds i8, ptr %self.dbg.spill, i64 8
  store i64 %self.1, ptr %0, align 8
  call void @llvm.dbg.declare(metadata ptr %self.dbg.spill, metadata !2960, metadata !DIExpression()), !dbg !2964
  call void @llvm.dbg.declare(metadata ptr %self.dbg.spill, metadata !2965, metadata !DIExpression()), !dbg !2973
  call void @llvm.dbg.declare(metadata ptr %self.dbg.spill, metadata !2975, metadata !DIExpression()), !dbg !2981
  call void @llvm.dbg.declare(metadata ptr %self.dbg.spill, metadata !2971, metadata !DIExpression()), !dbg !2983
  store i64 %index, ptr %index.dbg.spill, align 8
  call void @llvm.dbg.declare(metadata ptr %index.dbg.spill, metadata !2961, metadata !DIExpression()), !dbg !2985
  call void @llvm.dbg.declare(metadata ptr %index.dbg.spill, metadata !2986, metadata !DIExpression()), !dbg !2995
  %1 = icmp eq i64 %index, 0, !dbg !2997
  br i1 %1, label %bb1, label %bb2, !dbg !2997

bb1:                                              ; preds = %start
  store i8 1, ptr %_0, align 1, !dbg !2998
  br label %bb7, !dbg !2999

bb2:                                              ; preds = %start
  store ptr %self.0, ptr %self.dbg.spill1, align 8, !dbg !3000
  %2 = getelementptr inbounds i8, ptr %self.dbg.spill1, i64 8, !dbg !3000
  store i64 %self.1, ptr %2, align 8, !dbg !3000
  call void @llvm.dbg.declare(metadata ptr %self.dbg.spill1, metadata !2992, metadata !DIExpression()), !dbg !3001
; call <usize as core::slice::index::SliceIndex<[T]>>::get
  %3 = call align 1 ptr @"_ZN75_$LT$usize$u20$as$u20$core..slice..index..SliceIndex$LT$$u5b$T$u5d$$GT$$GT$3get17h881d860716d7b24dE"(i64 %index, ptr align 1 %self.0, i64 %self.1), !dbg !3002
  store ptr %3, ptr %_3, align 8, !dbg !3002
  %4 = load ptr, ptr %_3, align 8, !dbg !3003, !noundef !18
  %5 = ptrtoint ptr %4 to i64, !dbg !3003
  %6 = icmp eq i64 %5, 0, !dbg !3003
  %_5 = select i1 %6, i64 0, i64 1, !dbg !3003
  %7 = icmp eq i64 %_5, 0, !dbg !3004
  br i1 %7, label %bb5, label %bb4, !dbg !3004

bb7:                                              ; preds = %bb6, %bb1
  %8 = load i8, ptr %_0, align 1, !dbg !2999, !range !242, !noundef !18
  %9 = trunc i8 %8 to i1, !dbg !2999
  ret i1 %9, !dbg !2999

bb5:                                              ; preds = %bb2
  %10 = icmp eq i64 %index, %self.1, !dbg !3005
  %11 = zext i1 %10 to i8, !dbg !3005
  store i8 %11, ptr %_0, align 1, !dbg !3005
  br label %bb6, !dbg !3006

bb4:                                              ; preds = %bb2
  %_8 = load ptr, ptr %_3, align 8, !dbg !3007, !nonnull !18, !align !483, !noundef !18
  %b = load i8, ptr %_8, align 1, !dbg !3007, !noundef !18
  store i8 %b, ptr %b.dbg.spill, align 1, !dbg !3007
  call void @llvm.dbg.declare(metadata ptr %b.dbg.spill, metadata !2962, metadata !DIExpression()), !dbg !3008
  call void @llvm.dbg.declare(metadata ptr %b.dbg.spill, metadata !3009, metadata !DIExpression()), !dbg !3015
  %12 = icmp sge i8 %b, -64, !dbg !3017
  %13 = zext i1 %12 to i8, !dbg !3017
  store i8 %13, ptr %_0, align 1, !dbg !3017
  br label %bb6, !dbg !3018

bb6:                                              ; preds = %bb4, %bb5
  br label %bb7, !dbg !2999

bb3:                                              ; No predecessors!
  unreachable, !dbg !3003
}

; core::str::<impl str>::split_at_checked
; Function Attrs: inlinehint uwtable
define internal void @"_ZN4core3str21_$LT$impl$u20$str$GT$16split_at_checked17hfaeba3f9106731b4E"(ptr sret(%"core::option::Option<(&str, &str)>") align 8 %_0, ptr align 1 %self.0, i64 %self.1, i64 %mid) unnamed_addr #0 !dbg !3019 {
start:
  %mid.dbg.spill = alloca i64, align 8
  %self.dbg.spill = alloca { ptr, i64 }, align 8
  %i1 = alloca %"core::ops::range::Range<usize>", align 8
  %i = alloca %"core::ops::range::Range<usize>", align 8
  %_4 = alloca { { ptr, i64 }, { ptr, i64 } }, align 8
  store ptr %self.0, ptr %self.dbg.spill, align 8
  %0 = getelementptr inbounds i8, ptr %self.dbg.spill, i64 8
  store i64 %self.1, ptr %0, align 8
  call void @llvm.dbg.declare(metadata ptr %self.dbg.spill, metadata !3040, metadata !DIExpression()), !dbg !3042
  call void @llvm.dbg.declare(metadata ptr %self.dbg.spill, metadata !3043, metadata !DIExpression()), !dbg !3055
  call void @llvm.dbg.declare(metadata ptr %self.dbg.spill, metadata !3057, metadata !DIExpression()), !dbg !3061
  call void @llvm.dbg.declare(metadata ptr %self.dbg.spill, metadata !3063, metadata !DIExpression()), !dbg !3067
  call void @llvm.dbg.declare(metadata ptr %self.dbg.spill, metadata !3050, metadata !DIExpression()), !dbg !3069
  store i64 %mid, ptr %mid.dbg.spill, align 8
  call void @llvm.dbg.declare(metadata ptr %mid.dbg.spill, metadata !3041, metadata !DIExpression()), !dbg !3071
  call void @llvm.dbg.declare(metadata ptr %i, metadata !3049, metadata !DIExpression()), !dbg !3072
  call void @llvm.dbg.declare(metadata ptr %i1, metadata !3052, metadata !DIExpression()), !dbg !3073
; call core::str::<impl str>::is_char_boundary
  %_3 = call zeroext i1 @"_ZN4core3str21_$LT$impl$u20$str$GT$16is_char_boundary17h73d528374cead619E"(ptr align 1 %self.0, i64 %self.1, i64 %mid), !dbg !3074
  br i1 %_3, label %bb2, label %bb3, !dbg !3074

bb3:                                              ; preds = %start
  store ptr null, ptr %_0, align 8, !dbg !3075
  br label %bb4, !dbg !3076

bb2:                                              ; preds = %start
  store i64 0, ptr %i, align 8, !dbg !3077
  %1 = getelementptr inbounds i8, ptr %i, i64 8, !dbg !3077
  store i64 %mid, ptr %1, align 8, !dbg !3077
  %2 = load i64, ptr %i, align 8, !dbg !3078, !noundef !18
  %3 = getelementptr inbounds i8, ptr %i, i64 8, !dbg !3078
  %4 = load i64, ptr %3, align 8, !dbg !3078, !noundef !18
; call core::str::traits::<impl core::slice::index::SliceIndex<str> for core::ops::range::Range<usize>>::get_unchecked
  %5 = call { ptr, i64 } @"_ZN4core3str6traits108_$LT$impl$u20$core..slice..index..SliceIndex$LT$str$GT$$u20$for$u20$core..ops..range..Range$LT$usize$GT$$GT$13get_unchecked17h67d5ef40e22e4b37E"(i64 %2, i64 %4, ptr %self.0, i64 %self.1), !dbg !3078
  %_10.0 = extractvalue { ptr, i64 } %5, 0, !dbg !3078
  %_10.1 = extractvalue { ptr, i64 } %5, 1, !dbg !3078
  store i64 %mid, ptr %i1, align 8, !dbg !3079
  %6 = getelementptr inbounds i8, ptr %i1, i64 8, !dbg !3079
  store i64 %self.1, ptr %6, align 8, !dbg !3079
  %7 = load i64, ptr %i1, align 8, !dbg !3080, !noundef !18
  %8 = getelementptr inbounds i8, ptr %i1, i64 8, !dbg !3080
  %9 = load i64, ptr %8, align 8, !dbg !3080, !noundef !18
; call core::str::traits::<impl core::slice::index::SliceIndex<str> for core::ops::range::Range<usize>>::get_unchecked
  %10 = call { ptr, i64 } @"_ZN4core3str6traits108_$LT$impl$u20$core..slice..index..SliceIndex$LT$str$GT$$u20$for$u20$core..ops..range..Range$LT$usize$GT$$GT$13get_unchecked17h67d5ef40e22e4b37E"(i64 %7, i64 %9, ptr %self.0, i64 %self.1), !dbg !3080
  %_13.0 = extractvalue { ptr, i64 } %10, 0, !dbg !3080
  %_13.1 = extractvalue { ptr, i64 } %10, 1, !dbg !3080
  store ptr %_10.0, ptr %_4, align 8, !dbg !3081
  %11 = getelementptr inbounds i8, ptr %_4, i64 8, !dbg !3081
  store i64 %_10.1, ptr %11, align 8, !dbg !3081
  %12 = getelementptr inbounds i8, ptr %_4, i64 16, !dbg !3081
  store ptr %_13.0, ptr %12, align 8, !dbg !3081
  %13 = getelementptr inbounds i8, ptr %12, i64 8, !dbg !3081
  store i64 %_13.1, ptr %13, align 8, !dbg !3081
  call void @llvm.memcpy.p0.p0.i64(ptr align 8 %_0, ptr align 8 %_4, i64 32, i1 false), !dbg !3082
  br label %bb4, !dbg !3076

bb4:                                              ; preds = %bb2, %bb3
  ret void, !dbg !3083
}

; core::str::<impl str>::trim_start_matches
; Function Attrs: uwtable
define { ptr, i64 } @"_ZN4core3str21_$LT$impl$u20$str$GT$18trim_start_matches17hefe1d38edd9343d4E"(ptr align 1 %self.0, i64 %self.1, i32 %pat) unnamed_addr #1 personality ptr @rust_eh_personality !dbg !3084 {
start:
  %a.dbg.spill = alloca i64, align 8
  %0 = alloca { ptr, i32, [1 x i32] }, align 8
  %pat.dbg.spill = alloca i32, align 4
  %self.dbg.spill = alloca { ptr, i64 }, align 8
  %i1 = alloca %"core::ops::range::Range<usize>", align 8
  %_5 = alloca %"core::option::Option<(usize, usize)>", align 8
  %matcher = alloca %"core::str::pattern::CharSearcher<'_>", align 8
  %i = alloca i64, align 8
  store ptr %self.0, ptr %self.dbg.spill, align 8
  %1 = getelementptr inbounds i8, ptr %self.dbg.spill, i64 8
  store i64 %self.1, ptr %1, align 8
  call void @llvm.dbg.declare(metadata ptr %self.dbg.spill, metadata !3088, metadata !DIExpression()), !dbg !3108
  call void @llvm.dbg.declare(metadata ptr %self.dbg.spill, metadata !3109, metadata !DIExpression()), !dbg !3115
  call void @llvm.dbg.declare(metadata ptr %self.dbg.spill, metadata !3117, metadata !DIExpression()), !dbg !3123
  call void @llvm.dbg.declare(metadata ptr %self.dbg.spill, metadata !3113, metadata !DIExpression()), !dbg !3125
  call void @llvm.dbg.declare(metadata ptr %self.dbg.spill, metadata !3121, metadata !DIExpression()), !dbg !3127
  call void @llvm.dbg.declare(metadata ptr %self.dbg.spill, metadata !3129, metadata !DIExpression()), !dbg !3134
  store i32 %pat, ptr %pat.dbg.spill, align 4
  call void @llvm.dbg.declare(metadata ptr %pat.dbg.spill, metadata !3089, metadata !DIExpression()), !dbg !3136
  call void @llvm.dbg.declare(metadata ptr %i, metadata !3090, metadata !DIExpression()), !dbg !3137
  call void @llvm.dbg.declare(metadata ptr %matcher, metadata !3092, metadata !DIExpression()), !dbg !3138
  call void @llvm.dbg.declare(metadata ptr %i1, metadata !3133, metadata !DIExpression()), !dbg !3139
  store i64 %self.1, ptr %i, align 8, !dbg !3140
; call <char as core::str::pattern::Pattern>::into_searcher
  call void @"_ZN52_$LT$char$u20$as$u20$core..str..pattern..Pattern$GT$13into_searcher17he2ea138f16001c20E"(ptr sret(%"core::str::pattern::CharSearcher<'_>") align 8 %matcher, i32 %pat, ptr align 1 %self.0, i64 %self.1), !dbg !3141
; invoke core::str::pattern::Searcher::next_reject
  invoke void @_ZN4core3str7pattern8Searcher11next_reject17h634a5bdc599f8cc5E(ptr sret(%"core::option::Option<(usize, usize)>") align 8 %_5, ptr align 8 %matcher)
          to label %bb2 unwind label %cleanup, !dbg !3142

bb6:                                              ; preds = %cleanup
  %2 = load ptr, ptr %0, align 8, !dbg !3143, !noundef !18
  %3 = getelementptr inbounds i8, ptr %0, i64 8, !dbg !3143
  %4 = load i32, ptr %3, align 8, !dbg !3143, !noundef !18
  %5 = insertvalue { ptr, i32 } poison, ptr %2, 0, !dbg !3143
  %6 = insertvalue { ptr, i32 } %5, i32 %4, 1, !dbg !3143
  resume { ptr, i32 } %6, !dbg !3143

cleanup:                                          ; preds = %bb4, %start
  %7 = landingpad { ptr, i32 }
          cleanup
  %8 = extractvalue { ptr, i32 } %7, 0
  %9 = extractvalue { ptr, i32 } %7, 1
  store ptr %8, ptr %0, align 8
  %10 = getelementptr inbounds i8, ptr %0, i64 8
  store i32 %9, ptr %10, align 8
  br label %bb6

bb2:                                              ; preds = %start
  %_7 = load i64, ptr %_5, align 8, !dbg !3144, !range !2155, !noundef !18
  %11 = icmp eq i64 %_7, 1, !dbg !3144
  br i1 %11, label %bb3, label %bb4, !dbg !3144

bb3:                                              ; preds = %bb2
  %12 = getelementptr inbounds i8, ptr %_5, i64 8, !dbg !3145
  %a = load i64, ptr %12, align 8, !dbg !3145, !noundef !18
  store i64 %a, ptr %a.dbg.spill, align 8, !dbg !3145
  call void @llvm.dbg.declare(metadata ptr %a.dbg.spill, metadata !3106, metadata !DIExpression()), !dbg !3145
  store i64 %a, ptr %i, align 8, !dbg !3146
  br label %bb4, !dbg !3147

bb4:                                              ; preds = %bb3, %bb2
  %_10 = load i64, ptr %i, align 8, !dbg !3148, !noundef !18
  store i64 %_10, ptr %i1, align 8, !dbg !3148
  %13 = getelementptr inbounds i8, ptr %i1, i64 8, !dbg !3148
  store i64 %self.1, ptr %13, align 8, !dbg !3148
  %14 = load i64, ptr %i1, align 8, !dbg !3149, !noundef !18
  %15 = getelementptr inbounds i8, ptr %i1, i64 8, !dbg !3149
  %16 = load i64, ptr %15, align 8, !dbg !3149, !noundef !18
; invoke core::str::traits::<impl core::slice::index::SliceIndex<str> for core::ops::range::Range<usize>>::get_unchecked
  %17 = invoke { ptr, i64 } @"_ZN4core3str6traits108_$LT$impl$u20$core..slice..index..SliceIndex$LT$str$GT$$u20$for$u20$core..ops..range..Range$LT$usize$GT$$GT$13get_unchecked17h67d5ef40e22e4b37E"(i64 %14, i64 %16, ptr %self.0, i64 %self.1)
          to label %bb8 unwind label %cleanup, !dbg !3149

bb8:                                              ; preds = %bb4
  %_13.0 = extractvalue { ptr, i64 } %17, 0, !dbg !3149
  %_13.1 = extractvalue { ptr, i64 } %17, 1, !dbg !3149
  %18 = insertvalue { ptr, i64 } poison, ptr %_13.0, 0, !dbg !3150
  %19 = insertvalue { ptr, i64 } %18, i64 %_13.1, 1, !dbg !3150
  ret { ptr, i64 } %19, !dbg !3150

bb9:                                              ; No predecessors!
  unreachable, !dbg !3143
}

; core::str::<impl str>::len
; Function Attrs: inlinehint uwtable
define internal i64 @"_ZN4core3str21_$LT$impl$u20$str$GT$3len17hc744a1ae11ffb2e0E"(ptr align 1 %self.0, i64 %self.1) unnamed_addr #0 !dbg !3151 {
start:
  %self.dbg.spill = alloca { ptr, i64 }, align 8
  store ptr %self.0, ptr %self.dbg.spill, align 8
  %0 = getelementptr inbounds i8, ptr %self.dbg.spill, i64 8
  store i64 %self.1, ptr %0, align 8
  call void @llvm.dbg.declare(metadata ptr %self.dbg.spill, metadata !3153, metadata !DIExpression()), !dbg !3154
  call void @llvm.dbg.declare(metadata ptr %self.dbg.spill, metadata !3155, metadata !DIExpression()), !dbg !3159
  ret i64 %self.1, !dbg !3161
}

; core::str::<impl str>::bytes
; Function Attrs: inlinehint uwtable
define internal { ptr, ptr } @"_ZN4core3str21_$LT$impl$u20$str$GT$5bytes17hc38f838a370bde16E"(ptr align 1 %self.0, i64 %self.1) unnamed_addr #0 !dbg !3162 {
start:
  %end_or_len.dbg.spill = alloca ptr, align 8
  %self.dbg.spill3 = alloca ptr, align 8
  %len.dbg.spill = alloca i64, align 8
  %self.dbg.spill2 = alloca { ptr, i64 }, align 8
  %self.dbg.spill = alloca { ptr, i64 }, align 8
  %self1 = alloca %"core::ptr::non_null::NonNull<[u8]>", align 8
  %ptr = alloca ptr, align 8
  %self = alloca %"core::slice::iter::Iter<'_, u8>", align 8
  %_2 = alloca %"core::iter::adapters::copied::Copied<core::slice::iter::Iter<'_, u8>>", align 8
  %_0 = alloca %"core::str::iter::Bytes<'_>", align 8
  store ptr %self.0, ptr %self.dbg.spill, align 8
  %0 = getelementptr inbounds i8, ptr %self.dbg.spill, i64 8
  store i64 %self.1, ptr %0, align 8
  call void @llvm.dbg.declare(metadata ptr %self.dbg.spill, metadata !3174, metadata !DIExpression()), !dbg !3175
  call void @llvm.dbg.declare(metadata ptr %self.dbg.spill, metadata !3176, metadata !DIExpression()), !dbg !3180
  call void @llvm.dbg.declare(metadata ptr %self, metadata !3182, metadata !DIExpression()), !dbg !3194
  call void @llvm.dbg.declare(metadata ptr %self, metadata !3196, metadata !DIExpression()), !dbg !3202
  call void @llvm.dbg.declare(metadata ptr %ptr, metadata !3204, metadata !DIExpression()), !dbg !3218
  call void @llvm.dbg.declare(metadata ptr %ptr, metadata !3225, metadata !DIExpression()), !dbg !3232
  call void @llvm.dbg.declare(metadata ptr %self1, metadata !3234, metadata !DIExpression()), !dbg !3246
  call void @llvm.dbg.declare(metadata ptr %self1, metadata !3248, metadata !DIExpression()), !dbg !3255
  store ptr %self.0, ptr %self.dbg.spill2, align 8, !dbg !3257
  %1 = getelementptr inbounds i8, ptr %self.dbg.spill2, i64 8, !dbg !3257
  store i64 %self.1, ptr %1, align 8, !dbg !3257
  call void @llvm.dbg.declare(metadata ptr %self.dbg.spill2, metadata !3223, metadata !DIExpression()), !dbg !3258
  call void @llvm.dbg.declare(metadata ptr %self.dbg.spill2, metadata !3214, metadata !DIExpression()), !dbg !3259
  call void @llvm.dbg.declare(metadata ptr %self.dbg.spill2, metadata !3260, metadata !DIExpression()), !dbg !3267
  store i64 %self.1, ptr %len.dbg.spill, align 8, !dbg !3269
  call void @llvm.dbg.declare(metadata ptr %len.dbg.spill, metadata !3215, metadata !DIExpression()), !dbg !3270
  call void @llvm.dbg.declare(metadata ptr %len.dbg.spill, metadata !3271, metadata !DIExpression()), !dbg !3277
  call void @llvm.dbg.declare(metadata ptr %len.dbg.spill, metadata !3279, metadata !DIExpression()), !dbg !3284
  store ptr %self.0, ptr %self1, align 8, !dbg !3286
  %2 = getelementptr inbounds i8, ptr %self1, i64 8, !dbg !3286
  store i64 %self.1, ptr %2, align 8, !dbg !3286
  store ptr %self.0, ptr %ptr, align 8, !dbg !3287
  store ptr %self.0, ptr %self.dbg.spill3, align 8, !dbg !3288
  call void @llvm.dbg.declare(metadata ptr %self.dbg.spill3, metadata !3283, metadata !DIExpression()), !dbg !3289
  %_9 = getelementptr inbounds i8, ptr %self.0, i64 %self.1, !dbg !3290
  store ptr %_9, ptr %end_or_len.dbg.spill, align 8, !dbg !3291
  call void @llvm.dbg.declare(metadata ptr %end_or_len.dbg.spill, metadata !3216, metadata !DIExpression()), !dbg !3292
  %3 = load ptr, ptr %ptr, align 8, !dbg !3293, !nonnull !18, !noundef !18
  store ptr %3, ptr %self, align 8, !dbg !3293
  %4 = getelementptr inbounds i8, ptr %self, i64 8, !dbg !3293
  store ptr %_9, ptr %4, align 8, !dbg !3293
  %5 = load ptr, ptr %self, align 8, !dbg !3294, !nonnull !18, !noundef !18
  %6 = getelementptr inbounds i8, ptr %self, i64 8, !dbg !3294
  %7 = load ptr, ptr %6, align 8, !dbg !3294, !noundef !18
  store ptr %5, ptr %_2, align 8, !dbg !3294
  %8 = getelementptr inbounds i8, ptr %_2, i64 8, !dbg !3294
  store ptr %7, ptr %8, align 8, !dbg !3294
  %9 = load ptr, ptr %_2, align 8, !dbg !3295, !nonnull !18, !noundef !18
  %10 = getelementptr inbounds i8, ptr %_2, i64 8, !dbg !3295
  %11 = load ptr, ptr %10, align 8, !dbg !3295, !noundef !18
  store ptr %9, ptr %_0, align 8, !dbg !3295
  %12 = getelementptr inbounds i8, ptr %_0, i64 8, !dbg !3295
  store ptr %11, ptr %12, align 8, !dbg !3295
  %13 = load ptr, ptr %_0, align 8, !dbg !3296, !nonnull !18, !noundef !18
  %14 = getelementptr inbounds i8, ptr %_0, i64 8, !dbg !3296
  %15 = load ptr, ptr %14, align 8, !dbg !3296, !noundef !18
  %16 = insertvalue { ptr, ptr } poison, ptr %13, 0, !dbg !3296
  %17 = insertvalue { ptr, ptr } %16, ptr %15, 1, !dbg !3296
  ret { ptr, ptr } %17, !dbg !3296
}

; core::str::<impl str>::chars
; Function Attrs: inlinehint uwtable
define internal { ptr, ptr } @"_ZN4core3str21_$LT$impl$u20$str$GT$5chars17h44a6856bdce9bf6cE"(ptr align 1 %self.0, i64 %self.1) unnamed_addr #0 !dbg !3297 {
start:
  %end_or_len.dbg.spill = alloca ptr, align 8
  %self.dbg.spill2 = alloca ptr, align 8
  %len.dbg.spill = alloca i64, align 8
  %self.dbg.spill1 = alloca { ptr, i64 }, align 8
  %self.dbg.spill = alloca { ptr, i64 }, align 8
  %self = alloca %"core::ptr::non_null::NonNull<[u8]>", align 8
  %ptr = alloca ptr, align 8
  %_2 = alloca %"core::slice::iter::Iter<'_, u8>", align 8
  %_0 = alloca %"core::str::iter::Chars<'_>", align 8
  store ptr %self.0, ptr %self.dbg.spill, align 8
  %0 = getelementptr inbounds i8, ptr %self.dbg.spill, i64 8
  store i64 %self.1, ptr %0, align 8
  call void @llvm.dbg.declare(metadata ptr %self.dbg.spill, metadata !3304, metadata !DIExpression()), !dbg !3305
  call void @llvm.dbg.declare(metadata ptr %self.dbg.spill, metadata !3306, metadata !DIExpression()), !dbg !3310
  call void @llvm.dbg.declare(metadata ptr %ptr, metadata !3312, metadata !DIExpression()), !dbg !3322
  call void @llvm.dbg.declare(metadata ptr %ptr, metadata !3329, metadata !DIExpression()), !dbg !3333
  call void @llvm.dbg.declare(metadata ptr %self, metadata !3335, metadata !DIExpression()), !dbg !3339
  call void @llvm.dbg.declare(metadata ptr %self, metadata !3341, metadata !DIExpression()), !dbg !3345
  store ptr %self.0, ptr %self.dbg.spill1, align 8, !dbg !3347
  %1 = getelementptr inbounds i8, ptr %self.dbg.spill1, i64 8, !dbg !3347
  store i64 %self.1, ptr %1, align 8, !dbg !3347
  call void @llvm.dbg.declare(metadata ptr %self.dbg.spill1, metadata !3327, metadata !DIExpression()), !dbg !3348
  call void @llvm.dbg.declare(metadata ptr %self.dbg.spill1, metadata !3318, metadata !DIExpression()), !dbg !3349
  call void @llvm.dbg.declare(metadata ptr %self.dbg.spill1, metadata !3350, metadata !DIExpression()), !dbg !3354
  store i64 %self.1, ptr %len.dbg.spill, align 8, !dbg !3356
  call void @llvm.dbg.declare(metadata ptr %len.dbg.spill, metadata !3319, metadata !DIExpression()), !dbg !3357
  call void @llvm.dbg.declare(metadata ptr %len.dbg.spill, metadata !3358, metadata !DIExpression()), !dbg !3362
  call void @llvm.dbg.declare(metadata ptr %len.dbg.spill, metadata !3364, metadata !DIExpression()), !dbg !3369
  store ptr %self.0, ptr %self, align 8, !dbg !3371
  %2 = getelementptr inbounds i8, ptr %self, i64 8, !dbg !3371
  store i64 %self.1, ptr %2, align 8, !dbg !3371
  store ptr %self.0, ptr %ptr, align 8, !dbg !3372
  store ptr %self.0, ptr %self.dbg.spill2, align 8, !dbg !3373
  call void @llvm.dbg.declare(metadata ptr %self.dbg.spill2, metadata !3368, metadata !DIExpression()), !dbg !3374
  %_8 = getelementptr inbounds i8, ptr %self.0, i64 %self.1, !dbg !3375
  store ptr %_8, ptr %end_or_len.dbg.spill, align 8, !dbg !3376
  call void @llvm.dbg.declare(metadata ptr %end_or_len.dbg.spill, metadata !3320, metadata !DIExpression()), !dbg !3377
  %3 = load ptr, ptr %ptr, align 8, !dbg !3378, !nonnull !18, !noundef !18
  store ptr %3, ptr %_2, align 8, !dbg !3378
  %4 = getelementptr inbounds i8, ptr %_2, i64 8, !dbg !3378
  store ptr %_8, ptr %4, align 8, !dbg !3378
  %5 = load ptr, ptr %_2, align 8, !dbg !3379, !nonnull !18, !noundef !18
  %6 = getelementptr inbounds i8, ptr %_2, i64 8, !dbg !3379
  %7 = load ptr, ptr %6, align 8, !dbg !3379, !noundef !18
  store ptr %5, ptr %_0, align 8, !dbg !3379
  %8 = getelementptr inbounds i8, ptr %_0, i64 8, !dbg !3379
  store ptr %7, ptr %8, align 8, !dbg !3379
  %9 = load ptr, ptr %_0, align 8, !dbg !3380, !nonnull !18, !noundef !18
  %10 = getelementptr inbounds i8, ptr %_0, i64 8, !dbg !3380
  %11 = load ptr, ptr %10, align 8, !dbg !3380, !noundef !18
  %12 = insertvalue { ptr, ptr } poison, ptr %9, 0, !dbg !3380
  %13 = insertvalue { ptr, ptr } %12, ptr %11, 1, !dbg !3380
  ret { ptr, ptr } %13, !dbg !3380
}

; core::str::<impl str>::split
; Function Attrs: inlinehint uwtable
define void @"_ZN4core3str21_$LT$impl$u20$str$GT$5split17h4a1e67bb9bb158e2E"(ptr sret(%"core::str::iter::Split<'_, char>") align 8 %_0, ptr align 1 %self.0, i64 %self.1, i32 %pat) unnamed_addr #0 !dbg !3381 {
start:
  %pat.dbg.spill = alloca i32, align 4
  %self.dbg.spill = alloca { ptr, i64 }, align 8
  %_5 = alloca %"core::str::pattern::CharSearcher<'_>", align 8
  %_3 = alloca %"core::str::iter::SplitInternal<'_, char>", align 8
  store ptr %self.0, ptr %self.dbg.spill, align 8
  %0 = getelementptr inbounds i8, ptr %self.dbg.spill, i64 8
  store i64 %self.1, ptr %0, align 8
  call void @llvm.dbg.declare(metadata ptr %self.dbg.spill, metadata !3395, metadata !DIExpression()), !dbg !3397
  call void @llvm.dbg.declare(metadata ptr %self.dbg.spill, metadata !3398, metadata !DIExpression()), !dbg !3402
  call void @llvm.dbg.declare(metadata ptr %self.dbg.spill, metadata !3404, metadata !DIExpression()), !dbg !3408
  store i32 %pat, ptr %pat.dbg.spill, align 4
  call void @llvm.dbg.declare(metadata ptr %pat.dbg.spill, metadata !3396, metadata !DIExpression()), !dbg !3410
; call <char as core::str::pattern::Pattern>::into_searcher
  call void @"_ZN52_$LT$char$u20$as$u20$core..str..pattern..Pattern$GT$13into_searcher17he2ea138f16001c20E"(ptr sret(%"core::str::pattern::CharSearcher<'_>") align 8 %_5, i32 %pat, ptr align 1 %self.0, i64 %self.1), !dbg !3411
  store i64 0, ptr %_3, align 8, !dbg !3412
  %1 = getelementptr inbounds i8, ptr %_3, i64 8, !dbg !3412
  store i64 %self.1, ptr %1, align 8, !dbg !3412
  %2 = getelementptr inbounds i8, ptr %_3, i64 16, !dbg !3412
  call void @llvm.memcpy.p0.p0.i64(ptr align 8 %2, ptr align 8 %_5, i64 48, i1 false), !dbg !3412
  %3 = getelementptr inbounds i8, ptr %_3, i64 64, !dbg !3412
  store i8 1, ptr %3, align 8, !dbg !3412
  %4 = getelementptr inbounds i8, ptr %_3, i64 65, !dbg !3412
  store i8 0, ptr %4, align 1, !dbg !3412
  call void @llvm.memcpy.p0.p0.i64(ptr align 8 %_0, ptr align 8 %_3, i64 72, i1 false), !dbg !3413
  ret void, !dbg !3414
}

; core::str::<impl str>::is_empty
; Function Attrs: inlinehint uwtable
define internal zeroext i1 @"_ZN4core3str21_$LT$impl$u20$str$GT$8is_empty17h9f940db528475011E"(ptr align 1 %self.0, i64 %self.1) unnamed_addr #0 !dbg !3415 {
start:
  %self.dbg.spill = alloca { ptr, i64 }, align 8
  store ptr %self.0, ptr %self.dbg.spill, align 8
  %0 = getelementptr inbounds i8, ptr %self.dbg.spill, i64 8
  store i64 %self.1, ptr %0, align 8
  call void @llvm.dbg.declare(metadata ptr %self.dbg.spill, metadata !3419, metadata !DIExpression()), !dbg !3420
