; ModuleID = '2nmnrkh56akfyont'
source_filename = "2nmnrkh56akfyont"
target datalayout = "e-m:o-i64:64-i128:128-n32:64-S128"
target triple = "arm64-apple-macosx11.0.0"

%"{closure@src/lib.rs:307:18: 307:24}" = type {}
%"core::option::Option<&str>" = type { ptr, [1 x i64] }
%"core::iter::adapters::filter::Filter<core::iter::adapters::map::Map<core::str::iter::Split<'_, char>, {closure@src/lib.rs:305:18: 305:24}>, {closure@src/lib.rs:306:21: 306:27}>" = type { %"core::iter::adapters::map::Map<core::str::iter::Split<'_, char>, {closure@src/lib.rs:305:18: 305:24}>", %"{closure@src/lib.rs:306:21: 306:27}" }
%"core::iter::adapters::map::Map<core::str::iter::Split<'_, char>, {closure@src/lib.rs:305:18: 305:24}>" = type { %"core::str::iter::Split<'_, char>", %"{closure@src/lib.rs:305:18: 305:24}" }
%"core::str::iter::Split<'_, char>" = type { %"core::str::iter::SplitInternal<'_, char>" }
%"core::str::iter::SplitInternal<'_, char>" = type { i64, i64, %"core::str::pattern::CharSearcher<'_>", i8, i8, [6 x i8] }
%"core::str::pattern::CharSearcher<'_>" = type { { ptr, i64 }, i64, i64, [4 x i8], i32, i8, [7 x i8] }
%"{closure@src/lib.rs:305:18: 305:24}" = type {}
%"{closure@src/lib.rs:306:21: 306:27}" = type {}
%"{closure@core::iter::adapters::filter::filter_fold<&str, core::option::Option<&str>, {closure@src/lib.rs:306:21: 306:27}, {closure@core::iter::adapters::map::map_fold<&str, &str, core::option::Option<&str>, {closure@src/lib.rs:307:18: 307:24}, fn(core::option::Option<&str>, &str) -> core::option::Option<&str> {core::iter::traits::iterator::Iterator::last::some::<&str>}>::{closure#0}}>::{closure#0}}" = type { %"{closure@src/lib.rs:306:21: 306:27}", %"{closure@core::iter::adapters::map::map_fold<&str, &str, core::option::Option<&str>, {closure@src/lib.rs:307:18: 307:24}, fn(core::option::Option<&str>, &str) -> core::option::Option<&str> {core::iter::traits::iterator::Iterator::last::some::<&str>}>::{closure#0}}" }
%"{closure@core::iter::adapters::map::map_fold<&str, &str, core::option::Option<&str>, {closure@src/lib.rs:307:18: 307:24}, fn(core::option::Option<&str>, &str) -> core::option::Option<&str> {core::iter::traits::iterator::Iterator::last::some::<&str>}>::{closure#0}}" = type { {}, %"{closure@src/lib.rs:307:18: 307:24}" }
%"core::result::Result<u16, core::num::error::ParseIntError>" = type { i8, [3 x i8] }
%"core::option::Option<core::result::Result<u16, core::num::error::ParseIntError>>" = type { i8, [3 x i8] }
%"core::option::Option<(usize, char)>" = type { [2 x i32], i32, [1 x i32] }
%"core::ops::control_flow::ControlFlow<(), core::convert::Infallible>::Break" = type { {} }
%"core::ops::control_flow::ControlFlow<&str>" = type { ptr, [1 x i64] }
%"core::ops::control_flow::ControlFlow<&str, core::convert::Infallible>::Break" = type { { ptr, i64 } }
%"core::str::pattern::SearchStep" = type { i64, [2 x i64] }
%"core::ops::range::Range<usize>" = type { i64, i64 }
%"core::ptr::metadata::PtrComponents<[u8]>" = type { ptr, i64 }
%"core::ptr::metadata::PtrRepr<[u8]>" = type { [2 x i64] }
%"core::option::Option<&[u8]>" = type { ptr, [1 x i64] }
%"core::option::Option<(usize, usize)>" = type { i64, [2 x i64] }
%"core::option::Option<(usize, core::result::Result<u16, core::num::error::ParseIntError>)>" = type { [8 x i8], i8, [7 x i8] }
%"core::ops::control_flow::ControlFlow<core::option::Option<core::convert::Infallible>, core::result::Result<u16, core::num::error::ParseIntError>>" = type { i8, [3 x i8] }
%"core::option::Option<core::convert::Infallible>::None" = type {}
%"alloc::collections::btree::map::IntoIter<std::ffi::os_str::OsString, core::option::Option<std::ffi::os_str::OsString>>" = type { %"alloc::collections::btree::navigate::LazyLeafRange<alloc::collections::btree::node::marker::Dying, std::ffi::os_str::OsString, core::option::Option<std::ffi::os_str::OsString>>", i64, %"alloc::alloc::Global" }
%"alloc::collections::btree::navigate::LazyLeafRange<alloc::collections::btree::node::marker::Dying, std::ffi::os_str::OsString, core::option::Option<std::ffi::os_str::OsString>>" = type { %"core::option::Option<alloc::collections::btree::navigate::LazyLeafHandle<alloc::collections::btree::node::marker::Dying, std::ffi::os_str::OsString, core::option::Option<std::ffi::os_str::OsString>>>", %"core::option::Option<alloc::collections::btree::navigate::LazyLeafHandle<alloc::collections::btree::node::marker::Dying, std::ffi::os_str::OsString, core::option::Option<std::ffi::os_str::OsString>>>" }
%"core::option::Option<alloc::collections::btree::navigate::LazyLeafHandle<alloc::collections::btree::node::marker::Dying, std::ffi::os_str::OsString, core::option::Option<std::ffi::os_str::OsString>>>" = type { i64, [3 x i64] }
%"alloc::alloc::Global" = type {}
%"alloc::collections::btree::node::NodeRef<alloc::collections::btree::node::marker::Dying, std::ffi::os_str::OsString, core::option::Option<std::ffi::os_str::OsString>, alloc::collections::btree::node::marker::LeafOrInternal>" = type { ptr, i64, %"core::marker::PhantomData<(alloc::collections::btree::node::marker::Dying, alloc::collections::btree::node::marker::LeafOrInternal)>" }
%"core::marker::PhantomData<(alloc::collections::btree::node::marker::Dying, alloc::collections::btree::node::marker::LeafOrInternal)>" = type {}
%"alloc::collections::btree::navigate::LazyLeafHandle<alloc::collections::btree::node::marker::Dying, std::ffi::os_str::OsString, core::option::Option<std::ffi::os_str::OsString>>" = type { ptr, [2 x i64] }
%"core::option::Option<alloc::collections::btree::node::NodeRef<alloc::collections::btree::node::marker::Owned, std::ffi::os_str::OsString, core::option::Option<std::ffi::os_str::OsString>, alloc::collections::btree::node::marker::LeafOrInternal>>" = type { ptr, [1 x i64] }
%"core::mem::manually_drop::ManuallyDrop<alloc::collections::btree::map::BTreeMap<std::ffi::os_str::OsString, core::option::Option<std::ffi::os_str::OsString>>>" = type { %"alloc::collections::btree::map::BTreeMap<std::ffi::os_str::OsString, core::option::Option<std::ffi::os_str::OsString>>" }
%"alloc::collections::btree::map::BTreeMap<std::ffi::os_str::OsString, core::option::Option<std::ffi::os_str::OsString>>" = type { %"core::option::Option<alloc::collections::btree::node::NodeRef<alloc::collections::btree::node::marker::Owned, std::ffi::os_str::OsString, core::option::Option<std::ffi::os_str::OsString>, alloc::collections::btree::node::marker::LeafOrInternal>>", i64, %"core::mem::manually_drop::ManuallyDrop<alloc::alloc::Global>", %"core::marker::PhantomData<alloc::boxed::Box<(std::ffi::os_str::OsString, core::option::Option<std::ffi::os_str::OsString>)>>" }
%"core::mem::manually_drop::ManuallyDrop<alloc::alloc::Global>" = type { %"alloc::alloc::Global" }
%"core::marker::PhantomData<alloc::boxed::Box<(std::ffi::os_str::OsString, core::option::Option<std::ffi::os_str::OsString>)>>" = type {}
%"alloc::collections::btree::node::Handle<alloc::collections::btree::node::NodeRef<alloc::collections::btree::node::marker::Dying, std::ffi::os_str::OsString, core::option::Option<std::ffi::os_str::OsString>, alloc::collections::btree::node::marker::LeafOrInternal>, alloc::collections::btree::node::marker::KV>" = type { %"alloc::collections::btree::node::NodeRef<alloc::collections::btree::node::marker::Dying, std::ffi::os_str::OsString, core::option::Option<std::ffi::os_str::OsString>, alloc::collections::btree::node::marker::LeafOrInternal>", i64, %"core::marker::PhantomData<alloc::collections::btree::node::marker::KV>" }
%"core::marker::PhantomData<alloc::collections::btree::node::marker::KV>" = type {}
%"core::option::Option<alloc::collections::btree::node::Handle<alloc::collections::btree::node::NodeRef<alloc::collections::btree::node::marker::Dying, std::ffi::os_str::OsString, core::option::Option<std::ffi::os_str::OsString>, alloc::collections::btree::node::marker::LeafOrInternal>, alloc::collections::btree::node::marker::KV>>" = type { ptr, [2 x i64] }
%"std::io::error::ErrorData<alloc::boxed::Box<std::io::error::Custom>>" = type { i8, [15 x i8] }
%"{closure@<std::io::error::repr_bitpacked::Repr as core::ops::drop::Drop>::drop::{closure#0}}" = type {}
%"core::ptr::metadata::PtrComponents<()>" = type { ptr, {} }
%"core::ptr::metadata::PtrRepr<()>" = type { [1 x i64] }
%"core::fmt::rt::UnsafeArg" = type { {} }
%"core::fmt::rt::Count" = type { i64, [1 x i64] }
%"core::result::Result<alloc::string::String, std::env::VarError>" = type { i64, [3 x i64] }
%"core::option::Option<std::ffi::os_str::OsString>" = type { i64, [2 x i64] }
%"alloc::borrow::Cow<'_, str>" = type { i64, [2 x i64] }
%"std::process::Command" = type { %"std::sys::pal::unix::process::process_common::Command" }
%"std::sys::pal::unix::process::process_common::Command" = type { %"alloc::vec::Vec<alloc::ffi::c_str::CString>", %"std::sys::pal::unix::process::process_common::Argv", %"alloc::vec::Vec<alloc::boxed::Box<dyn core::ops::function::FnMut() -> core::result::Result<(), std::io::error::Error> + core::marker::Send + core::marker::Sync>>", %"core::option::Option<u32>", %"core::option::Option<u32>", %"core::option::Option<i32>", %"core::option::Option<std::sys::pal::unix::process::process_common::Stdio>", %"core::option::Option<std::sys::pal::unix::process::process_common::Stdio>", %"core::option::Option<std::sys::pal::unix::process::process_common::Stdio>", %"std::sys_common::process::CommandEnv", %"alloc::ffi::c_str::CString", %"core::option::Option<alloc::ffi::c_str::CString>", %"core::option::Option<alloc::boxed::Box<[u32]>>", i8, i8, [6 x i8] }
%"alloc::vec::Vec<alloc::ffi::c_str::CString>" = type { %"alloc::raw_vec::RawVec<alloc::ffi::c_str::CString>", i64 }
%"alloc::raw_vec::RawVec<alloc::ffi::c_str::CString>" = type { i64, ptr, %"alloc::alloc::Global" }
%"std::sys::pal::unix::process::process_common::Argv" = type { %"alloc::vec::Vec<*const i8>" }
%"alloc::vec::Vec<*const i8>" = type { %"alloc::raw_vec::RawVec<*const i8>", i64 }
%"alloc::raw_vec::RawVec<*const i8>" = type { i64, ptr, %"alloc::alloc::Global" }
%"alloc::vec::Vec<alloc::boxed::Box<dyn core::ops::function::FnMut() -> core::result::Result<(), std::io::error::Error> + core::marker::Send + core::marker::Sync>>" = type { %"alloc::raw_vec::RawVec<alloc::boxed::Box<dyn core::ops::function::FnMut() -> core::result::Result<(), std::io::error::Error> + core::marker::Send + core::marker::Sync>>", i64 }
%"alloc::raw_vec::RawVec<alloc::boxed::Box<dyn core::ops::function::FnMut() -> core::result::Result<(), std::io::error::Error> + core::marker::Send + core::marker::Sync>>" = type { i64, ptr, %"alloc::alloc::Global" }
%"core::option::Option<u32>" = type { i32, [1 x i32] }
%"core::option::Option<i32>" = type { i32, [1 x i32] }
%"core::option::Option<std::sys::pal::unix::process::process_common::Stdio>" = type { i32, [1 x i32] }
%"std::sys_common::process::CommandEnv" = type { %"alloc::collections::btree::map::BTreeMap<std::ffi::os_str::OsString, core::option::Option<std::ffi::os_str::OsString>>", i8, i8, [6 x i8] }
%"alloc::ffi::c_str::CString" = type { %"alloc::boxed::Box<[u8]>" }
%"alloc::boxed::Box<[u8]>" = type { %"core::ptr::unique::Unique<[u8]>", %"alloc::alloc::Global" }
%"core::ptr::unique::Unique<[u8]>" = type { %"core::ptr::non_null::NonNull<[u8]>", %"core::marker::PhantomData<[u8]>" }
%"core::ptr::non_null::NonNull<[u8]>" = type { { ptr, i64 } }
%"core::marker::PhantomData<[u8]>" = type {}
%"core::option::Option<alloc::ffi::c_str::CString>" = type { ptr, [1 x i64] }
%"core::option::Option<alloc::boxed::Box<[u32]>>" = type { ptr, [1 x i64] }
%"alloc::string::String" = type { %"alloc::vec::Vec<u8>" }
%"alloc::vec::Vec<u8>" = type { %"alloc::raw_vec::RawVec<u8>", i64 }
%"alloc::raw_vec::RawVec<u8>" = type { i64, ptr, %"alloc::alloc::Global" }
%"core::str::pattern::CharPredicateSearcher<'_, {closure@core::str::<impl str>::trim_end::{closure#0}}>" = type { %"core::str::pattern::MultiCharEqSearcher<'_, {closure@core::str::<impl str>::trim_end::{closure#0}}>" }
%"core::str::pattern::MultiCharEqSearcher<'_, {closure@core::str::<impl str>::trim_end::{closure#0}}>" = type { { ptr, i64 }, %"core::str::iter::CharIndices<'_>", %"{closure@core::str::<impl str>::trim_end::{closure#0}}" }
%"core::str::iter::CharIndices<'_>" = type { %"core::str::iter::Chars<'_>", i64 }
%"core::str::iter::Chars<'_>" = type { %"core::slice::iter::Iter<'_, u8>" }
%"core::slice::iter::Iter<'_, u8>" = type { ptr, ptr, %"core::marker::PhantomData<&u8>" }
%"core::marker::PhantomData<&u8>" = type {}
%"{closure@core::str::<impl str>::trim_end::{closure#0}}" = type {}
%"core::str::pattern::MultiCharEqPattern<{closure@core::str::<impl str>::trim_end::{closure#0}}>" = type { %"{closure@core::str::<impl str>::trim_end::{closure#0}}" }
%"core::str::pattern::CharPredicateSearcher<'_, {closure@core::str::<impl str>::trim::{closure#0}}>" = type { %"core::str::pattern::MultiCharEqSearcher<'_, {closure@core::str::<impl str>::trim::{closure#0}}>" }
%"core::str::pattern::MultiCharEqSearcher<'_, {closure@core::str::<impl str>::trim::{closure#0}}>" = type { { ptr, i64 }, %"core::str::iter::CharIndices<'_>", %"{closure@core::str::<impl str>::trim::{closure#0}}" }
%"{closure@core::str::<impl str>::trim::{closure#0}}" = type {}
%"core::str::pattern::MultiCharEqPattern<{closure@core::str::<impl str>::trim::{closure#0}}>" = type { %"{closure@core::str::<impl str>::trim::{closure#0}}" }
%"core::str::pattern::CharPredicateSearcher<'_, {closure@core::str::<impl str>::trim_start::{closure#0}}>" = type { %"core::str::pattern::MultiCharEqSearcher<'_, {closure@core::str::<impl str>::trim_start::{closure#0}}>" }
%"core::str::pattern::MultiCharEqSearcher<'_, {closure@core::str::<impl str>::trim_start::{closure#0}}>" = type { { ptr, i64 }, %"core::str::iter::CharIndices<'_>", %"{closure@core::str::<impl str>::trim_start::{closure#0}}" }
%"{closure@core::str::<impl str>::trim_start::{closure#0}}" = type {}
%"core::str::pattern::MultiCharEqPattern<{closure@core::str::<impl str>::trim_start::{closure#0}}>" = type { %"{closure@core::str::<impl str>::trim_start::{closure#0}}" }
%"core::option::Option<usize>" = type { i64, [1 x i64] }
%"core::fmt::Arguments<'_>" = type { { ptr, i64 }, { ptr, i64 }, %"core::option::Option<&[core::fmt::rt::Placeholder]>" }
%"core::option::Option<&[core::fmt::rt::Placeholder]>" = type { ptr, [1 x i64] }
%"alloc::boxed::Box<dyn core::ops::function::FnMut() -> core::result::Result<(), std::io::error::Error> + core::marker::Send + core::marker::Sync>" = type { %"core::ptr::unique::Unique<dyn core::ops::function::FnMut() -> core::result::Result<(), std::io::error::Error> + core::marker::Send + core::marker::Sync>", %"alloc::alloc::Global" }
%"core::ptr::unique::Unique<dyn core::ops::function::FnMut() -> core::result::Result<(), std::io::error::Error> + core::marker::Send + core::marker::Sync>" = type { %"core::ptr::non_null::NonNull<dyn core::ops::function::FnMut() -> core::result::Result<(), std::io::error::Error> + core::marker::Send + core::marker::Sync>", %"core::marker::PhantomData<dyn core::ops::function::FnMut() -> core::result::Result<(), std::io::error::Error> + core::marker::Send + core::marker::Sync>" }
%"core::ptr::non_null::NonNull<dyn core::ops::function::FnMut() -> core::result::Result<(), std::io::error::Error> + core::marker::Send + core::marker::Sync>" = type { { ptr, ptr } }
%"core::marker::PhantomData<dyn core::ops::function::FnMut() -> core::result::Result<(), std::io::error::Error> + core::marker::Send + core::marker::Sync>" = type {}
%"core::str::pattern::StrSearcher<'_, '_>" = type { %"core::str::pattern::StrSearcherImpl", { ptr, i64 }, { ptr, i64 } }
%"core::str::pattern::StrSearcherImpl" = type { i64, [8 x i64] }
%"core::str::iter::Lines<'_>" = type { %"core::iter::adapters::map::Map<core::str::iter::SplitInclusive<'_, char>, core::str::LinesMap>" }
%"core::iter::adapters::map::Map<core::str::iter::SplitInclusive<'_, char>, core::str::LinesMap>" = type { %"core::str::iter::SplitInclusive<'_, char>", %"core::str::LinesMap" }
%"core::str::iter::SplitInclusive<'_, char>" = type { %"core::str::iter::SplitInternal<'_, char>" }
%"core::str::LinesMap" = type {}
%"core::str::iter::Split<'_, &str>" = type { %"core::str::iter::SplitInternal<'_, &str>" }
%"core::str::iter::SplitInternal<'_, &str>" = type { %"core::str::pattern::StrSearcher<'_, '_>", i64, i64, i8, i8, [6 x i8] }
%"core::str::iter::SplitN<'_, &str>" = type { %"core::str::iter::SplitNInternal<'_, &str>" }
%"core::str::iter::SplitNInternal<'_, &str>" = type { %"core::str::iter::SplitInternal<'_, &str>", i64 }
%"core::ops::range::RangeFull" = type {}
%"core::iter::adapters::rev::Rev<core::ops::range::Range<usize>>" = type { %"core::ops::range::Range<usize>" }
%"core::fmt::rt::Argument<'_>" = type { ptr, ptr }
%"core::iter::adapters::map::Map<core::iter::adapters::filter::Filter<core::iter::adapters::map::Map<core::str::iter::Split<'_, char>, {closure@src/lib.rs:305:18: 305:24}>, {closure@src/lib.rs:306:21: 306:27}>, {closure@src/lib.rs:307:18: 307:24}>" = type { %"core::iter::adapters::filter::Filter<core::iter::adapters::map::Map<core::str::iter::Split<'_, char>, {closure@src/lib.rs:305:18: 305:24}>, {closure@src/lib.rs:306:21: 306:27}>", %"{closure@src/lib.rs:307:18: 307:24}" }
%"core::iter::adapters::map::Map<core::str::iter::Split<'_, char>, {closure@src/date.rs:53:47: 53:50}>" = type { %"core::str::iter::Split<'_, char>", %"{closure@src/date.rs:53:47: 53:50}" }
%"{closure@src/date.rs:53:47: 53:50}" = type {}
%"core::iter::adapters::map::Map<core::str::iter::Split<'_, char>, {closure@src/version.rs:62:18: 62:21}>" = type { %"core::str::iter::Split<'_, char>", %"{closure@src/version.rs:62:18: 62:21}" }
%"{closure@src/version.rs:62:18: 62:21}" = type {}
%"{closure@core::iter::adapters::map::map_fold<&str, &str, core::option::Option<&str>, {closure@src/lib.rs:305:18: 305:24}, {closure@core::iter::adapters::filter::filter_fold<&str, core::option::Option<&str>, {closure@src/lib.rs:306:21: 306:27}, {closure@core::iter::adapters::map::map_fold<&str, &str, core::option::Option<&str>, {closure@src/lib.rs:307:18: 307:24}, fn(core::option::Option<&str>, &str) -> core::option::Option<&str> {core::iter::traits::iterator::Iterator::last::some::<&str>}>::{closure#0}}>::{closure#0}}>::{closure#0}}" = type { %"{closure@core::iter::adapters::filter::filter_fold<&str, core::option::Option<&str>, {closure@src/lib.rs:306:21: 306:27}, {closure@core::iter::adapters::map::map_fold<&str, &str, core::option::Option<&str>, {closure@src/lib.rs:307:18: 307:24}, fn(core::option::Option<&str>, &str) -> core::option::Option<&str> {core::iter::traits::iterator::Iterator::last::some::<&str>}>::{closure#0}}>::{closure#0}}", %"{closure@src/lib.rs:305:18: 305:24}" }
%"core::iter::adapters::filter::Filter<core::str::iter::Split<'_, &str>, {closure@src/lib.rs:101:34: 101:37}>" = type { %"core::str::iter::Split<'_, &str>", %"{closure@src/lib.rs:101:34: 101:37}" }
%"{closure@src/lib.rs:101:34: 101:37}" = type {}
%"core::ops::control_flow::ControlFlow<core::ops::control_flow::ControlFlow<&str, core::convert::Infallible>>" = type { ptr, [1 x i64] }
%"core::iter::adapters::enumerate::Enumerate<core::iter::adapters::map::Map<core::str::iter::Split<'_, char>, {closure@src/date.rs:53:47: 53:50}>>" = type { i64, %"core::iter::adapters::map::Map<core::str::iter::Split<'_, char>, {closure@src/date.rs:53:47: 53:50}>" }
%"core::iter::adapters::enumerate::Enumerate<core::iter::adapters::map::Map<core::str::iter::Split<'_, char>, {closure@src/version.rs:62:18: 62:21}>>" = type { i64, %"core::iter::adapters::map::Map<core::str::iter::Split<'_, char>, {closure@src/version.rs:62:18: 62:21}>" }
%"core::alloc::layout::Layout" = type { i64, i64 }
%"core::result::Result<core::alloc::layout::Layout, core::alloc::layout::LayoutError>" = type { i64, [1 x i64] }
%"core::option::Option<alloc::string::String>" = type { i64, [2 x i64] }
%"core::option::Option<(core::option::Option<alloc::string::String>, core::option::Option<alloc::string::String>)>" = type { i64, [5 x i64] }
%"{closure@src/lib.rs:132:14: 132:17}" = type {}
%"core::option::Option<date::Date>" = type { i32, [1 x i32] }
%"core::option::Option<version::Version>" = type { i64, [1 x i64] }
%"{closure@src/lib.rs:103:47: 103:50}" = type {}
%"{closure@src/lib.rs:270:25: 270:28}" = type {}
%"{closure@src/lib.rs:102:14: 102:17}" = type {}
%"core::option::Option<(std::ffi::os_str::OsString, char)>" = type { i64, [3 x i64] }
%"{closure@src/lib.rs:298:50: 298:57}" = type {}
%"std::ffi::os_str::OsString" = type { %"std::sys::os_str::bytes::Buf" }
%"std::sys::os_str::bytes::Buf" = type { %"alloc::vec::Vec<u8>" }
%"{closure@src/lib.rs:103:18: 103:21}" = type {}
%"{closure@src/lib.rs:297:14: 297:21}" = type {}
%"{closure@src/lib.rs:110:59: 110:62}" = type {}
%"{closure@src/lib.rs:298:18: 298:20}" = type {}
%"{closure@src/lib.rs:131:19: 131:27}" = type {}
%"std::process::Output" = type { %"alloc::vec::Vec<u8>", %"alloc::vec::Vec<u8>", i32, [1 x i32] }
%"{closure@src/version.rs:23:23: 23:37}" = type {}
%"{closure@src/channel.rs:31:23: 31:37}" = type {}
%"{closure@src/date.rs:24:23: 24:34}" = type {}
%"{closure@src/version.rs:24:23: 24:32}" = type {}
%"{closure@src/channel.rs:32:23: 32:32}" = type {}
%"{closure@src/date.rs:25:23: 25:29}" = type {}
%"{closure@src/lib.rs:129:50: 129:53}" = type {}
%"std::env::VarError" = type { i64, [2 x i64] }
%"core::option::Option<std::process::Output>" = type { i64, [6 x i64] }
%"core::num::error::TryFromIntError" = type { {} }
%"core::result::Result<u8, core::num::error::TryFromIntError>" = type { i8, [1 x i8] }
%"core::fmt::builders::DebugTuple<'_, '_>" = type { i64, ptr, i8, i8, [6 x i8] }
%"{closure@alloc::collections::btree::navigate::<impl alloc::collections::btree::node::Handle<alloc::collections::btree::node::NodeRef<alloc::collections::btree::node::marker::Dying, std::ffi::os_str::OsString, core::option::Option<std::ffi::os_str::OsString>, alloc::collections::btree::node::marker::Leaf>, alloc::collections::btree::node::marker::Edge>>::deallocating_next_unchecked<alloc::alloc::Global>::{closure#0}}" = type { %"alloc::alloc::Global" }
%"alloc::collections::btree::node::Handle<alloc::collections::btree::node::NodeRef<alloc::collections::btree::node::marker::Dying, std::ffi::os_str::OsString, core::option::Option<std::ffi::os_str::OsString>, alloc::collections::btree::node::marker::Leaf>, alloc::collections::btree::node::marker::Edge>" = type { %"alloc::collections::btree::node::NodeRef<alloc::collections::btree::node::marker::Dying, std::ffi::os_str::OsString, core::option::Option<std::ffi::os_str::OsString>, alloc::collections::btree::node::marker::Leaf>", i64, %"core::marker::PhantomData<alloc::collections::btree::node::marker::Edge>" }
%"alloc::collections::btree::node::NodeRef<alloc::collections::btree::node::marker::Dying, std::ffi::os_str::OsString, core::option::Option<std::ffi::os_str::OsString>, alloc::collections::btree::node::marker::Leaf>" = type { ptr, i64, %"core::marker::PhantomData<(alloc::collections::btree::node::marker::Dying, alloc::collections::btree::node::marker::Leaf)>" }
%"core::marker::PhantomData<(alloc::collections::btree::node::marker::Dying, alloc::collections::btree::node::marker::Leaf)>" = type {}
%"core::marker::PhantomData<alloc::collections::btree::node::marker::Edge>" = type {}
%"alloc::collections::btree::mem::replace::PanicGuard" = type {}
%"core::option::Option<alloc::collections::btree::node::Handle<alloc::collections::btree::node::NodeRef<alloc::collections::btree::node::marker::Dying, std::ffi::os_str::OsString, core::option::Option<std::ffi::os_str::OsString>, alloc::collections::btree::node::marker::Internal>, alloc::collections::btree::node::marker::Edge>>" = type { ptr, [2 x i64] }
%"alloc::collections::btree::node::Handle<alloc::collections::btree::node::NodeRef<alloc::collections::btree::node::marker::Dying, std::ffi::os_str::OsString, core::option::Option<std::ffi::os_str::OsString>, alloc::collections::btree::node::marker::Internal>, alloc::collections::btree::node::marker::Edge>" = type { %"alloc::collections::btree::node::NodeRef<alloc::collections::btree::node::marker::Dying, std::ffi::os_str::OsString, core::option::Option<std::ffi::os_str::OsString>, alloc::collections::btree::node::marker::Internal>", i64, %"core::marker::PhantomData<alloc::collections::btree::node::marker::Edge>" }
%"alloc::collections::btree::node::NodeRef<alloc::collections::btree::node::marker::Dying, std::ffi::os_str::OsString, core::option::Option<std::ffi::os_str::OsString>, alloc::collections::btree::node::marker::Internal>" = type { ptr, i64, %"core::marker::PhantomData<(alloc::collections::btree::node::marker::Dying, alloc::collections::btree::node::marker::Internal)>" }
%"core::marker::PhantomData<(alloc::collections::btree::node::marker::Dying, alloc::collections::btree::node::marker::Internal)>" = type {}
%"core::result::Result<alloc::collections::btree::node::Handle<alloc::collections::btree::node::NodeRef<alloc::collections::btree::node::marker::Dying, std::ffi::os_str::OsString, core::option::Option<std::ffi::os_str::OsString>, alloc::collections::btree::node::marker::Internal>, alloc::collections::btree::node::marker::Edge>, alloc::collections::btree::node::NodeRef<alloc::collections::btree::node::marker::Dying, std::ffi::os_str::OsString, core::option::Option<std::ffi::os_str::OsString>, alloc::collections::btree::node::marker::LeafOrInternal>>" = type { ptr, [2 x i64] }
%"core::ptr::metadata::PtrRepr<[core::mem::maybe_uninit::MaybeUninit<core::option::Option<std::ffi::os_str::OsString>>]>" = type { [2 x i64] }
%"core::ptr::metadata::PtrRepr<[core::mem::maybe_uninit::MaybeUninit<std::ffi::os_str::OsString>]>" = type { [2 x i64] }
%"core::mem::maybe_uninit::MaybeUninit<std::ffi::os_str::OsString>" = type { [3 x i64] }
%"core::mem::maybe_uninit::MaybeUninit<core::option::Option<std::ffi::os_str::OsString>>" = type { [3 x i64] }
%"core::ptr::metadata::PtrRepr<[core::mem::maybe_uninit::MaybeUninit<core::ptr::non_null::NonNull<alloc::collections::btree::node::LeafNode<std::ffi::os_str::OsString, core::option::Option<std::ffi::os_str::OsString>>>>]>" = type { [2 x i64] }
%"alloc::collections::btree::node::ForceResult<alloc::collections::btree::node::NodeRef<alloc::collections::btree::node::marker::Dying, std::ffi::os_str::OsString, core::option::Option<std::ffi::os_str::OsString>, alloc::collections::btree::node::marker::Leaf>, alloc::collections::btree::node::NodeRef<alloc::collections::btree::node::marker::Dying, std::ffi::os_str::OsString, core::option::Option<std::ffi::os_str::OsString>, alloc::collections::btree::node::marker::Internal>>" = type { i64, [2 x i64] }
%"alloc::collections::btree::node::Handle<alloc::collections::btree::node::NodeRef<alloc::collections::btree::node::marker::Dying, std::ffi::os_str::OsString, core::option::Option<std::ffi::os_str::OsString>, alloc::collections::btree::node::marker::Internal>, alloc::collections::btree::node::marker::KV>" = type { %"alloc::collections::btree::node::NodeRef<alloc::collections::btree::node::marker::Dying, std::ffi::os_str::OsString, core::option::Option<std::ffi::os_str::OsString>, alloc::collections::btree::node::marker::Internal>", i64, %"core::marker::PhantomData<alloc::collections::btree::node::marker::KV>" }
%"alloc::collections::btree::node::Handle<alloc::collections::btree::node::NodeRef<alloc::collections::btree::node::marker::Dying, std::ffi::os_str::OsString, core::option::Option<std::ffi::os_str::OsString>, alloc::collections::btree::node::marker::Leaf>, alloc::collections::btree::node::marker::KV>" = type { %"alloc::collections::btree::node::NodeRef<alloc::collections::btree::node::marker::Dying, std::ffi::os_str::OsString, core::option::Option<std::ffi::os_str::OsString>, alloc::collections::btree::node::marker::Leaf>", i64, %"core::marker::PhantomData<alloc::collections::btree::node::marker::KV>" }
%"alloc::collections::btree::node::ForceResult<alloc::collections::btree::node::Handle<alloc::collections::btree::node::NodeRef<alloc::collections::btree::node::marker::Dying, std::ffi::os_str::OsString, core::option::Option<std::ffi::os_str::OsString>, alloc::collections::btree::node::marker::Leaf>, alloc::collections::btree::node::marker::KV>, alloc::collections::btree::node::Handle<alloc::collections::btree::node::NodeRef<alloc::collections::btree::node::marker::Dying, std::ffi::os_str::OsString, core::option::Option<std::ffi::os_str::OsString>, alloc::collections::btree::node::marker::Internal>, alloc::collections::btree::node::marker::KV>>" = type { i64, [3 x i64] }
%"core::option::Option<(alloc::collections::btree::node::Handle<alloc::collections::btree::node::NodeRef<alloc::collections::btree::node::marker::Dying, std::ffi::os_str::OsString, core::option::Option<std::ffi::os_str::OsString>, alloc::collections::btree::node::marker::Leaf>, alloc::collections::btree::node::marker::Edge>, alloc::collections::btree::node::Handle<alloc::collections::btree::node::NodeRef<alloc::collections::btree::node::marker::Dying, std::ffi::os_str::OsString, core::option::Option<std::ffi::os_str::OsString>, alloc::collections::btree::node::marker::LeafOrInternal>, alloc::collections::btree::node::marker::KV>)>" = type { ptr, [5 x i64] }
%"alloc::collections::btree::node::Handle<alloc::collections::btree::node::NodeRef<alloc::collections::btree::node::marker::Dying, std::ffi::os_str::OsString, core::option::Option<std::ffi::os_str::OsString>, alloc::collections::btree::node::marker::LeafOrInternal>, alloc::collections::btree::node::marker::Edge>" = type { %"alloc::collections::btree::node::NodeRef<alloc::collections::btree::node::marker::Dying, std::ffi::os_str::OsString, core::option::Option<std::ffi::os_str::OsString>, alloc::collections::btree::node::marker::LeafOrInternal>", i64, %"core::marker::PhantomData<alloc::collections::btree::node::marker::Edge>" }
%"core::result::Result<alloc::collections::btree::node::Handle<alloc::collections::btree::node::NodeRef<alloc::collections::btree::node::marker::Dying, std::ffi::os_str::OsString, core::option::Option<std::ffi::os_str::OsString>, alloc::collections::btree::node::marker::LeafOrInternal>, alloc::collections::btree::node::marker::KV>, alloc::collections::btree::node::Handle<alloc::collections::btree::node::NodeRef<alloc::collections::btree::node::marker::Dying, std::ffi::os_str::OsString, core::option::Option<std::ffi::os_str::OsString>, alloc::collections::btree::node::marker::LeafOrInternal>, alloc::collections::btree::node::marker::Edge>>" = type { i64, [3 x i64] }
%"core::option::Option<alloc::collections::btree::node::Handle<alloc::collections::btree::node::NodeRef<alloc::collections::btree::node::marker::Dying, std::ffi::os_str::OsString, core::option::Option<std::ffi::os_str::OsString>, alloc::collections::btree::node::marker::Leaf>, alloc::collections::btree::node::marker::Edge>>" = type { ptr, [2 x i64] }
%"core::ops::control_flow::ControlFlow<core::option::Option<core::convert::Infallible>, alloc::collections::btree::navigate::LazyLeafHandle<alloc::collections::btree::node::marker::Dying, std::ffi::os_str::OsString, core::option::Option<std::ffi::os_str::OsString>>>" = type { i64, [3 x i64] }
%"core::result::Result<core::ptr::non_null::NonNull<[u8]>, core::alloc::AllocError>" = type { ptr, [1 x i64] }
%"core::alloc::AllocError" = type {}
%"core::result::Result<core::convert::Infallible, core::alloc::AllocError>::Err" = type { %"core::alloc::AllocError" }
%"core::result::Result<alloc::string::String, alloc::string::FromUtf8Error>" = type { i64, [4 x i64] }
%"alloc::string::FromUtf8Error" = type { %"alloc::vec::Vec<u8>", %"core::str::error::Utf8Error" }
%"core::str::error::Utf8Error" = type { i64, %"core::option::Option<u8>", [6 x i8] }
%"core::option::Option<u8>" = type { i8, [1 x i8] }
%"core::result::Result<&str, core::str::error::Utf8Error>" = type { i64, [2 x i64] }
%"alloc::collections::TryReserveErrorKind" = type { i64, [1 x i64] }
%"core::option::Option<(core::ptr::non_null::NonNull<u8>, core::alloc::layout::Layout)>" = type { [1 x i64], i64, [1 x i64] }
%"core::ptr::metadata::PtrComponents<[*const i8]>" = type { ptr, i64 }
%"core::ptr::metadata::PtrRepr<[*const i8]>" = type { [2 x i64] }
%"core::ptr::metadata::PtrComponents<[alloc::ffi::c_str::CString]>" = type { ptr, i64 }
%"core::ptr::metadata::PtrRepr<[alloc::ffi::c_str::CString]>" = type { [2 x i64] }
%"core::ptr::metadata::PtrComponents<[alloc::boxed::Box<dyn core::ops::function::FnMut() -> core::result::Result<(), std::io::error::Error> + core::marker::Send + core::marker::Sync>]>" = type { ptr, i64 }
%"core::ptr::metadata::PtrRepr<[alloc::boxed::Box<dyn core::ops::function::FnMut() -> core::result::Result<(), std::io::error::Error> + core::marker::Send + core::marker::Sync>]>" = type { [2 x i64] }
%"core::ptr::non_null::NonNull<dyn core::error::Error + core::marker::Send + core::marker::Sync>" = type { { ptr, ptr } }
%"core::ptr::non_null::NonNull<[u32]>" = type { { ptr, i64 } }
%"{closure@<core::str::iter::Chars<'_> as core::iter::traits::iterator::Iterator>::next::{closure#0}}" = type {}
%"core::ops::control_flow::ControlFlow<core::option::Option<core::convert::Infallible>, &[u8]>" = type { ptr, [1 x i64] }
%"{closure@<core::str::iter::Chars<'_> as core::iter::traits::double_ended::DoubleEndedIterator>::next_back::{closure#0}}" = type {}
%"core::fmt::rt::Placeholder" = type { %"core::fmt::rt::Count", %"core::fmt::rt::Count", i64, i32, i32, i8, [7 x i8] }
%"{closure@src/lib.rs:110:21: 110:30}" = type {}
%"core::result::Result<std::process::Output, std::io::error::Error>" = type { i64, [6 x i64] }
%"core::option::Option<(version::Version, channel::Channel, date::Date)>" = type { [8 x i8], i8, [7 x i8] }

@0 = private unnamed_addr constant <{ [8 x i8], [4 x i8], [4 x i8] }> <{ [8 x i8] undef, [4 x i8] c"\00\00\11\00", [4 x i8] undef }>, align 8
@alloc_0dc6db72fcead760fba2799443fc0f82 = private unnamed_addr constant <{ [64 x i8] }> <{ [64 x i8] c"slice::get_unchecked requires that the range is within the slice" }>, align 1
@alloc_8bc4d99c9de504799214701ea609a64b = private unnamed_addr constant <{ [68 x i8] }> <{ [68 x i8] c"slice::get_unchecked_mut requires that the range is within the slice" }>, align 1
@1 = private unnamed_addr constant <{ [8 x i8], [8 x i8] }> <{ [8 x i8] zeroinitializer, [8 x i8] undef }>, align 8
@alloc_a5869cf5c211a4021ad47df57f69cf0d = private unnamed_addr constant <{ [91 x i8] }> <{ [91 x i8] c"/rustc/46b180ec2452d388c5d9c14009442e2e0beb01d7/library/core/src/iter/adapters/enumerate.rs" }>, align 1
@alloc_e644bbe572686fdbe11c9dbdc434ddd2 = private unnamed_addr constant <{ ptr, [16 x i8] }> <{ ptr @alloc_a5869cf5c211a4021ad47df57f69cf0d, [16 x i8] c"[\00\00\00\00\00\00\001\00\00\00\09\00\00\00" }>, align 8
@str.0 = internal unnamed_addr constant [28 x i8] c"attempt to add with overflow"
@2 = private unnamed_addr constant <{ [8 x i8], [8 x i8] }> <{ [8 x i8] c"\02\00\00\00\00\00\00\00", [8 x i8] undef }>, align 8
@3 = private unnamed_addr constant <{ [16 x i8] }> <{ [16 x i8] c"\00\00\00\00\00\00\00\00\12\00\00\00\00\00\00\00" }>, align 8
@alloc_a500d906b91607583596fa15e63c2ada = private unnamed_addr constant <{ [40 x i8] }> <{ [40 x i8] c"internal error: entered unreachable code" }>, align 1
@alloc_316bb6b2ab2b5a9e65173f25628be79b = private unnamed_addr constant <{ [90 x i8] }> <{ [90 x i8] c"/rustc/46b180ec2452d388c5d9c14009442e2e0beb01d7/library/std/src/io/error/repr_bitpacked.rs" }>, align 1
@alloc_58a4045e21a346c8c471dc8330ab58ff = private unnamed_addr constant <{ ptr, [16 x i8] }> <{ ptr @alloc_316bb6b2ab2b5a9e65173f25628be79b, [16 x i8] c"Z\00\00\00\00\00\00\00\1D\01\00\00\0D\00\00\00" }>, align 8
@alloc_ae6dc619079e3c3b08144a35532ecff7 = private unnamed_addr constant <{ [2 x i8] }> <{ [2 x i8] c"()" }>, align 1
@alloc_763310d78c99c2c1ad3f8a9821e942f3 = private unnamed_addr constant <{ [61 x i8] }> <{ [61 x i8] c"is_nonoverlapping: `size_of::<T>() * count` overflows a usize" }>, align 1
@alloc_8df0580a595a87d56789d20c7318e185 = private unnamed_addr constant <{ [166 x i8] }> <{ [166 x i8] c"unsafe precondition(s) violated: ptr::copy_nonoverlapping requires that both pointer arguments are aligned and non-null and the specified memory ranges do not overlap" }>, align 1
@alloc_fad0cd83b7d1858a846a172eb260e593 = private unnamed_addr constant <{ [42 x i8] }> <{ [42 x i8] c"is_aligned_to: align is not a power-of-two" }>, align 1
@alloc_041983ee8170efdaaf95ba67fd072d26 = private unnamed_addr constant <{ ptr, [8 x i8] }> <{ ptr @alloc_fad0cd83b7d1858a846a172eb260e593, [8 x i8] c"*\00\00\00\00\00\00\00" }>, align 8
@alloc_513570631223a12912d85da2bec3b15a = private unnamed_addr constant <{}> zeroinitializer, align 8
@alloc_f1802761b0cba8787ff63a6853b741ad = private unnamed_addr constant <{ [81 x i8] }> <{ [81 x i8] c"/rustc/46b180ec2452d388c5d9c14009442e2e0beb01d7/library/core/src/ptr/const_ptr.rs" }>, align 1
@alloc_33f991fa5bbac1da9d8a778b0f014caf = private unnamed_addr constant <{ ptr, [16 x i8] }> <{ ptr @alloc_f1802761b0cba8787ff63a6853b741ad, [16 x i8] c"Q\00\00\00\00\00\00\00T\06\00\00\0D\00\00\00" }>, align 8
@alloc_91c7fa63c3cfeaa3c795652d5cf060e4 = private unnamed_addr constant <{ [12 x i8] }> <{ [12 x i8] c"invalid args" }>, align 1
@alloc_af99043bc04c419363a7f04d23183506 = private unnamed_addr constant <{ ptr, [8 x i8] }> <{ ptr @alloc_91c7fa63c3cfeaa3c795652d5cf060e4, [8 x i8] c"\0C\00\00\00\00\00\00\00" }>, align 8
@alloc_b471600b253f24fcc8f91ba747bf2f04 = private unnamed_addr constant <{ [75 x i8] }> <{ [75 x i8] c"/rustc/46b180ec2452d388c5d9c14009442e2e0beb01d7/library/core/src/fmt/mod.rs" }>, align 1
@alloc_4ba2c5ddff77a51f3765b0dd5f2851cc = private unnamed_addr constant <{ ptr, [16 x i8] }> <{ ptr @alloc_b471600b253f24fcc8f91ba747bf2f04, [16 x i8] c"K\00\00\00\00\00\00\00U\01\00\00\0D\00\00\00" }>, align 8
@alloc_d83bad394aa3743d4316ebb57a3b65ab = private unnamed_addr constant <{ [92 x i8] }> <{ [92 x i8] c"unsafe precondition(s) violated: NonZero::new_unchecked requires the argument to be non-zero" }>, align 1
@alloc_d4d2a2a8539eafc62756407d946babb3 = private unnamed_addr constant <{ [110 x i8] }> <{ [110 x i8] c"unsafe precondition(s) violated: ptr::read_volatile requires that the pointer argument is aligned and non-null" }>, align 1
@alloc_20b3d155afd5c58c42e598b7e6d186ef = private unnamed_addr constant <{ [93 x i8] }> <{ [93 x i8] c"unsafe precondition(s) violated: NonNull::new_unchecked requires that the pointer is non-null" }>, align 1
@alloc_ec595fc0e82ef92fc59bd74f68296eae = private unnamed_addr constant <{ [73 x i8] }> <{ [73 x i8] c"assertion failed: 0 < pointee_size && pointee_size <= isize::MAX as usize" }>, align 1
@alloc_4e3a3aaf48410eaea90c90938dabe76a = private unnamed_addr constant <{ ptr, [16 x i8] }> <{ ptr @alloc_f1802761b0cba8787ff63a6853b741ad, [16 x i8] c"Q\00\00\00\00\00\00\00:\03\00\00\09\00\00\00" }>, align 8
@alloc_7efb3a7632b3620f628ce83a521b4d9b = private unnamed_addr constant <{ [71 x i8] }> <{ [71 x i8] c"unsafe precondition(s) violated: ptr::sub_ptr requires `self >= origin`" }>, align 1
@4 = private unnamed_addr constant <{ [4 x i8], [4 x i8] }> <{ [4 x i8] zeroinitializer, [4 x i8] undef }>, align 4
@alloc_b51e084ad98792f1063530f5eecbcef0 = private unnamed_addr constant <{ [69 x i8] }> <{ [69 x i8] c"str::get_unchecked requires that the range is within the string slice" }>, align 1
@alloc_57272ae12ef8af20f00519cc1d95436c = private unnamed_addr constant <{ [79 x i8] }> <{ [79 x i8] c"/rustc/46b180ec2452d388c5d9c14009442e2e0beb01d7/library/core/src/str/pattern.rs" }>, align 1
@alloc_5b2bdd1292661a2bd087b0e186356a6e = private unnamed_addr constant <{ ptr, [16 x i8] }> <{ ptr @alloc_57272ae12ef8af20f00519cc1d95436c, [16 x i8] c"O\00\00\00\00\00\00\00\C3\05\00\00\14\00\00\00" }>, align 8
@alloc_ca437077459c5e03909b318678f76c40 = private unnamed_addr constant <{ ptr, [16 x i8] }> <{ ptr @alloc_57272ae12ef8af20f00519cc1d95436c, [16 x i8] c"O\00\00\00\00\00\00\00\C3\05\00\00!\00\00\00" }>, align 8
@alloc_ab67d2d9f23480996d2b9354b895f83c = private unnamed_addr constant <{ ptr, [16 x i8] }> <{ ptr @alloc_57272ae12ef8af20f00519cc1d95436c, [16 x i8] c"O\00\00\00\00\00\00\00\B7\05\00\00\14\00\00\00" }>, align 8
@alloc_5c607ba7be953f91908504f84ecfb672 = private unnamed_addr constant <{ ptr, [16 x i8] }> <{ ptr @alloc_57272ae12ef8af20f00519cc1d95436c, [16 x i8] c"O\00\00\00\00\00\00\00\B7\05\00\00!\00\00\00" }>, align 8
@alloc_61adccab35c4f0fac6fb9cfc6349abcf = private unnamed_addr constant <{ ptr, [16 x i8] }> <{ ptr @alloc_57272ae12ef8af20f00519cc1d95436c, [16 x i8] c"O\00\00\00\00\00\00\00\1A\06\00\00\14\00\00\00" }>, align 8
@alloc_afc151af2c3b21aa459443a5ed830612 = private unnamed_addr constant <{ ptr, [16 x i8] }> <{ ptr @alloc_57272ae12ef8af20f00519cc1d95436c, [16 x i8] c"O\00\00\00\00\00\00\00\1A\06\00\00!\00\00\00" }>, align 8
@alloc_1943e53cdecfdf6b85360410bc9b8c0f = private unnamed_addr constant <{ ptr, [16 x i8] }> <{ ptr @alloc_57272ae12ef8af20f00519cc1d95436c, [16 x i8] c"O\00\00\00\00\00\00\00\0E\06\00\00\14\00\00\00" }>, align 8
@alloc_1a63c33daa3423745fe1f398af72bbcc = private unnamed_addr constant <{ ptr, [16 x i8] }> <{ ptr @alloc_57272ae12ef8af20f00519cc1d95436c, [16 x i8] c"O\00\00\00\00\00\00\00\0E\06\00\00!\00\00\00" }>, align 8
@alloc_38d865ee598848532cbd764e0d6298fc = private unnamed_addr constant <{ [57 x i8] }> <{ [57 x i8] c"unsafe precondition(s) violated: invalid value for `char`" }>, align 1
@alloc_8b4d80671dc915cc8e9a508581e1d9c7 = private unnamed_addr constant <{ [80 x i8] }> <{ [80 x i8] c"/rustc/46b180ec2452d388c5d9c14009442e2e0beb01d7/library/core/src/char/methods.rs" }>, align 1
@alloc_f63e52aaa984f059a2e6dbe55c3b29c0 = private unnamed_addr constant <{ ptr, [16 x i8] }> <{ ptr @alloc_8b4d80671dc915cc8e9a508581e1d9c7, [16 x i8] c"P\00\00\00\00\00\00\00\05\07\00\00\0D\00\00\00" }>, align 8
@alloc_6b031f9bca8204235732c7c365d04a1d = private unnamed_addr constant <{ [18 x i8] }> <{ [18 x i8] c"encode_utf8: need " }>, align 1
@alloc_28d13efb0f9a95ccb5d02ec33dd195cf = private unnamed_addr constant <{ [19 x i8] }> <{ [19 x i8] c" bytes to encode U+" }>, align 1
@alloc_0d928972d2befd736e581c7fcc5a2f9a = private unnamed_addr constant <{ [21 x i8] }> <{ [21 x i8] c", but the buffer has " }>, align 1
@alloc_d51214f097f67314513b76e97e13aa6b = private unnamed_addr constant <{ ptr, [8 x i8], ptr, [8 x i8], ptr, [8 x i8] }> <{ ptr @alloc_6b031f9bca8204235732c7c365d04a1d, [8 x i8] c"\12\00\00\00\00\00\00\00", ptr @alloc_28d13efb0f9a95ccb5d02ec33dd195cf, [8 x i8] c"\13\00\00\00\00\00\00\00", ptr @alloc_0d928972d2befd736e581c7fcc5a2f9a, [8 x i8] c"\15\00\00\00\00\00\00\00" }>, align 8
@alloc_c75e20ea18464e397f0e51016b47c134 = private unnamed_addr constant <{ ptr, [16 x i8] }> <{ ptr @alloc_8b4d80671dc915cc8e9a508581e1d9c7, [16 x i8] c"P\00\00\00\00\00\00\00\FE\06\00\00\0E\00\00\00" }>, align 8
@alloc_1eb6f53a157dccb32488e066ad957e6d = private unnamed_addr constant <{ [82 x i8] }> <{ [82 x i8] c"unsafe precondition(s) violated: hint::unreachable_unchecked must never be reached" }>, align 1
@alloc_8821998f047ca62cad40e6bc4e4d87c4 = private unnamed_addr constant <{ [1 x i8] }> <{ [1 x i8] c"\01" }>, align 1
@alloc_ba0874c83e0d5d922dde9777ace7637c = private unnamed_addr constant <{ [80 x i8] }> <{ [80 x i8] c"/rustc/46b180ec2452d388c5d9c14009442e2e0beb01d7/library/core/src/alloc/layout.rs" }>, align 1
@alloc_f68de2cf1ceb450073519dc71a218631 = private unnamed_addr constant <{ ptr, [16 x i8] }> <{ ptr @alloc_ba0874c83e0d5d922dde9777ace7637c, [16 x i8] c"P\00\00\00\00\00\00\00\C1\01\00\00)\00\00\00" }>, align 8
@str.1 = internal unnamed_addr constant [25 x i8] c"attempt to divide by zero"
@alloc_96d8bf47b8f8068abd4a6033285d2d72 = private unnamed_addr constant <{ [77 x i8] }> <{ [77 x i8] c"/rustc/46b180ec2452d388c5d9c14009442e2e0beb01d7/library/core/src/slice/mod.rs" }>, align 1
@alloc_38f7b9b361ccf0a4dc48e85558c56ecd = private unnamed_addr constant <{ ptr, [16 x i8] }> <{ ptr @alloc_96d8bf47b8f8068abd4a6033285d2d72, [16 x i8] c"M\00\00\00\00\00\00\00\F6\09\00\00+\00\00\00" }>, align 8
@alloc_e0cb4390079bf80310d14a8bae886081 = private unnamed_addr constant <{ ptr, [16 x i8] }> <{ ptr @alloc_96d8bf47b8f8068abd4a6033285d2d72, [16 x i8] c"M\00\00\00\00\00\00\00\15\0A\00\00\22\00\00\00" }>, align 8
@alloc_81f9ea5ad36a4fd02db0f8c6040ce6ce = private unnamed_addr constant <{ [78 x i8] }> <{ [78 x i8] c"/rustc/46b180ec2452d388c5d9c14009442e2e0beb01d7/library/core/src/intrinsics.rs" }>, align 1
@alloc_3ddfd615a577a80e66751be046ca7362 = private unnamed_addr constant <{ ptr, [16 x i8] }> <{ ptr @alloc_81f9ea5ad36a4fd02db0f8c6040ce6ce, [16 x i8] c"N\00\00\00\00\00\00\00\E6\0A\00\006\00\00\00" }>, align 8
@alloc_11195730e5236cfdc15ea13be1c301f9 = private unnamed_addr constant <{ [162 x i8] }> <{ [162 x i8] c"unsafe precondition(s) violated: slice::from_raw_parts requires the pointer to be aligned and non-null, and the total size of the slice not to exceed `isize::MAX`" }>, align 1
@alloc_579834e174e649c4467c33344a1424d3 = private unnamed_addr constant <{ [80 x i8] }> <{ [80 x i8] c"/rustc/46b180ec2452d388c5d9c14009442e2e0beb01d7/library/core/src/slice/memchr.rs" }>, align 1
@alloc_d57f5babac66c1e2571dda7941a83e5c = private unnamed_addr constant <{ ptr, [16 x i8] }> <{ ptr @alloc_579834e174e649c4467c33344a1424d3, [16 x i8] c"P\00\00\00\00\00\00\00+\00\00\00\0C\00\00\00" }>, align 8
@vtable.2 = private constant <{ ptr, [16 x i8], ptr }> <{ ptr @"_ZN4core3ptr54drop_in_place$LT$core..num..error..TryFromIntError$GT$17h7ffc67814bbc4b70E", [16 x i8] c"\00\00\00\00\00\00\00\00\01\00\00\00\00\00\00\00", ptr @"_ZN70_$LT$core..num..error..TryFromIntError$u20$as$u20$core..fmt..Debug$GT$3fmt17h0c41da0e28865810E" }>, align 8, !dbg !0
@_ZN4core7unicode12unicode_data11white_space14WHITESPACE_MAP17h996058475a43107cE = external global [256 x i8]
@alloc_847f2c32395e9839011f43736afae6a9 = private unnamed_addr constant <{ [88 x i8] }> <{ [88 x i8] c"/rustc/46b180ec2452d388c5d9c14009442e2e0beb01d7/library/core/src/unicode/unicode_data.rs" }>, align 1
@alloc_909c77939de2a784d9a06a1007f6a206 = private unnamed_addr constant <{ ptr, [16 x i8] }> <{ ptr @alloc_847f2c32395e9839011f43736afae6a9, [16 x i8] c"X\00\00\00\00\00\00\00<\02\00\00\12\00\00\00" }>, align 8
@alloc_d53f338d43e1d6c8e775cf87d9fe4025 = private unnamed_addr constant <{ ptr, [16 x i8] }> <{ ptr @alloc_847f2c32395e9839011f43736afae6a9, [16 x i8] c"X\00\00\00\00\00\00\00>\02\00\00\13\00\00\00" }>, align 8
@5 = private unnamed_addr constant <{ [1 x i8], [1 x i8] }> <{ [1 x i8] c"\01", [1 x i8] undef }>, align 1
@alloc_611ea47e56fe111765d49cc77e8ab451 = private unnamed_addr constant <{ [32 x i8] }> <{ [32 x i8] c"char len should be less than 255" }>, align 1
@alloc_fddc122a4deea779b55bf810d8ecbf55 = private unnamed_addr constant <{ ptr, [16 x i8] }> <{ ptr @alloc_57272ae12ef8af20f00519cc1d95436c, [16 x i8] c"O\00\00\00\00\00\00\00,\02\00\00\0E\00\00\00" }>, align 8
@vtable.3 = private constant <{ ptr, [16 x i8], ptr }> <{ ptr @"_ZN4core3ptr28drop_in_place$LT$$RF$u16$GT$17h2fcee45526424e22E", [16 x i8] c"\08\00\00\00\00\00\00\00\08\00\00\00\00\00\00\00", ptr @"_ZN42_$LT$$RF$T$u20$as$u20$core..fmt..Debug$GT$3fmt17hd880e0def4617e06E" }>, align 8, !dbg !19
@alloc_96d1d8ba6adf4d3c0b21c7594a49c268 = private unnamed_addr constant <{ ptr, [16 x i8] }> <{ ptr @alloc_57272ae12ef8af20f00519cc1d95436c, [16 x i8] c"O\00\00\00\00\00\00\00\D0\03\00\00:\00\00\00" }>, align 8
@alloc_bfa61d7e283d89afcae72d5c9c906d04 = private unnamed_addr constant <{ [68 x i8] }> <{ [68 x i8] c"slice::get_unchecked_mut requires that the index is within the slice" }>, align 1
@alloc_8572d294b7d4b9d2125dc5191e02725c = private unnamed_addr constant <{ [64 x i8] }> <{ [64 x i8] c"slice::get_unchecked requires that the index is within the slice" }>, align 1
@alloc_91e175d16bfc90fd88b37aea7835f95e = private unnamed_addr constant <{ [95 x i8] }> <{ [95 x i8] c"/rustc/46b180ec2452d388c5d9c14009442e2e0beb01d7/library/alloc/src/collections/btree/navigate.rs" }>, align 1
@alloc_458a9cda46f10e9dd0c5a2bf3860bfaa = private unnamed_addr constant <{ ptr, [16 x i8] }> <{ ptr @alloc_91e175d16bfc90fd88b37aea7835f95e, [16 x i8] c"_\00\00\00\00\00\00\00Y\02\00\000\00\00\00" }>, align 8
@alloc_b831be5675cd0dbc26e5751a0acfd03d = private unnamed_addr constant <{ ptr, [16 x i8] }> <{ ptr @alloc_91e175d16bfc90fd88b37aea7835f95e, [16 x i8] c"_\00\00\00\00\00\00\00\C7\00\00\00'\00\00\00" }>, align 8
@alloc_f4bf71fcbbf52896239dca6430a1081d = private unnamed_addr constant <{ [72 x i8] }> <{ [72 x i8] c"/rustc/46b180ec2452d388c5d9c14009442e2e0beb01d7/library/alloc/src/str.rs" }>, align 1
@alloc_06dacb44665636ddc2a67a44da182d63 = private unnamed_addr constant <{ ptr, [16 x i8] }> <{ ptr @alloc_f4bf71fcbbf52896239dca6430a1081d, [16 x i8] c"H\00\00\00\00\00\00\00\C1\00\00\00\0E\00\00\00" }>, align 8
@__rust_no_alloc_shim_is_unstable = external global i8
@alloc_5cb263f26a5d50117adfcc5c7225745e = private unnamed_addr constant <{ [15 x i8] }> <{ [15 x i8] c"TryFromIntError" }>, align 1
@vtable.4 = private constant <{ ptr, [16 x i8], ptr }> <{ ptr @"_ZN4core3ptr33drop_in_place$LT$$RF$$LP$$RP$$GT$17h681932d31855fb65E", [16 x i8] c"\08\00\00\00\00\00\00\00\08\00\00\00\00\00\00\00", ptr @"_ZN42_$LT$$RF$T$u20$as$u20$core..fmt..Debug$GT$3fmt17h657a647c6bc1d557E" }>, align 8, !dbg !29
@alloc_0b2d78e73a7efd1b56b17e4cf905c418 = private unnamed_addr constant <{ ptr, [16 x i8] }> <{ ptr @alloc_57272ae12ef8af20f00519cc1d95436c, [16 x i8] c"O\00\00\00\00\00\00\00G\04\00\00$\00\00\00" }>, align 8
@alloc_d2ce886924737ab3c5221f2d890ae742 = private unnamed_addr constant <{ ptr, [16 x i8] }> <{ ptr @alloc_57272ae12ef8af20f00519cc1d95436c, [16 x i8] c"O\00\00\00\00\00\00\00\BF\01\00\007\00\00\00" }>, align 8
@alloc_8718b4e6c6bd4e08d3e0993472c8454f = private unnamed_addr constant <{ ptr, [16 x i8] }> <{ ptr @alloc_57272ae12ef8af20f00519cc1d95436c, [16 x i8] c"O\00\00\00\00\00\00\00\9B\04\00\00$\00\00\00" }>, align 8
@alloc_326653ebd71e42302d9dcd15bb98cecc = private unnamed_addr constant <{ ptr, [16 x i8] }> <{ ptr @alloc_57272ae12ef8af20f00519cc1d95436c, [16 x i8] c"O\00\00\00\00\00\00\00\FB\01\00\007\00\00\00" }>, align 8
@alloc_95a5562872a1640b8666ddb241fccfc1 = private unnamed_addr constant <{ [14 x i8] }> <{ [14 x i8] c"src/version.rs" }>, align 1
@alloc_2508e86e418c65777f9a2068dc253496 = private unnamed_addr constant <{ ptr, [16 x i8] }> <{ ptr @alloc_95a5562872a1640b8666ddb241fccfc1, [16 x i8] c"\0E\00\00\00\00\00\00\00B\00\00\00\0D\00\00\00" }>, align 8
@alloc_0f52f98e9fa44caf6668aeb0b1c94ca5 = private unnamed_addr constant <{ [1 x i8] }> <{ [1 x i8] c"." }>, align 1
@alloc_f9b82f29287f59f673df24ef332544ba = private unnamed_addr constant <{ ptr, [8 x i8], ptr, [8 x i8], ptr, [8 x i8] }> <{ ptr @alloc_513570631223a12912d85da2bec3b15a, [8 x i8] zeroinitializer, ptr @alloc_0f52f98e9fa44caf6668aeb0b1c94ca5, [8 x i8] c"\01\00\00\00\00\00\00\00", ptr @alloc_0f52f98e9fa44caf6668aeb0b1c94ca5, [8 x i8] c"\01\00\00\00\00\00\00\00" }>, align 8
@alloc_6550fdb7b43e9d7a2f0f6367443d3679 = private unnamed_addr constant <{ [8 x i8] }> <{ [8 x i8] c"Version(" }>, align 1
@alloc_94b00be069aafad82a2c6df764237b82 = private unnamed_addr constant <{ [2 x i8] }> <{ [2 x i8] c", " }>, align 1
@alloc_9e3f62b0e6490cc45676dc85f910c2d0 = private unnamed_addr constant <{ [1 x i8] }> <{ [1 x i8] c")" }>, align 1
@alloc_3cda84d67d41bf6f0cbf2e63e29d46f5 = private unnamed_addr constant <{ ptr, [8 x i8], ptr, [8 x i8], ptr, [8 x i8] }> <{ ptr @alloc_6550fdb7b43e9d7a2f0f6367443d3679, [8 x i8] c"\08\00\00\00\00\00\00\00", ptr @alloc_94b00be069aafad82a2c6df764237b82, [8 x i8] c"\02\00\00\00\00\00\00\00", ptr @alloc_9e3f62b0e6490cc45676dc85f910c2d0, [8 x i8] c"\01\00\00\00\00\00\00\00" }>, align 8
@alloc_ed65d8c495f3b7b88d80fbe58e919b5c = private unnamed_addr constant <{ [4 x i8] }> <{ [4 x i8] c"-dev" }>, align 1
@alloc_12dcbe319bdb437b2d068742d0ee3321 = private unnamed_addr constant <{ [3 x i8] }> <{ [3 x i8] c"dev" }>, align 1
@alloc_033c537f15388771d0eefbc459521bc4 = private unnamed_addr constant <{ ptr, [8 x i8] }> <{ ptr @alloc_12dcbe319bdb437b2d068742d0ee3321, [8 x i8] c"\03\00\00\00\00\00\00\00" }>, align 8
@alloc_609bfcce03a39536a45aeeec006f0323 = private unnamed_addr constant <{ [8 x i8] }> <{ [8 x i8] c"-nightly" }>, align 1
@alloc_22ec252afd5f5781ca8ee9b115d4a0d6 = private unnamed_addr constant <{ [7 x i8] }> <{ [7 x i8] c"nightly" }>, align 1
@alloc_15b10119c7cf49f57856b1cf139cbab4 = private unnamed_addr constant <{ ptr, [8 x i8] }> <{ ptr @alloc_22ec252afd5f5781ca8ee9b115d4a0d6, [8 x i8] c"\07\00\00\00\00\00\00\00" }>, align 8
@alloc_0b71e3831e57253cacab7acf8c1c3b16 = private unnamed_addr constant <{ [5 x i8] }> <{ [5 x i8] c"-beta" }>, align 1
@alloc_92cb8dbd9048800436c95cf5749d0776 = private unnamed_addr constant <{ [4 x i8] }> <{ [4 x i8] c"beta" }>, align 1
@alloc_ab5c83b54044641ed9f7541bb7fc7362 = private unnamed_addr constant <{ ptr, [8 x i8] }> <{ ptr @alloc_92cb8dbd9048800436c95cf5749d0776, [8 x i8] c"\04\00\00\00\00\00\00\00" }>, align 8
@alloc_3bb2650aa074fcfb8c10a9c40791bfbc = private unnamed_addr constant <{ [1 x i8] }> <{ [1 x i8] c"-" }>, align 1
@alloc_0e49564fd2eda56bdebee448a4122ce4 = private unnamed_addr constant <{ [6 x i8] }> <{ [6 x i8] c"stable" }>, align 1
@alloc_b99730e73100e73a81f4fbfe74b3821d = private unnamed_addr constant <{ ptr, [8 x i8] }> <{ ptr @alloc_513570631223a12912d85da2bec3b15a, [8 x i8] zeroinitializer }>, align 8
@alloc_071192bcb66ecc7f8d2f92649213dabd = private unnamed_addr constant <{ [11 x i8] }> <{ [11 x i8] c"src/date.rs" }>, align 1
@alloc_c5e393d854c168bbc045dfe4a546b1d1 = private unnamed_addr constant <{ ptr, [16 x i8] }> <{ ptr @alloc_071192bcb66ecc7f8d2f92649213dabd, [16 x i8] c"\0B\00\00\00\00\00\00\006\00\00\00\0D\00\00\00" }>, align 8
@alloc_bbd585e528ef987de089215df6a2badf = private unnamed_addr constant <{ ptr, [8 x i8], ptr, [8 x i8], ptr, [8 x i8] }> <{ ptr @alloc_513570631223a12912d85da2bec3b15a, [8 x i8] zeroinitializer, ptr @alloc_3bb2650aa074fcfb8c10a9c40791bfbc, [8 x i8] c"\01\00\00\00\00\00\00\00", ptr @alloc_3bb2650aa074fcfb8c10a9c40791bfbc, [8 x i8] c"\01\00\00\00\00\00\00\00" }>, align 8
@alloc_0242e8ee118de705af76c627590b82cc = private unnamed_addr constant <{ [1 x i8] }> <{ [1 x i8] c" " }>, align 1
@alloc_b1b3470f60c1a82af05dc4c1628b2ca5 = private unnamed_addr constant <{ [5 x i8] }> <{ [5 x i8] c"rustc" }>, align 1
@alloc_a2824bf3e77af948b7c8d2339df7ef2c = private unnamed_addr constant <{ [8 x i8] }> <{ [8 x i8] c"release:" }>, align 1
@alloc_0f35069f1f9771eef410733461d80cce = private unnamed_addr constant <{ [12 x i8] }> <{ [12 x i8] c"commit-date:" }>, align 1
@alloc_14c43fe6be9850e9c6ac099b83b2e4e2 = private unnamed_addr constant <{ [7 x i8] }> <{ [7 x i8] c"unknown" }>, align 1
@alloc_3b8c95b91c663a5a9387bddd44e7b465 = private unnamed_addr constant <{ [1 x i8] }> <{ [1 x i8] c":" }>, align 1
@alloc_806c1ac911172019779ceab530bc1f0e = private unnamed_addr constant <{ [5 x i8] }> <{ [5 x i8] c"RUSTC" }>, align 1
@alloc_f5ffd2fd1476bab43ad89fb40c72d0c5 = private unnamed_addr constant <{ [10 x i8] }> <{ [10 x i8] c"src/lib.rs" }>, align 1
@alloc_f63969a2cbee02fd179e59aacc83c283 = private unnamed_addr constant <{ ptr, [16 x i8] }> <{ ptr @alloc_f5ffd2fd1476bab43ad89fb40c72d0c5, [16 x i8] c"\0A\00\00\00\00\00\00\00\81\00\00\00#\00\00\00" }>, align 8
@alloc_443253d3104d22c8d62a9652be9fb548 = private unnamed_addr constant <{ [9 x i8] }> <{ [9 x i8] c"--verbose" }>, align 1
@alloc_a887f9858119cc7413062dc002c4d9ab = private unnamed_addr constant <{ [9 x i8] }> <{ [9 x i8] c"--version" }>, align 1
@alloc_07f3eec4949a8d39db630a4a477c65b3 = private unnamed_addr constant <{ [23 x i8] }> <{ [23 x i8] c"CARGO_ENCODED_RUSTFLAGS" }>, align 1
@alloc_6707a1fd64d3d54e86dbc8841e6d816a = private unnamed_addr constant <{ [9 x i8] }> <{ [9 x i8] c"RUSTFLAGS" }>, align 1
@alloc_9bc7f23b9f8ca5426d0539d95c9ebfc5 = private unnamed_addr constant <{ [2 x i8] }> <{ [2 x i8] c"-Z" }>, align 1
@alloc_3f5a3f432cc037101cfa0283db269c57 = private unnamed_addr constant <{ [15 x i8] }> <{ [15 x i8] c"allow-features=" }>, align 1
@alloc_c8e076c26af11ab57f47eff492bf6c5d = private unnamed_addr constant <{ ptr, [16 x i8] }> <{ ptr @alloc_f5ffd2fd1476bab43ad89fb40c72d0c5, [16 x i8] c"\0A\00\00\00\00\00\00\003\01\00\00\1E\00\00\00" }>, align 8

; <core::iter::adapters::map::Map<I,F> as core::iter::traits::iterator::Iterator>::fold
; Function Attrs: uwtable
define { ptr, i64 } @"_ZN102_$LT$core..iter..adapters..map..Map$LT$I$C$F$GT$$u20$as$u20$core..iter..traits..iterator..Iterator$GT$4fold17h0c074d119aaf040aE"(ptr align 8 %self, ptr align 1 %init.0, i64 %init.1) unnamed_addr #0 !dbg !208 {
start:
  %f.dbg.spill = alloca %"{closure@src/lib.rs:307:18: 307:24}", align 1
  %g.dbg.spill = alloca {}, align 1
  %init.dbg.spill = alloca %"core::option::Option<&str>", align 8
  %_4 = alloca %"core::iter::adapters::filter::Filter<core::iter::adapters::map::Map<core::str::iter::Split<'_, char>, {closure@src/lib.rs:305:18: 305:24}>, {closure@src/lib.rs:306:21: 306:27}>", align 8
  call void @llvm.dbg.declare(metadata ptr %self, metadata !293, metadata !DIExpression()), !dbg !300
  store ptr %init.0, ptr %init.dbg.spill, align 8
  %0 = getelementptr inbounds i8, ptr %init.dbg.spill, i64 8
  store i64 %init.1, ptr %0, align 8
  call void @llvm.dbg.declare(metadata ptr %init.dbg.spill, metadata !294, metadata !DIExpression()), !dbg !301
  call void @llvm.dbg.declare(metadata ptr %g.dbg.spill, metadata !295, metadata !DIExpression()), !dbg !302
  call void @llvm.dbg.declare(metadata ptr %g.dbg.spill, metadata !303, metadata !DIExpression()), !dbg !313
  call void @llvm.dbg.declare(metadata ptr %f.dbg.spill, metadata !309, metadata !DIExpression()), !dbg !315
  call void @llvm.memcpy.p0.p0.i64(ptr align 8 %_4, ptr align 8 %self, i64 72, i1 false), !dbg !316
; call <core::iter::adapters::filter::Filter<I,P> as core::iter::traits::iterator::Iterator>::fold
  %1 = call { ptr, i64 } @"_ZN108_$LT$core..iter..adapters..filter..Filter$LT$I$C$P$GT$$u20$as$u20$core..iter..traits..iterator..Iterator$GT$4fold17h13347d19a107a76aE"(ptr align 8 %_4, ptr align 1 %init.0, i64 %init.1), !dbg !316
  %_0.0 = extractvalue { ptr, i64 } %1, 0, !dbg !316
  %_0.1 = extractvalue { ptr, i64 } %1, 1, !dbg !316
  %2 = insertvalue { ptr, i64 } poison, ptr %_0.0, 0, !dbg !317
  %3 = insertvalue { ptr, i64 } %2, i64 %_0.1, 1, !dbg !317
  ret { ptr, i64 } %3, !dbg !317
}

; <core::iter::adapters::map::Map<I,F> as core::iter::traits::iterator::Iterator>::fold
; Function Attrs: uwtable
define { ptr, i64 } @"_ZN102_$LT$core..iter..adapters..map..Map$LT$I$C$F$GT$$u20$as$u20$core..iter..traits..iterator..Iterator$GT$4fold17hc05ab4f9818ce431E"(ptr align 8 %self, ptr align 1 %init.0, i64 %init.1) unnamed_addr #0 !dbg !318 {
start:
  %f.dbg.spill = alloca %"{closure@src/lib.rs:305:18: 305:24}", align 1
  %g.dbg.spill = alloca %"{closure@core::iter::adapters::filter::filter_fold<&str, core::option::Option<&str>, {closure@src/lib.rs:306:21: 306:27}, {closure@core::iter::adapters::map::map_fold<&str, &str, core::option::Option<&str>, {closure@src/lib.rs:307:18: 307:24}, fn(core::option::Option<&str>, &str) -> core::option::Option<&str> {core::iter::traits::iterator::Iterator::last::some::<&str>}>::{closure#0}}>::{closure#0}}", align 1
  %init.dbg.spill = alloca %"core::option::Option<&str>", align 8
  %_4 = alloca %"core::str::iter::Split<'_, char>", align 8
  call void @llvm.dbg.declare(metadata ptr %self, metadata !332, metadata !DIExpression()), !dbg !337
  store ptr %init.0, ptr %init.dbg.spill, align 8
  %0 = getelementptr inbounds i8, ptr %init.dbg.spill, i64 8
  store i64 %init.1, ptr %0, align 8
  call void @llvm.dbg.declare(metadata ptr %init.dbg.spill, metadata !333, metadata !DIExpression()), !dbg !338
  call void @llvm.dbg.declare(metadata ptr %g.dbg.spill, metadata !334, metadata !DIExpression()), !dbg !339
  call void @llvm.dbg.declare(metadata ptr %g.dbg.spill, metadata !340, metadata !DIExpression()), !dbg !350
  call void @llvm.dbg.declare(metadata ptr %f.dbg.spill, metadata !346, metadata !DIExpression()), !dbg !352
  call void @llvm.memcpy.p0.p0.i64(ptr align 8 %_4, ptr align 8 %self, i64 72, i1 false), !dbg !353
; call core::iter::traits::iterator::Iterator::fold
  %1 = call { ptr, i64 } @_ZN4core4iter6traits8iterator8Iterator4fold17hfeab543ebb79db28E(ptr align 8 %_4, ptr align 1 %init.0, i64 %init.1), !dbg !353
  %_0.0 = extractvalue { ptr, i64 } %1, 0, !dbg !353
  %_0.1 = extractvalue { ptr, i64 } %1, 1, !dbg !353
  %2 = insertvalue { ptr, i64 } poison, ptr %_0.0, 0, !dbg !354
  %3 = insertvalue { ptr, i64 } %2, i64 %_0.1, 1, !dbg !354
  ret { ptr, i64 } %3, !dbg !354
}

; <core::iter::adapters::map::Map<I,F> as core::iter::traits::iterator::Iterator>::next
; Function Attrs: inlinehint uwtable
define i32 @"_ZN102_$LT$core..iter..adapters..map..Map$LT$I$C$F$GT$$u20$as$u20$core..iter..traits..iterator..Iterator$GT$4next17h0d1449a234c70985E"(ptr align 8 %self) unnamed_addr #1 !dbg !355 {
start:
  %0 = alloca i32, align 4
  %x.dbg.spill = alloca { ptr, i64 }, align 8
  %f.dbg.spill = alloca ptr, align 8
  %self.dbg.spill = alloca ptr, align 8
  %_8 = alloca { { ptr, i64 } }, align 8
  %_7 = alloca %"core::result::Result<u16, core::num::error::ParseIntError>", align 2
  %self1 = alloca %"core::option::Option<&str>", align 8
  %_0 = alloca %"core::option::Option<core::result::Result<u16, core::num::error::ParseIntError>>", align 2
  store ptr %self, ptr %self.dbg.spill, align 8
  call void @llvm.dbg.declare(metadata ptr %self.dbg.spill, metadata !403, metadata !DIExpression()), !dbg !406
  call void @llvm.dbg.declare(metadata ptr %self1, metadata !407, metadata !DIExpression()), !dbg !422
; call <core::str::iter::Split<P> as core::iter::traits::iterator::Iterator>::next
  %1 = call { ptr, i64 } @"_ZN90_$LT$core..str..iter..Split$LT$P$GT$$u20$as$u20$core..iter..traits..iterator..Iterator$GT$4next17h7b0b04984fca9b82E"(ptr align 8 %self), !dbg !424
  %2 = extractvalue { ptr, i64 } %1, 0, !dbg !424
  %3 = extractvalue { ptr, i64 } %1, 1, !dbg !424
  store ptr %2, ptr %self1, align 8, !dbg !424
  %4 = getelementptr inbounds i8, ptr %self1, i64 8, !dbg !424
  store i64 %3, ptr %4, align 8, !dbg !424
  %f = getelementptr inbounds i8, ptr %self, i64 72, !dbg !425
  store ptr %f, ptr %f.dbg.spill, align 8, !dbg !425
  call void @llvm.dbg.declare(metadata ptr %f.dbg.spill, metadata !419, metadata !DIExpression()), !dbg !426
  %5 = load ptr, ptr %self1, align 8, !dbg !427, !noundef !18
  %6 = ptrtoint ptr %5 to i64, !dbg !427
  %7 = icmp eq i64 %6, 0, !dbg !427
  %_5 = select i1 %7, i64 0, i64 1, !dbg !427
  %8 = icmp eq i64 %_5, 0, !dbg !428
  br i1 %8, label %bb4, label %bb5, !dbg !428

bb4:                                              ; preds = %start
  store i8 2, ptr %_0, align 2, !dbg !429
  br label %bb2, !dbg !430

bb5:                                              ; preds = %start
  %x.0 = load ptr, ptr %self1, align 8, !dbg !431, !nonnull !18, !align !432, !noundef !18
  %9 = getelementptr inbounds i8, ptr %self1, i64 8, !dbg !431
  %x.1 = load i64, ptr %9, align 8, !dbg !431, !noundef !18
  store ptr %x.0, ptr %x.dbg.spill, align 8, !dbg !431
  %10 = getelementptr inbounds i8, ptr %x.dbg.spill, i64 8, !dbg !431
  store i64 %x.1, ptr %10, align 8, !dbg !431
  call void @llvm.dbg.declare(metadata ptr %x.dbg.spill, metadata !420, metadata !DIExpression()), !dbg !433
  store ptr %x.0, ptr %_8, align 8, !dbg !434
  %11 = getelementptr inbounds i8, ptr %_8, i64 8, !dbg !434
  store i64 %x.1, ptr %11, align 8, !dbg !434
  %12 = load ptr, ptr %_8, align 8, !dbg !434, !nonnull !18, !align !432, !noundef !18
  %13 = getelementptr inbounds i8, ptr %_8, i64 8, !dbg !434
  %14 = load i64, ptr %13, align 8, !dbg !434, !noundef !18
; call core::ops::function::impls::<impl core::ops::function::FnOnce<A> for &mut F>::call_once
  %15 = call i32 @"_ZN4core3ops8function5impls80_$LT$impl$u20$core..ops..function..FnOnce$LT$A$GT$$u20$for$u20$$RF$mut$u20$F$GT$9call_once17hc6310331ddc00b77E"(ptr align 1 %f, ptr align 1 %12, i64 %14), !dbg !434
  store i32 %15, ptr %0, align 4, !dbg !434
  call void @llvm.memcpy.p0.p0.i64(ptr align 2 %_7, ptr align 4 %0, i64 4, i1 false), !dbg !434
  call void @llvm.memcpy.p0.p0.i64(ptr align 2 %_0, ptr align 2 %_7, i64 4, i1 false), !dbg !435
  br label %bb2, !dbg !436

bb2:                                              ; preds = %bb5, %bb4
  %16 = load i32, ptr %_0, align 2, !dbg !437
  ret i32 %16, !dbg !437

bb3:                                              ; No predecessors!
  unreachable, !dbg !427
}

; <core::iter::adapters::map::Map<I,F> as core::iter::traits::iterator::Iterator>::next
; Function Attrs: inlinehint uwtable
define { ptr, i64 } @"_ZN102_$LT$core..iter..adapters..map..Map$LT$I$C$F$GT$$u20$as$u20$core..iter..traits..iterator..Iterator$GT$4next17ha262548255e3727dE"(ptr align 8 %self) unnamed_addr #1 !dbg !438 {
start:
  %x.dbg.spill = alloca { ptr, i64 }, align 8
  %f.dbg.spill = alloca ptr, align 8
  %self.dbg.spill = alloca ptr, align 8
  %_8 = alloca { { ptr, i64 } }, align 8
  %self1 = alloca %"core::option::Option<&str>", align 8
  %_0 = alloca %"core::option::Option<&str>", align 8
  store ptr %self, ptr %self.dbg.spill, align 8
  call void @llvm.dbg.declare(metadata ptr %self.dbg.spill, metadata !454, metadata !DIExpression()), !dbg !456
  call void @llvm.dbg.declare(metadata ptr %self1, metadata !457, metadata !DIExpression()), !dbg !471
; call <core::str::iter::SplitInclusive<P> as core::iter::traits::iterator::Iterator>::next
  %0 = call { ptr, i64 } @"_ZN99_$LT$core..str..iter..SplitInclusive$LT$P$GT$$u20$as$u20$core..iter..traits..iterator..Iterator$GT$4next17h33c501ffff2d31b8E"(ptr align 8 %self), !dbg !473
  %1 = extractvalue { ptr, i64 } %0, 0, !dbg !473
  %2 = extractvalue { ptr, i64 } %0, 1, !dbg !473
  store ptr %1, ptr %self1, align 8, !dbg !473
  %3 = getelementptr inbounds i8, ptr %self1, i64 8, !dbg !473
  store i64 %2, ptr %3, align 8, !dbg !473
  %f = getelementptr inbounds i8, ptr %self, i64 72, !dbg !474
  store ptr %f, ptr %f.dbg.spill, align 8, !dbg !474
  call void @llvm.dbg.declare(metadata ptr %f.dbg.spill, metadata !468, metadata !DIExpression()), !dbg !475
  %4 = load ptr, ptr %self1, align 8, !dbg !476, !noundef !18
  %5 = ptrtoint ptr %4 to i64, !dbg !476
  %6 = icmp eq i64 %5, 0, !dbg !476
  %_5 = select i1 %6, i64 0, i64 1, !dbg !476
  %7 = icmp eq i64 %_5, 0, !dbg !477
  br i1 %7, label %bb4, label %bb5, !dbg !477

bb4:                                              ; preds = %start
  store ptr null, ptr %_0, align 8, !dbg !478
  br label %bb2, !dbg !479

bb5:                                              ; preds = %start
  %x.0 = load ptr, ptr %self1, align 8, !dbg !480, !nonnull !18, !align !432, !noundef !18
  %8 = getelementptr inbounds i8, ptr %self1, i64 8, !dbg !480
  %x.1 = load i64, ptr %8, align 8, !dbg !480, !noundef !18
  store ptr %x.0, ptr %x.dbg.spill, align 8, !dbg !480
  %9 = getelementptr inbounds i8, ptr %x.dbg.spill, i64 8, !dbg !480
  store i64 %x.1, ptr %9, align 8, !dbg !480
  call void @llvm.dbg.declare(metadata ptr %x.dbg.spill, metadata !469, metadata !DIExpression()), !dbg !481
  store ptr %x.0, ptr %_8, align 8, !dbg !482
  %10 = getelementptr inbounds i8, ptr %_8, i64 8, !dbg !482
  store i64 %x.1, ptr %10, align 8, !dbg !482
  %11 = load ptr, ptr %_8, align 8, !dbg !482, !nonnull !18, !align !432, !noundef !18
  %12 = getelementptr inbounds i8, ptr %_8, i64 8, !dbg !482
  %13 = load i64, ptr %12, align 8, !dbg !482, !noundef !18
; call core::ops::function::impls::<impl core::ops::function::FnOnce<A> for &mut F>::call_once
  %14 = call { ptr, i64 } @"_ZN4core3ops8function5impls80_$LT$impl$u20$core..ops..function..FnOnce$LT$A$GT$$u20$for$u20$$RF$mut$u20$F$GT$9call_once17h70e21a0fad16108fE"(ptr align 1 %f, ptr align 1 %11, i64 %13), !dbg !482
  %_7.0 = extractvalue { ptr, i64 } %14, 0, !dbg !482
  %_7.1 = extractvalue { ptr, i64 } %14, 1, !dbg !482
  store ptr %_7.0, ptr %_0, align 8, !dbg !483
  %15 = getelementptr inbounds i8, ptr %_0, i64 8, !dbg !483
  store i64 %_7.1, ptr %15, align 8, !dbg !483
  br label %bb2, !dbg !484

bb2:                                              ; preds = %bb5, %bb4
  %16 = load ptr, ptr %_0, align 8, !dbg !485, !align !432, !noundef !18
  %17 = getelementptr inbounds i8, ptr %_0, i64 8, !dbg !485
  %18 = load i64, ptr %17, align 8, !dbg !485
  %19 = insertvalue { ptr, i64 } poison, ptr %16, 0, !dbg !485
  %20 = insertvalue { ptr, i64 } %19, i64 %18, 1, !dbg !485
  ret { ptr, i64 } %20, !dbg !485

bb3:                                              ; No predecessors!
  unreachable, !dbg !476
}

; <core::iter::adapters::map::Map<I,F> as core::iter::traits::iterator::Iterator>::next
; Function Attrs: inlinehint uwtable
define i32 @"_ZN102_$LT$core..iter..adapters..map..Map$LT$I$C$F$GT$$u20$as$u20$core..iter..traits..iterator..Iterator$GT$4next17hebb93ce26fa9401fE"(ptr align 8 %self) unnamed_addr #1 !dbg !486 {
start:
  %0 = alloca i32, align 4
  %x.dbg.spill = alloca { ptr, i64 }, align 8
  %f.dbg.spill = alloca ptr, align 8
  %self.dbg.spill = alloca ptr, align 8
  %_8 = alloca { { ptr, i64 } }, align 8
  %_7 = alloca %"core::result::Result<u16, core::num::error::ParseIntError>", align 2
  %self1 = alloca %"core::option::Option<&str>", align 8
  %_0 = alloca %"core::option::Option<core::result::Result<u16, core::num::error::ParseIntError>>", align 2
  store ptr %self, ptr %self.dbg.spill, align 8
  call void @llvm.dbg.declare(metadata ptr %self.dbg.spill, metadata !501, metadata !DIExpression()), !dbg !503
  call void @llvm.dbg.declare(metadata ptr %self1, metadata !504, metadata !DIExpression()), !dbg !517
; call <core::str::iter::Split<P> as core::iter::traits::iterator::Iterator>::next
  %1 = call { ptr, i64 } @"_ZN90_$LT$core..str..iter..Split$LT$P$GT$$u20$as$u20$core..iter..traits..iterator..Iterator$GT$4next17h7b0b04984fca9b82E"(ptr align 8 %self), !dbg !519
  %2 = extractvalue { ptr, i64 } %1, 0, !dbg !519
  %3 = extractvalue { ptr, i64 } %1, 1, !dbg !519
  store ptr %2, ptr %self1, align 8, !dbg !519
  %4 = getelementptr inbounds i8, ptr %self1, i64 8, !dbg !519
  store i64 %3, ptr %4, align 8, !dbg !519
  %f = getelementptr inbounds i8, ptr %self, i64 72, !dbg !520
  store ptr %f, ptr %f.dbg.spill, align 8, !dbg !520
  call void @llvm.dbg.declare(metadata ptr %f.dbg.spill, metadata !514, metadata !DIExpression()), !dbg !521
  %5 = load ptr, ptr %self1, align 8, !dbg !522, !noundef !18
  %6 = ptrtoint ptr %5 to i64, !dbg !522
  %7 = icmp eq i64 %6, 0, !dbg !522
  %_5 = select i1 %7, i64 0, i64 1, !dbg !522
  %8 = icmp eq i64 %_5, 0, !dbg !523
  br i1 %8, label %bb4, label %bb5, !dbg !523

bb4:                                              ; preds = %start
  store i8 2, ptr %_0, align 2, !dbg !524
  br label %bb2, !dbg !525

bb5:                                              ; preds = %start
  %x.0 = load ptr, ptr %self1, align 8, !dbg !526, !nonnull !18, !align !432, !noundef !18
  %9 = getelementptr inbounds i8, ptr %self1, i64 8, !dbg !526
  %x.1 = load i64, ptr %9, align 8, !dbg !526, !noundef !18
  store ptr %x.0, ptr %x.dbg.spill, align 8, !dbg !526
  %10 = getelementptr inbounds i8, ptr %x.dbg.spill, i64 8, !dbg !526
  store i64 %x.1, ptr %10, align 8, !dbg !526
  call void @llvm.dbg.declare(metadata ptr %x.dbg.spill, metadata !515, metadata !DIExpression()), !dbg !527
  store ptr %x.0, ptr %_8, align 8, !dbg !528
  %11 = getelementptr inbounds i8, ptr %_8, i64 8, !dbg !528
  store i64 %x.1, ptr %11, align 8, !dbg !528
  %12 = load ptr, ptr %_8, align 8, !dbg !528, !nonnull !18, !align !432, !noundef !18
  %13 = getelementptr inbounds i8, ptr %_8, i64 8, !dbg !528
  %14 = load i64, ptr %13, align 8, !dbg !528, !noundef !18
; call core::ops::function::impls::<impl core::ops::function::FnOnce<A> for &mut F>::call_once
  %15 = call i32 @"_ZN4core3ops8function5impls80_$LT$impl$u20$core..ops..function..FnOnce$LT$A$GT$$u20$for$u20$$RF$mut$u20$F$GT$9call_once17hd3dea17358ea612bE"(ptr align 1 %f, ptr align 1 %12, i64 %14), !dbg !528
  store i32 %15, ptr %0, align 4, !dbg !528
  call void @llvm.memcpy.p0.p0.i64(ptr align 2 %_7, ptr align 4 %0, i64 4, i1 false), !dbg !528
  call void @llvm.memcpy.p0.p0.i64(ptr align 2 %_0, ptr align 2 %_7, i64 4, i1 false), !dbg !529
  br label %bb2, !dbg !530

bb2:                                              ; preds = %bb5, %bb4
  %16 = load i32, ptr %_0, align 2, !dbg !531
  ret i32 %16, !dbg !531

bb3:                                              ; No predecessors!
  unreachable, !dbg !522
}

; <core::str::iter::CharIndices as core::iter::traits::double_ended::DoubleEndedIterator>::next_back
; Function Attrs: inlinehint uwtable
define internal { i64, i32 } @"_ZN102_$LT$core..str..iter..CharIndices$u20$as$u20$core..iter..traits..double_ended..DoubleEndedIterator$GT$9next_back17h2d2242940b8dc4e9E"(ptr align 8 %self) unnamed_addr #1 !dbg !532 {
start:
  %index.dbg.spill = alloca i64, align 8
  %subtracted.dbg.spill = alloca ptr, align 8
  %end.dbg.spill = alloca ptr, align 8
  %self.dbg.spill4 = alloca ptr, align 8
  %x.dbg.spill = alloca i32, align 4
  %f.dbg.spill2 = alloca ptr, align 8
  %f.dbg.spill = alloca ptr, align 8
  %self.dbg.spill = alloca ptr, align 8
  %_8 = alloca { i64, i32, [1 x i32] }, align 8
  %self1 = alloca i32, align 4
  %_0 = alloca %"core::option::Option<(usize, char)>", align 8
  store ptr %self, ptr %self.dbg.spill, align 8
  call void @llvm.dbg.declare(metadata ptr %self.dbg.spill, metadata !583, metadata !DIExpression()), !dbg !584
  call void @llvm.dbg.declare(metadata ptr %self1, metadata !585, metadata !DIExpression()), !dbg !618
; call <core::str::iter::Chars as core::iter::traits::double_ended::DoubleEndedIterator>::next_back
  %0 = call i32 @"_ZN96_$LT$core..str..iter..Chars$u20$as$u20$core..iter..traits..double_ended..DoubleEndedIterator$GT$9next_back17hf9a315df621f1eecE"(ptr align 8 %self), !dbg !620, !range !621
  store i32 %0, ptr %self1, align 4, !dbg !620
  %f = getelementptr inbounds i8, ptr %self, i64 16, !dbg !622
  store ptr %f, ptr %f.dbg.spill, align 8, !dbg !622
  call void @llvm.dbg.declare(metadata ptr %f.dbg.spill, metadata !615, metadata !DIExpression(DW_OP_LLVM_fragment, 0, 64)), !dbg !623
  call void @llvm.dbg.declare(metadata ptr %f.dbg.spill, metadata !624, metadata !DIExpression(DW_OP_deref)), !dbg !634
  store ptr %self, ptr %f.dbg.spill2, align 8, !dbg !622
  call void @llvm.dbg.declare(metadata ptr %f.dbg.spill2, metadata !615, metadata !DIExpression(DW_OP_LLVM_fragment, 64, 64)), !dbg !623
  call void @llvm.dbg.declare(metadata ptr %f.dbg.spill2, metadata !631, metadata !DIExpression(DW_OP_deref)), !dbg !634
  call void @llvm.dbg.declare(metadata ptr %f.dbg.spill2, metadata !636, metadata !DIExpression()), !dbg !652
  %1 = load i32, ptr %self1, align 4, !dbg !654, !range !621, !noundef !18
  %2 = icmp eq i32 %1, 1114112, !dbg !654
  %_6 = select i1 %2, i64 0, i64 1, !dbg !654
  %3 = icmp eq i64 %_6, 0, !dbg !655
  br i1 %3, label %bb4, label %bb5, !dbg !655

bb4:                                              ; preds = %start
  %4 = load i64, ptr @0, align 8, !dbg !656
  %5 = load i32, ptr getelementptr inbounds (i8, ptr @0, i64 8), align 8, !dbg !656, !range !621, !noundef !18
  store i64 %4, ptr %_0, align 8, !dbg !656
  %6 = getelementptr inbounds i8, ptr %_0, i64 8, !dbg !656
  store i32 %5, ptr %6, align 8, !dbg !656
  br label %bb2, !dbg !657

bb5:                                              ; preds = %start
  %x = load i32, ptr %self1, align 4, !dbg !658, !range !659, !noundef !18
  store i32 %x, ptr %x.dbg.spill, align 4, !dbg !658
  call void @llvm.dbg.declare(metadata ptr %x.dbg.spill, metadata !616, metadata !DIExpression()), !dbg !660
  call void @llvm.dbg.declare(metadata ptr %x.dbg.spill, metadata !630, metadata !DIExpression()), !dbg !661
  %_10 = load i64, ptr %f, align 8, !dbg !662, !noundef !18
  %self3 = getelementptr inbounds i8, ptr %self, i64 8, !dbg !652
  store ptr %self3, ptr %self.dbg.spill4, align 8, !dbg !652
  call void @llvm.dbg.declare(metadata ptr %self.dbg.spill4, metadata !663, metadata !DIExpression()), !dbg !677
  %end = load ptr, ptr %self3, align 8, !dbg !652, !nonnull !18, !noundef !18
  store ptr %end, ptr %end.dbg.spill, align 8, !dbg !652
  call void @llvm.dbg.declare(metadata ptr %end.dbg.spill, metadata !649, metadata !DIExpression()), !dbg !679
  call void @llvm.dbg.declare(metadata ptr %end.dbg.spill, metadata !680, metadata !DIExpression()), !dbg !689
  %subtracted = load ptr, ptr %self, align 8, !dbg !679, !nonnull !18, !noundef !18
  store ptr %subtracted, ptr %subtracted.dbg.spill, align 8, !dbg !679
  call void @llvm.dbg.declare(metadata ptr %subtracted.dbg.spill, metadata !688, metadata !DIExpression()), !dbg !691
; call core::ptr::const_ptr::<impl *const T>::sub_ptr
  %_11 = call i64 @"_ZN4core3ptr9const_ptr33_$LT$impl$u20$$BP$const$u20$T$GT$7sub_ptr17h5c26949c5a23aa44E"(ptr %end, ptr %subtracted), !dbg !692
  %index = add i64 %_10, %_11, !dbg !662
  store i64 %index, ptr %index.dbg.spill, align 8, !dbg !662
  call void @llvm.dbg.declare(metadata ptr %index.dbg.spill, metadata !632, metadata !DIExpression()), !dbg !693
  store i64 %index, ptr %_8, align 8, !dbg !694
  %7 = getelementptr inbounds i8, ptr %_8, i64 8, !dbg !694
  store i32 %x, ptr %7, align 8, !dbg !694
  %8 = load i64, ptr %_8, align 8, !dbg !695, !noundef !18
  %9 = getelementptr inbounds i8, ptr %_8, i64 8, !dbg !695
  %10 = load i32, ptr %9, align 8, !dbg !695, !range !659, !noundef !18
  store i64 %8, ptr %_0, align 8, !dbg !695
  %11 = getelementptr inbounds i8, ptr %_0, i64 8, !dbg !695
  store i32 %10, ptr %11, align 8, !dbg !695
  br label %bb2, !dbg !696

bb2:                                              ; preds = %bb5, %bb4
  %12 = load i64, ptr %_0, align 8, !dbg !697
  %13 = getelementptr inbounds i8, ptr %_0, i64 8, !dbg !697
  %14 = load i32, ptr %13, align 8, !dbg !697, !range !621, !noundef !18
  %15 = insertvalue { i64, i32 } poison, i64 %12, 0, !dbg !697
  %16 = insertvalue { i64, i32 } %15, i32 %14, 1, !dbg !697
  ret { i64, i32 } %16, !dbg !697

bb3:                                              ; No predecessors!
  unreachable, !dbg !654
}

; <core::ops::control_flow::ControlFlow<B,C> as core::ops::try_trait::FromResidual>::from_residual
; Function Attrs: inlinehint uwtable
define zeroext i1 @"_ZN104_$LT$core..ops..control_flow..ControlFlow$LT$B$C$C$GT$$u20$as$u20$core..ops..try_trait..FromResidual$GT$13from_residual17h2638f45db734f777E"() unnamed_addr #1 !dbg !698 {
start:
  %b.dbg.spill = alloca {}, align 1
  %residual.dbg.spill = alloca %"core::ops::control_flow::ControlFlow<(), core::convert::Infallible>::Break", align 1
  %_0 = alloca i8, align 1
  call void @llvm.dbg.declare(metadata ptr %residual.dbg.spill, metadata !740, metadata !DIExpression()), !dbg !743
  call void @llvm.dbg.declare(metadata ptr %b.dbg.spill, metadata !741, metadata !DIExpression()), !dbg !744
  store i8 1, ptr %_0, align 1, !dbg !745
  %0 = load i8, ptr %_0, align 1, !dbg !746, !range !747, !noundef !18
  %1 = trunc i8 %0 to i1, !dbg !746
  ret i1 %1, !dbg !746
}

; <core::ops::control_flow::ControlFlow<B,C> as core::ops::try_trait::FromResidual>::from_residual
; Function Attrs: inlinehint uwtable
define { ptr, i64 } @"_ZN104_$LT$core..ops..control_flow..ControlFlow$LT$B$C$C$GT$$u20$as$u20$core..ops..try_trait..FromResidual$GT$13from_residual17hc81f5a2fa2a6f65cE"(ptr align 1 %0, i64 %1) unnamed_addr #1 !dbg !748 {
start:
  %b.dbg.spill = alloca { ptr, i64 }, align 8
  %_0 = alloca %"core::ops::control_flow::ControlFlow<&str>", align 8
  %residual = alloca %"core::ops::control_flow::ControlFlow<&str, core::convert::Infallible>::Break", align 8
  store ptr %0, ptr %residual, align 8
  %2 = getelementptr inbounds i8, ptr %residual, i64 8
  store i64 %1, ptr %2, align 8
  call void @llvm.dbg.declare(metadata ptr %residual, metadata !779, metadata !DIExpression()), !dbg !782
  %b.0 = load ptr, ptr %residual, align 8, !dbg !783, !nonnull !18, !align !432, !noundef !18
  %3 = getelementptr inbounds i8, ptr %residual, i64 8, !dbg !783
  %b.1 = load i64, ptr %3, align 8, !dbg !783, !noundef !18
  store ptr %b.0, ptr %b.dbg.spill, align 8, !dbg !783
  %4 = getelementptr inbounds i8, ptr %b.dbg.spill, i64 8, !dbg !783
  store i64 %b.1, ptr %4, align 8, !dbg !783
  call void @llvm.dbg.declare(metadata ptr %b.dbg.spill, metadata !780, metadata !DIExpression()), !dbg !784
  store ptr %b.0, ptr %_0, align 8, !dbg !785
  %5 = getelementptr inbounds i8, ptr %_0, i64 8, !dbg !785
  store i64 %b.1, ptr %5, align 8, !dbg !785
  %6 = load ptr, ptr %_0, align 8, !dbg !786, !align !432, !noundef !18
  %7 = getelementptr inbounds i8, ptr %_0, i64 8, !dbg !786
  %8 = load i64, ptr %7, align 8, !dbg !786
  %9 = insertvalue { ptr, i64 } poison, ptr %6, 0, !dbg !786
  %10 = insertvalue { ptr, i64 } %9, i64 %8, 1, !dbg !786
  ret { ptr, i64 } %10, !dbg !786
}

; <core::str::pattern::MultiCharEqSearcher<C> as core::str::pattern::ReverseSearcher>::next_back
; Function Attrs: inlinehint uwtable
define void @"_ZN104_$LT$core..str..pattern..MultiCharEqSearcher$LT$C$GT$$u20$as$u20$core..str..pattern..ReverseSearcher$GT$9next_back17h73b13a0dac45938aE"(ptr sret(%"core::str::pattern::SearchStep") align 8 %_0, ptr align 8 %self) unnamed_addr #1 !dbg !787 {
start:
  %char_len.dbg.spill = alloca i64, align 8
  %len.dbg.spill = alloca i64, align 8
  %subtracted.dbg.spill12 = alloca ptr, align 8
  %end.dbg.spill10 = alloca ptr, align 8
  %self.dbg.spill8 = alloca ptr, align 8
  %self.dbg.spill6 = alloca ptr, align 8
  %c.dbg.spill = alloca i32, align 4
  %i.dbg.spill = alloca i64, align 8
  %pre_len.dbg.spill = alloca i64, align 8
  %subtracted.dbg.spill = alloca ptr, align 8
  %end.dbg.spill = alloca ptr, align 8
  %self.dbg.spill4 = alloca ptr, align 8
  %self.dbg.spill2 = alloca ptr, align 8
  %s.dbg.spill = alloca ptr, align 8
  %self.dbg.spill = alloca ptr, align 8
  %_5 = alloca %"core::option::Option<(usize, char)>", align 8
  store ptr %self, ptr %self.dbg.spill, align 8
  call void @llvm.dbg.declare(metadata ptr %self.dbg.spill, metadata !821, metadata !DIExpression()), !dbg !833
  %s = getelementptr inbounds i8, ptr %self, i64 16, !dbg !834
  store ptr %s, ptr %s.dbg.spill, align 8, !dbg !834
  call void @llvm.dbg.declare(metadata ptr %s.dbg.spill, metadata !822, metadata !DIExpression()), !dbg !835
  %self1 = getelementptr inbounds i8, ptr %self, i64 16, !dbg !836
  store ptr %self1, ptr %self.dbg.spill2, align 8, !dbg !836
  call void @llvm.dbg.declare(metadata ptr %self.dbg.spill2, metadata !837, metadata !DIExpression()), !dbg !857
  %0 = getelementptr inbounds i8, ptr %self, i64 16, !dbg !857
  %self3 = getelementptr inbounds i8, ptr %0, i64 8, !dbg !857
  store ptr %self3, ptr %self.dbg.spill4, align 8, !dbg !857
  call void @llvm.dbg.declare(metadata ptr %self.dbg.spill4, metadata !859, metadata !DIExpression()), !dbg !865
  %end = load ptr, ptr %self3, align 8, !dbg !857, !nonnull !18, !noundef !18
  store ptr %end, ptr %end.dbg.spill, align 8, !dbg !857
  call void @llvm.dbg.declare(metadata ptr %end.dbg.spill, metadata !845, metadata !DIExpression()), !dbg !867
  call void @llvm.dbg.declare(metadata ptr %end.dbg.spill, metadata !868, metadata !DIExpression()), !dbg !876
  %1 = getelementptr inbounds i8, ptr %self, i64 16, !dbg !867
  %subtracted = load ptr, ptr %1, align 8, !dbg !867, !nonnull !18, !noundef !18
  store ptr %subtracted, ptr %subtracted.dbg.spill, align 8, !dbg !867
  call void @llvm.dbg.declare(metadata ptr %subtracted.dbg.spill, metadata !872, metadata !DIExpression()), !dbg !878
; call core::ptr::const_ptr::<impl *const T>::sub_ptr
  %pre_len = call i64 @"_ZN4core3ptr9const_ptr33_$LT$impl$u20$$BP$const$u20$T$GT$7sub_ptr17h5c26949c5a23aa44E"(ptr %end, ptr %subtracted), !dbg !879
  store i64 %pre_len, ptr %pre_len.dbg.spill, align 8, !dbg !879
  call void @llvm.dbg.declare(metadata ptr %pre_len.dbg.spill, metadata !824, metadata !DIExpression()), !dbg !880
  %_6 = getelementptr inbounds i8, ptr %self, i64 16, !dbg !881
; call <core::str::iter::CharIndices as core::iter::traits::double_ended::DoubleEndedIterator>::next_back
  %2 = call { i64, i32 } @"_ZN102_$LT$core..str..iter..CharIndices$u20$as$u20$core..iter..traits..double_ended..DoubleEndedIterator$GT$9next_back17h2d2242940b8dc4e9E"(ptr align 8 %_6), !dbg !881
  %3 = extractvalue { i64, i32 } %2, 0, !dbg !881
  %4 = extractvalue { i64, i32 } %2, 1, !dbg !881
  store i64 %3, ptr %_5, align 8, !dbg !881
  %5 = getelementptr inbounds i8, ptr %_5, i64 8, !dbg !881
  store i32 %4, ptr %5, align 8, !dbg !881
  %6 = getelementptr inbounds i8, ptr %_5, i64 8, !dbg !882
  %7 = load i32, ptr %6, align 8, !dbg !882, !range !621, !noundef !18
  %8 = icmp eq i32 %7, 1114112, !dbg !882
  %_7 = select i1 %8, i64 0, i64 1, !dbg !882
  %9 = icmp eq i64 %_7, 1, !dbg !882
  br i1 %9, label %bb2, label %bb6, !dbg !882

bb2:                                              ; preds = %start
  %i = load i64, ptr %_5, align 8, !dbg !883, !noundef !18
  store i64 %i, ptr %i.dbg.spill, align 8, !dbg !883
  call void @llvm.dbg.declare(metadata ptr %i.dbg.spill, metadata !826, metadata !DIExpression()), !dbg !883
  %10 = getelementptr inbounds i8, ptr %_5, i64 8, !dbg !884
  %c = load i32, ptr %10, align 8, !dbg !884, !range !659, !noundef !18
  store i32 %c, ptr %c.dbg.spill, align 4, !dbg !884
  call void @llvm.dbg.declare(metadata ptr %c.dbg.spill, metadata !828, metadata !DIExpression()), !dbg !884
  %self5 = getelementptr inbounds i8, ptr %self, i64 16, !dbg !885
  store ptr %self5, ptr %self.dbg.spill6, align 8, !dbg !885
  call void @llvm.dbg.declare(metadata ptr %self.dbg.spill6, metadata !848, metadata !DIExpression()), !dbg !886
  %11 = getelementptr inbounds i8, ptr %self, i64 16, !dbg !886
  %self7 = getelementptr inbounds i8, ptr %11, i64 8, !dbg !886
  store ptr %self7, ptr %self.dbg.spill8, align 8, !dbg !886
  call void @llvm.dbg.declare(metadata ptr %self.dbg.spill8, metadata !863, metadata !DIExpression()), !dbg !888
  %end9 = load ptr, ptr %self7, align 8, !dbg !886, !nonnull !18, !noundef !18
  store ptr %end9, ptr %end.dbg.spill10, align 8, !dbg !886
  call void @llvm.dbg.declare(metadata ptr %end.dbg.spill10, metadata !854, metadata !DIExpression()), !dbg !890
  call void @llvm.dbg.declare(metadata ptr %end.dbg.spill10, metadata !873, metadata !DIExpression()), !dbg !891
  %12 = getelementptr inbounds i8, ptr %self, i64 16, !dbg !890
  %subtracted11 = load ptr, ptr %12, align 8, !dbg !890, !nonnull !18, !noundef !18
  store ptr %subtracted11, ptr %subtracted.dbg.spill12, align 8, !dbg !890
  call void @llvm.dbg.declare(metadata ptr %subtracted.dbg.spill12, metadata !875, metadata !DIExpression()), !dbg !893
; call core::ptr::const_ptr::<impl *const T>::sub_ptr
  %len = call i64 @"_ZN4core3ptr9const_ptr33_$LT$impl$u20$$BP$const$u20$T$GT$7sub_ptr17h5c26949c5a23aa44E"(ptr %end9, ptr %subtracted11), !dbg !894
  store i64 %len, ptr %len.dbg.spill, align 8, !dbg !894
  call void @llvm.dbg.declare(metadata ptr %len.dbg.spill, metadata !829, metadata !DIExpression()), !dbg !895
  %char_len = sub i64 %pre_len, %len, !dbg !896
  store i64 %char_len, ptr %char_len.dbg.spill, align 8, !dbg !896
  call void @llvm.dbg.declare(metadata ptr %char_len.dbg.spill, metadata !831, metadata !DIExpression()), !dbg !897
  %_14 = getelementptr inbounds i8, ptr %self, i64 40, !dbg !898
; call <F as core::str::pattern::MultiCharEq>::matches
  %_13 = call zeroext i1 @"_ZN53_$LT$F$u20$as$u20$core..str..pattern..MultiCharEq$GT$7matches17h69524031d2b43056E"(ptr align 1 %_14, i32 %c), !dbg !898
  br i1 %_13, label %bb4, label %bb5, !dbg !898

bb6:                                              ; preds = %start
  store i64 2, ptr %_0, align 8, !dbg !899
  br label %bb8, !dbg !900

bb5:                                              ; preds = %bb2
  %_16 = add i64 %i, %char_len, !dbg !901
  %13 = getelementptr inbounds i8, ptr %_0, i64 8, !dbg !902
  store i64 %i, ptr %13, align 8, !dbg !902
  %14 = getelementptr inbounds i8, ptr %_0, i64 16, !dbg !902
  store i64 %_16, ptr %14, align 8, !dbg !902
  store i64 1, ptr %_0, align 8, !dbg !902
  br label %bb7, !dbg !903

bb4:                                              ; preds = %bb2
  %_15 = add i64 %i, %char_len, !dbg !904
  %15 = getelementptr inbounds i8, ptr %_0, i64 8, !dbg !905
  store i64 %i, ptr %15, align 8, !dbg !905
  %16 = getelementptr inbounds i8, ptr %_0, i64 16, !dbg !905
  store i64 %_15, ptr %16, align 8, !dbg !905
  store i64 0, ptr %_0, align 8, !dbg !905
  br label %bb7, !dbg !906

bb7:                                              ; preds = %bb4, %bb5
  br label %bb8, !dbg !900

bb8:                                              ; preds = %bb6, %bb7
  ret void, !dbg !900

bb11:                                             ; No predecessors!
  unreachable, !dbg !907
}

; <core::str::pattern::MultiCharEqSearcher<C> as core::str::pattern::ReverseSearcher>::next_back
; Function Attrs: inlinehint uwtable
define void @"_ZN104_$LT$core..str..pattern..MultiCharEqSearcher$LT$C$GT$$u20$as$u20$core..str..pattern..ReverseSearcher$GT$9next_back17hffb9a022b1cedba0E"(ptr sret(%"core::str::pattern::SearchStep") align 8 %_0, ptr align 8 %self) unnamed_addr #1 !dbg !908 {
start:
  %char_len.dbg.spill = alloca i64, align 8
  %len.dbg.spill = alloca i64, align 8
  %subtracted.dbg.spill12 = alloca ptr, align 8
  %end.dbg.spill10 = alloca ptr, align 8
  %self.dbg.spill8 = alloca ptr, align 8
  %self.dbg.spill6 = alloca ptr, align 8
  %c.dbg.spill = alloca i32, align 4
  %i.dbg.spill = alloca i64, align 8
  %pre_len.dbg.spill = alloca i64, align 8
  %subtracted.dbg.spill = alloca ptr, align 8
  %end.dbg.spill = alloca ptr, align 8
  %self.dbg.spill4 = alloca ptr, align 8
  %self.dbg.spill2 = alloca ptr, align 8
  %s.dbg.spill = alloca ptr, align 8
  %self.dbg.spill = alloca ptr, align 8
  %_5 = alloca %"core::option::Option<(usize, char)>", align 8
  store ptr %self, ptr %self.dbg.spill, align 8
  call void @llvm.dbg.declare(metadata ptr %self.dbg.spill, metadata !922, metadata !DIExpression()), !dbg !934
  %s = getelementptr inbounds i8, ptr %self, i64 16, !dbg !935
  store ptr %s, ptr %s.dbg.spill, align 8, !dbg !935
  call void @llvm.dbg.declare(metadata ptr %s.dbg.spill, metadata !923, metadata !DIExpression()), !dbg !936
  %self1 = getelementptr inbounds i8, ptr %self, i64 16, !dbg !937
  store ptr %self1, ptr %self.dbg.spill2, align 8, !dbg !937
  call void @llvm.dbg.declare(metadata ptr %self.dbg.spill2, metadata !938, metadata !DIExpression()), !dbg !958
  %0 = getelementptr inbounds i8, ptr %self, i64 16, !dbg !958
  %self3 = getelementptr inbounds i8, ptr %0, i64 8, !dbg !958
  store ptr %self3, ptr %self.dbg.spill4, align 8, !dbg !958
  call void @llvm.dbg.declare(metadata ptr %self.dbg.spill4, metadata !960, metadata !DIExpression()), !dbg !966
  %end = load ptr, ptr %self3, align 8, !dbg !958, !nonnull !18, !noundef !18
  store ptr %end, ptr %end.dbg.spill, align 8, !dbg !958
  call void @llvm.dbg.declare(metadata ptr %end.dbg.spill, metadata !946, metadata !DIExpression()), !dbg !968
  call void @llvm.dbg.declare(metadata ptr %end.dbg.spill, metadata !969, metadata !DIExpression()), !dbg !977
  %1 = getelementptr inbounds i8, ptr %self, i64 16, !dbg !968
  %subtracted = load ptr, ptr %1, align 8, !dbg !968, !nonnull !18, !noundef !18
  store ptr %subtracted, ptr %subtracted.dbg.spill, align 8, !dbg !968
  call void @llvm.dbg.declare(metadata ptr %subtracted.dbg.spill, metadata !973, metadata !DIExpression()), !dbg !979
; call core::ptr::const_ptr::<impl *const T>::sub_ptr
  %pre_len = call i64 @"_ZN4core3ptr9const_ptr33_$LT$impl$u20$$BP$const$u20$T$GT$7sub_ptr17h5c26949c5a23aa44E"(ptr %end, ptr %subtracted), !dbg !980
  store i64 %pre_len, ptr %pre_len.dbg.spill, align 8, !dbg !980
  call void @llvm.dbg.declare(metadata ptr %pre_len.dbg.spill, metadata !925, metadata !DIExpression()), !dbg !981
  %_6 = getelementptr inbounds i8, ptr %self, i64 16, !dbg !982
; call <core::str::iter::CharIndices as core::iter::traits::double_ended::DoubleEndedIterator>::next_back
  %2 = call { i64, i32 } @"_ZN102_$LT$core..str..iter..CharIndices$u20$as$u20$core..iter..traits..double_ended..DoubleEndedIterator$GT$9next_back17h2d2242940b8dc4e9E"(ptr align 8 %_6), !dbg !982
  %3 = extractvalue { i64, i32 } %2, 0, !dbg !982
  %4 = extractvalue { i64, i32 } %2, 1, !dbg !982
  store i64 %3, ptr %_5, align 8, !dbg !982
  %5 = getelementptr inbounds i8, ptr %_5, i64 8, !dbg !982
  store i32 %4, ptr %5, align 8, !dbg !982
  %6 = getelementptr inbounds i8, ptr %_5, i64 8, !dbg !983
  %7 = load i32, ptr %6, align 8, !dbg !983, !range !621, !noundef !18
  %8 = icmp eq i32 %7, 1114112, !dbg !983
  %_7 = select i1 %8, i64 0, i64 1, !dbg !983
  %9 = icmp eq i64 %_7, 1, !dbg !983
  br i1 %9, label %bb2, label %bb6, !dbg !983

bb2:                                              ; preds = %start
  %i = load i64, ptr %_5, align 8, !dbg !984, !noundef !18
  store i64 %i, ptr %i.dbg.spill, align 8, !dbg !984
  call void @llvm.dbg.declare(metadata ptr %i.dbg.spill, metadata !927, metadata !DIExpression()), !dbg !984
  %10 = getelementptr inbounds i8, ptr %_5, i64 8, !dbg !985
  %c = load i32, ptr %10, align 8, !dbg !985, !range !659, !noundef !18
  store i32 %c, ptr %c.dbg.spill, align 4, !dbg !985
  call void @llvm.dbg.declare(metadata ptr %c.dbg.spill, metadata !929, metadata !DIExpression()), !dbg !985
  %self5 = getelementptr inbounds i8, ptr %self, i64 16, !dbg !986
  store ptr %self5, ptr %self.dbg.spill6, align 8, !dbg !986
  call void @llvm.dbg.declare(metadata ptr %self.dbg.spill6, metadata !949, metadata !DIExpression()), !dbg !987
  %11 = getelementptr inbounds i8, ptr %self, i64 16, !dbg !987
  %self7 = getelementptr inbounds i8, ptr %11, i64 8, !dbg !987
  store ptr %self7, ptr %self.dbg.spill8, align 8, !dbg !987
  call void @llvm.dbg.declare(metadata ptr %self.dbg.spill8, metadata !964, metadata !DIExpression()), !dbg !989
  %end9 = load ptr, ptr %self7, align 8, !dbg !987, !nonnull !18, !noundef !18
  store ptr %end9, ptr %end.dbg.spill10, align 8, !dbg !987
  call void @llvm.dbg.declare(metadata ptr %end.dbg.spill10, metadata !955, metadata !DIExpression()), !dbg !991
  call void @llvm.dbg.declare(metadata ptr %end.dbg.spill10, metadata !974, metadata !DIExpression()), !dbg !992
  %12 = getelementptr inbounds i8, ptr %self, i64 16, !dbg !991
  %subtracted11 = load ptr, ptr %12, align 8, !dbg !991, !nonnull !18, !noundef !18
  store ptr %subtracted11, ptr %subtracted.dbg.spill12, align 8, !dbg !991
  call void @llvm.dbg.declare(metadata ptr %subtracted.dbg.spill12, metadata !976, metadata !DIExpression()), !dbg !994
; call core::ptr::const_ptr::<impl *const T>::sub_ptr
  %len = call i64 @"_ZN4core3ptr9const_ptr33_$LT$impl$u20$$BP$const$u20$T$GT$7sub_ptr17h5c26949c5a23aa44E"(ptr %end9, ptr %subtracted11), !dbg !995
  store i64 %len, ptr %len.dbg.spill, align 8, !dbg !995
  call void @llvm.dbg.declare(metadata ptr %len.dbg.spill, metadata !930, metadata !DIExpression()), !dbg !996
  %char_len = sub i64 %pre_len, %len, !dbg !997
  store i64 %char_len, ptr %char_len.dbg.spill, align 8, !dbg !997
  call void @llvm.dbg.declare(metadata ptr %char_len.dbg.spill, metadata !932, metadata !DIExpression()), !dbg !998
  %_14 = getelementptr inbounds i8, ptr %self, i64 40, !dbg !999
; call <F as core::str::pattern::MultiCharEq>::matches
  %_13 = call zeroext i1 @"_ZN53_$LT$F$u20$as$u20$core..str..pattern..MultiCharEq$GT$7matches17ha3a4591350815a90E"(ptr align 1 %_14, i32 %c), !dbg !999
  br i1 %_13, label %bb4, label %bb5, !dbg !999

bb6:                                              ; preds = %start
  store i64 2, ptr %_0, align 8, !dbg !1000
  br label %bb8, !dbg !1001

bb5:                                              ; preds = %bb2
  %_16 = add i64 %i, %char_len, !dbg !1002
  %13 = getelementptr inbounds i8, ptr %_0, i64 8, !dbg !1003
  store i64 %i, ptr %13, align 8, !dbg !1003
  %14 = getelementptr inbounds i8, ptr %_0, i64 16, !dbg !1003
  store i64 %_16, ptr %14, align 8, !dbg !1003
  store i64 1, ptr %_0, align 8, !dbg !1003
  br label %bb7, !dbg !1004

bb4:                                              ; preds = %bb2
  %_15 = add i64 %i, %char_len, !dbg !1005
  %15 = getelementptr inbounds i8, ptr %_0, i64 8, !dbg !1006
  store i64 %i, ptr %15, align 8, !dbg !1006
  %16 = getelementptr inbounds i8, ptr %_0, i64 16, !dbg !1006
  store i64 %_15, ptr %16, align 8, !dbg !1006
  store i64 0, ptr %_0, align 8, !dbg !1006
  br label %bb7, !dbg !1007

bb7:                                              ; preds = %bb4, %bb5
  br label %bb8, !dbg !1001

bb8:                                              ; preds = %bb6, %bb7
  ret void, !dbg !1001

bb11:                                             ; No predecessors!
  unreachable, !dbg !1008
}

; <core::ops::range::Range<usize> as core::slice::index::SliceIndex<[T]>>::get_unchecked
; Function Attrs: inlinehint uwtable
define { ptr, i64 } @"_ZN106_$LT$core..ops..range..Range$LT$usize$GT$$u20$as$u20$core..slice..index..SliceIndex$LT$$u5b$T$u5d$$GT$$GT$13get_unchecked17hdb0cf2e73392a053E"(i64 %self.0, i64 %self.1, ptr %slice.0, i64 %slice.1) unnamed_addr #1 !dbg !1009 {
start:
  %data_pointer.dbg.spill = alloca ptr, align 8
  %data.dbg.spill = alloca ptr, align 8
  %self.dbg.spill1 = alloca ptr, align 8
  %new_len.dbg.spill = alloca i64, align 8
  %count.dbg.spill = alloca i64, align 8
  %slice.dbg.spill = alloca { ptr, i64 }, align 8
  %self.dbg.spill = alloca %"core::ops::range::Range<usize>", align 8
  %_18 = alloca %"core::ptr::metadata::PtrComponents<[u8]>", align 8
  %_17 = alloca %"core::ptr::metadata::PtrRepr<[u8]>", align 8
  %_15 = alloca %"core::ptr::metadata::PtrRepr<[u8]>", align 8
  store i64 %self.0, ptr %self.dbg.spill, align 8
  %0 = getelementptr inbounds i8, ptr %self.dbg.spill, i64 8
  store i64 %self.1, ptr %0, align 8
  call void @llvm.dbg.declare(metadata ptr %self.dbg.spill, metadata !1027, metadata !DIExpression()), !dbg !1031
  store ptr %slice.0, ptr %slice.dbg.spill, align 8
  %1 = getelementptr inbounds i8, ptr %slice.dbg.spill, i64 8
  store i64 %slice.1, ptr %1, align 8
  call void @llvm.dbg.declare(metadata ptr %slice.dbg.spill, metadata !1028, metadata !DIExpression()), !dbg !1032
  call void @llvm.dbg.declare(metadata ptr %slice.dbg.spill, metadata !1033, metadata !DIExpression()), !dbg !1040
  call void @llvm.dbg.declare(metadata ptr %slice.dbg.spill, metadata !1042, metadata !DIExpression()), !dbg !1048
  call void @llvm.dbg.declare(metadata ptr %slice.dbg.spill, metadata !1050, metadata !DIExpression()), !dbg !1056
  br label %bb1, !dbg !1058

bb1:                                              ; preds = %start
  %_4 = icmp uge i64 %self.1, %self.0, !dbg !1059
  br i1 %_4, label %bb2, label %bb5, !dbg !1059

bb5:                                              ; preds = %bb1
  br label %bb6, !dbg !1060

bb2:                                              ; preds = %bb1
  store ptr %slice.0, ptr %_15, align 8, !dbg !1063
  %2 = getelementptr inbounds i8, ptr %_15, i64 8, !dbg !1063
  store i64 %slice.1, ptr %2, align 8, !dbg !1063
  %3 = getelementptr inbounds i8, ptr %_15, i64 8, !dbg !1063
  %_8 = load i64, ptr %3, align 8, !dbg !1063, !noundef !18
  %_7 = icmp ule i64 %self.1, %_8, !dbg !1064
  br i1 %_7, label %bb3, label %bb4, !dbg !1064

bb6:                                              ; preds = %bb4, %bb5
; call core::panicking::panic_nounwind
  call void @_ZN4core9panicking14panic_nounwind17h50c31e15afde233eE(ptr align 1 @alloc_0dc6db72fcead760fba2799443fc0f82, i64 64) #16, !dbg !1058
  unreachable, !dbg !1058

bb4:                                              ; preds = %bb2
  br label %bb6, !dbg !1060

bb3:                                              ; preds = %bb2
  br label %bb7, !dbg !1058

bb7:                                              ; preds = %bb3
  store i64 %self.0, ptr %count.dbg.spill, align 8, !dbg !1065
  call void @llvm.dbg.declare(metadata ptr %count.dbg.spill, metadata !1066, metadata !DIExpression()), !dbg !1073
  %new_len = sub nuw i64 %self.1, %self.0, !dbg !1075
  store i64 %new_len, ptr %new_len.dbg.spill, align 8, !dbg !1075
  call void @llvm.dbg.declare(metadata ptr %new_len.dbg.spill, metadata !1029, metadata !DIExpression()), !dbg !1076
  call void @llvm.dbg.declare(metadata ptr %new_len.dbg.spill, metadata !1077, metadata !DIExpression()), !dbg !1085
  call void @llvm.dbg.declare(metadata ptr %new_len.dbg.spill, metadata !1087, metadata !DIExpression()), !dbg !1094
  store ptr %slice.0, ptr %self.dbg.spill1, align 8, !dbg !1096
  call void @llvm.dbg.declare(metadata ptr %self.dbg.spill1, metadata !1072, metadata !DIExpression()), !dbg !1097
  %data = getelementptr inbounds i8, ptr %slice.0, i64 %self.0, !dbg !1098
  store ptr %data, ptr %data.dbg.spill, align 8, !dbg !1098
  call void @llvm.dbg.declare(metadata ptr %data.dbg.spill, metadata !1084, metadata !DIExpression()), !dbg !1099
  call void @llvm.dbg.declare(metadata ptr %data.dbg.spill, metadata !1100, metadata !DIExpression()), !dbg !1108
  store ptr %data, ptr %data_pointer.dbg.spill, align 8, !dbg !1110
  call void @llvm.dbg.declare(metadata ptr %data_pointer.dbg.spill, metadata !1093, metadata !DIExpression()), !dbg !1111
  store ptr %data, ptr %_18, align 8, !dbg !1112
  %4 = getelementptr inbounds i8, ptr %_18, i64 8, !dbg !1112
  store i64 %new_len, ptr %4, align 8, !dbg !1112
  %5 = load ptr, ptr %_18, align 8, !dbg !1113, !noundef !18
  %6 = getelementptr inbounds i8, ptr %_18, i64 8, !dbg !1113
  %7 = load i64, ptr %6, align 8, !dbg !1113, !noundef !18
  store ptr %5, ptr %_17, align 8, !dbg !1113
  %8 = getelementptr inbounds i8, ptr %_17, i64 8, !dbg !1113
  store i64 %7, ptr %8, align 8, !dbg !1113
  %_0.0 = load ptr, ptr %_17, align 8, !dbg !1113, !noundef !18
  %9 = getelementptr inbounds i8, ptr %_17, i64 8, !dbg !1113
  %_0.1 = load i64, ptr %9, align 8, !dbg !1113, !noundef !18
  %10 = insertvalue { ptr, i64 } poison, ptr %_0.0, 0, !dbg !1114
  %11 = insertvalue { ptr, i64 } %10, i64 %_0.1, 1, !dbg !1114
  ret { ptr, i64 } %11, !dbg !1114
}

; <core::ops::range::Range<usize> as core::slice::index::SliceIndex<[T]>>::get_unchecked_mut
; Function Attrs: inlinehint uwtable
define { ptr, i64 } @"_ZN106_$LT$core..ops..range..Range$LT$usize$GT$$u20$as$u20$core..slice..index..SliceIndex$LT$$u5b$T$u5d$$GT$$GT$17get_unchecked_mut17hdae24ed213e5a71eE"(i64 %self.0, i64 %self.1, ptr %slice.0, i64 %slice.1) unnamed_addr #1 !dbg !1115 {
start:
  %data_pointer.dbg.spill = alloca ptr, align 8
  %data.dbg.spill = alloca ptr, align 8
  %self.dbg.spill1 = alloca ptr, align 8
  %new_len.dbg.spill = alloca i64, align 8
  %count.dbg.spill = alloca i64, align 8
  %ptr.dbg.spill = alloca { ptr, i64 }, align 8
  %slice.dbg.spill = alloca { ptr, i64 }, align 8
  %self.dbg.spill = alloca %"core::ops::range::Range<usize>", align 8
  %_19 = alloca %"core::ptr::metadata::PtrComponents<[u8]>", align 8
  %_18 = alloca %"core::ptr::metadata::PtrRepr<[u8]>", align 8
  %_16 = alloca %"core::ptr::metadata::PtrRepr<[u8]>", align 8
  store i64 %self.0, ptr %self.dbg.spill, align 8
  %0 = getelementptr inbounds i8, ptr %self.dbg.spill, i64 8
  store i64 %self.1, ptr %0, align 8
  call void @llvm.dbg.declare(metadata ptr %self.dbg.spill, metadata !1123, metadata !DIExpression()), !dbg !1127
  store ptr %slice.0, ptr %slice.dbg.spill, align 8
  %1 = getelementptr inbounds i8, ptr %slice.dbg.spill, i64 8
  store i64 %slice.1, ptr %1, align 8
  call void @llvm.dbg.declare(metadata ptr %slice.dbg.spill, metadata !1124, metadata !DIExpression()), !dbg !1128
  call void @llvm.dbg.declare(metadata ptr %slice.dbg.spill, metadata !1129, metadata !DIExpression()), !dbg !1138
  call void @llvm.dbg.declare(metadata ptr %slice.dbg.spill, metadata !1140, metadata !DIExpression()), !dbg !1147
  br label %bb1, !dbg !1149

bb1:                                              ; preds = %start
  %_4 = icmp uge i64 %self.1, %self.0, !dbg !1150
  br i1 %_4, label %bb2, label %bb5, !dbg !1150

bb5:                                              ; preds = %bb1
  br label %bb6, !dbg !1151

bb2:                                              ; preds = %bb1
  store ptr %slice.0, ptr %ptr.dbg.spill, align 8, !dbg !1153
  %2 = getelementptr inbounds i8, ptr %ptr.dbg.spill, i64 8, !dbg !1153
  store i64 %slice.1, ptr %2, align 8, !dbg !1153
  call void @llvm.dbg.declare(metadata ptr %ptr.dbg.spill, metadata !1154, metadata !DIExpression()), !dbg !1158
  store ptr %slice.0, ptr %_16, align 8, !dbg !1160
  %3 = getelementptr inbounds i8, ptr %_16, i64 8, !dbg !1160
  store i64 %slice.1, ptr %3, align 8, !dbg !1160
  %4 = getelementptr inbounds i8, ptr %_16, i64 8, !dbg !1160
  %_8 = load i64, ptr %4, align 8, !dbg !1160, !noundef !18
  %_7 = icmp ule i64 %self.1, %_8, !dbg !1161
  br i1 %_7, label %bb3, label %bb4, !dbg !1161

bb6:                                              ; preds = %bb4, %bb5
; call core::panicking::panic_nounwind
  call void @_ZN4core9panicking14panic_nounwind17h50c31e15afde233eE(ptr align 1 @alloc_8bc4d99c9de504799214701ea609a64b, i64 68) #16, !dbg !1149
  unreachable, !dbg !1149

bb4:                                              ; preds = %bb2
  br label %bb6, !dbg !1151

bb3:                                              ; preds = %bb2
  br label %bb7, !dbg !1149

bb7:                                              ; preds = %bb3
  store i64 %self.0, ptr %count.dbg.spill, align 8, !dbg !1162
  call void @llvm.dbg.declare(metadata ptr %count.dbg.spill, metadata !1163, metadata !DIExpression()), !dbg !1171
  %new_len = sub nuw i64 %self.1, %self.0, !dbg !1173
  store i64 %new_len, ptr %new_len.dbg.spill, align 8, !dbg !1173
  call void @llvm.dbg.declare(metadata ptr %new_len.dbg.spill, metadata !1125, metadata !DIExpression()), !dbg !1174
  call void @llvm.dbg.declare(metadata ptr %new_len.dbg.spill, metadata !1175, metadata !DIExpression()), !dbg !1182
  call void @llvm.dbg.declare(metadata ptr %new_len.dbg.spill, metadata !1184, metadata !DIExpression()), !dbg !1192
  store ptr %slice.0, ptr %self.dbg.spill1, align 8, !dbg !1194
  call void @llvm.dbg.declare(metadata ptr %self.dbg.spill1, metadata !1170, metadata !DIExpression()), !dbg !1195
  %data = getelementptr inbounds i8, ptr %slice.0, i64 %self.0, !dbg !1196
  store ptr %data, ptr %data.dbg.spill, align 8, !dbg !1196
  call void @llvm.dbg.declare(metadata ptr %data.dbg.spill, metadata !1181, metadata !DIExpression()), !dbg !1197
  call void @llvm.dbg.declare(metadata ptr %data.dbg.spill, metadata !1198, metadata !DIExpression()), !dbg !1204
  store ptr %data, ptr %data_pointer.dbg.spill, align 8, !dbg !1206
  call void @llvm.dbg.declare(metadata ptr %data_pointer.dbg.spill, metadata !1191, metadata !DIExpression()), !dbg !1207
  store ptr %data, ptr %_19, align 8, !dbg !1208
  %5 = getelementptr inbounds i8, ptr %_19, i64 8, !dbg !1208
  store i64 %new_len, ptr %5, align 8, !dbg !1208
  %6 = load ptr, ptr %_19, align 8, !dbg !1209, !noundef !18
  %7 = getelementptr inbounds i8, ptr %_19, i64 8, !dbg !1209
  %8 = load i64, ptr %7, align 8, !dbg !1209, !noundef !18
  store ptr %6, ptr %_18, align 8, !dbg !1209
  %9 = getelementptr inbounds i8, ptr %_18, i64 8, !dbg !1209
  store i64 %8, ptr %9, align 8, !dbg !1209
  %_0.0 = load ptr, ptr %_18, align 8, !dbg !1209, !noundef !18
  %10 = getelementptr inbounds i8, ptr %_18, i64 8, !dbg !1209
  %_0.1 = load i64, ptr %10, align 8, !dbg !1209, !noundef !18
  %11 = insertvalue { ptr, i64 } poison, ptr %_0.0, 0, !dbg !1210
  %12 = insertvalue { ptr, i64 } %11, i64 %_0.1, 1, !dbg !1210
  ret { ptr, i64 } %12, !dbg !1210
}

; <core::ops::range::Range<usize> as core::slice::index::SliceIndex<[T]>>::get
; Function Attrs: inlinehint uwtable
define { ptr, i64 } @"_ZN106_$LT$core..ops..range..Range$LT$usize$GT$$u20$as$u20$core..slice..index..SliceIndex$LT$$u5b$T$u5d$$GT$$GT$3get17he84552009489fe9eE"(i64 %self.0, i64 %self.1, ptr align 1 %slice.0, i64 %slice.1) unnamed_addr #1 !dbg !1211 {
start:
  %slice.dbg.spill = alloca { ptr, i64 }, align 8
  %self.dbg.spill = alloca %"core::ops::range::Range<usize>", align 8
  %_0 = alloca %"core::option::Option<&[u8]>", align 8
  store i64 %self.0, ptr %self.dbg.spill, align 8
  %0 = getelementptr inbounds i8, ptr %self.dbg.spill, i64 8
  store i64 %self.1, ptr %0, align 8
  call void @llvm.dbg.declare(metadata ptr %self.dbg.spill, metadata !1232, metadata !DIExpression()), !dbg !1234
  store ptr %slice.0, ptr %slice.dbg.spill, align 8
  %1 = getelementptr inbounds i8, ptr %slice.dbg.spill, i64 8
  store i64 %slice.1, ptr %1, align 8
  call void @llvm.dbg.declare(metadata ptr %slice.dbg.spill, metadata !1233, metadata !DIExpression()), !dbg !1235
  %_3 = icmp ugt i64 %self.0, %self.1, !dbg !1236
  br i1 %_3, label %bb1, label %bb2, !dbg !1236

bb2:                                              ; preds = %start
  %_6 = icmp ugt i64 %self.1, %slice.1, !dbg !1237
  br i1 %_6, label %bb3, label %bb5, !dbg !1237

bb1:                                              ; preds = %start
  br label %bb4, !dbg !1238

bb5:                                              ; preds = %bb2
; call <core::ops::range::Range<usize> as core::slice::index::SliceIndex<[T]>>::get_unchecked
  %2 = call { ptr, i64 } @"_ZN106_$LT$core..ops..range..Range$LT$usize$GT$$u20$as$u20$core..slice..index..SliceIndex$LT$$u5b$T$u5d$$GT$$GT$13get_unchecked17hdb0cf2e73392a053E"(i64 %self.0, i64 %self.1, ptr %slice.0, i64 %slice.1), !dbg !1239
  %_9.0 = extractvalue { ptr, i64 } %2, 0, !dbg !1239
  %_9.1 = extractvalue { ptr, i64 } %2, 1, !dbg !1239
  store ptr %_9.0, ptr %_0, align 8, !dbg !1240
  %3 = getelementptr inbounds i8, ptr %_0, i64 8, !dbg !1240
  store i64 %_9.1, ptr %3, align 8, !dbg !1240
  br label %bb7, !dbg !1241

bb3:                                              ; preds = %bb2
  br label %bb4, !dbg !1238

bb7:                                              ; preds = %bb4, %bb5
  %4 = load ptr, ptr %_0, align 8, !dbg !1242, !align !432, !noundef !18
  %5 = getelementptr inbounds i8, ptr %_0, i64 8, !dbg !1242
  %6 = load i64, ptr %5, align 8, !dbg !1242
  %7 = insertvalue { ptr, i64 } poison, ptr %4, 0, !dbg !1242
  %8 = insertvalue { ptr, i64 } %7, i64 %6, 1, !dbg !1242
  ret { ptr, i64 } %8, !dbg !1242

bb4:                                              ; preds = %bb1, %bb3
  %9 = load ptr, ptr @1, align 8, !dbg !1243, !align !432, !noundef !18
  %10 = load i64, ptr getelementptr inbounds (i8, ptr @1, i64 8), align 8, !dbg !1243
  store ptr %9, ptr %_0, align 8, !dbg !1243
  %11 = getelementptr inbounds i8, ptr %_0, i64 8, !dbg !1243
  store i64 %10, ptr %11, align 8, !dbg !1243
  br label %bb7, !dbg !1241
}

; <core::ops::range::Range<usize> as core::slice::index::SliceIndex<[T]>>::index_mut
; Function Attrs: inlinehint uwtable
define { ptr, i64 } @"_ZN106_$LT$core..ops..range..Range$LT$usize$GT$$u20$as$u20$core..slice..index..SliceIndex$LT$$u5b$T$u5d$$GT$$GT$9index_mut17ha4170ffa802c9d27E"(i64 %self.0, i64 %self.1, ptr align 1 %slice.0, i64 %slice.1, ptr align 8 %0) unnamed_addr #1 !dbg !1244 {
start:
  %slice.dbg.spill = alloca { ptr, i64 }, align 8
  %self.dbg.spill = alloca %"core::ops::range::Range<usize>", align 8
  store i64 %self.0, ptr %self.dbg.spill, align 8
  %1 = getelementptr inbounds i8, ptr %self.dbg.spill, i64 8
  store i64 %self.1, ptr %1, align 8
  call void @llvm.dbg.declare(metadata ptr %self.dbg.spill, metadata !1260, metadata !DIExpression()), !dbg !1262
  store ptr %slice.0, ptr %slice.dbg.spill, align 8
  %2 = getelementptr inbounds i8, ptr %slice.dbg.spill, i64 8
  store i64 %slice.1, ptr %2, align 8
  call void @llvm.dbg.declare(metadata ptr %slice.dbg.spill, metadata !1261, metadata !DIExpression()), !dbg !1263
  %_3 = icmp ugt i64 %self.0, %self.1, !dbg !1264
  br i1 %_3, label %bb1, label %bb2, !dbg !1264

bb2:                                              ; preds = %start
  %_7 = icmp ugt i64 %self.1, %slice.1, !dbg !1265
  br i1 %_7, label %bb3, label %bb4, !dbg !1265

bb1:                                              ; preds = %start
; call core::slice::index::slice_index_order_fail
  call void @_ZN4core5slice5index22slice_index_order_fail17hb18c43fcae7a83cbE(i64 %self.0, i64 %self.1, ptr align 8 %0) #17, !dbg !1266
  unreachable, !dbg !1266

bb4:                                              ; preds = %bb2
; call <core::ops::range::Range<usize> as core::slice::index::SliceIndex<[T]>>::get_unchecked_mut
  %3 = call { ptr, i64 } @"_ZN106_$LT$core..ops..range..Range$LT$usize$GT$$u20$as$u20$core..slice..index..SliceIndex$LT$$u5b$T$u5d$$GT$$GT$17get_unchecked_mut17hdae24ed213e5a71eE"(i64 %self.0, i64 %self.1, ptr %slice.0, i64 %slice.1), !dbg !1267
  %_11.0 = extractvalue { ptr, i64 } %3, 0, !dbg !1267
  %_11.1 = extractvalue { ptr, i64 } %3, 1, !dbg !1267
  %4 = insertvalue { ptr, i64 } poison, ptr %_11.0, 0, !dbg !1268
  %5 = insertvalue { ptr, i64 } %4, i64 %_11.1, 1, !dbg !1268
  ret { ptr, i64 } %5, !dbg !1268

bb3:                                              ; preds = %bb2
; call core::slice::index::slice_end_index_len_fail
  call void @_ZN4core5slice5index24slice_end_index_len_fail17h86c2fd0bdb9be0ffE(i64 %self.1, i64 %slice.1, ptr align 8 %0) #17, !dbg !1269
  unreachable, !dbg !1269
}

; <core::slice::iter::Iter<T> as core::iter::traits::double_ended::DoubleEndedIterator>::next_back
; Function Attrs: inlinehint uwtable
define align 1 ptr @"_ZN106_$LT$core..slice..iter..Iter$LT$T$GT$$u20$as$u20$core..iter..traits..double_ended..DoubleEndedIterator$GT$9next_back17h467771b9478186e3E"(ptr align 8 %self) unnamed_addr #1 !dbg !1270 {
start:
  %count.dbg.spill.i = alloca i64, align 8
  %self.dbg.spill4.i = alloca ptr, align 8
  %end.dbg.spill.i = alloca ptr, align 8
  %self.dbg.spill2.i = alloca ptr, align 8
  %offset.dbg.spill.i = alloca i64, align 8
  %self.dbg.spill.i = alloca ptr, align 8
  %_10.i = alloca ptr, align 8
  %_0.i = alloca ptr, align 8
  %self.dbg.spill13 = alloca ptr, align 8
  %self.dbg.spill12 = alloca ptr, align 8
  %self.dbg.spill10 = alloca ptr, align 8
  %len.dbg.spill = alloca i64, align 8
  %self.dbg.spill9 = alloca ptr, align 8
  %self.dbg.spill7 = alloca ptr, align 8
  %self.dbg.spill5 = alloca ptr, align 8
  %other.dbg.spill = alloca ptr, align 8
  %self.dbg.spill3 = alloca ptr, align 8
  %self.dbg.spill2 = alloca ptr, align 8
  %self.dbg.spill = alloca ptr, align 8
  %_13 = alloca ptr, align 8
  %end = alloca ptr, align 8
  %_2 = alloca i8, align 1
  %_0 = alloca ptr, align 8
  store ptr %self, ptr %self.dbg.spill, align 8
  call void @llvm.dbg.declare(metadata ptr %self.dbg.spill, metadata !1287, metadata !DIExpression()), !dbg !1292
  call void @llvm.dbg.declare(metadata ptr %end, metadata !1290, metadata !DIExpression()), !dbg !1293
  br label %bb2, !dbg !1294

bb2:                                              ; preds = %start
  %self1 = getelementptr inbounds i8, ptr %self, i64 8, !dbg !1294
  store ptr %self1, ptr %self.dbg.spill2, align 8, !dbg !1294
  call void @llvm.dbg.declare(metadata ptr %self.dbg.spill2, metadata !1295, metadata !DIExpression()), !dbg !1299
  %0 = load ptr, ptr %self1, align 8, !dbg !1294, !nonnull !18, !noundef !18
  store ptr %0, ptr %end, align 8, !dbg !1294
  store ptr %self, ptr %self.dbg.spill3, align 8, !dbg !1293
  call void @llvm.dbg.declare(metadata ptr %self.dbg.spill3, metadata !1301, metadata !DIExpression()), !dbg !1310
  store ptr %end, ptr %other.dbg.spill, align 8, !dbg !1293
  call void @llvm.dbg.declare(metadata ptr %other.dbg.spill, metadata !1309, metadata !DIExpression()), !dbg !1312
  %self4 = load ptr, ptr %self, align 8, !dbg !1313, !nonnull !18, !noundef !18
  store ptr %self4, ptr %self.dbg.spill5, align 8, !dbg !1313
  call void @llvm.dbg.declare(metadata ptr %self.dbg.spill5, metadata !1314, metadata !DIExpression()), !dbg !1325
  %self6 = load ptr, ptr %end, align 8, !dbg !1327, !nonnull !18, !noundef !18
  store ptr %self6, ptr %self.dbg.spill7, align 8, !dbg !1327
  call void @llvm.dbg.declare(metadata ptr %self.dbg.spill7, metadata !1321, metadata !DIExpression()), !dbg !1328
  %1 = icmp eq ptr %self4, %self6, !dbg !1313
  %2 = zext i1 %1 to i8, !dbg !1313
  store i8 %2, ptr %_2, align 1, !dbg !1313
  br label %bb3, !dbg !1294

bb3:                                              ; preds = %bb1, %bb2
  %3 = load i8, ptr %_2, align 1, !dbg !1294, !range !747, !noundef !18
  %4 = trunc i8 %3 to i1, !dbg !1294
  br i1 %4, label %bb4, label %bb5, !dbg !1294

bb1:                                              ; No predecessors!
  %5 = getelementptr inbounds i8, ptr %self, i64 8, !dbg !1294
  %self8 = load ptr, ptr %5, align 8, !dbg !1294, !noundef !18
  store ptr %self8, ptr %self.dbg.spill9, align 8, !dbg !1294
  call void @llvm.dbg.declare(metadata ptr %self.dbg.spill9, metadata !1330, metadata !DIExpression()), !dbg !1336
  call void @llvm.dbg.declare(metadata ptr %self.dbg.spill9, metadata !1338, metadata !DIExpression()), !dbg !1342
  %len = ptrtoint ptr %self8 to i64, !dbg !1344
  store i64 %len, ptr %len.dbg.spill, align 8, !dbg !1344
  call void @llvm.dbg.declare(metadata ptr %len.dbg.spill, metadata !1288, metadata !DIExpression()), !dbg !1345
  %6 = icmp eq i64 %len, 0, !dbg !1345
  %7 = zext i1 %6 to i8, !dbg !1345
  store i8 %7, ptr %_2, align 1, !dbg !1345
  br label %bb3, !dbg !1294

bb5:                                              ; preds = %bb3
  store ptr %self, ptr %self.dbg.spill.i, align 8
  call void @llvm.dbg.declare(metadata ptr %self.dbg.spill.i, metadata !1346, metadata !DIExpression()), !dbg !1359
  store i64 1, ptr %offset.dbg.spill.i, align 8
  call void @llvm.dbg.declare(metadata ptr %offset.dbg.spill.i, metadata !1352, metadata !DIExpression()), !dbg !1361
  call void @llvm.dbg.declare(metadata ptr %offset.dbg.spill.i, metadata !1362, metadata !DIExpression()), !dbg !1373
  call void @llvm.dbg.declare(metadata ptr %offset.dbg.spill.i, metadata !1375, metadata !DIExpression()), !dbg !1383
  %self1.i = getelementptr inbounds i8, ptr %self, i64 8, !dbg !1385
  store ptr %self1.i, ptr %self.dbg.spill2.i, align 8, !dbg !1385
  call void @llvm.dbg.declare(metadata ptr %self.dbg.spill2.i, metadata !1386, metadata !DIExpression()), !dbg !1393
  store ptr %self1.i, ptr %end.dbg.spill.i, align 8, !dbg !1395
  call void @llvm.dbg.declare(metadata ptr %end.dbg.spill.i, metadata !1356, metadata !DIExpression()), !dbg !1396
  %self3.i = load ptr, ptr %self1.i, align 8, !dbg !1397, !nonnull !18, !noundef !18
  store ptr %self3.i, ptr %self.dbg.spill4.i, align 8, !dbg !1397
  call void @llvm.dbg.declare(metadata ptr %self.dbg.spill4.i, metadata !1382, metadata !DIExpression()), !dbg !1398
  call void @llvm.dbg.declare(metadata ptr %self.dbg.spill4.i, metadata !1399, metadata !DIExpression()), !dbg !1408
  store i64 -1, ptr %count.dbg.spill.i, align 8, !dbg !1410
  call void @llvm.dbg.declare(metadata ptr %count.dbg.spill.i, metadata !1407, metadata !DIExpression()), !dbg !1411
  %_15.i = getelementptr inbounds i8, ptr %self3.i, i64 -1, !dbg !1412
  store ptr %_15.i, ptr %_10.i, align 8, !dbg !1413
  %8 = load ptr, ptr %_10.i, align 8, !dbg !1414, !nonnull !18, !noundef !18
  store ptr %8, ptr %self1.i, align 8, !dbg !1414
  %9 = load ptr, ptr %self1.i, align 8, !dbg !1415, !nonnull !18, !noundef !18
  store ptr %9, ptr %_0.i, align 8, !dbg !1415
  %10 = load ptr, ptr %_0.i, align 8, !dbg !1416, !nonnull !18, !noundef !18
  store ptr %10, ptr %_13, align 8, !dbg !1417
  store ptr %_13, ptr %self.dbg.spill10, align 8, !dbg !1417
  call void @llvm.dbg.declare(metadata ptr %self.dbg.spill10, metadata !1418, metadata !DIExpression()), !dbg !1425
  %self11 = load ptr, ptr %_13, align 8, !dbg !1427, !nonnull !18, !noundef !18
  store ptr %self11, ptr %self.dbg.spill12, align 8, !dbg !1427
  call void @llvm.dbg.declare(metadata ptr %self.dbg.spill12, metadata !1323, metadata !DIExpression()), !dbg !1428
  store ptr %self11, ptr %self.dbg.spill13, align 8, !dbg !1430
  call void @llvm.dbg.declare(metadata ptr %self.dbg.spill13, metadata !1431, metadata !DIExpression()), !dbg !1437
  store ptr %self11, ptr %_0, align 8, !dbg !1439
  br label %bb7, !dbg !1440

bb4:                                              ; preds = %bb3
  store ptr null, ptr %_0, align 8, !dbg !1441
  br label %bb7, !dbg !1440

bb7:                                              ; preds = %bb4, %bb5
  %11 = load ptr, ptr %_0, align 8, !dbg !1442, !align !432, !noundef !18
  ret ptr %11, !dbg !1442
}

; <core::str::pattern::CharPredicateSearcher<F> as core::str::pattern::ReverseSearcher>::next_reject_back
; Function Attrs: inlinehint uwtable
define void @"_ZN106_$LT$core..str..pattern..CharPredicateSearcher$LT$F$GT$$u20$as$u20$core..str..pattern..ReverseSearcher$GT$16next_reject_back17h67628e5a783fa6d3E"(ptr sret(%"core::option::Option<(usize, usize)>") align 8 %_0, ptr align 8 %self) unnamed_addr #1 !dbg !1443 {
start:
  %b.dbg.spill = alloca i64, align 8
  %a.dbg.spill = alloca i64, align 8
  %self.dbg.spill1 = alloca ptr, align 8
  %self.dbg.spill = alloca ptr, align 8
  %_7 = alloca { i64, i64 }, align 8
  %_3 = alloca %"core::str::pattern::SearchStep", align 8
  store ptr %self, ptr %self.dbg.spill, align 8
  call void @llvm.dbg.declare(metadata ptr %self.dbg.spill, metadata !1471, metadata !DIExpression()), !dbg !1472
  store ptr %self, ptr %self.dbg.spill1, align 8, !dbg !1473
  call void @llvm.dbg.declare(metadata ptr %self.dbg.spill1, metadata !1474, metadata !DIExpression()), !dbg !1486
  br label %bb1, !dbg !1487

bb1:                                              ; preds = %bb5, %start
; call <core::str::pattern::MultiCharEqSearcher<C> as core::str::pattern::ReverseSearcher>::next_back
  call void @"_ZN104_$LT$core..str..pattern..MultiCharEqSearcher$LT$C$GT$$u20$as$u20$core..str..pattern..ReverseSearcher$GT$9next_back17hffb9a022b1cedba0E"(ptr sret(%"core::str::pattern::SearchStep") align 8 %_3, ptr align 8 %self), !dbg !1488
  %_4 = load i64, ptr %_3, align 8, !dbg !1488, !range !1489, !noundef !18
  switch i64 %_4, label %bb7 [
    i64 1, label %bb3
    i64 2, label %bb4
    i64 0, label %bb5
  ], !dbg !1490

bb7:                                              ; preds = %bb1
  unreachable, !dbg !1491

bb3:                                              ; preds = %bb1
  %0 = getelementptr inbounds i8, ptr %_3, i64 8, !dbg !1492
  %a = load i64, ptr %0, align 8, !dbg !1492, !noundef !18
  store i64 %a, ptr %a.dbg.spill, align 8, !dbg !1492
  call void @llvm.dbg.declare(metadata ptr %a.dbg.spill, metadata !1481, metadata !DIExpression()), !dbg !1493
  %1 = getelementptr inbounds i8, ptr %_3, i64 16, !dbg !1494
  %b = load i64, ptr %1, align 8, !dbg !1494, !noundef !18
  store i64 %b, ptr %b.dbg.spill, align 8, !dbg !1494
  call void @llvm.dbg.declare(metadata ptr %b.dbg.spill, metadata !1483, metadata !DIExpression()), !dbg !1495
  store i64 %a, ptr %_7, align 8, !dbg !1496
  %2 = getelementptr inbounds i8, ptr %_7, i64 8, !dbg !1496
  store i64 %b, ptr %2, align 8, !dbg !1496
  %3 = load i64, ptr %_7, align 8, !dbg !1497, !noundef !18
  %4 = getelementptr inbounds i8, ptr %_7, i64 8, !dbg !1497
  %5 = load i64, ptr %4, align 8, !dbg !1497, !noundef !18
  %6 = getelementptr inbounds i8, ptr %_0, i64 8, !dbg !1497
  store i64 %3, ptr %6, align 8, !dbg !1497
  %7 = getelementptr inbounds i8, ptr %6, i64 8, !dbg !1497
  store i64 %5, ptr %7, align 8, !dbg !1497
  store i64 1, ptr %_0, align 8, !dbg !1497
  br label %bb6, !dbg !1498

bb4:                                              ; preds = %bb1
  store i64 0, ptr %_0, align 8, !dbg !1500
  br label %bb6, !dbg !1501

bb5:                                              ; preds = %bb1
  br label %bb1, !dbg !1498

bb6:                                              ; preds = %bb4, %bb3
  ret void, !dbg !1502
}

; <core::str::pattern::CharPredicateSearcher<F> as core::str::pattern::ReverseSearcher>::next_reject_back
; Function Attrs: inlinehint uwtable
define void @"_ZN106_$LT$core..str..pattern..CharPredicateSearcher$LT$F$GT$$u20$as$u20$core..str..pattern..ReverseSearcher$GT$16next_reject_back17h9716028408ba7fdeE"(ptr sret(%"core::option::Option<(usize, usize)>") align 8 %_0, ptr align 8 %self) unnamed_addr #1 !dbg !1503 {
start:
  %b.dbg.spill = alloca i64, align 8
  %a.dbg.spill = alloca i64, align 8
  %self.dbg.spill1 = alloca ptr, align 8
  %self.dbg.spill = alloca ptr, align 8
  %_7 = alloca { i64, i64 }, align 8
  %_3 = alloca %"core::str::pattern::SearchStep", align 8
  store ptr %self, ptr %self.dbg.spill, align 8
  call void @llvm.dbg.declare(metadata ptr %self.dbg.spill, metadata !1513, metadata !DIExpression()), !dbg !1514
  store ptr %self, ptr %self.dbg.spill1, align 8, !dbg !1515
  call void @llvm.dbg.declare(metadata ptr %self.dbg.spill1, metadata !1516, metadata !DIExpression()), !dbg !1527
  br label %bb1, !dbg !1528

bb1:                                              ; preds = %bb5, %start
; call <core::str::pattern::MultiCharEqSearcher<C> as core::str::pattern::ReverseSearcher>::next_back
  call void @"_ZN104_$LT$core..str..pattern..MultiCharEqSearcher$LT$C$GT$$u20$as$u20$core..str..pattern..ReverseSearcher$GT$9next_back17h73b13a0dac45938aE"(ptr sret(%"core::str::pattern::SearchStep") align 8 %_3, ptr align 8 %self), !dbg !1529
  %_4 = load i64, ptr %_3, align 8, !dbg !1529, !range !1489, !noundef !18
  switch i64 %_4, label %bb7 [
    i64 1, label %bb3
    i64 2, label %bb4
    i64 0, label %bb5
  ], !dbg !1530

bb7:                                              ; preds = %bb1
  unreachable, !dbg !1531

bb3:                                              ; preds = %bb1
  %0 = getelementptr inbounds i8, ptr %_3, i64 8, !dbg !1532
  %a = load i64, ptr %0, align 8, !dbg !1532, !noundef !18
  store i64 %a, ptr %a.dbg.spill, align 8, !dbg !1532
  call void @llvm.dbg.declare(metadata ptr %a.dbg.spill, metadata !1522, metadata !DIExpression()), !dbg !1533
  %1 = getelementptr inbounds i8, ptr %_3, i64 16, !dbg !1534
  %b = load i64, ptr %1, align 8, !dbg !1534, !noundef !18
  store i64 %b, ptr %b.dbg.spill, align 8, !dbg !1534
  call void @llvm.dbg.declare(metadata ptr %b.dbg.spill, metadata !1524, metadata !DIExpression()), !dbg !1535
  store i64 %a, ptr %_7, align 8, !dbg !1536
  %2 = getelementptr inbounds i8, ptr %_7, i64 8, !dbg !1536
  store i64 %b, ptr %2, align 8, !dbg !1536
  %3 = load i64, ptr %_7, align 8, !dbg !1537, !noundef !18
  %4 = getelementptr inbounds i8, ptr %_7, i64 8, !dbg !1537
  %5 = load i64, ptr %4, align 8, !dbg !1537, !noundef !18
  %6 = getelementptr inbounds i8, ptr %_0, i64 8, !dbg !1537
  store i64 %3, ptr %6, align 8, !dbg !1537
  %7 = getelementptr inbounds i8, ptr %6, i64 8, !dbg !1537
  store i64 %5, ptr %7, align 8, !dbg !1537
  store i64 1, ptr %_0, align 8, !dbg !1537
  br label %bb6, !dbg !1538

bb4:                                              ; preds = %bb1
  store i64 0, ptr %_0, align 8, !dbg !1540
  br label %bb6, !dbg !1541

bb5:                                              ; preds = %bb1
  br label %bb1, !dbg !1538

bb6:                                              ; preds = %bb4, %bb3
  ret void, !dbg !1542
}

; <core::iter::adapters::filter::Filter<I,P> as core::iter::traits::iterator::Iterator>::fold
; Function Attrs: inlinehint uwtable
define { ptr, i64 } @"_ZN108_$LT$core..iter..adapters..filter..Filter$LT$I$C$P$GT$$u20$as$u20$core..iter..traits..iterator..Iterator$GT$4fold17h13347d19a107a76aE"(ptr align 8 %self, ptr align 1 %init.0, i64 %init.1) unnamed_addr #1 !dbg !1543 {
start:
  %predicate.dbg.spill = alloca %"{closure@src/lib.rs:306:21: 306:27}", align 1
  %fold.dbg.spill = alloca %"{closure@core::iter::adapters::map::map_fold<&str, &str, core::option::Option<&str>, {closure@src/lib.rs:307:18: 307:24}, fn(core::option::Option<&str>, &str) -> core::option::Option<&str> {core::iter::traits::iterator::Iterator::last::some::<&str>}>::{closure#0}}", align 1
  %init.dbg.spill = alloca %"core::option::Option<&str>", align 8
  %_4 = alloca %"core::iter::adapters::map::Map<core::str::iter::Split<'_, char>, {closure@src/lib.rs:305:18: 305:24}>", align 8
  call void @llvm.dbg.declare(metadata ptr %self, metadata !1549, metadata !DIExpression()), !dbg !1554
  store ptr %init.0, ptr %init.dbg.spill, align 8
  %0 = getelementptr inbounds i8, ptr %init.dbg.spill, i64 8
  store i64 %init.1, ptr %0, align 8
  call void @llvm.dbg.declare(metadata ptr %init.dbg.spill, metadata !1550, metadata !DIExpression()), !dbg !1555
  call void @llvm.dbg.declare(metadata ptr %fold.dbg.spill, metadata !1551, metadata !DIExpression()), !dbg !1556
  call void @llvm.dbg.declare(metadata ptr %fold.dbg.spill, metadata !1557, metadata !DIExpression()), !dbg !1567
  call void @llvm.dbg.declare(metadata ptr %predicate.dbg.spill, metadata !1563, metadata !DIExpression()), !dbg !1569
  call void @llvm.memcpy.p0.p0.i64(ptr align 8 %_4, ptr align 8 %self, i64 72, i1 false), !dbg !1570
; call <core::iter::adapters::map::Map<I,F> as core::iter::traits::iterator::Iterator>::fold
  %1 = call { ptr, i64 } @"_ZN102_$LT$core..iter..adapters..map..Map$LT$I$C$F$GT$$u20$as$u20$core..iter..traits..iterator..Iterator$GT$4fold17hc05ab4f9818ce431E"(ptr align 8 %_4, ptr align 1 %init.0, i64 %init.1), !dbg !1570
  %_0.0 = extractvalue { ptr, i64 } %1, 0, !dbg !1570
  %_0.1 = extractvalue { ptr, i64 } %1, 1, !dbg !1570
  %2 = insertvalue { ptr, i64 } poison, ptr %_0.0, 0, !dbg !1571
  %3 = insertvalue { ptr, i64 } %2, i64 %_0.1, 1, !dbg !1571
  ret { ptr, i64 } %3, !dbg !1571
}

; <core::iter::adapters::filter::Filter<I,P> as core::iter::traits::iterator::Iterator>::next
; Function Attrs: inlinehint uwtable
define { ptr, i64 } @"_ZN108_$LT$core..iter..adapters..filter..Filter$LT$I$C$P$GT$$u20$as$u20$core..iter..traits..iterator..Iterator$GT$4next17h8802ef6c80cec0ecE"(ptr align 8 %self) unnamed_addr #1 !dbg !1572 {
start:
  %self.dbg.spill = alloca ptr, align 8
  store ptr %self, ptr %self.dbg.spill, align 8
  call void @llvm.dbg.declare(metadata ptr %self.dbg.spill, metadata !1633, metadata !DIExpression()), !dbg !1634
  %_3 = getelementptr inbounds i8, ptr %self, i64 128, !dbg !1635
; call core::iter::traits::iterator::Iterator::find
  %0 = call { ptr, i64 } @_ZN4core4iter6traits8iterator8Iterator4find17h4f0868f5dcc8287aE(ptr align 8 %self, ptr align 1 %_3), !dbg !1636
  %_0.0 = extractvalue { ptr, i64 } %0, 0, !dbg !1636
  %_0.1 = extractvalue { ptr, i64 } %0, 1, !dbg !1636
  %1 = insertvalue { ptr, i64 } poison, ptr %_0.0, 0, !dbg !1637
  %2 = insertvalue { ptr, i64 } %1, i64 %_0.1, 1, !dbg !1637
  ret { ptr, i64 } %2, !dbg !1637
}

; <core::iter::adapters::enumerate::Enumerate<I> as core::iter::traits::iterator::Iterator>::next
; Function Attrs: inlinehint uwtable
define void @"_ZN110_$LT$core..iter..adapters..enumerate..Enumerate$LT$I$GT$$u20$as$u20$core..iter..traits..iterator..Iterator$GT$4next17h4c731cf141e7434fE"(ptr sret(%"core::option::Option<(usize, core::result::Result<u16, core::num::error::ParseIntError>)>") align 8 %_0, ptr align 8 %self) unnamed_addr #1 personality ptr @rust_eh_personality !dbg !1638 {
start:
  %0 = alloca { ptr, i32, [1 x i32] }, align 8
  %i.dbg.spill = alloca i64, align 8
  %1 = alloca i32, align 4
  %self.dbg.spill = alloca ptr, align 8
  %v = alloca %"core::result::Result<u16, core::num::error::ParseIntError>", align 2
  %_10 = alloca %"core::result::Result<u16, core::num::error::ParseIntError>", align 2
  %_9 = alloca { i64, %"core::result::Result<u16, core::num::error::ParseIntError>", [2 x i16] }, align 8
  %val = alloca %"core::result::Result<u16, core::num::error::ParseIntError>", align 2
  %self2 = alloca %"core::option::Option<core::result::Result<u16, core::num::error::ParseIntError>>", align 2
  %_3 = alloca %"core::ops::control_flow::ControlFlow<core::option::Option<core::convert::Infallible>, core::result::Result<u16, core::num::error::ParseIntError>>", align 2
  %a = alloca %"core::result::Result<u16, core::num::error::ParseIntError>", align 2
  %residual.dbg.spill1 = alloca %"core::option::Option<core::convert::Infallible>::None", align 1
  %residual.dbg.spill = alloca %"core::option::Option<core::convert::Infallible>::None", align 1
  call void @llvm.dbg.declare(metadata ptr %residual.dbg.spill, metadata !1672, metadata !DIExpression()), !dbg !1690
  call void @llvm.dbg.declare(metadata ptr %residual.dbg.spill1, metadata !1691, metadata !DIExpression()), !dbg !1698
  store ptr %self, ptr %self.dbg.spill, align 8, !dbg !1698
  call void @llvm.dbg.declare(metadata ptr %self.dbg.spill, metadata !1669, metadata !DIExpression()), !dbg !1700
  call void @llvm.dbg.declare(metadata ptr %a, metadata !1670, metadata !DIExpression()), !dbg !1701
  call void @llvm.dbg.declare(metadata ptr %self2, metadata !1702, metadata !DIExpression()), !dbg !1727
  call void @llvm.dbg.declare(metadata ptr %val, metadata !1686, metadata !DIExpression()), !dbg !1729
  call void @llvm.dbg.declare(metadata ptr %v, metadata !1725, metadata !DIExpression()), !dbg !1730
  %_5 = getelementptr inbounds i8, ptr %self, i64 8, !dbg !1728
; call <core::iter::adapters::map::Map<I,F> as core::iter::traits::iterator::Iterator>::next
  %2 = call i32 @"_ZN102_$LT$core..iter..adapters..map..Map$LT$I$C$F$GT$$u20$as$u20$core..iter..traits..iterator..Iterator$GT$4next17hebb93ce26fa9401fE"(ptr align 8 %_5), !dbg !1728
  store i32 %2, ptr %1, align 4, !dbg !1728
  call void @llvm.memcpy.p0.p0.i64(ptr align 2 %self2, ptr align 4 %1, i64 4, i1 false), !dbg !1728
  %3 = load i8, ptr %self2, align 2, !dbg !1731, !range !1732, !noundef !18
  %4 = icmp eq i8 %3, 2, !dbg !1731
  %_11 = select i1 %4, i64 0, i64 1, !dbg !1731
  %5 = icmp eq i64 %_11, 0, !dbg !1733
  br i1 %5, label %bb7, label %bb8, !dbg !1733

bb7:                                              ; preds = %start
  %6 = getelementptr inbounds i8, ptr %_0, i64 8, !dbg !1734
  store i8 2, ptr %6, align 8, !dbg !1734
  br label %bb4, !dbg !1735

bb8:                                              ; preds = %start
  call void @llvm.memcpy.p0.p0.i64(ptr align 2 %v, ptr align 2 %self2, i64 4, i1 false), !dbg !1736
  call void @llvm.memcpy.p0.p0.i64(ptr align 2 %_3, ptr align 2 %v, i64 4, i1 false), !dbg !1737
  call void @llvm.memcpy.p0.p0.i64(ptr align 2 %val, ptr align 2 %_3, i64 4, i1 false), !dbg !1728
  call void @llvm.memcpy.p0.p0.i64(ptr align 2 %a, ptr align 2 %val, i64 4, i1 false), !dbg !1729
  %i = load i64, ptr %self, align 8, !dbg !1738, !noundef !18
  store i64 %i, ptr %i.dbg.spill, align 8, !dbg !1738
  call void @llvm.dbg.declare(metadata ptr %i.dbg.spill, metadata !1688, metadata !DIExpression()), !dbg !1739
  %7 = load i64, ptr %self, align 8, !dbg !1740, !noundef !18
  %8 = call { i64, i1 } @llvm.uadd.with.overflow.i64(i64 %7, i64 1), !dbg !1740
  %_8.0 = extractvalue { i64, i1 } %8, 0, !dbg !1740
  %_8.1 = extractvalue { i64, i1 } %8, 1, !dbg !1740
  %9 = call i1 @llvm.expect.i1(i1 %_8.1, i1 false), !dbg !1740
  br i1 %9, label %panic, label %bb3, !dbg !1740

bb4:                                              ; preds = %bb3, %bb7
  ret void, !dbg !1735

bb3:                                              ; preds = %bb8
  store i64 %_8.0, ptr %self, align 8, !dbg !1740
  call void @llvm.memcpy.p0.p0.i64(ptr align 2 %_10, ptr align 2 %a, i64 4, i1 false), !dbg !1741
  store i64 %i, ptr %_9, align 8, !dbg !1742
  %10 = getelementptr inbounds i8, ptr %_9, i64 8, !dbg !1742
  call void @llvm.memcpy.p0.p0.i64(ptr align 8 %10, ptr align 2 %_10, i64 4, i1 false), !dbg !1742
  call void @llvm.memcpy.p0.p0.i64(ptr align 8 %_0, ptr align 8 %_9, i64 16, i1 false), !dbg !1743
  br label %bb4, !dbg !1735

panic:                                            ; preds = %bb8
; invoke core::panicking::panic
  invoke void @_ZN4core9panicking5panic17h5884aad3a9044857E(ptr align 1 @str.0, i64 28, ptr align 8 @alloc_e644bbe572686fdbe11c9dbdc434ddd2) #17
          to label %unreachable unwind label %cleanup, !dbg !1740

bb5:                                              ; preds = %cleanup
  %11 = load ptr, ptr %0, align 8, !dbg !1744, !noundef !18
  %12 = getelementptr inbounds i8, ptr %0, i64 8, !dbg !1744
  %13 = load i32, ptr %12, align 8, !dbg !1744, !noundef !18
  %14 = insertvalue { ptr, i32 } poison, ptr %11, 0, !dbg !1744
  %15 = insertvalue { ptr, i32 } %14, i32 %13, 1, !dbg !1744
  resume { ptr, i32 } %15, !dbg !1744

cleanup:                                          ; preds = %panic
  %16 = landingpad { ptr, i32 }
          cleanup
  %17 = extractvalue { ptr, i32 } %16, 0
  %18 = extractvalue { ptr, i32 } %16, 1
  store ptr %17, ptr %0, align 8
  %19 = getelementptr inbounds i8, ptr %0, i64 8
  store i32 %18, ptr %19, align 8
  br label %bb5

unreachable:                                      ; preds = %panic
  unreachable

bb2:                                              ; No predecessors!
  unreachable, !dbg !1728
}

; <core::iter::adapters::enumerate::Enumerate<I> as core::iter::traits::iterator::Iterator>::next
; Function Attrs: inlinehint uwtable
define void @"_ZN110_$LT$core..iter..adapters..enumerate..Enumerate$LT$I$GT$$u20$as$u20$core..iter..traits..iterator..Iterator$GT$4next17h95c7ce859e7bb5deE"(ptr sret(%"core::option::Option<(usize, core::result::Result<u16, core::num::error::ParseIntError>)>") align 8 %_0, ptr align 8 %self) unnamed_addr #1 personality ptr @rust_eh_personality !dbg !1745 {
start:
  %0 = alloca { ptr, i32, [1 x i32] }, align 8
  %i.dbg.spill = alloca i64, align 8
  %1 = alloca i32, align 4
  %self.dbg.spill = alloca ptr, align 8
  %v = alloca %"core::result::Result<u16, core::num::error::ParseIntError>", align 2
  %_10 = alloca %"core::result::Result<u16, core::num::error::ParseIntError>", align 2
  %_9 = alloca { i64, %"core::result::Result<u16, core::num::error::ParseIntError>", [2 x i16] }, align 8
  %val = alloca %"core::result::Result<u16, core::num::error::ParseIntError>", align 2
  %self2 = alloca %"core::option::Option<core::result::Result<u16, core::num::error::ParseIntError>>", align 2
  %_3 = alloca %"core::ops::control_flow::ControlFlow<core::option::Option<core::convert::Infallible>, core::result::Result<u16, core::num::error::ParseIntError>>", align 2
  %a = alloca %"core::result::Result<u16, core::num::error::ParseIntError>", align 2
  %residual.dbg.spill1 = alloca %"core::option::Option<core::convert::Infallible>::None", align 1
  %residual.dbg.spill = alloca %"core::option::Option<core::convert::Infallible>::None", align 1
  call void @llvm.dbg.declare(metadata ptr %residual.dbg.spill, metadata !1759, metadata !DIExpression()), !dbg !1765
  call void @llvm.dbg.declare(metadata ptr %residual.dbg.spill1, metadata !1766, metadata !DIExpression()), !dbg !1770
  store ptr %self, ptr %self.dbg.spill, align 8, !dbg !1770
  call void @llvm.dbg.declare(metadata ptr %self.dbg.spill, metadata !1756, metadata !DIExpression()), !dbg !1772
  call void @llvm.dbg.declare(metadata ptr %a, metadata !1757, metadata !DIExpression()), !dbg !1773
  call void @llvm.dbg.declare(metadata ptr %self2, metadata !1774, metadata !DIExpression()), !dbg !1780
  call void @llvm.dbg.declare(metadata ptr %val, metadata !1761, metadata !DIExpression()), !dbg !1782
  call void @llvm.dbg.declare(metadata ptr %v, metadata !1778, metadata !DIExpression()), !dbg !1783
  %_5 = getelementptr inbounds i8, ptr %self, i64 8, !dbg !1781
; call <core::iter::adapters::map::Map<I,F> as core::iter::traits::iterator::Iterator>::next
  %2 = call i32 @"_ZN102_$LT$core..iter..adapters..map..Map$LT$I$C$F$GT$$u20$as$u20$core..iter..traits..iterator..Iterator$GT$4next17h0d1449a234c70985E"(ptr align 8 %_5), !dbg !1781
  store i32 %2, ptr %1, align 4, !dbg !1781
  call void @llvm.memcpy.p0.p0.i64(ptr align 2 %self2, ptr align 4 %1, i64 4, i1 false), !dbg !1781
  %3 = load i8, ptr %self2, align 2, !dbg !1784, !range !1732, !noundef !18
  %4 = icmp eq i8 %3, 2, !dbg !1784
  %_11 = select i1 %4, i64 0, i64 1, !dbg !1784
  %5 = icmp eq i64 %_11, 0, !dbg !1785
  br i1 %5, label %bb7, label %bb8, !dbg !1785

bb7:                                              ; preds = %start
  %6 = getelementptr inbounds i8, ptr %_0, i64 8, !dbg !1786
  store i8 2, ptr %6, align 8, !dbg !1786
  br label %bb4, !dbg !1787

bb8:                                              ; preds = %start
  call void @llvm.memcpy.p0.p0.i64(ptr align 2 %v, ptr align 2 %self2, i64 4, i1 false), !dbg !1788
  call void @llvm.memcpy.p0.p0.i64(ptr align 2 %_3, ptr align 2 %v, i64 4, i1 false), !dbg !1789
  call void @llvm.memcpy.p0.p0.i64(ptr align 2 %val, ptr align 2 %_3, i64 4, i1 false), !dbg !1781
  call void @llvm.memcpy.p0.p0.i64(ptr align 2 %a, ptr align 2 %val, i64 4, i1 false), !dbg !1782
  %i = load i64, ptr %self, align 8, !dbg !1790, !noundef !18
  store i64 %i, ptr %i.dbg.spill, align 8, !dbg !1790
  call void @llvm.dbg.declare(metadata ptr %i.dbg.spill, metadata !1763, metadata !DIExpression()), !dbg !1791
  %7 = load i64, ptr %self, align 8, !dbg !1792, !noundef !18
  %8 = call { i64, i1 } @llvm.uadd.with.overflow.i64(i64 %7, i64 1), !dbg !1792
  %_8.0 = extractvalue { i64, i1 } %8, 0, !dbg !1792
  %_8.1 = extractvalue { i64, i1 } %8, 1, !dbg !1792
  %9 = call i1 @llvm.expect.i1(i1 %_8.1, i1 false), !dbg !1792
  br i1 %9, label %panic, label %bb3, !dbg !1792

bb4:                                              ; preds = %bb3, %bb7
  ret void, !dbg !1787

bb3:                                              ; preds = %bb8
  store i64 %_8.0, ptr %self, align 8, !dbg !1792
  call void @llvm.memcpy.p0.p0.i64(ptr align 2 %_10, ptr align 2 %a, i64 4, i1 false), !dbg !1793
  store i64 %i, ptr %_9, align 8, !dbg !1794
  %10 = getelementptr inbounds i8, ptr %_9, i64 8, !dbg !1794
  call void @llvm.memcpy.p0.p0.i64(ptr align 8 %10, ptr align 2 %_10, i64 4, i1 false), !dbg !1794
  call void @llvm.memcpy.p0.p0.i64(ptr align 8 %_0, ptr align 8 %_9, i64 16, i1 false), !dbg !1795
  br label %bb4, !dbg !1787

panic:                                            ; preds = %bb8
; invoke core::panicking::panic
  invoke void @_ZN4core9panicking5panic17h5884aad3a9044857E(ptr align 1 @str.0, i64 28, ptr align 8 @alloc_e644bbe572686fdbe11c9dbdc434ddd2) #17
          to label %unreachable unwind label %cleanup, !dbg !1792

bb5:                                              ; preds = %cleanup
  %11 = load ptr, ptr %0, align 8, !dbg !1796, !noundef !18
  %12 = getelementptr inbounds i8, ptr %0, i64 8, !dbg !1796
  %13 = load i32, ptr %12, align 8, !dbg !1796, !noundef !18
  %14 = insertvalue { ptr, i32 } poison, ptr %11, 0, !dbg !1796
  %15 = insertvalue { ptr, i32 } %14, i32 %13, 1, !dbg !1796
  resume { ptr, i32 } %15, !dbg !1796

cleanup:                                          ; preds = %panic
  %16 = landingpad { ptr, i32 }
          cleanup
  %17 = extractvalue { ptr, i32 } %16, 0
  %18 = extractvalue { ptr, i32 } %16, 1
  store ptr %17, ptr %0, align 8
  %19 = getelementptr inbounds i8, ptr %0, i64 8
  store i32 %18, ptr %19, align 8
  br label %bb5

unreachable:                                      ; preds = %panic
  unreachable

bb2:                                              ; No predecessors!
  unreachable, !dbg !1781
}

; <core::ops::range::RangeFrom<usize> as core::slice::index::SliceIndex<[T]>>::index
; Function Attrs: inlinehint uwtable
define { ptr, i64 } @"_ZN110_$LT$core..ops..range..RangeFrom$LT$usize$GT$$u20$as$u20$core..slice..index..SliceIndex$LT$$u5b$T$u5d$$GT$$GT$5index17h560b6eed4df4999dE"(i64 %self, ptr align 1 %slice.0, i64 %slice.1, ptr align 8 %0) unnamed_addr #1 !dbg !1797 {
start:
  %self.dbg.spill1 = alloca i64, align 8
  %slice.dbg.spill = alloca { ptr, i64 }, align 8
  %self.dbg.spill = alloca i64, align 8
  %_12 = alloca %"core::ptr::metadata::PtrRepr<[u8]>", align 8
  %_10 = alloca %"core::ops::range::Range<usize>", align 8
  store i64 %self, ptr %self.dbg.spill, align 8
  call void @llvm.dbg.declare(metadata ptr %self.dbg.spill, metadata !1805, metadata !DIExpression()), !dbg !1807
  store ptr %slice.0, ptr %slice.dbg.spill, align 8
  %1 = getelementptr inbounds i8, ptr %slice.dbg.spill, i64 8
  store i64 %slice.1, ptr %1, align 8
  call void @llvm.dbg.declare(metadata ptr %slice.dbg.spill, metadata !1806, metadata !DIExpression()), !dbg !1808
  call void @llvm.dbg.declare(metadata ptr %slice.dbg.spill, metadata !1809, metadata !DIExpression()), !dbg !1816
  call void @llvm.dbg.declare(metadata ptr %slice.dbg.spill, metadata !1818, metadata !DIExpression()), !dbg !1822
  call void @llvm.dbg.declare(metadata ptr %slice.dbg.spill, metadata !1824, metadata !DIExpression()), !dbg !1828
  store i64 %self, ptr %self.dbg.spill1, align 8, !dbg !1830
  call void @llvm.dbg.declare(metadata ptr %self.dbg.spill1, metadata !1815, metadata !DIExpression()), !dbg !1831
  %_3 = icmp ugt i64 %self, %slice.1, !dbg !1830
  br i1 %_3, label %bb1, label %bb2, !dbg !1830

bb2:                                              ; preds = %start
  store ptr %slice.0, ptr %_12, align 8, !dbg !1832
  %2 = getelementptr inbounds i8, ptr %_12, i64 8, !dbg !1832
  store i64 %slice.1, ptr %2, align 8, !dbg !1832
  %3 = getelementptr inbounds i8, ptr %_12, i64 8, !dbg !1832
  %_11 = load i64, ptr %3, align 8, !dbg !1832, !noundef !18
  store i64 %self, ptr %_10, align 8, !dbg !1833
  %4 = getelementptr inbounds i8, ptr %_10, i64 8, !dbg !1833
  store i64 %_11, ptr %4, align 8, !dbg !1833
  %5 = load i64, ptr %_10, align 8, !dbg !1833, !noundef !18
  %6 = getelementptr inbounds i8, ptr %_10, i64 8, !dbg !1833
  %7 = load i64, ptr %6, align 8, !dbg !1833, !noundef !18
; call <core::ops::range::Range<usize> as core::slice::index::SliceIndex<[T]>>::get_unchecked
  %8 = call { ptr, i64 } @"_ZN106_$LT$core..ops..range..Range$LT$usize$GT$$u20$as$u20$core..slice..index..SliceIndex$LT$$u5b$T$u5d$$GT$$GT$13get_unchecked17hdb0cf2e73392a053E"(i64 %5, i64 %7, ptr %slice.0, i64 %slice.1), !dbg !1833
  %_8.0 = extractvalue { ptr, i64 } %8, 0, !dbg !1833
  %_8.1 = extractvalue { ptr, i64 } %8, 1, !dbg !1833
  %9 = insertvalue { ptr, i64 } poison, ptr %_8.0, 0, !dbg !1834
  %10 = insertvalue { ptr, i64 } %9, i64 %_8.1, 1, !dbg !1834
  ret { ptr, i64 } %10, !dbg !1834

bb1:                                              ; preds = %start
; call core::slice::index::slice_start_index_len_fail
  call void @_ZN4core5slice5index26slice_start_index_len_fail17hdf66d65d95069d8dE(i64 %self, i64 %slice.1, ptr align 8 %0) #17, !dbg !1835
  unreachable, !dbg !1835
}

; <core::str::iter::SplitInclusive<P> as core::iter::traits::double_ended::DoubleEndedIterator>::next_back
; Function Attrs: inlinehint uwtable
define { ptr, i64 } @"_ZN114_$LT$core..str..iter..SplitInclusive$LT$P$GT$$u20$as$u20$core..iter..traits..double_ended..DoubleEndedIterator$GT$9next_back17he0ad48ccc6e69e86E"(ptr align 8 %self) unnamed_addr #1 !dbg !1836 {
start:
  %self.dbg.spill = alloca ptr, align 8
  store ptr %self, ptr %self.dbg.spill, align 8
  call void @llvm.dbg.declare(metadata ptr %self.dbg.spill, metadata !1842, metadata !DIExpression()), !dbg !1843
; call core::str::iter::SplitInternal<P>::next_back_inclusive
  %0 = call { ptr, i64 } @"_ZN4core3str4iter22SplitInternal$LT$P$GT$19next_back_inclusive17hb56f83611bddf259E"(ptr align 8 %self), !dbg !1844
  %_0.0 = extractvalue { ptr, i64 } %0, 0, !dbg !1844
  %_0.1 = extractvalue { ptr, i64 } %0, 1, !dbg !1844
  %1 = insertvalue { ptr, i64 } poison, ptr %_0.0, 0, !dbg !1845
  %2 = insertvalue { ptr, i64 } %1, i64 %_0.1, 1, !dbg !1845
  ret { ptr, i64 } %2, !dbg !1845
}

; <core::iter::adapters::map::Map<I,F> as core::iter::traits::double_ended::DoubleEndedIterator>::next_back
; Function Attrs: inlinehint uwtable
define { ptr, i64 } @"_ZN117_$LT$core..iter..adapters..map..Map$LT$I$C$F$GT$$u20$as$u20$core..iter..traits..double_ended..DoubleEndedIterator$GT$9next_back17h46bd05ae3d736685E"(ptr align 8 %self) unnamed_addr #1 !dbg !1846 {
start:
  %x.dbg.spill = alloca { ptr, i64 }, align 8
  %f.dbg.spill = alloca ptr, align 8
  %self.dbg.spill = alloca ptr, align 8
  %_8 = alloca { { ptr, i64 } }, align 8
  %self1 = alloca %"core::option::Option<&str>", align 8
  %_0 = alloca %"core::option::Option<&str>", align 8
  store ptr %self, ptr %self.dbg.spill, align 8
  call void @llvm.dbg.declare(metadata ptr %self.dbg.spill, metadata !1849, metadata !DIExpression()), !dbg !1850
  call void @llvm.dbg.declare(metadata ptr %self1, metadata !1851, metadata !DIExpression()), !dbg !1858
; call <core::str::iter::SplitInclusive<P> as core::iter::traits::double_ended::DoubleEndedIterator>::next_back
  %0 = call { ptr, i64 } @"_ZN114_$LT$core..str..iter..SplitInclusive$LT$P$GT$$u20$as$u20$core..iter..traits..double_ended..DoubleEndedIterator$GT$9next_back17he0ad48ccc6e69e86E"(ptr align 8 %self), !dbg !1860
  %1 = extractvalue { ptr, i64 } %0, 0, !dbg !1860
  %2 = extractvalue { ptr, i64 } %0, 1, !dbg !1860
  store ptr %1, ptr %self1, align 8, !dbg !1860
  %3 = getelementptr inbounds i8, ptr %self1, i64 8, !dbg !1860
  store i64 %2, ptr %3, align 8, !dbg !1860
  %f = getelementptr inbounds i8, ptr %self, i64 72, !dbg !1861
  store ptr %f, ptr %f.dbg.spill, align 8, !dbg !1861
  call void @llvm.dbg.declare(metadata ptr %f.dbg.spill, metadata !1855, metadata !DIExpression()), !dbg !1862
  %4 = load ptr, ptr %self1, align 8, !dbg !1863, !noundef !18
  %5 = ptrtoint ptr %4 to i64, !dbg !1863
  %6 = icmp eq i64 %5, 0, !dbg !1863
  %_5 = select i1 %6, i64 0, i64 1, !dbg !1863
  %7 = icmp eq i64 %_5, 0, !dbg !1864
  br i1 %7, label %bb4, label %bb5, !dbg !1864

bb4:                                              ; preds = %start
  store ptr null, ptr %_0, align 8, !dbg !1865
  br label %bb2, !dbg !1866

bb5:                                              ; preds = %start
  %x.0 = load ptr, ptr %self1, align 8, !dbg !1867, !nonnull !18, !align !432, !noundef !18
  %8 = getelementptr inbounds i8, ptr %self1, i64 8, !dbg !1867
  %x.1 = load i64, ptr %8, align 8, !dbg !1867, !noundef !18
  store ptr %x.0, ptr %x.dbg.spill, align 8, !dbg !1867
  %9 = getelementptr inbounds i8, ptr %x.dbg.spill, i64 8, !dbg !1867
  store i64 %x.1, ptr %9, align 8, !dbg !1867
  call void @llvm.dbg.declare(metadata ptr %x.dbg.spill, metadata !1856, metadata !DIExpression()), !dbg !1868
  store ptr %x.0, ptr %_8, align 8, !dbg !1869
  %10 = getelementptr inbounds i8, ptr %_8, i64 8, !dbg !1869
  store i64 %x.1, ptr %10, align 8, !dbg !1869
  %11 = load ptr, ptr %_8, align 8, !dbg !1869, !nonnull !18, !align !432, !noundef !18
  %12 = getelementptr inbounds i8, ptr %_8, i64 8, !dbg !1869
  %13 = load i64, ptr %12, align 8, !dbg !1869, !noundef !18
; call core::ops::function::impls::<impl core::ops::function::FnOnce<A> for &mut F>::call_once
  %14 = call { ptr, i64 } @"_ZN4core3ops8function5impls80_$LT$impl$u20$core..ops..function..FnOnce$LT$A$GT$$u20$for$u20$$RF$mut$u20$F$GT$9call_once17h70e21a0fad16108fE"(ptr align 1 %f, ptr align 1 %11, i64 %13), !dbg !1869
  %_7.0 = extractvalue { ptr, i64 } %14, 0, !dbg !1869
  %_7.1 = extractvalue { ptr, i64 } %14, 1, !dbg !1869
  store ptr %_7.0, ptr %_0, align 8, !dbg !1870
  %15 = getelementptr inbounds i8, ptr %_0, i64 8, !dbg !1870
  store i64 %_7.1, ptr %15, align 8, !dbg !1870
  br label %bb2, !dbg !1871

bb2:                                              ; preds = %bb5, %bb4
  %16 = load ptr, ptr %_0, align 8, !dbg !1872, !align !432, !noundef !18
  %17 = getelementptr inbounds i8, ptr %_0, i64 8, !dbg !1872
  %18 = load i64, ptr %17, align 8, !dbg !1872
  %19 = insertvalue { ptr, i64 } poison, ptr %16, 0, !dbg !1872
  %20 = insertvalue { ptr, i64 } %19, i64 %18, 1, !dbg !1872
  ret { ptr, i64 } %20, !dbg !1872

bb3:                                              ; No predecessors!
  unreachable, !dbg !1863
}

; <alloc::collections::btree::map::BTreeMap<K,V,A> as core::iter::traits::collect::IntoIterator>::into_iter
; Function Attrs: uwtable
define void @"_ZN119_$LT$alloc..collections..btree..map..BTreeMap$LT$K$C$V$C$A$GT$$u20$as$u20$core..iter..traits..collect..IntoIterator$GT$9into_iter17he2bb502268bda9ffE"(ptr sret(%"alloc::collections::btree::map::IntoIter<std::ffi::os_str::OsString, core::option::Option<std::ffi::os_str::OsString>>") align 8 %_0, ptr align 8 %self) unnamed_addr #0 !dbg !1873 {
start:
  %src.dbg.spill14 = alloca ptr, align 8
  %slot.dbg.spill12 = alloca ptr, align 8
  %self.dbg.spill10 = alloca ptr, align 8
  %src.dbg.spill9 = alloca ptr, align 8
  %slot.dbg.spill = alloca ptr, align 8
  %self.dbg.spill8 = alloca ptr, align 8
  %self.dbg.spill7 = alloca ptr, align 8
  %root1.dbg.spill = alloca %"alloc::collections::btree::node::NodeRef<alloc::collections::btree::node::marker::Dying, std::ffi::os_str::OsString, core::option::Option<std::ffi::os_str::OsString>, alloc::collections::btree::node::marker::LeafOrInternal>", align 8
  %self2.dbg.spill = alloca %"alloc::collections::btree::node::NodeRef<alloc::collections::btree::node::marker::Dying, std::ffi::os_str::OsString, core::option::Option<std::ffi::os_str::OsString>, alloc::collections::btree::node::marker::LeafOrInternal>", align 8
  %src.dbg.spill6 = alloca ptr, align 8
  %root.dbg.spill5 = alloca ptr, align 8
  %root.dbg.spill = alloca i64, align 8
  %self.dbg.spill3 = alloca ptr, align 8
  %self.dbg.spill = alloca ptr, align 8
  %_26 = alloca %"core::option::Option<alloc::collections::btree::navigate::LazyLeafHandle<alloc::collections::btree::node::marker::Dying, std::ffi::os_str::OsString, core::option::Option<std::ffi::os_str::OsString>>>", align 8
  %_24 = alloca %"alloc::collections::btree::navigate::LazyLeafHandle<alloc::collections::btree::node::marker::Dying, std::ffi::os_str::OsString, core::option::Option<std::ffi::os_str::OsString>>", align 8
  %_23 = alloca %"core::option::Option<alloc::collections::btree::navigate::LazyLeafHandle<alloc::collections::btree::node::marker::Dying, std::ffi::os_str::OsString, core::option::Option<std::ffi::os_str::OsString>>>", align 8
  %_22 = alloca %"alloc::collections::btree::navigate::LazyLeafHandle<alloc::collections::btree::node::marker::Dying, std::ffi::os_str::OsString, core::option::Option<std::ffi::os_str::OsString>>", align 8
  %_21 = alloca %"core::option::Option<alloc::collections::btree::navigate::LazyLeafHandle<alloc::collections::btree::node::marker::Dying, std::ffi::os_str::OsString, core::option::Option<std::ffi::os_str::OsString>>>", align 8
  %_14 = alloca %"alloc::collections::btree::navigate::LazyLeafRange<alloc::collections::btree::node::marker::Dying, std::ffi::os_str::OsString, core::option::Option<std::ffi::os_str::OsString>>", align 8
  %self2 = alloca %"alloc::collections::btree::node::NodeRef<alloc::collections::btree::node::marker::Dying, std::ffi::os_str::OsString, core::option::Option<std::ffi::os_str::OsString>, alloc::collections::btree::node::marker::LeafOrInternal>", align 8
  %full_range = alloca %"alloc::collections::btree::navigate::LazyLeafRange<alloc::collections::btree::node::marker::Dying, std::ffi::os_str::OsString, core::option::Option<std::ffi::os_str::OsString>>", align 8
  %result = alloca %"core::option::Option<alloc::collections::btree::node::NodeRef<alloc::collections::btree::node::marker::Owned, std::ffi::os_str::OsString, core::option::Option<std::ffi::os_str::OsString>, alloc::collections::btree::node::marker::LeafOrInternal>>", align 8
  %me = alloca %"core::mem::manually_drop::ManuallyDrop<alloc::collections::btree::map::BTreeMap<std::ffi::os_str::OsString, core::option::Option<std::ffi::os_str::OsString>>>", align 8
  %src.dbg.spill1 = alloca %"core::option::Option<alloc::collections::btree::node::NodeRef<alloc::collections::btree::node::marker::Owned, std::ffi::os_str::OsString, core::option::Option<std::ffi::os_str::OsString>, alloc::collections::btree::node::marker::LeafOrInternal>>", align 8
  %src.dbg.spill = alloca %"core::option::Option<alloc::collections::btree::node::NodeRef<alloc::collections::btree::node::marker::Owned, std::ffi::os_str::OsString, core::option::Option<std::ffi::os_str::OsString>, alloc::collections::btree::node::marker::LeafOrInternal>>", align 8
  %0 = load ptr, ptr @1, align 8, !noundef !18
  %1 = load i64, ptr getelementptr inbounds (i8, ptr @1, i64 8), align 8
  store ptr %0, ptr %src.dbg.spill, align 8, !dbg !2163
  %2 = getelementptr inbounds i8, ptr %src.dbg.spill, i64 8, !dbg !2163
  store i64 %1, ptr %2, align 8, !dbg !2163
  call void @llvm.dbg.declare(metadata ptr %src.dbg.spill, metadata !2172, metadata !DIExpression()), !dbg !2163
  %3 = load ptr, ptr @1, align 8, !dbg !2163, !noundef !18
  %4 = load i64, ptr getelementptr inbounds (i8, ptr @1, i64 8), align 8, !dbg !2163
  store ptr %3, ptr %src.dbg.spill1, align 8, !dbg !2186
  %5 = getelementptr inbounds i8, ptr %src.dbg.spill1, i64 8, !dbg !2186
  store i64 %4, ptr %5, align 8, !dbg !2186
  call void @llvm.dbg.declare(metadata ptr %src.dbg.spill1, metadata !2194, metadata !DIExpression()), !dbg !2186
  call void @llvm.dbg.declare(metadata ptr %self, metadata !2151, metadata !DIExpression()), !dbg !2196
  call void @llvm.dbg.declare(metadata ptr %self, metadata !2197, metadata !DIExpression()), !dbg !2205
  call void @llvm.dbg.declare(metadata ptr %me, metadata !2152, metadata !DIExpression()), !dbg !2207
  call void @llvm.dbg.declare(metadata ptr %result, metadata !2173, metadata !DIExpression()), !dbg !2208
  call void @llvm.dbg.declare(metadata ptr %full_range, metadata !2161, metadata !DIExpression()), !dbg !2209
  call void @llvm.dbg.declare(metadata ptr %self2, metadata !2210, metadata !DIExpression()), !dbg !2220
  call void @llvm.memcpy.p0.p0.i64(ptr align 8 %me, ptr align 8 %self, i64 24, i1 false), !dbg !2222
  store ptr %me, ptr %self.dbg.spill, align 8, !dbg !2223
  call void @llvm.dbg.declare(metadata ptr %self.dbg.spill, metadata !2224, metadata !DIExpression()), !dbg !2237
  store ptr %me, ptr %self.dbg.spill3, align 8, !dbg !2223
  call void @llvm.dbg.declare(metadata ptr %self.dbg.spill3, metadata !2184, metadata !DIExpression()), !dbg !2238
  call void @llvm.dbg.declare(metadata ptr %self.dbg.spill3, metadata !2171, metadata !DIExpression()), !dbg !2239
  call void @llvm.dbg.declare(metadata ptr %self.dbg.spill3, metadata !2240, metadata !DIExpression()), !dbg !2247
  call void @llvm.dbg.declare(metadata ptr %self.dbg.spill3, metadata !2193, metadata !DIExpression()), !dbg !2249
  %6 = load ptr, ptr %me, align 8, !dbg !2250, !noundef !18
  %7 = getelementptr inbounds i8, ptr %me, i64 8, !dbg !2250
  %8 = load i64, ptr %7, align 8, !dbg !2250
  store ptr %6, ptr %result, align 8, !dbg !2250
  %9 = getelementptr inbounds i8, ptr %result, i64 8, !dbg !2250
  store i64 %8, ptr %9, align 8, !dbg !2250
  %10 = load ptr, ptr @1, align 8, !dbg !2251, !noundef !18
  %11 = load i64, ptr getelementptr inbounds (i8, ptr @1, i64 8), align 8, !dbg !2251
  store ptr %10, ptr %me, align 8, !dbg !2251
  %12 = getelementptr inbounds i8, ptr %me, i64 8, !dbg !2251
  store i64 %11, ptr %12, align 8, !dbg !2251
  %13 = load ptr, ptr %result, align 8, !dbg !2252, !noundef !18
  %14 = ptrtoint ptr %13 to i64, !dbg !2252
  %15 = icmp eq i64 %14, 0, !dbg !2252
  %_6 = select i1 %15, i64 0, i64 1, !dbg !2252
  %16 = icmp eq i64 %_6, 1, !dbg !2252
  br i1 %16, label %bb1, label %bb2, !dbg !2252

bb1:                                              ; preds = %start
  %17 = getelementptr inbounds i8, ptr %result, i64 8, !dbg !2253
  %root = load i64, ptr %17, align 8, !dbg !2253, !noundef !18
  store i64 %root, ptr %root.dbg.spill, align 8, !dbg !2253
  call void @llvm.dbg.declare(metadata ptr %root.dbg.spill, metadata !2159, metadata !DIExpression(DW_OP_LLVM_fragment, 64, 64)), !dbg !2253
  call void @llvm.dbg.declare(metadata ptr %root.dbg.spill, metadata !2254, metadata !DIExpression(DW_OP_LLVM_fragment, 64, 64)), !dbg !2263
  %root4 = load ptr, ptr %result, align 8, !dbg !2253, !nonnull !18, !noundef !18
  store ptr %root4, ptr %root.dbg.spill5, align 8, !dbg !2253
  call void @llvm.dbg.declare(metadata ptr %root.dbg.spill5, metadata !2159, metadata !DIExpression(DW_OP_LLVM_fragment, 0, 64)), !dbg !2253
  call void @llvm.dbg.declare(metadata ptr %root.dbg.spill5, metadata !2254, metadata !DIExpression(DW_OP_LLVM_fragment, 0, 64)), !dbg !2263
  %18 = getelementptr inbounds i8, ptr %self2, i64 8, !dbg !2265
  store i64 %root, ptr %18, align 8, !dbg !2265
  store ptr %root4, ptr %self2, align 8, !dbg !2265
  store ptr %self2, ptr %src.dbg.spill6, align 8, !dbg !2266
  call void @llvm.dbg.declare(metadata ptr %src.dbg.spill6, metadata !2267, metadata !DIExpression()), !dbg !2276
  %self2.0 = load ptr, ptr %self2, align 8, !dbg !2278, !nonnull !18, !noundef !18
  %19 = getelementptr inbounds i8, ptr %self2, i64 8, !dbg !2278
  %self2.1 = load i64, ptr %19, align 8, !dbg !2278, !noundef !18
  store ptr %self2.0, ptr %self2.dbg.spill, align 8, !dbg !2278
  %20 = getelementptr inbounds i8, ptr %self2.dbg.spill, i64 8, !dbg !2278
  store i64 %self2.1, ptr %20, align 8, !dbg !2278
  call void @llvm.dbg.declare(metadata ptr %self2.dbg.spill, metadata !2218, metadata !DIExpression()), !dbg !2279
  call void @llvm.dbg.declare(metadata ptr %self2.dbg.spill, metadata !2280, metadata !DIExpression()), !dbg !2287
  %root1.0 = load ptr, ptr %self2, align 8, !dbg !2289, !nonnull !18, !noundef !18
  %21 = getelementptr inbounds i8, ptr %self2, i64 8, !dbg !2289
  %root1.1 = load i64, ptr %21, align 8, !dbg !2289, !noundef !18
  store ptr %root1.0, ptr %root1.dbg.spill, align 8, !dbg !2289
  %22 = getelementptr inbounds i8, ptr %root1.dbg.spill, i64 8, !dbg !2289
  store i64 %root1.1, ptr %22, align 8, !dbg !2289
  call void @llvm.dbg.declare(metadata ptr %root1.dbg.spill, metadata !2286, metadata !DIExpression()), !dbg !2290
  %23 = getelementptr inbounds i8, ptr %_22, i64 8, !dbg !2291
  store ptr %root1.0, ptr %23, align 8, !dbg !2291
  %24 = getelementptr inbounds i8, ptr %23, i64 8, !dbg !2291
  store i64 %root1.1, ptr %24, align 8, !dbg !2291
  store ptr null, ptr %_22, align 8, !dbg !2291
  %25 = getelementptr inbounds i8, ptr %_21, i64 8, !dbg !2292
  call void @llvm.memcpy.p0.p0.i64(ptr align 8 %25, ptr align 8 %_22, i64 24, i1 false), !dbg !2292
  store i64 1, ptr %_21, align 8, !dbg !2292
  %26 = getelementptr inbounds i8, ptr %_24, i64 8, !dbg !2293
  store ptr %self2.0, ptr %26, align 8, !dbg !2293
  %27 = getelementptr inbounds i8, ptr %26, i64 8, !dbg !2293
  store i64 %self2.1, ptr %27, align 8, !dbg !2293
  store ptr null, ptr %_24, align 8, !dbg !2293
  %28 = getelementptr inbounds i8, ptr %_23, i64 8, !dbg !2294
  call void @llvm.memcpy.p0.p0.i64(ptr align 8 %28, ptr align 8 %_24, i64 24, i1 false), !dbg !2294
  store i64 1, ptr %_23, align 8, !dbg !2294
  call void @llvm.memcpy.p0.p0.i64(ptr align 8 %full_range, ptr align 8 %_21, i64 32, i1 false), !dbg !2295
  %29 = getelementptr inbounds i8, ptr %full_range, i64 32, !dbg !2295
  call void @llvm.memcpy.p0.p0.i64(ptr align 8 %29, ptr align 8 %_23, i64 32, i1 false), !dbg !2295
  store ptr %me, ptr %self.dbg.spill7, align 8, !dbg !2296
  call void @llvm.dbg.declare(metadata ptr %self.dbg.spill7, metadata !2297, metadata !DIExpression()), !dbg !2306
  %30 = getelementptr inbounds i8, ptr %me, i64 16, !dbg !2296
  %_9 = load i64, ptr %30, align 8, !dbg !2296, !noundef !18
  store ptr %me, ptr %self.dbg.spill8, align 8, !dbg !2307
  call void @llvm.dbg.declare(metadata ptr %self.dbg.spill8, metadata !2233, metadata !DIExpression()), !dbg !2308
  %slot = getelementptr inbounds i8, ptr %me, i64 24, !dbg !2309
  store ptr %slot, ptr %slot.dbg.spill, align 8, !dbg !2309
  call void @llvm.dbg.declare(metadata ptr %slot.dbg.spill, metadata !2310, metadata !DIExpression()), !dbg !2320
  %src = getelementptr inbounds i8, ptr %me, i64 24, !dbg !2322
  store ptr %src, ptr %src.dbg.spill9, align 8, !dbg !2322
  call void @llvm.dbg.declare(metadata ptr %src.dbg.spill9, metadata !2323, metadata !DIExpression()), !dbg !2332
  call void @llvm.memcpy.p0.p0.i64(ptr align 8 %_0, ptr align 8 %full_range, i64 64, i1 false), !dbg !2334
  %31 = getelementptr inbounds i8, ptr %_0, i64 64, !dbg !2334
  store i64 %_9, ptr %31, align 8, !dbg !2334
  br label %bb3, !dbg !2335

bb2:                                              ; preds = %start
  store i64 0, ptr %_26, align 8, !dbg !2336
  call void @llvm.memcpy.p0.p0.i64(ptr align 8 %_14, ptr align 8 %_26, i64 32, i1 false), !dbg !2343
  %32 = getelementptr inbounds i8, ptr %_14, i64 32, !dbg !2343
  call void @llvm.memcpy.p0.p0.i64(ptr align 8 %32, ptr align 8 %_26, i64 32, i1 false), !dbg !2343
  store ptr %me, ptr %self.dbg.spill10, align 8, !dbg !2344
  call void @llvm.dbg.declare(metadata ptr %self.dbg.spill10, metadata !2235, metadata !DIExpression()), !dbg !2345
  %slot11 = getelementptr inbounds i8, ptr %me, i64 24, !dbg !2346
  store ptr %slot11, ptr %slot.dbg.spill12, align 8, !dbg !2346
  call void @llvm.dbg.declare(metadata ptr %slot.dbg.spill12, metadata !2318, metadata !DIExpression()), !dbg !2347
  %src13 = getelementptr inbounds i8, ptr %me, i64 24, !dbg !2349
  store ptr %src13, ptr %src.dbg.spill14, align 8, !dbg !2349
  call void @llvm.dbg.declare(metadata ptr %src.dbg.spill14, metadata !2330, metadata !DIExpression()), !dbg !2350
  call void @llvm.memcpy.p0.p0.i64(ptr align 8 %_0, ptr align 8 %_14, i64 64, i1 false), !dbg !2352
  %33 = getelementptr inbounds i8, ptr %_0, i64 64, !dbg !2352
  store i64 0, ptr %33, align 8, !dbg !2352
  br label %bb3, !dbg !2335

bb3:                                              ; preds = %bb2, %bb1
  ret void, !dbg !2353

bb4:                                              ; No predecessors!
  unreachable, !dbg !2354
}

; <<alloc::collections::btree::map::IntoIter<K,V,A> as core::ops::drop::Drop>::drop::DropGuard<K,V,A> as core::ops::drop::Drop>::drop
; Function Attrs: uwtable
define void @"_ZN174_$LT$$LT$alloc..collections..btree..map..IntoIter$LT$K$C$V$C$A$GT$$u20$as$u20$core..ops..drop..Drop$GT$..drop..DropGuard$LT$K$C$V$C$A$GT$$u20$as$u20$core..ops..drop..Drop$GT$4drop17h009a3d783daf6e3eE"(ptr align 8 %self) unnamed_addr #0 !dbg !2355 {
start:
  %self.dbg.spill = alloca ptr, align 8
  %kv = alloca %"alloc::collections::btree::node::Handle<alloc::collections::btree::node::NodeRef<alloc::collections::btree::node::marker::Dying, std::ffi::os_str::OsString, core::option::Option<std::ffi::os_str::OsString>, alloc::collections::btree::node::marker::LeafOrInternal>, alloc::collections::btree::node::marker::KV>", align 8
  %_2 = alloca %"core::option::Option<alloc::collections::btree::node::Handle<alloc::collections::btree::node::NodeRef<alloc::collections::btree::node::marker::Dying, std::ffi::os_str::OsString, core::option::Option<std::ffi::os_str::OsString>, alloc::collections::btree::node::marker::LeafOrInternal>, alloc::collections::btree::node::marker::KV>>", align 8
  store ptr %self, ptr %self.dbg.spill, align 8
  call void @llvm.dbg.declare(metadata ptr %self.dbg.spill, metadata !2367, metadata !DIExpression()), !dbg !2384
  call void @llvm.dbg.declare(metadata ptr %kv, metadata !2368, metadata !DIExpression()), !dbg !2385
  br label %bb1, !dbg !2386

bb1:                                              ; preds = %bb3, %start
  %_6 = load ptr, ptr %self, align 8, !dbg !2387, !nonnull !18, !align !2388, !noundef !18
; call alloc::collections::btree::map::IntoIter<K,V,A>::dying_next
  call void @"_ZN5alloc11collections5btree3map25IntoIter$LT$K$C$V$C$A$GT$10dying_next17h9f39c04f73c9f3ffE"(ptr sret(%"core::option::Option<alloc::collections::btree::node::Handle<alloc::collections::btree::node::NodeRef<alloc::collections::btree::node::marker::Dying, std::ffi::os_str::OsString, core::option::Option<std::ffi::os_str::OsString>, alloc::collections::btree::node::marker::LeafOrInternal>, alloc::collections::btree::node::marker::KV>>") align 8 %_2, ptr align 8 %_6), !dbg !2387
  %0 = load ptr, ptr %_2, align 8, !dbg !2389, !noundef !18
  %1 = ptrtoint ptr %0 to i64, !dbg !2389
  %2 = icmp eq i64 %1, 0, !dbg !2389
  %_3 = select i1 %2, i64 0, i64 1, !dbg !2389
  %3 = icmp eq i64 %_3, 1, !dbg !2389
  br i1 %3, label %bb3, label %bb5, !dbg !2389

bb3:                                              ; preds = %bb1
  call void @llvm.memcpy.p0.p0.i64(ptr align 8 %kv, ptr align 8 %_2, i64 24, i1 false), !dbg !2385
; call alloc::collections::btree::node::Handle<alloc::collections::btree::node::NodeRef<alloc::collections::btree::node::marker::Dying,K,V,NodeType>,alloc::collections::btree::node::marker::KV>::drop_key_val
  call void @"_ZN5alloc11collections5btree4node173Handle$LT$alloc..collections..btree..node..NodeRef$LT$alloc..collections..btree..node..marker..Dying$C$K$C$V$C$NodeType$GT$$C$alloc..collections..btree..node..marker..KV$GT$12drop_key_val17hbbd38c5cdcf34e79E"(ptr align 8 %kv), !dbg !2390
  br label %bb1, !dbg !2386

bb5:                                              ; preds = %bb1
  ret void, !dbg !2391

bb6:                                              ; No predecessors!
  unreachable, !dbg !2392
}

; std::io::error::repr_bitpacked::decode_repr
; Function Attrs: inlinehint uwtable
define void @_ZN3std2io5error14repr_bitpacked11decode_repr17he9df507199b8b665E(ptr sret(%"std::io::error::ErrorData<alloc::boxed::Box<std::io::error::Custom>>") align 8 %_0, ptr %ptr) unnamed_addr #1 personality ptr @rust_eh_personality !dbg !2393 {
start:
  %custom.dbg.spill = alloca ptr, align 8
  %self.dbg.spill9 = alloca ptr, align 8
  %data_pointer.dbg.spill = alloca ptr, align 8
  %self.dbg.spill7 = alloca ptr, align 8
  %0 = alloca ptr, align 8
  %self.dbg.spill6 = alloca ptr, align 8
  %kind.dbg.spill = alloca i8, align 1
  %f.dbg.spill = alloca ptr, align 8
  %1 = alloca { ptr, i32, [1 x i32] }, align 8
  %kind_bits.dbg.spill = alloca i32, align 4
  %code.dbg.spill = alloca i32, align 4
  %self.dbg.spill5 = alloca ptr, align 8
  %meta.dbg.spill = alloca ptr, align 8
  %make_custom.dbg.spill = alloca %"{closure@<std::io::error::repr_bitpacked::Repr as core::ops::drop::Drop>::drop::{closure#0}}", align 1
  %ptr.dbg.spill = alloca ptr, align 8
  %_43 = alloca %"core::ptr::metadata::PtrComponents<()>", align 8
  %_42 = alloca %"core::ptr::metadata::PtrRepr<()>", align 8
  %_25 = alloca i8, align 1
  %_23 = alloca ptr, align 8
  %self4 = alloca ptr, align 8
  %self = alloca i8, align 1
  %bits = alloca i64, align 8
  %metadata.dbg.spill = alloca {}, align 1
  %count.dbg.spill3 = alloca i64, align 8
  %rhs.dbg.spill = alloca i64, align 8
  %self.dbg.spill2 = alloca i64, align 8
  %self.dbg.spill = alloca i64, align 8
  %count.dbg.spill1 = alloca i64, align 8
  %count.dbg.spill = alloca i64, align 8
  %_unsafe_arg.dbg.spill = alloca %"core::fmt::rt::UnsafeArg", align 1
  %width.dbg.spill = alloca %"core::fmt::rt::Count", align 8
  %precision.dbg.spill = alloca %"core::fmt::rt::Count", align 8
  %flags.dbg.spill = alloca i32, align 4
  %align.dbg.spill = alloca i8, align 1
  %fill.dbg.spill = alloca i32, align 4
  %position.dbg.spill = alloca i64, align 8
  store i64 0, ptr %position.dbg.spill, align 8, !dbg !2466
  call void @llvm.dbg.declare(metadata ptr %position.dbg.spill, metadata !2497, metadata !DIExpression()), !dbg !2466
  store i32 32, ptr %fill.dbg.spill, align 4, !dbg !2543
  call void @llvm.dbg.declare(metadata ptr %fill.dbg.spill, metadata !2498, metadata !DIExpression()), !dbg !2543
  store i8 3, ptr %align.dbg.spill, align 1, !dbg !2544
  call void @llvm.dbg.declare(metadata ptr %align.dbg.spill, metadata !2499, metadata !DIExpression()), !dbg !2544
  store i32 12, ptr %flags.dbg.spill, align 4, !dbg !2545
  call void @llvm.dbg.declare(metadata ptr %flags.dbg.spill, metadata !2500, metadata !DIExpression()), !dbg !2545
  %2 = load i64, ptr @2, align 8, !dbg !2545, !range !1489, !noundef !18
  %3 = load i64, ptr getelementptr inbounds (i8, ptr @2, i64 8), align 8, !dbg !2545
  store i64 %2, ptr %precision.dbg.spill, align 8, !dbg !2546
  %4 = getelementptr inbounds i8, ptr %precision.dbg.spill, i64 8, !dbg !2546
  store i64 %3, ptr %4, align 8, !dbg !2546
  call void @llvm.dbg.declare(metadata ptr %precision.dbg.spill, metadata !2501, metadata !DIExpression()), !dbg !2546
  %5 = load i64, ptr @3, align 8, !dbg !2546, !range !1489, !noundef !18
  %6 = load i64, ptr getelementptr inbounds (i8, ptr @3, i64 8), align 8, !dbg !2546
  store i64 %5, ptr %width.dbg.spill, align 8, !dbg !2547
  %7 = getelementptr inbounds i8, ptr %width.dbg.spill, i64 8, !dbg !2547
  store i64 %6, ptr %7, align 8, !dbg !2547
  call void @llvm.dbg.declare(metadata ptr %width.dbg.spill, metadata !2502, metadata !DIExpression()), !dbg !2547
  call void @llvm.dbg.declare(metadata ptr %_unsafe_arg.dbg.spill, metadata !2548, metadata !DIExpression()), !dbg !2649
  store i64 1, ptr %count.dbg.spill, align 8, !dbg !2650
  call void @llvm.dbg.declare(metadata ptr %count.dbg.spill, metadata !2657, metadata !DIExpression()), !dbg !2650
  store i64 1, ptr %count.dbg.spill1, align 8, !dbg !2659
  call void @llvm.dbg.declare(metadata ptr %count.dbg.spill1, metadata !2664, metadata !DIExpression()), !dbg !2659
  store i64 1, ptr %self.dbg.spill, align 8, !dbg !2666
  call void @llvm.dbg.declare(metadata ptr %self.dbg.spill, metadata !2675, metadata !DIExpression()), !dbg !2666
  store i64 0, ptr %self.dbg.spill2, align 8, !dbg !2677
  call void @llvm.dbg.declare(metadata ptr %self.dbg.spill2, metadata !2684, metadata !DIExpression()), !dbg !2677
  store i64 1, ptr %rhs.dbg.spill, align 8, !dbg !2677
  call void @llvm.dbg.declare(metadata ptr %rhs.dbg.spill, metadata !2685, metadata !DIExpression()), !dbg !2677
  store i64 -1, ptr %count.dbg.spill3, align 8, !dbg !2687
  call void @llvm.dbg.declare(metadata ptr %count.dbg.spill3, metadata !2694, metadata !DIExpression()), !dbg !2687
  call void @llvm.dbg.declare(metadata ptr %metadata.dbg.spill, metadata !2696, metadata !DIExpression()), !dbg !2703
  store ptr %ptr, ptr %ptr.dbg.spill, align 8, !dbg !2703
  call void @llvm.dbg.declare(metadata ptr %ptr.dbg.spill, metadata !2451, metadata !DIExpression()), !dbg !2713
  call void @llvm.dbg.declare(metadata ptr %ptr.dbg.spill, metadata !2714, metadata !DIExpression()), !dbg !2725
  call void @llvm.dbg.declare(metadata ptr %ptr.dbg.spill, metadata !2727, metadata !DIExpression()), !dbg !2742
  call void @llvm.dbg.declare(metadata ptr %ptr.dbg.spill, metadata !2721, metadata !DIExpression()), !dbg !2744
  call void @llvm.dbg.declare(metadata ptr %ptr.dbg.spill, metadata !2723, metadata !DIExpression()), !dbg !2746
  call void @llvm.dbg.declare(metadata ptr %make_custom.dbg.spill, metadata !2452, metadata !DIExpression()), !dbg !2748
  call void @llvm.dbg.declare(metadata ptr %bits, metadata !2453, metadata !DIExpression()), !dbg !2749
  call void @llvm.dbg.declare(metadata ptr %self, metadata !2538, metadata !DIExpression()), !dbg !2750
  call void @llvm.dbg.declare(metadata ptr %self4, metadata !2751, metadata !DIExpression()), !dbg !2759
  store i8 1, ptr %_25, align 1, !dbg !2761
  store ptr %ptr, ptr %meta.dbg.spill, align 8, !dbg !2762
  call void @llvm.dbg.declare(metadata ptr %meta.dbg.spill, metadata !2711, metadata !DIExpression()), !dbg !2763
  call void @llvm.dbg.declare(metadata ptr %meta.dbg.spill, metadata !2764, metadata !DIExpression()), !dbg !2770
  store ptr %ptr, ptr %self.dbg.spill5, align 8, !dbg !2762
  call void @llvm.dbg.declare(metadata ptr %self.dbg.spill5, metadata !2772, metadata !DIExpression()), !dbg !2778
  call void @llvm.dbg.declare(metadata ptr %self.dbg.spill5, metadata !2780, metadata !DIExpression()), !dbg !2787
  call void @llvm.dbg.declare(metadata ptr %self.dbg.spill5, metadata !2656, metadata !DIExpression()), !dbg !2789
  call void @llvm.dbg.declare(metadata ptr %self.dbg.spill5, metadata !2790, metadata !DIExpression()), !dbg !2798
  %8 = ptrtoint ptr %ptr to i64, !dbg !2800
  store i64 %8, ptr %bits, align 8, !dbg !2800
  %_6 = load i64, ptr %bits, align 8, !dbg !2801, !noundef !18
  %_5 = and i64 %_6, 3, !dbg !2801
  switch i64 %_5, label %bb1 [
    i64 2, label %bb2
    i64 3, label %bb3
    i64 0, label %bb5
    i64 1, label %bb6
  ], !dbg !2802

bb1:                                              ; preds = %start
; invoke core::panicking::panic
  invoke void @_ZN4core9panicking5panic17h5884aad3a9044857E(ptr align 1 @alloc_a500d906b91607583596fa15e63c2ada, i64 40, ptr align 8 @alloc_58a4045e21a346c8c471dc8330ab58ff) #17
          to label %unreachable unwind label %cleanup, !dbg !2803

bb2:                                              ; preds = %start
  %_10 = load i64, ptr %bits, align 8, !dbg !2804, !noundef !18
  %_8 = ashr i64 %_10, 32, !dbg !2805
  %code = trunc i64 %_8 to i32, !dbg !2805
  store i32 %code, ptr %code.dbg.spill, align 4, !dbg !2805
  call void @llvm.dbg.declare(metadata ptr %code.dbg.spill, metadata !2455, metadata !DIExpression()), !dbg !2806
  %9 = getelementptr inbounds i8, ptr %_0, i64 4, !dbg !2807
  store i32 %code, ptr %9, align 4, !dbg !2807
  store i8 0, ptr %_0, align 8, !dbg !2807
  br label %bb10, !dbg !2808

bb3:                                              ; preds = %start
  %_13 = load i64, ptr %bits, align 8, !dbg !2809, !noundef !18
  %_12 = lshr i64 %_13, 32, !dbg !2810
  %kind_bits = trunc i64 %_12 to i32, !dbg !2810
  store i32 %kind_bits, ptr %kind_bits.dbg.spill, align 4, !dbg !2810
  call void @llvm.dbg.declare(metadata ptr %kind_bits.dbg.spill, metadata !2457, metadata !DIExpression()), !dbg !2811
; invoke std::io::error::repr_bitpacked::kind_from_prim
  %10 = invoke i8 @_ZN3std2io5error14repr_bitpacked14kind_from_prim17hdd2e0234125d854bE(i32 %kind_bits)
          to label %bb4 unwind label %cleanup, !dbg !2812, !range !2813

bb5:                                              ; preds = %start
  store ptr %ptr, ptr %self4, align 8, !dbg !2814
  %11 = getelementptr inbounds i8, ptr %_0, i64 8, !dbg !2815
  store ptr %ptr, ptr %11, align 8, !dbg !2815
  store i8 2, ptr %_0, align 8, !dbg !2815
  br label %bb10, !dbg !2808

bb6:                                              ; preds = %start
  store ptr %ptr, ptr %self.dbg.spill6, align 8, !dbg !2816
  call void @llvm.dbg.declare(metadata ptr %self.dbg.spill6, metadata !2663, metadata !DIExpression()), !dbg !2817
  call void @llvm.dbg.declare(metadata ptr %self.dbg.spill6, metadata !2693, metadata !DIExpression()), !dbg !2818
  %12 = getelementptr i8, ptr %ptr, i64 -1, !dbg !2819
  store ptr %12, ptr %0, align 8, !dbg !2819
  %_39 = load ptr, ptr %0, align 8, !dbg !2819, !noundef !18
  store ptr %_39, ptr %self.dbg.spill7, align 8, !dbg !2819
  call void @llvm.dbg.declare(metadata ptr %self.dbg.spill7, metadata !2710, metadata !DIExpression()), !dbg !2820
  store ptr %_39, ptr %data_pointer.dbg.spill, align 8, !dbg !2821
  call void @llvm.dbg.declare(metadata ptr %data_pointer.dbg.spill, metadata !2702, metadata !DIExpression()), !dbg !2822
  store ptr %_39, ptr %_43, align 8, !dbg !2823
  call void @llvm.memcpy.p0.p0.i64(ptr align 8 %_42, ptr align 8 %_43, i64 8, i1 false), !dbg !2824
  %self8 = load ptr, ptr %_42, align 8, !dbg !2824, !noundef !18
  store ptr %self8, ptr %self.dbg.spill9, align 8, !dbg !2824
  call void @llvm.dbg.declare(metadata ptr %self.dbg.spill9, metadata !2825, metadata !DIExpression()), !dbg !2833
  store ptr %self8, ptr %custom.dbg.spill, align 8, !dbg !2835
  call void @llvm.dbg.declare(metadata ptr %custom.dbg.spill, metadata !2461, metadata !DIExpression()), !dbg !2836
  store i8 0, ptr %_25, align 1, !dbg !2837
  store ptr %self8, ptr %_23, align 8, !dbg !2837
  %13 = load ptr, ptr %_23, align 8, !dbg !2837, !noundef !18
; invoke <std::io::error::repr_bitpacked::Repr as core::ops::drop::Drop>::drop::{{closure}}
  %_21 = invoke align 8 ptr @"_ZN78_$LT$std..io..error..repr_bitpacked..Repr$u20$as$u20$core..ops..drop..Drop$GT$4drop28_$u7b$$u7b$closure$u7d$$u7d$17haada181ff437d363E"(ptr %13)
          to label %bb7 unwind label %cleanup, !dbg !2837

bb10:                                             ; preds = %bb5, %bb15, %bb2
  br label %bb8, !dbg !2808

bb12:                                             ; preds = %cleanup
  %14 = load i8, ptr %_25, align 1, !dbg !2808, !range !747, !noundef !18
  %15 = trunc i8 %14 to i1, !dbg !2808
  br i1 %15, label %bb11, label %bb9, !dbg !2808

cleanup:                                          ; preds = %bb1, %bb6, %bb3
  %16 = landingpad { ptr, i32 }
          cleanup
  %17 = extractvalue { ptr, i32 } %16, 0
  %18 = extractvalue { ptr, i32 } %16, 1
  store ptr %17, ptr %1, align 8
  %19 = getelementptr inbounds i8, ptr %1, i64 8
  store i32 %18, ptr %19, align 8
  br label %bb12

bb4:                                              ; preds = %bb3
  store i8 %10, ptr %self, align 1, !dbg !2812
  store ptr %bits, ptr %f.dbg.spill, align 8, !dbg !2838
  call void @llvm.dbg.declare(metadata ptr %f.dbg.spill, metadata !2539, metadata !DIExpression()), !dbg !2839
  call void @llvm.dbg.declare(metadata ptr %f.dbg.spill, metadata !2515, metadata !DIExpression(DW_OP_deref)), !dbg !2840
  %20 = load i8, ptr %self, align 1, !dbg !2841, !range !2813, !noundef !18
  %21 = icmp eq i8 %20, 41, !dbg !2841
  %_27 = select i1 %21, i64 0, i64 1, !dbg !2841
  %22 = icmp eq i64 %_27, 0, !dbg !2842
  br i1 %22, label %bb14, label %bb15, !dbg !2842

bb14:                                             ; preds = %bb4
; call core::hint::unreachable_unchecked::precondition_check
  call void @_ZN4core4hint21unreachable_unchecked18precondition_check17hb6bc9af61b676deaE() #18, !dbg !2843
  br label %bb13, !dbg !2843

bb15:                                             ; preds = %bb4
  %kind = load i8, ptr %self, align 1, !dbg !2851, !range !2852, !noundef !18
  store i8 %kind, ptr %kind.dbg.spill, align 1, !dbg !2851
  call void @llvm.dbg.declare(metadata ptr %kind.dbg.spill, metadata !2459, metadata !DIExpression()), !dbg !2853
  call void @llvm.dbg.declare(metadata ptr %kind.dbg.spill, metadata !2540, metadata !DIExpression()), !dbg !2854
  %23 = getelementptr inbounds i8, ptr %_0, i64 1, !dbg !2855
  store i8 %kind, ptr %23, align 1, !dbg !2855
  store i8 1, ptr %_0, align 8, !dbg !2855
  br label %bb10, !dbg !2808

bb13:                                             ; preds = %bb14
  unreachable, !dbg !2841

bb8:                                              ; preds = %bb7, %bb10
  ret void, !dbg !2856

bb7:                                              ; preds = %bb6
  %24 = getelementptr inbounds i8, ptr %_0, i64 8, !dbg !2857
  store ptr %_21, ptr %24, align 8, !dbg !2857
  store i8 3, ptr %_0, align 8, !dbg !2857
  br label %bb8, !dbg !2808

unreachable:                                      ; preds = %bb1
  unreachable

bb9:                                              ; preds = %bb11, %bb12
  %25 = load ptr, ptr %1, align 8, !dbg !2858, !noundef !18
  %26 = getelementptr inbounds i8, ptr %1, i64 8, !dbg !2858
  %27 = load i32, ptr %26, align 8, !dbg !2858, !noundef !18
  %28 = insertvalue { ptr, i32 } poison, ptr %25, 0, !dbg !2858
  %29 = insertvalue { ptr, i32 } %28, i32 %27, 1, !dbg !2858
  resume { ptr, i32 } %29, !dbg !2858

bb11:                                             ; preds = %bb12
  br label %bb9, !dbg !2808
}

; std::io::error::repr_bitpacked::kind_from_prim
; Function Attrs: inlinehint uwtable
define internal i8 @_ZN3std2io5error14repr_bitpacked14kind_from_prim17hdd2e0234125d854bE(i32 %0) unnamed_addr #1 !dbg !2859 {
start:
  %v.dbg.spill121 = alloca i32, align 4
  %v.dbg.spill119 = alloca ptr, align 8
  %v.dbg.spill118 = alloca i32, align 4
  %v.dbg.spill116 = alloca ptr, align 8
  %v.dbg.spill115 = alloca i32, align 4
  %v.dbg.spill113 = alloca ptr, align 8
  %v.dbg.spill112 = alloca i32, align 4
  %v.dbg.spill110 = alloca ptr, align 8
  %v.dbg.spill109 = alloca i32, align 4
  %v.dbg.spill107 = alloca ptr, align 8
  %v.dbg.spill106 = alloca i32, align 4
  %v.dbg.spill104 = alloca ptr, align 8
  %v.dbg.spill103 = alloca i32, align 4
  %v.dbg.spill101 = alloca ptr, align 8
  %v.dbg.spill100 = alloca i32, align 4
  %v.dbg.spill98 = alloca ptr, align 8
  %v.dbg.spill97 = alloca i32, align 4
  %v.dbg.spill95 = alloca ptr, align 8
  %v.dbg.spill94 = alloca i32, align 4
  %v.dbg.spill92 = alloca ptr, align 8
  %v.dbg.spill91 = alloca i32, align 4
  %v.dbg.spill89 = alloca ptr, align 8
  %v.dbg.spill88 = alloca i32, align 4
  %v.dbg.spill86 = alloca ptr, align 8
  %v.dbg.spill85 = alloca i32, align 4
  %v.dbg.spill83 = alloca ptr, align 8
  %v.dbg.spill82 = alloca i32, align 4
  %v.dbg.spill80 = alloca ptr, align 8
  %v.dbg.spill79 = alloca i32, align 4
  %v.dbg.spill77 = alloca ptr, align 8
  %v.dbg.spill76 = alloca i32, align 4
  %v.dbg.spill74 = alloca ptr, align 8
  %v.dbg.spill73 = alloca i32, align 4
  %v.dbg.spill71 = alloca ptr, align 8
  %v.dbg.spill70 = alloca i32, align 4
  %v.dbg.spill68 = alloca ptr, align 8
  %v.dbg.spill67 = alloca i32, align 4
  %v.dbg.spill65 = alloca ptr, align 8
  %v.dbg.spill64 = alloca i32, align 4
  %v.dbg.spill62 = alloca ptr, align 8
  %v.dbg.spill61 = alloca i32, align 4
  %v.dbg.spill59 = alloca ptr, align 8
  %v.dbg.spill58 = alloca i32, align 4
  %v.dbg.spill56 = alloca ptr, align 8
  %v.dbg.spill55 = alloca i32, align 4
  %v.dbg.spill53 = alloca ptr, align 8
  %v.dbg.spill52 = alloca i32, align 4
  %v.dbg.spill50 = alloca ptr, align 8
  %v.dbg.spill49 = alloca i32, align 4
  %v.dbg.spill47 = alloca ptr, align 8
  %v.dbg.spill46 = alloca i32, align 4
  %v.dbg.spill44 = alloca ptr, align 8
  %v.dbg.spill43 = alloca i32, align 4
  %v.dbg.spill41 = alloca ptr, align 8
  %v.dbg.spill40 = alloca i32, align 4
  %v.dbg.spill38 = alloca ptr, align 8
  %v.dbg.spill37 = alloca i32, align 4
  %v.dbg.spill35 = alloca ptr, align 8
  %v.dbg.spill34 = alloca i32, align 4
  %v.dbg.spill32 = alloca ptr, align 8
  %v.dbg.spill31 = alloca i32, align 4
  %v.dbg.spill29 = alloca ptr, align 8
  %v.dbg.spill28 = alloca i32, align 4
  %v.dbg.spill26 = alloca ptr, align 8
  %v.dbg.spill25 = alloca i32, align 4
  %v.dbg.spill23 = alloca ptr, align 8
  %v.dbg.spill22 = alloca i32, align 4
  %v.dbg.spill20 = alloca ptr, align 8
  %v.dbg.spill19 = alloca i32, align 4
  %v.dbg.spill17 = alloca ptr, align 8
  %v.dbg.spill16 = alloca i32, align 4
  %v.dbg.spill14 = alloca ptr, align 8
  %v.dbg.spill13 = alloca i32, align 4
  %v.dbg.spill11 = alloca ptr, align 8
  %v.dbg.spill10 = alloca i32, align 4
  %v.dbg.spill8 = alloca ptr, align 8
  %v.dbg.spill7 = alloca i32, align 4
  %v.dbg.spill5 = alloca ptr, align 8
  %v.dbg.spill4 = alloca i32, align 4
  %v.dbg.spill2 = alloca ptr, align 8
  %v.dbg.spill1 = alloca i32, align 4
  %v.dbg.spill = alloca ptr, align 8
  %_0 = alloca i8, align 1
  %ek = alloca i32, align 4
  store i32 %0, ptr %ek, align 4
  call void @llvm.dbg.declare(metadata ptr %ek, metadata !2863, metadata !DIExpression()), !dbg !2988
  store ptr %ek, ptr %v.dbg.spill, align 8, !dbg !2989
  call void @llvm.dbg.declare(metadata ptr %v.dbg.spill, metadata !2866, metadata !DIExpression()), !dbg !2990
  %_4 = load i32, ptr %ek, align 4, !dbg !2989, !noundef !18
  %1 = icmp eq i32 %_4, 0, !dbg !2989
  br i1 %1, label %bb1, label %bb2, !dbg !2989

bb1:                                              ; preds = %start
  %v = load i32, ptr %ek, align 4, !dbg !2989, !noundef !18
  store i32 %v, ptr %v.dbg.spill1, align 4, !dbg !2989
  call void @llvm.dbg.declare(metadata ptr %v.dbg.spill1, metadata !2864, metadata !DIExpression()), !dbg !2990
  store i8 0, ptr %_0, align 1, !dbg !2990
  br label %bb83, !dbg !2989

bb2:                                              ; preds = %start
  store ptr %ek, ptr %v.dbg.spill2, align 8, !dbg !2989
  call void @llvm.dbg.declare(metadata ptr %v.dbg.spill2, metadata !2870, metadata !DIExpression()), !dbg !2991
  %_7 = load i32, ptr %ek, align 4, !dbg !2989, !noundef !18
  %2 = icmp eq i32 %_7, 1, !dbg !2989
  br i1 %2, label %bb3, label %bb4, !dbg !2989

bb83:                                             ; preds = %bb82, %bb81, %bb79, %bb77, %bb75, %bb73, %bb71, %bb69, %bb67, %bb65, %bb63, %bb61, %bb59, %bb57, %bb55, %bb53, %bb51, %bb49, %bb47, %bb45, %bb43, %bb41, %bb39, %bb37, %bb35, %bb33, %bb31, %bb29, %bb27, %bb25, %bb23, %bb21, %bb19, %bb17, %bb15, %bb13, %bb11, %bb9, %bb7, %bb5, %bb3, %bb1
  %3 = load i8, ptr %_0, align 1, !dbg !2992, !range !2813, !noundef !18
  ret i8 %3, !dbg !2992

bb3:                                              ; preds = %bb2
  %v3 = load i32, ptr %ek, align 4, !dbg !2989, !noundef !18
  store i32 %v3, ptr %v.dbg.spill4, align 4, !dbg !2989
  call void @llvm.dbg.declare(metadata ptr %v.dbg.spill4, metadata !2868, metadata !DIExpression()), !dbg !2991
  store i8 1, ptr %_0, align 1, !dbg !2991
  br label %bb83, !dbg !2989

bb4:                                              ; preds = %bb2
  store ptr %ek, ptr %v.dbg.spill5, align 8, !dbg !2989
  call void @llvm.dbg.declare(metadata ptr %v.dbg.spill5, metadata !2873, metadata !DIExpression()), !dbg !2993
  %_10 = load i32, ptr %ek, align 4, !dbg !2989, !noundef !18
  %4 = icmp eq i32 %_10, 2, !dbg !2989
  br i1 %4, label %bb5, label %bb6, !dbg !2989

bb5:                                              ; preds = %bb4
  %v6 = load i32, ptr %ek, align 4, !dbg !2989, !noundef !18
  store i32 %v6, ptr %v.dbg.spill7, align 4, !dbg !2989
  call void @llvm.dbg.declare(metadata ptr %v.dbg.spill7, metadata !2871, metadata !DIExpression()), !dbg !2993
  store i8 2, ptr %_0, align 1, !dbg !2993
  br label %bb83, !dbg !2989

bb6:                                              ; preds = %bb4
  store ptr %ek, ptr %v.dbg.spill8, align 8, !dbg !2989
  call void @llvm.dbg.declare(metadata ptr %v.dbg.spill8, metadata !2876, metadata !DIExpression()), !dbg !2994
  %_13 = load i32, ptr %ek, align 4, !dbg !2989, !noundef !18
  %5 = icmp eq i32 %_13, 3, !dbg !2989
  br i1 %5, label %bb7, label %bb8, !dbg !2989

bb7:                                              ; preds = %bb6
  %v9 = load i32, ptr %ek, align 4, !dbg !2989, !noundef !18
  store i32 %v9, ptr %v.dbg.spill10, align 4, !dbg !2989
  call void @llvm.dbg.declare(metadata ptr %v.dbg.spill10, metadata !2874, metadata !DIExpression()), !dbg !2994
  store i8 3, ptr %_0, align 1, !dbg !2994
  br label %bb83, !dbg !2989

bb8:                                              ; preds = %bb6
  store ptr %ek, ptr %v.dbg.spill11, align 8, !dbg !2989
  call void @llvm.dbg.declare(metadata ptr %v.dbg.spill11, metadata !2879, metadata !DIExpression()), !dbg !2995
  %_16 = load i32, ptr %ek, align 4, !dbg !2989, !noundef !18
  %6 = icmp eq i32 %_16, 4, !dbg !2989
  br i1 %6, label %bb9, label %bb10, !dbg !2989

bb9:                                              ; preds = %bb8
  %v12 = load i32, ptr %ek, align 4, !dbg !2989, !noundef !18
  store i32 %v12, ptr %v.dbg.spill13, align 4, !dbg !2989
  call void @llvm.dbg.declare(metadata ptr %v.dbg.spill13, metadata !2877, metadata !DIExpression()), !dbg !2995
  store i8 4, ptr %_0, align 1, !dbg !2995
  br label %bb83, !dbg !2989

bb10:                                             ; preds = %bb8
  store ptr %ek, ptr %v.dbg.spill14, align 8, !dbg !2989
  call void @llvm.dbg.declare(metadata ptr %v.dbg.spill14, metadata !2882, metadata !DIExpression()), !dbg !2996
  %_19 = load i32, ptr %ek, align 4, !dbg !2989, !noundef !18
  %7 = icmp eq i32 %_19, 5, !dbg !2989
  br i1 %7, label %bb11, label %bb12, !dbg !2989

bb11:                                             ; preds = %bb10
  %v15 = load i32, ptr %ek, align 4, !dbg !2989, !noundef !18
  store i32 %v15, ptr %v.dbg.spill16, align 4, !dbg !2989
  call void @llvm.dbg.declare(metadata ptr %v.dbg.spill16, metadata !2880, metadata !DIExpression()), !dbg !2996
  store i8 5, ptr %_0, align 1, !dbg !2996
  br label %bb83, !dbg !2989

bb12:                                             ; preds = %bb10
  store ptr %ek, ptr %v.dbg.spill17, align 8, !dbg !2989
  call void @llvm.dbg.declare(metadata ptr %v.dbg.spill17, metadata !2885, metadata !DIExpression()), !dbg !2997
  %_22 = load i32, ptr %ek, align 4, !dbg !2989, !noundef !18
  %8 = icmp eq i32 %_22, 6, !dbg !2989
  br i1 %8, label %bb13, label %bb14, !dbg !2989

bb13:                                             ; preds = %bb12
  %v18 = load i32, ptr %ek, align 4, !dbg !2989, !noundef !18
  store i32 %v18, ptr %v.dbg.spill19, align 4, !dbg !2989
  call void @llvm.dbg.declare(metadata ptr %v.dbg.spill19, metadata !2883, metadata !DIExpression()), !dbg !2997
  store i8 6, ptr %_0, align 1, !dbg !2997
  br label %bb83, !dbg !2989

bb14:                                             ; preds = %bb12
  store ptr %ek, ptr %v.dbg.spill20, align 8, !dbg !2989
  call void @llvm.dbg.declare(metadata ptr %v.dbg.spill20, metadata !2888, metadata !DIExpression()), !dbg !2998
  %_25 = load i32, ptr %ek, align 4, !dbg !2989, !noundef !18
  %9 = icmp eq i32 %_25, 7, !dbg !2989
  br i1 %9, label %bb15, label %bb16, !dbg !2989

bb15:                                             ; preds = %bb14
  %v21 = load i32, ptr %ek, align 4, !dbg !2989, !noundef !18
  store i32 %v21, ptr %v.dbg.spill22, align 4, !dbg !2989
  call void @llvm.dbg.declare(metadata ptr %v.dbg.spill22, metadata !2886, metadata !DIExpression()), !dbg !2998
  store i8 7, ptr %_0, align 1, !dbg !2998
  br label %bb83, !dbg !2989

bb16:                                             ; preds = %bb14
  store ptr %ek, ptr %v.dbg.spill23, align 8, !dbg !2989
  call void @llvm.dbg.declare(metadata ptr %v.dbg.spill23, metadata !2891, metadata !DIExpression()), !dbg !2999
  %_28 = load i32, ptr %ek, align 4, !dbg !2989, !noundef !18
  %10 = icmp eq i32 %_28, 8, !dbg !2989
  br i1 %10, label %bb17, label %bb18, !dbg !2989

bb17:                                             ; preds = %bb16
  %v24 = load i32, ptr %ek, align 4, !dbg !2989, !noundef !18
  store i32 %v24, ptr %v.dbg.spill25, align 4, !dbg !2989
  call void @llvm.dbg.declare(metadata ptr %v.dbg.spill25, metadata !2889, metadata !DIExpression()), !dbg !2999
  store i8 8, ptr %_0, align 1, !dbg !2999
  br label %bb83, !dbg !2989

bb18:                                             ; preds = %bb16
  store ptr %ek, ptr %v.dbg.spill26, align 8, !dbg !2989
  call void @llvm.dbg.declare(metadata ptr %v.dbg.spill26, metadata !2894, metadata !DIExpression()), !dbg !3000
  %_31 = load i32, ptr %ek, align 4, !dbg !2989, !noundef !18
  %11 = icmp eq i32 %_31, 9, !dbg !2989
  br i1 %11, label %bb19, label %bb20, !dbg !2989

bb19:                                             ; preds = %bb18
  %v27 = load i32, ptr %ek, align 4, !dbg !2989, !noundef !18
  store i32 %v27, ptr %v.dbg.spill28, align 4, !dbg !2989
  call void @llvm.dbg.declare(metadata ptr %v.dbg.spill28, metadata !2892, metadata !DIExpression()), !dbg !3000
  store i8 9, ptr %_0, align 1, !dbg !3000
  br label %bb83, !dbg !2989

bb20:                                             ; preds = %bb18
  store ptr %ek, ptr %v.dbg.spill29, align 8, !dbg !2989
  call void @llvm.dbg.declare(metadata ptr %v.dbg.spill29, metadata !2897, metadata !DIExpression()), !dbg !3001
  %_34 = load i32, ptr %ek, align 4, !dbg !2989, !noundef !18
  %12 = icmp eq i32 %_34, 10, !dbg !2989
  br i1 %12, label %bb21, label %bb22, !dbg !2989

bb21:                                             ; preds = %bb20
  %v30 = load i32, ptr %ek, align 4, !dbg !2989, !noundef !18
  store i32 %v30, ptr %v.dbg.spill31, align 4, !dbg !2989
  call void @llvm.dbg.declare(metadata ptr %v.dbg.spill31, metadata !2895, metadata !DIExpression()), !dbg !3001
  store i8 10, ptr %_0, align 1, !dbg !3001
  br label %bb83, !dbg !2989

bb22:                                             ; preds = %bb20
  store ptr %ek, ptr %v.dbg.spill32, align 8, !dbg !2989
  call void @llvm.dbg.declare(metadata ptr %v.dbg.spill32, metadata !2900, metadata !DIExpression()), !dbg !3002
  %_37 = load i32, ptr %ek, align 4, !dbg !2989, !noundef !18
  %13 = icmp eq i32 %_37, 11, !dbg !2989
  br i1 %13, label %bb23, label %bb24, !dbg !2989

bb23:                                             ; preds = %bb22
  %v33 = load i32, ptr %ek, align 4, !dbg !2989, !noundef !18
  store i32 %v33, ptr %v.dbg.spill34, align 4, !dbg !2989
  call void @llvm.dbg.declare(metadata ptr %v.dbg.spill34, metadata !2898, metadata !DIExpression()), !dbg !3002
  store i8 11, ptr %_0, align 1, !dbg !3002
  br label %bb83, !dbg !2989

bb24:                                             ; preds = %bb22
  store ptr %ek, ptr %v.dbg.spill35, align 8, !dbg !2989
  call void @llvm.dbg.declare(metadata ptr %v.dbg.spill35, metadata !2903, metadata !DIExpression()), !dbg !3003
  %_40 = load i32, ptr %ek, align 4, !dbg !2989, !noundef !18
  %14 = icmp eq i32 %_40, 12, !dbg !2989
  br i1 %14, label %bb25, label %bb26, !dbg !2989

bb25:                                             ; preds = %bb24
  %v36 = load i32, ptr %ek, align 4, !dbg !2989, !noundef !18
  store i32 %v36, ptr %v.dbg.spill37, align 4, !dbg !2989
  call void @llvm.dbg.declare(metadata ptr %v.dbg.spill37, metadata !2901, metadata !DIExpression()), !dbg !3003
  store i8 12, ptr %_0, align 1, !dbg !3003
  br label %bb83, !dbg !2989

bb26:                                             ; preds = %bb24
  store ptr %ek, ptr %v.dbg.spill38, align 8, !dbg !2989
  call void @llvm.dbg.declare(metadata ptr %v.dbg.spill38, metadata !2906, metadata !DIExpression()), !dbg !3004
  %_43 = load i32, ptr %ek, align 4, !dbg !2989, !noundef !18
  %15 = icmp eq i32 %_43, 13, !dbg !2989
  br i1 %15, label %bb27, label %bb28, !dbg !2989

bb27:                                             ; preds = %bb26
  %v39 = load i32, ptr %ek, align 4, !dbg !2989, !noundef !18
  store i32 %v39, ptr %v.dbg.spill40, align 4, !dbg !2989
  call void @llvm.dbg.declare(metadata ptr %v.dbg.spill40, metadata !2904, metadata !DIExpression()), !dbg !3004
  store i8 13, ptr %_0, align 1, !dbg !3004
  br label %bb83, !dbg !2989

bb28:                                             ; preds = %bb26
  store ptr %ek, ptr %v.dbg.spill41, align 8, !dbg !2989
  call void @llvm.dbg.declare(metadata ptr %v.dbg.spill41, metadata !2909, metadata !DIExpression()), !dbg !3005
  %_46 = load i32, ptr %ek, align 4, !dbg !2989, !noundef !18
  %16 = icmp eq i32 %_46, 14, !dbg !2989
  br i1 %16, label %bb29, label %bb30, !dbg !2989

bb29:                                             ; preds = %bb28
  %v42 = load i32, ptr %ek, align 4, !dbg !2989, !noundef !18
  store i32 %v42, ptr %v.dbg.spill43, align 4, !dbg !2989
  call void @llvm.dbg.declare(metadata ptr %v.dbg.spill43, metadata !2907, metadata !DIExpression()), !dbg !3005
  store i8 14, ptr %_0, align 1, !dbg !3005
  br label %bb83, !dbg !2989

bb30:                                             ; preds = %bb28
  store ptr %ek, ptr %v.dbg.spill44, align 8, !dbg !2989
  call void @llvm.dbg.declare(metadata ptr %v.dbg.spill44, metadata !2912, metadata !DIExpression()), !dbg !3006
  %_49 = load i32, ptr %ek, align 4, !dbg !2989, !noundef !18
  %17 = icmp eq i32 %_49, 15, !dbg !2989
  br i1 %17, label %bb31, label %bb32, !dbg !2989

bb31:                                             ; preds = %bb30
  %v45 = load i32, ptr %ek, align 4, !dbg !2989, !noundef !18
  store i32 %v45, ptr %v.dbg.spill46, align 4, !dbg !2989
  call void @llvm.dbg.declare(metadata ptr %v.dbg.spill46, metadata !2910, metadata !DIExpression()), !dbg !3006
  store i8 15, ptr %_0, align 1, !dbg !3006
  br label %bb83, !dbg !2989

bb32:                                             ; preds = %bb30
  store ptr %ek, ptr %v.dbg.spill47, align 8, !dbg !2989
  call void @llvm.dbg.declare(metadata ptr %v.dbg.spill47, metadata !2915, metadata !DIExpression()), !dbg !3007
  %_52 = load i32, ptr %ek, align 4, !dbg !2989, !noundef !18
  %18 = icmp eq i32 %_52, 16, !dbg !2989
  br i1 %18, label %bb33, label %bb34, !dbg !2989

bb33:                                             ; preds = %bb32
  %v48 = load i32, ptr %ek, align 4, !dbg !2989, !noundef !18
  store i32 %v48, ptr %v.dbg.spill49, align 4, !dbg !2989
  call void @llvm.dbg.declare(metadata ptr %v.dbg.spill49, metadata !2913, metadata !DIExpression()), !dbg !3007
  store i8 16, ptr %_0, align 1, !dbg !3007
  br label %bb83, !dbg !2989

bb34:                                             ; preds = %bb32
  store ptr %ek, ptr %v.dbg.spill50, align 8, !dbg !2989
  call void @llvm.dbg.declare(metadata ptr %v.dbg.spill50, metadata !2918, metadata !DIExpression()), !dbg !3008
  %_55 = load i32, ptr %ek, align 4, !dbg !2989, !noundef !18
  %19 = icmp eq i32 %_55, 17, !dbg !2989
  br i1 %19, label %bb35, label %bb36, !dbg !2989

bb35:                                             ; preds = %bb34
  %v51 = load i32, ptr %ek, align 4, !dbg !2989, !noundef !18
  store i32 %v51, ptr %v.dbg.spill52, align 4, !dbg !2989
  call void @llvm.dbg.declare(metadata ptr %v.dbg.spill52, metadata !2916, metadata !DIExpression()), !dbg !3008
  store i8 17, ptr %_0, align 1, !dbg !3008
  br label %bb83, !dbg !2989

bb36:                                             ; preds = %bb34
  store ptr %ek, ptr %v.dbg.spill53, align 8, !dbg !2989
  call void @llvm.dbg.declare(metadata ptr %v.dbg.spill53, metadata !2921, metadata !DIExpression()), !dbg !3009
  %_58 = load i32, ptr %ek, align 4, !dbg !2989, !noundef !18
  %20 = icmp eq i32 %_58, 18, !dbg !2989
  br i1 %20, label %bb37, label %bb38, !dbg !2989

bb37:                                             ; preds = %bb36
  %v54 = load i32, ptr %ek, align 4, !dbg !2989, !noundef !18
  store i32 %v54, ptr %v.dbg.spill55, align 4, !dbg !2989
  call void @llvm.dbg.declare(metadata ptr %v.dbg.spill55, metadata !2919, metadata !DIExpression()), !dbg !3009
  store i8 18, ptr %_0, align 1, !dbg !3009
  br label %bb83, !dbg !2989

bb38:                                             ; preds = %bb36
  store ptr %ek, ptr %v.dbg.spill56, align 8, !dbg !2989
  call void @llvm.dbg.declare(metadata ptr %v.dbg.spill56, metadata !2924, metadata !DIExpression()), !dbg !3010
  %_61 = load i32, ptr %ek, align 4, !dbg !2989, !noundef !18
  %21 = icmp eq i32 %_61, 19, !dbg !2989
  br i1 %21, label %bb39, label %bb40, !dbg !2989

bb39:                                             ; preds = %bb38
  %v57 = load i32, ptr %ek, align 4, !dbg !2989, !noundef !18
  store i32 %v57, ptr %v.dbg.spill58, align 4, !dbg !2989
  call void @llvm.dbg.declare(metadata ptr %v.dbg.spill58, metadata !2922, metadata !DIExpression()), !dbg !3010
  store i8 19, ptr %_0, align 1, !dbg !3010
  br label %bb83, !dbg !2989

bb40:                                             ; preds = %bb38
  store ptr %ek, ptr %v.dbg.spill59, align 8, !dbg !2989
  call void @llvm.dbg.declare(metadata ptr %v.dbg.spill59, metadata !2927, metadata !DIExpression()), !dbg !3011
  %_64 = load i32, ptr %ek, align 4, !dbg !2989, !noundef !18
  %22 = icmp eq i32 %_64, 20, !dbg !2989
  br i1 %22, label %bb41, label %bb42, !dbg !2989

bb41:                                             ; preds = %bb40
  %v60 = load i32, ptr %ek, align 4, !dbg !2989, !noundef !18
  store i32 %v60, ptr %v.dbg.spill61, align 4, !dbg !2989
  call void @llvm.dbg.declare(metadata ptr %v.dbg.spill61, metadata !2925, metadata !DIExpression()), !dbg !3011
  store i8 20, ptr %_0, align 1, !dbg !3011
  br label %bb83, !dbg !2989

bb42:                                             ; preds = %bb40
  store ptr %ek, ptr %v.dbg.spill62, align 8, !dbg !2989
  call void @llvm.dbg.declare(metadata ptr %v.dbg.spill62, metadata !2930, metadata !DIExpression()), !dbg !3012
  %_67 = load i32, ptr %ek, align 4, !dbg !2989, !noundef !18
  %23 = icmp eq i32 %_67, 21, !dbg !2989
  br i1 %23, label %bb43, label %bb44, !dbg !2989

bb43:                                             ; preds = %bb42
  %v63 = load i32, ptr %ek, align 4, !dbg !2989, !noundef !18
  store i32 %v63, ptr %v.dbg.spill64, align 4, !dbg !2989
  call void @llvm.dbg.declare(metadata ptr %v.dbg.spill64, metadata !2928, metadata !DIExpression()), !dbg !3012
  store i8 21, ptr %_0, align 1, !dbg !3012
  br label %bb83, !dbg !2989

bb44:                                             ; preds = %bb42
  store ptr %ek, ptr %v.dbg.spill65, align 8, !dbg !2989
  call void @llvm.dbg.declare(metadata ptr %v.dbg.spill65, metadata !2933, metadata !DIExpression()), !dbg !3013
  %_70 = load i32, ptr %ek, align 4, !dbg !2989, !noundef !18
  %24 = icmp eq i32 %_70, 22, !dbg !2989
  br i1 %24, label %bb45, label %bb46, !dbg !2989

bb45:                                             ; preds = %bb44
  %v66 = load i32, ptr %ek, align 4, !dbg !2989, !noundef !18
  store i32 %v66, ptr %v.dbg.spill67, align 4, !dbg !2989
  call void @llvm.dbg.declare(metadata ptr %v.dbg.spill67, metadata !2931, metadata !DIExpression()), !dbg !3013
  store i8 22, ptr %_0, align 1, !dbg !3013
  br label %bb83, !dbg !2989

bb46:                                             ; preds = %bb44
  store ptr %ek, ptr %v.dbg.spill68, align 8, !dbg !2989
  call void @llvm.dbg.declare(metadata ptr %v.dbg.spill68, metadata !2936, metadata !DIExpression()), !dbg !3014
  %_73 = load i32, ptr %ek, align 4, !dbg !2989, !noundef !18
  %25 = icmp eq i32 %_73, 23, !dbg !2989
  br i1 %25, label %bb47, label %bb48, !dbg !2989

bb47:                                             ; preds = %bb46
  %v69 = load i32, ptr %ek, align 4, !dbg !2989, !noundef !18
  store i32 %v69, ptr %v.dbg.spill70, align 4, !dbg !2989
  call void @llvm.dbg.declare(metadata ptr %v.dbg.spill70, metadata !2934, metadata !DIExpression()), !dbg !3014
  store i8 23, ptr %_0, align 1, !dbg !3014
  br label %bb83, !dbg !2989

bb48:                                             ; preds = %bb46
  store ptr %ek, ptr %v.dbg.spill71, align 8, !dbg !2989
  call void @llvm.dbg.declare(metadata ptr %v.dbg.spill71, metadata !2939, metadata !DIExpression()), !dbg !3015
  %_76 = load i32, ptr %ek, align 4, !dbg !2989, !noundef !18
  %26 = icmp eq i32 %_76, 24, !dbg !2989
  br i1 %26, label %bb49, label %bb50, !dbg !2989

bb49:                                             ; preds = %bb48
  %v72 = load i32, ptr %ek, align 4, !dbg !2989, !noundef !18
  store i32 %v72, ptr %v.dbg.spill73, align 4, !dbg !2989
  call void @llvm.dbg.declare(metadata ptr %v.dbg.spill73, metadata !2937, metadata !DIExpression()), !dbg !3015
  store i8 24, ptr %_0, align 1, !dbg !3015
  br label %bb83, !dbg !2989

bb50:                                             ; preds = %bb48
  store ptr %ek, ptr %v.dbg.spill74, align 8, !dbg !2989
  call void @llvm.dbg.declare(metadata ptr %v.dbg.spill74, metadata !2942, metadata !DIExpression()), !dbg !3016
  %_79 = load i32, ptr %ek, align 4, !dbg !2989, !noundef !18
  %27 = icmp eq i32 %_79, 25, !dbg !2989
  br i1 %27, label %bb51, label %bb52, !dbg !2989

bb51:                                             ; preds = %bb50
  %v75 = load i32, ptr %ek, align 4, !dbg !2989, !noundef !18
  store i32 %v75, ptr %v.dbg.spill76, align 4, !dbg !2989
  call void @llvm.dbg.declare(metadata ptr %v.dbg.spill76, metadata !2940, metadata !DIExpression()), !dbg !3016
  store i8 25, ptr %_0, align 1, !dbg !3016
  br label %bb83, !dbg !2989

bb52:                                             ; preds = %bb50
  store ptr %ek, ptr %v.dbg.spill77, align 8, !dbg !2989
  call void @llvm.dbg.declare(metadata ptr %v.dbg.spill77, metadata !2945, metadata !DIExpression()), !dbg !3017
  %_82 = load i32, ptr %ek, align 4, !dbg !2989, !noundef !18
  %28 = icmp eq i32 %_82, 26, !dbg !2989
  br i1 %28, label %bb53, label %bb54, !dbg !2989

bb53:                                             ; preds = %bb52
  %v78 = load i32, ptr %ek, align 4, !dbg !2989, !noundef !18
  store i32 %v78, ptr %v.dbg.spill79, align 4, !dbg !2989
  call void @llvm.dbg.declare(metadata ptr %v.dbg.spill79, metadata !2943, metadata !DIExpression()), !dbg !3017
  store i8 26, ptr %_0, align 1, !dbg !3017
  br label %bb83, !dbg !2989

bb54:                                             ; preds = %bb52
  store ptr %ek, ptr %v.dbg.spill80, align 8, !dbg !2989
  call void @llvm.dbg.declare(metadata ptr %v.dbg.spill80, metadata !2948, metadata !DIExpression()), !dbg !3018
  %_85 = load i32, ptr %ek, align 4, !dbg !2989, !noundef !18
  %29 = icmp eq i32 %_85, 27, !dbg !2989
  br i1 %29, label %bb55, label %bb56, !dbg !2989

bb55:                                             ; preds = %bb54
  %v81 = load i32, ptr %ek, align 4, !dbg !2989, !noundef !18
  store i32 %v81, ptr %v.dbg.spill82, align 4, !dbg !2989
  call void @llvm.dbg.declare(metadata ptr %v.dbg.spill82, metadata !2946, metadata !DIExpression()), !dbg !3018
  store i8 27, ptr %_0, align 1, !dbg !3018
  br label %bb83, !dbg !2989

bb56:                                             ; preds = %bb54
  store ptr %ek, ptr %v.dbg.spill83, align 8, !dbg !2989
  call void @llvm.dbg.declare(metadata ptr %v.dbg.spill83, metadata !2951, metadata !DIExpression()), !dbg !3019
  %_88 = load i32, ptr %ek, align 4, !dbg !2989, !noundef !18
  %30 = icmp eq i32 %_88, 28, !dbg !2989
  br i1 %30, label %bb57, label %bb58, !dbg !2989

bb57:                                             ; preds = %bb56
  %v84 = load i32, ptr %ek, align 4, !dbg !2989, !noundef !18
  store i32 %v84, ptr %v.dbg.spill85, align 4, !dbg !2989
  call void @llvm.dbg.declare(metadata ptr %v.dbg.spill85, metadata !2949, metadata !DIExpression()), !dbg !3019
  store i8 28, ptr %_0, align 1, !dbg !3019
  br label %bb83, !dbg !2989

bb58:                                             ; preds = %bb56
  store ptr %ek, ptr %v.dbg.spill86, align 8, !dbg !2989
  call void @llvm.dbg.declare(metadata ptr %v.dbg.spill86, metadata !2954, metadata !DIExpression()), !dbg !3020
  %_91 = load i32, ptr %ek, align 4, !dbg !2989, !noundef !18
  %31 = icmp eq i32 %_91, 29, !dbg !2989
  br i1 %31, label %bb59, label %bb60, !dbg !2989

bb59:                                             ; preds = %bb58
  %v87 = load i32, ptr %ek, align 4, !dbg !2989, !noundef !18
  store i32 %v87, ptr %v.dbg.spill88, align 4, !dbg !2989
  call void @llvm.dbg.declare(metadata ptr %v.dbg.spill88, metadata !2952, metadata !DIExpression()), !dbg !3020
  store i8 29, ptr %_0, align 1, !dbg !3020
  br label %bb83, !dbg !2989

bb60:                                             ; preds = %bb58
  store ptr %ek, ptr %v.dbg.spill89, align 8, !dbg !2989
  call void @llvm.dbg.declare(metadata ptr %v.dbg.spill89, metadata !2957, metadata !DIExpression()), !dbg !3021
  %_94 = load i32, ptr %ek, align 4, !dbg !2989, !noundef !18
  %32 = icmp eq i32 %_94, 30, !dbg !2989
  br i1 %32, label %bb61, label %bb62, !dbg !2989

bb61:                                             ; preds = %bb60
  %v90 = load i32, ptr %ek, align 4, !dbg !2989, !noundef !18
  store i32 %v90, ptr %v.dbg.spill91, align 4, !dbg !2989
  call void @llvm.dbg.declare(metadata ptr %v.dbg.spill91, metadata !2955, metadata !DIExpression()), !dbg !3021
  store i8 30, ptr %_0, align 1, !dbg !3021
  br label %bb83, !dbg !2989

bb62:                                             ; preds = %bb60
  store ptr %ek, ptr %v.dbg.spill92, align 8, !dbg !2989
  call void @llvm.dbg.declare(metadata ptr %v.dbg.spill92, metadata !2960, metadata !DIExpression()), !dbg !3022
  %_97 = load i32, ptr %ek, align 4, !dbg !2989, !noundef !18
  %33 = icmp eq i32 %_97, 31, !dbg !2989
  br i1 %33, label %bb63, label %bb64, !dbg !2989

bb63:                                             ; preds = %bb62
  %v93 = load i32, ptr %ek, align 4, !dbg !2989, !noundef !18
  store i32 %v93, ptr %v.dbg.spill94, align 4, !dbg !2989
  call void @llvm.dbg.declare(metadata ptr %v.dbg.spill94, metadata !2958, metadata !DIExpression()), !dbg !3022
  store i8 31, ptr %_0, align 1, !dbg !3022
  br label %bb83, !dbg !2989

bb64:                                             ; preds = %bb62
  store ptr %ek, ptr %v.dbg.spill95, align 8, !dbg !2989
  call void @llvm.dbg.declare(metadata ptr %v.dbg.spill95, metadata !2963, metadata !DIExpression()), !dbg !3023
  %_100 = load i32, ptr %ek, align 4, !dbg !2989, !noundef !18
  %34 = icmp eq i32 %_100, 32, !dbg !2989
  br i1 %34, label %bb65, label %bb66, !dbg !2989

bb65:                                             ; preds = %bb64
  %v96 = load i32, ptr %ek, align 4, !dbg !2989, !noundef !18
  store i32 %v96, ptr %v.dbg.spill97, align 4, !dbg !2989
  call void @llvm.dbg.declare(metadata ptr %v.dbg.spill97, metadata !2961, metadata !DIExpression()), !dbg !3023
  store i8 32, ptr %_0, align 1, !dbg !3023
  br label %bb83, !dbg !2989

bb66:                                             ; preds = %bb64
  store ptr %ek, ptr %v.dbg.spill98, align 8, !dbg !2989
  call void @llvm.dbg.declare(metadata ptr %v.dbg.spill98, metadata !2966, metadata !DIExpression()), !dbg !3024
  %_103 = load i32, ptr %ek, align 4, !dbg !2989, !noundef !18
  %35 = icmp eq i32 %_103, 33, !dbg !2989
  br i1 %35, label %bb67, label %bb68, !dbg !2989

bb67:                                             ; preds = %bb66
  %v99 = load i32, ptr %ek, align 4, !dbg !2989, !noundef !18
  store i32 %v99, ptr %v.dbg.spill100, align 4, !dbg !2989
  call void @llvm.dbg.declare(metadata ptr %v.dbg.spill100, metadata !2964, metadata !DIExpression()), !dbg !3024
  store i8 33, ptr %_0, align 1, !dbg !3024
  br label %bb83, !dbg !2989

bb68:                                             ; preds = %bb66
  store ptr %ek, ptr %v.dbg.spill101, align 8, !dbg !2989
  call void @llvm.dbg.declare(metadata ptr %v.dbg.spill101, metadata !2969, metadata !DIExpression()), !dbg !3025
  %_106 = load i32, ptr %ek, align 4, !dbg !2989, !noundef !18
  %36 = icmp eq i32 %_106, 34, !dbg !2989
  br i1 %36, label %bb69, label %bb70, !dbg !2989

bb69:                                             ; preds = %bb68
  %v102 = load i32, ptr %ek, align 4, !dbg !2989, !noundef !18
  store i32 %v102, ptr %v.dbg.spill103, align 4, !dbg !2989
  call void @llvm.dbg.declare(metadata ptr %v.dbg.spill103, metadata !2967, metadata !DIExpression()), !dbg !3025
  store i8 34, ptr %_0, align 1, !dbg !3025
  br label %bb83, !dbg !2989

bb70:                                             ; preds = %bb68
  store ptr %ek, ptr %v.dbg.spill104, align 8, !dbg !2989
  call void @llvm.dbg.declare(metadata ptr %v.dbg.spill104, metadata !2972, metadata !DIExpression()), !dbg !3026
  %_109 = load i32, ptr %ek, align 4, !dbg !2989, !noundef !18
  %37 = icmp eq i32 %_109, 35, !dbg !2989
  br i1 %37, label %bb71, label %bb72, !dbg !2989

bb71:                                             ; preds = %bb70
  %v105 = load i32, ptr %ek, align 4, !dbg !2989, !noundef !18
  store i32 %v105, ptr %v.dbg.spill106, align 4, !dbg !2989
  call void @llvm.dbg.declare(metadata ptr %v.dbg.spill106, metadata !2970, metadata !DIExpression()), !dbg !3026
  store i8 35, ptr %_0, align 1, !dbg !3026
  br label %bb83, !dbg !2989

bb72:                                             ; preds = %bb70
  store ptr %ek, ptr %v.dbg.spill107, align 8, !dbg !2989
  call void @llvm.dbg.declare(metadata ptr %v.dbg.spill107, metadata !2975, metadata !DIExpression()), !dbg !3027
  %_112 = load i32, ptr %ek, align 4, !dbg !2989, !noundef !18
  %38 = icmp eq i32 %_112, 39, !dbg !2989
  br i1 %38, label %bb73, label %bb74, !dbg !2989

bb73:                                             ; preds = %bb72
  %v108 = load i32, ptr %ek, align 4, !dbg !2989, !noundef !18
  store i32 %v108, ptr %v.dbg.spill109, align 4, !dbg !2989
  call void @llvm.dbg.declare(metadata ptr %v.dbg.spill109, metadata !2973, metadata !DIExpression()), !dbg !3027
  store i8 39, ptr %_0, align 1, !dbg !3027
  br label %bb83, !dbg !2989

bb74:                                             ; preds = %bb72
  store ptr %ek, ptr %v.dbg.spill110, align 8, !dbg !2989
  call void @llvm.dbg.declare(metadata ptr %v.dbg.spill110, metadata !2978, metadata !DIExpression()), !dbg !3028
  %_115 = load i32, ptr %ek, align 4, !dbg !2989, !noundef !18
  %39 = icmp eq i32 %_115, 37, !dbg !2989
  br i1 %39, label %bb75, label %bb76, !dbg !2989

bb75:                                             ; preds = %bb74
  %v111 = load i32, ptr %ek, align 4, !dbg !2989, !noundef !18
  store i32 %v111, ptr %v.dbg.spill112, align 4, !dbg !2989
  call void @llvm.dbg.declare(metadata ptr %v.dbg.spill112, metadata !2976, metadata !DIExpression()), !dbg !3028
  store i8 37, ptr %_0, align 1, !dbg !3028
  br label %bb83, !dbg !2989

bb76:                                             ; preds = %bb74
  store ptr %ek, ptr %v.dbg.spill113, align 8, !dbg !2989
  call void @llvm.dbg.declare(metadata ptr %v.dbg.spill113, metadata !2981, metadata !DIExpression()), !dbg !3029
  %_118 = load i32, ptr %ek, align 4, !dbg !2989, !noundef !18
  %40 = icmp eq i32 %_118, 36, !dbg !2989
  br i1 %40, label %bb77, label %bb78, !dbg !2989

bb77:                                             ; preds = %bb76
  %v114 = load i32, ptr %ek, align 4, !dbg !2989, !noundef !18
  store i32 %v114, ptr %v.dbg.spill115, align 4, !dbg !2989
  call void @llvm.dbg.declare(metadata ptr %v.dbg.spill115, metadata !2979, metadata !DIExpression()), !dbg !3029
  store i8 36, ptr %_0, align 1, !dbg !3029
  br label %bb83, !dbg !2989

bb78:                                             ; preds = %bb76
  store ptr %ek, ptr %v.dbg.spill116, align 8, !dbg !2989
  call void @llvm.dbg.declare(metadata ptr %v.dbg.spill116, metadata !2984, metadata !DIExpression()), !dbg !3030
  %_121 = load i32, ptr %ek, align 4, !dbg !2989, !noundef !18
  %41 = icmp eq i32 %_121, 38, !dbg !2989
  br i1 %41, label %bb79, label %bb80, !dbg !2989

bb79:                                             ; preds = %bb78
  %v117 = load i32, ptr %ek, align 4, !dbg !2989, !noundef !18
  store i32 %v117, ptr %v.dbg.spill118, align 4, !dbg !2989
  call void @llvm.dbg.declare(metadata ptr %v.dbg.spill118, metadata !2982, metadata !DIExpression()), !dbg !3030
  store i8 38, ptr %_0, align 1, !dbg !3030
  br label %bb83, !dbg !2989

bb80:                                             ; preds = %bb78
  store ptr %ek, ptr %v.dbg.spill119, align 8, !dbg !2989
  call void @llvm.dbg.declare(metadata ptr %v.dbg.spill119, metadata !2987, metadata !DIExpression()), !dbg !3031
  %_124 = load i32, ptr %ek, align 4, !dbg !2989, !noundef !18
  %42 = icmp eq i32 %_124, 40, !dbg !2989
  br i1 %42, label %bb81, label %bb82, !dbg !2989

bb81:                                             ; preds = %bb80
  %v120 = load i32, ptr %ek, align 4, !dbg !2989, !noundef !18
  store i32 %v120, ptr %v.dbg.spill121, align 4, !dbg !2989
  call void @llvm.dbg.declare(metadata ptr %v.dbg.spill121, metadata !2985, metadata !DIExpression()), !dbg !3031
  store i8 40, ptr %_0, align 1, !dbg !3031
  br label %bb83, !dbg !2989

bb82:                                             ; preds = %bb80
  store i8 41, ptr %_0, align 1, !dbg !2989
  br label %bb83, !dbg !2989
}

; std::env::var
; Function Attrs: uwtable
define void @_ZN3std3env3var17h8de23921fa4bb2fbE(ptr sret(%"core::result::Result<alloc::string::String, std::env::VarError>") align 8 %_0, ptr align 1 %0, i64 %1) unnamed_addr #0 personality ptr @rust_eh_personality !dbg !3032 {
start:
  %2 = alloca { ptr, i32, [1 x i32] }, align 8
  %key = alloca { ptr, i64 }, align 8
  store ptr %0, ptr %key, align 8
  %3 = getelementptr inbounds i8, ptr %key, i64 8
  store i64 %1, ptr %3, align 8
  call void @llvm.dbg.declare(metadata ptr %key, metadata !3069, metadata !DIExpression()), !dbg !3072
; invoke <&T as core::convert::AsRef<U>>::as_ref
  %4 = invoke { ptr, i64 } @"_ZN55_$LT$$RF$T$u20$as$u20$core..convert..AsRef$LT$U$GT$$GT$6as_ref17h1dc69f85d07e2e60E"(ptr align 8 %key)
          to label %bb1 unwind label %cleanup, !dbg !3073

bb4:                                              ; preds = %cleanup
  %5 = load ptr, ptr %2, align 8, !dbg !3074, !noundef !18
  %6 = getelementptr inbounds i8, ptr %2, i64 8, !dbg !3074
  %7 = load i32, ptr %6, align 8, !dbg !3074, !noundef !18
  %8 = insertvalue { ptr, i32 } poison, ptr %5, 0, !dbg !3074
  %9 = insertvalue { ptr, i32 } %8, i32 %7, 1, !dbg !3074
  resume { ptr, i32 } %9, !dbg !3074

cleanup:                                          ; preds = %bb1, %start
  %10 = landingpad { ptr, i32 }
          cleanup
  %11 = extractvalue { ptr, i32 } %10, 0
  %12 = extractvalue { ptr, i32 } %10, 1
  store ptr %11, ptr %2, align 8
  %13 = getelementptr inbounds i8, ptr %2, i64 8
  store i32 %12, ptr %13, align 8
  br label %bb4

bb1:                                              ; preds = %start
  %_2.0 = extractvalue { ptr, i64 } %4, 0, !dbg !3073
  %_2.1 = extractvalue { ptr, i64 } %4, 1, !dbg !3073
; invoke std::env::_var
  invoke void @_ZN3std3env4_var17hcaeac45759e6ddf8E(ptr sret(%"core::result::Result<alloc::string::String, std::env::VarError>") align 8 %_0, ptr align 1 %_2.0, i64 %_2.1)
          to label %bb2 unwind label %cleanup, !dbg !3075

bb2:                                              ; preds = %bb1
  ret void, !dbg !3076
}

; std::env::var_os
; Function Attrs: uwtable
define void @_ZN3std3env6var_os17heac81b20da4c2212E(ptr sret(%"core::option::Option<std::ffi::os_str::OsString>") align 8 %_0, ptr align 1 %0, i64 %1) unnamed_addr #0 personality ptr @rust_eh_personality !dbg !3077 {
start:
  %2 = alloca { ptr, i32, [1 x i32] }, align 8
  %key = alloca { ptr, i64 }, align 8
  store ptr %0, ptr %key, align 8
  %3 = getelementptr inbounds i8, ptr %key, i64 8
  store i64 %1, ptr %3, align 8
  call void @llvm.dbg.declare(metadata ptr %key, metadata !3081, metadata !DIExpression()), !dbg !3082
; invoke <&T as core::convert::AsRef<U>>::as_ref
  %4 = invoke { ptr, i64 } @"_ZN55_$LT$$RF$T$u20$as$u20$core..convert..AsRef$LT$U$GT$$GT$6as_ref17h1dc69f85d07e2e60E"(ptr align 8 %key)
          to label %bb1 unwind label %cleanup, !dbg !3083

bb4:                                              ; preds = %cleanup
  %5 = load ptr, ptr %2, align 8, !dbg !3084, !noundef !18
  %6 = getelementptr inbounds i8, ptr %2, i64 8, !dbg !3084
  %7 = load i32, ptr %6, align 8, !dbg !3084, !noundef !18
  %8 = insertvalue { ptr, i32 } poison, ptr %5, 0, !dbg !3084
  %9 = insertvalue { ptr, i32 } %8, i32 %7, 1, !dbg !3084
  resume { ptr, i32 } %9, !dbg !3084

cleanup:                                          ; preds = %bb1, %start
  %10 = landingpad { ptr, i32 }
          cleanup
  %11 = extractvalue { ptr, i32 } %10, 0
  %12 = extractvalue { ptr, i32 } %10, 1
  store ptr %11, ptr %2, align 8
  %13 = getelementptr inbounds i8, ptr %2, i64 8
  store i32 %12, ptr %13, align 8
  br label %bb4

bb1:                                              ; preds = %start
  %_2.0 = extractvalue { ptr, i64 } %4, 0, !dbg !3083
  %_2.1 = extractvalue { ptr, i64 } %4, 1, !dbg !3083
; invoke std::env::_var_os
  invoke void @_ZN3std3env7_var_os17h945c9fbae626bf73E(ptr sret(%"core::option::Option<std::ffi::os_str::OsString>") align 8 %_0, ptr align 1 %_2.0, i64 %_2.1)
          to label %bb2 unwind label %cleanup, !dbg !3085

bb2:                                              ; preds = %bb1
  ret void, !dbg !3086
}

; std::ffi::os_str::<impl core::convert::AsRef<std::ffi::os_str::OsStr> for alloc::string::String>::as_ref
; Function Attrs: inlinehint uwtable
define internal { ptr, i64 } @"_ZN3std3ffi6os_str103_$LT$impl$u20$core..convert..AsRef$LT$std..ffi..os_str..OsStr$GT$$u20$for$u20$alloc..string..String$GT$6as_ref17h4840500334c7835aE"(ptr align 8 %self) unnamed_addr #1 !dbg !3087 {
start:
  %inner.dbg.spill = alloca { ptr, i64 }, align 8
  %s.dbg.spill = alloca { ptr, i64 }, align 8
  %self.dbg.spill5 = alloca { ptr, i64 }, align 8
  %v.dbg.spill = alloca { ptr, i64 }, align 8
  %data_pointer.dbg.spill = alloca ptr, align 8
  %len.dbg.spill = alloca i64, align 8
  %data.dbg.spill = alloca ptr, align 8
  %self.dbg.spill4 = alloca ptr, align 8
  %self.dbg.spill2 = alloca ptr, align 8
  %self.dbg.spill1 = alloca ptr, align 8
  %self.dbg.spill = alloca ptr, align 8
  %_15 = alloca %"core::ptr::metadata::PtrComponents<[u8]>", align 8
  %_14 = alloca %"core::ptr::metadata::PtrRepr<[u8]>", align 8
  store ptr %self, ptr %self.dbg.spill, align 8
  call void @llvm.dbg.declare(metadata ptr %self.dbg.spill, metadata !3105, metadata !DIExpression()), !dbg !3106
  call void @llvm.dbg.declare(metadata ptr %self.dbg.spill, metadata !3107, metadata !DIExpression()), !dbg !3115
  store ptr %self, ptr %self.dbg.spill1, align 8, !dbg !3117
  call void @llvm.dbg.declare(metadata ptr %self.dbg.spill1, metadata !3118, metadata !DIExpression()), !dbg !3127
  call void @llvm.dbg.declare(metadata ptr %self.dbg.spill1, metadata !3128, metadata !DIExpression()), !dbg !3135
  store ptr %self, ptr %self.dbg.spill2, align 8, !dbg !3137
  call void @llvm.dbg.declare(metadata ptr %self.dbg.spill2, metadata !3138, metadata !DIExpression()), !dbg !3147
  %0 = getelementptr inbounds i8, ptr %self, i64 8, !dbg !3149
  %self3 = load ptr, ptr %0, align 8, !dbg !3149, !nonnull !18, !noundef !18
  store ptr %self3, ptr %self.dbg.spill4, align 8, !dbg !3149
  call void @llvm.dbg.declare(metadata ptr %self.dbg.spill4, metadata !3150, metadata !DIExpression()), !dbg !3158
  call void @llvm.dbg.declare(metadata ptr %self.dbg.spill4, metadata !3160, metadata !DIExpression()), !dbg !3164
  store ptr %self3, ptr %data.dbg.spill, align 8, !dbg !3166
  call void @llvm.dbg.declare(metadata ptr %data.dbg.spill, metadata !3167, metadata !DIExpression()), !dbg !3176
  call void @llvm.dbg.declare(metadata ptr %data.dbg.spill, metadata !3178, metadata !DIExpression()), !dbg !3183
  call void @llvm.dbg.declare(metadata ptr %data.dbg.spill, metadata !3185, metadata !DIExpression()), !dbg !3189
  %1 = getelementptr inbounds i8, ptr %self, i64 16, !dbg !3191
  %len = load i64, ptr %1, align 8, !dbg !3191, !noundef !18
  store i64 %len, ptr %len.dbg.spill, align 8, !dbg !3191
  call void @llvm.dbg.declare(metadata ptr %len.dbg.spill, metadata !3175, metadata !DIExpression()), !dbg !3192
  call void @llvm.dbg.declare(metadata ptr %len.dbg.spill, metadata !3182, metadata !DIExpression()), !dbg !3193
  call void @llvm.dbg.declare(metadata ptr %len.dbg.spill, metadata !3194, metadata !DIExpression()), !dbg !3199
  br label %bb1, !dbg !3201

bb1:                                              ; preds = %start
; call core::slice::raw::from_raw_parts::precondition_check
  call void @_ZN4core5slice3raw14from_raw_parts18precondition_check17h73bc99d952c23befE(ptr %self3, i64 1, i64 1, i64 %len) #18, !dbg !3201
  br label %bb2, !dbg !3201

bb2:                                              ; preds = %bb1
  store ptr %self3, ptr %data_pointer.dbg.spill, align 8, !dbg !3202
  call void @llvm.dbg.declare(metadata ptr %data_pointer.dbg.spill, metadata !3198, metadata !DIExpression()), !dbg !3203
  store ptr %self3, ptr %_15, align 8, !dbg !3204
  %2 = getelementptr inbounds i8, ptr %_15, i64 8, !dbg !3204
  store i64 %len, ptr %2, align 8, !dbg !3204
  %3 = load ptr, ptr %_15, align 8, !dbg !3205, !noundef !18
  %4 = getelementptr inbounds i8, ptr %_15, i64 8, !dbg !3205
  %5 = load i64, ptr %4, align 8, !dbg !3205, !noundef !18
  store ptr %3, ptr %_14, align 8, !dbg !3205
  %6 = getelementptr inbounds i8, ptr %_14, i64 8, !dbg !3205
  store i64 %5, ptr %6, align 8, !dbg !3205
  %v.0 = load ptr, ptr %_14, align 8, !dbg !3205, !noundef !18
  %7 = getelementptr inbounds i8, ptr %_14, i64 8, !dbg !3205
  %v.1 = load i64, ptr %7, align 8, !dbg !3205, !noundef !18
  store ptr %v.0, ptr %v.dbg.spill, align 8, !dbg !3205
  %8 = getelementptr inbounds i8, ptr %v.dbg.spill, i64 8, !dbg !3205
  store i64 %v.1, ptr %8, align 8, !dbg !3205
  call void @llvm.dbg.declare(metadata ptr %v.dbg.spill, metadata !3206, metadata !DIExpression()), !dbg !3214
  store ptr %v.0, ptr %self.dbg.spill5, align 8, !dbg !3216
  %9 = getelementptr inbounds i8, ptr %self.dbg.spill5, i64 8, !dbg !3216
  store i64 %v.1, ptr %9, align 8, !dbg !3216
  call void @llvm.dbg.declare(metadata ptr %self.dbg.spill5, metadata !3217, metadata !DIExpression()), !dbg !3224
  call void @llvm.dbg.declare(metadata ptr %self.dbg.spill5, metadata !3226, metadata !DIExpression()), !dbg !3239
  call void @llvm.dbg.declare(metadata ptr %self.dbg.spill5, metadata !3241, metadata !DIExpression()), !dbg !3248
  store ptr %v.0, ptr %s.dbg.spill, align 8, !dbg !3250
  %10 = getelementptr inbounds i8, ptr %s.dbg.spill, i64 8, !dbg !3250
  store i64 %v.1, ptr %10, align 8, !dbg !3250
  call void @llvm.dbg.declare(metadata ptr %s.dbg.spill, metadata !3251, metadata !DIExpression()), !dbg !3258
  store ptr %v.0, ptr %inner.dbg.spill, align 8, !dbg !3260
  %11 = getelementptr inbounds i8, ptr %inner.dbg.spill, i64 8, !dbg !3260
  store i64 %v.1, ptr %11, align 8, !dbg !3260
  call void @llvm.dbg.declare(metadata ptr %inner.dbg.spill, metadata !3261, metadata !DIExpression()), !dbg !3268
  %12 = insertvalue { ptr, i64 } poison, ptr %v.0, 0, !dbg !3270
  %13 = insertvalue { ptr, i64 } %12, i64 %v.1, 1, !dbg !3270
  ret { ptr, i64 } %13, !dbg !3270
}

; std::ffi::os_str::OsStr::to_string_lossy
; Function Attrs: inlinehint uwtable
define internal void @_ZN3std3ffi6os_str5OsStr15to_string_lossy17h95b24a2d2d53f16fE(ptr sret(%"alloc::borrow::Cow<'_, str>") align 8 %_0, ptr align 1 %self.0, i64 %self.1) unnamed_addr #1 !dbg !3271 {
start:
  %self.dbg.spill = alloca { ptr, i64 }, align 8
  store ptr %self.0, ptr %self.dbg.spill, align 8
  %0 = getelementptr inbounds i8, ptr %self.dbg.spill, i64 8
  store i64 %self.1, ptr %0, align 8
  call void @llvm.dbg.declare(metadata ptr %self.dbg.spill, metadata !3292, metadata !DIExpression()), !dbg !3293
; call std::sys::os_str::bytes::Slice::to_string_lossy
  call void @_ZN3std3sys6os_str5bytes5Slice15to_string_lossy17h272f27477e92a79bE(ptr sret(%"alloc::borrow::Cow<'_, str>") align 8 %_0, ptr align 1 %self.0, i64 %self.1), !dbg !3294
  ret void, !dbg !3295
}

; std::ffi::os_str::<impl core::convert::AsRef<std::ffi::os_str::OsStr> for str>::as_ref
; Function Attrs: inlinehint uwtable
define internal { ptr, i64 } @"_ZN3std3ffi6os_str85_$LT$impl$u20$core..convert..AsRef$LT$std..ffi..os_str..OsStr$GT$$u20$for$u20$str$GT$6as_ref17h8a1ffcbee585e663E"(ptr align 1 %self.0, i64 %self.1) unnamed_addr #1 !dbg !3296 {
start:
  %inner.dbg.spill = alloca { ptr, i64 }, align 8
  %s.dbg.spill = alloca { ptr, i64 }, align 8
  %self.dbg.spill = alloca { ptr, i64 }, align 8
  store ptr %self.0, ptr %self.dbg.spill, align 8
  %0 = getelementptr inbounds i8, ptr %self.dbg.spill, i64 8
  store i64 %self.1, ptr %0, align 8
  call void @llvm.dbg.declare(metadata ptr %self.dbg.spill, metadata !3298, metadata !DIExpression()), !dbg !3299
  call void @llvm.dbg.declare(metadata ptr %self.dbg.spill, metadata !3300, metadata !DIExpression()), !dbg !3304
  call void @llvm.dbg.declare(metadata ptr %self.dbg.spill, metadata !3306, metadata !DIExpression()), !dbg !3310
  store ptr %self.0, ptr %s.dbg.spill, align 8, !dbg !3312
  %1 = getelementptr inbounds i8, ptr %s.dbg.spill, i64 8, !dbg !3312
  store i64 %self.1, ptr %1, align 8, !dbg !3312
  call void @llvm.dbg.declare(metadata ptr %s.dbg.spill, metadata !3313, metadata !DIExpression()), !dbg !3317
  store ptr %self.0, ptr %inner.dbg.spill, align 8, !dbg !3319
  %2 = getelementptr inbounds i8, ptr %inner.dbg.spill, i64 8, !dbg !3319
  store i64 %self.1, ptr %2, align 8, !dbg !3319
  call void @llvm.dbg.declare(metadata ptr %inner.dbg.spill, metadata !3320, metadata !DIExpression()), !dbg !3324
  %3 = insertvalue { ptr, i64 } poison, ptr %self.0, 0, !dbg !3326
  %4 = insertvalue { ptr, i64 } %3, i64 %self.1, 1, !dbg !3326
  ret { ptr, i64 } %4, !dbg !3326
}

; std::process::Command::arg
; Function Attrs: uwtable
define align 8 ptr @_ZN3std7process7Command3arg17hb2b1673a64ddca01E(ptr align 8 %self, ptr align 1 %0, i64 %1) unnamed_addr #0 personality ptr @rust_eh_personality !dbg !3327 {
start:
  %2 = alloca { ptr, i32, [1 x i32] }, align 8
  %self.dbg.spill = alloca ptr, align 8
  %arg = alloca { ptr, i64 }, align 8
  store ptr %0, ptr %arg, align 8
  %3 = getelementptr inbounds i8, ptr %arg, i64 8
  store i64 %1, ptr %3, align 8
  store ptr %self, ptr %self.dbg.spill, align 8
  call void @llvm.dbg.declare(metadata ptr %self.dbg.spill, metadata !3551, metadata !DIExpression()), !dbg !3553
  call void @llvm.dbg.declare(metadata ptr %arg, metadata !3552, metadata !DIExpression()), !dbg !3554
; invoke <&T as core::convert::AsRef<U>>::as_ref
  %4 = invoke { ptr, i64 } @"_ZN55_$LT$$RF$T$u20$as$u20$core..convert..AsRef$LT$U$GT$$GT$6as_ref17h1dc69f85d07e2e60E"(ptr align 8 %arg)
          to label %bb1 unwind label %cleanup, !dbg !3555

bb4:                                              ; preds = %cleanup
  %5 = load ptr, ptr %2, align 8, !dbg !3556, !noundef !18
  %6 = getelementptr inbounds i8, ptr %2, i64 8, !dbg !3556
  %7 = load i32, ptr %6, align 8, !dbg !3556, !noundef !18
  %8 = insertvalue { ptr, i32 } poison, ptr %5, 0, !dbg !3556
  %9 = insertvalue { ptr, i32 } %8, i32 %7, 1, !dbg !3556
  resume { ptr, i32 } %9, !dbg !3556

cleanup:                                          ; preds = %bb1, %start
  %10 = landingpad { ptr, i32 }
          cleanup
  %11 = extractvalue { ptr, i32 } %10, 0
  %12 = extractvalue { ptr, i32 } %10, 1
  store ptr %11, ptr %2, align 8
  %13 = getelementptr inbounds i8, ptr %2, i64 8
  store i32 %12, ptr %13, align 8
  br label %bb4

bb1:                                              ; preds = %start
  %_5.0 = extractvalue { ptr, i64 } %4, 0, !dbg !3555
  %_5.1 = extractvalue { ptr, i64 } %4, 1, !dbg !3555
; invoke std::sys::pal::unix::process::process_common::Command::arg
  invoke void @_ZN3std3sys3pal4unix7process14process_common7Command3arg17h81438a824f76cdc9E(ptr align 8 %self, ptr align 1 %_5.0, i64 %_5.1)
          to label %bb2 unwind label %cleanup, !dbg !3557

bb2:                                              ; preds = %bb1
  ret ptr %self, !dbg !3558
}

; std::process::Command::new
; Function Attrs: uwtable
define void @_ZN3std7process7Command3new17hbf12eb70ed0d0218E(ptr sret(%"std::process::Command") align 8 %_0, ptr align 8 %program) unnamed_addr #0 personality ptr @rust_eh_personality !dbg !3559 {
start:
  %0 = alloca { ptr, i32, [1 x i32] }, align 8
  %_2 = alloca %"std::sys::pal::unix::process::process_common::Command", align 8
  call void @llvm.dbg.declare(metadata ptr %program, metadata !3566, metadata !DIExpression()), !dbg !3567
; invoke std::ffi::os_str::<impl core::convert::AsRef<std::ffi::os_str::OsStr> for alloc::string::String>::as_ref
  %1 = invoke { ptr, i64 } @"_ZN3std3ffi6os_str103_$LT$impl$u20$core..convert..AsRef$LT$std..ffi..os_str..OsStr$GT$$u20$for$u20$alloc..string..String$GT$6as_ref17h4840500334c7835aE"(ptr align 8 %program)
          to label %bb1 unwind label %cleanup, !dbg !3568

bb4:                                              ; preds = %cleanup
; invoke core::ptr::drop_in_place<alloc::string::String>
  invoke void @"_ZN4core3ptr42drop_in_place$LT$alloc..string..String$GT$17h749ddf325649125aE"(ptr align 8 %program) #19
          to label %bb5 unwind label %terminate, !dbg !3569

cleanup:                                          ; preds = %bb1, %start
  %2 = landingpad { ptr, i32 }
          cleanup
  %3 = extractvalue { ptr, i32 } %2, 0
  %4 = extractvalue { ptr, i32 } %2, 1
  store ptr %3, ptr %0, align 8
  %5 = getelementptr inbounds i8, ptr %0, i64 8
  store i32 %4, ptr %5, align 8
  br label %bb4

bb1:                                              ; preds = %start
  %_3.0 = extractvalue { ptr, i64 } %1, 0, !dbg !3568
  %_3.1 = extractvalue { ptr, i64 } %1, 1, !dbg !3568
; invoke std::sys::pal::unix::process::process_common::Command::new
  invoke void @_ZN3std3sys3pal4unix7process14process_common7Command3new17ha99973339ca2643fE(ptr sret(%"std::sys::pal::unix::process::process_common::Command") align 8 %_2, ptr align 1 %_3.0, i64 %_3.1)
          to label %bb2 unwind label %cleanup, !dbg !3570

bb2:                                              ; preds = %bb1
  call void @llvm.memcpy.p0.p0.i64(ptr align 8 %_0, ptr align 8 %_2, i64 208, i1 false), !dbg !3571
; call core::ptr::drop_in_place<alloc::string::String>
  call void @"_ZN4core3ptr42drop_in_place$LT$alloc..string..String$GT$17h749ddf325649125aE"(ptr align 8 %program), !dbg !3569
  ret void, !dbg !3572

terminate:                                        ; preds = %bb4
  %6 = landingpad { ptr, i32 }
          filter [0 x ptr] zeroinitializer
  %7 = extractvalue { ptr, i32 } %6, 0
  %8 = extractvalue { ptr, i32 } %6, 1
; call core::panicking::panic_in_cleanup
  call void @_ZN4core9panicking16panic_in_cleanup17hb45215b029b98411E() #20, !dbg !3573
  unreachable, !dbg !3573

bb5:                                              ; preds = %bb4
  %9 = load ptr, ptr %0, align 8, !dbg !3573, !noundef !18
  %10 = getelementptr inbounds i8, ptr %0, i64 8, !dbg !3573
  %11 = load i32, ptr %10, align 8, !dbg !3573, !noundef !18
  %12 = insertvalue { ptr, i32 } poison, ptr %9, 0, !dbg !3573
  %13 = insertvalue { ptr, i32 } %12, i32 %11, 1, !dbg !3573
  resume { ptr, i32 } %13, !dbg !3573
}

; <&T as core::fmt::Debug>::fmt
; Function Attrs: uwtable
define zeroext i1 @"_ZN42_$LT$$RF$T$u20$as$u20$core..fmt..Debug$GT$3fmt17h657a647c6bc1d557E"(ptr align 8 %self, ptr align 8 %f) unnamed_addr #0 !dbg !3574 {
start:
  %f.dbg.spill = alloca ptr, align 8
  %self.dbg.spill = alloca ptr, align 8
  store ptr %self, ptr %self.dbg.spill, align 8
  call void @llvm.dbg.declare(metadata ptr %self.dbg.spill, metadata !3580, metadata !DIExpression()), !dbg !3582
  store ptr %f, ptr %f.dbg.spill, align 8
  call void @llvm.dbg.declare(metadata ptr %f.dbg.spill, metadata !3581, metadata !DIExpression()), !dbg !3583
  %_3 = load ptr, ptr %self, align 8, !dbg !3584, !nonnull !18, !align !432, !noundef !18
; call <() as core::fmt::Debug>::fmt
  %_0 = call zeroext i1 @"_ZN45_$LT$$LP$$RP$$u20$as$u20$core..fmt..Debug$GT$3fmt17hbcc9c78e43ebc4f5E"(ptr align 1 %_3, ptr align 8 %f), !dbg !3585
  ret i1 %_0, !dbg !3586
}

; <&T as core::fmt::Debug>::fmt
; Function Attrs: uwtable
define zeroext i1 @"_ZN42_$LT$$RF$T$u20$as$u20$core..fmt..Debug$GT$3fmt17hd880e0def4617e06E"(ptr align 8 %self, ptr align 8 %f) unnamed_addr #0 !dbg !3587 {
start:
  %f.dbg.spill = alloca ptr, align 8
  %self.dbg.spill = alloca ptr, align 8
  store ptr %self, ptr %self.dbg.spill, align 8
  call void @llvm.dbg.declare(metadata ptr %self.dbg.spill, metadata !3592, metadata !DIExpression()), !dbg !3594
  store ptr %f, ptr %f.dbg.spill, align 8
  call void @llvm.dbg.declare(metadata ptr %f.dbg.spill, metadata !3593, metadata !DIExpression()), !dbg !3595
  %_3 = load ptr, ptr %self, align 8, !dbg !3596, !nonnull !18, !align !3597, !noundef !18
; call core::fmt::num::<impl core::fmt::Debug for u16>::fmt
  %_0 = call zeroext i1 @"_ZN4core3fmt3num50_$LT$impl$u20$core..fmt..Debug$u20$for$u20$u16$GT$3fmt17hd600e1a83e676c45E"(ptr align 2 %_3, ptr align 8 %f), !dbg !3598
  ret i1 %_0, !dbg !3599
}

; <&T as core::fmt::Display>::fmt
; Function Attrs: uwtable
define zeroext i1 @"_ZN44_$LT$$RF$T$u20$as$u20$core..fmt..Display$GT$3fmt17haf4db5cf47d37413E"(ptr align 8 %self, ptr align 8 %f) unnamed_addr #0 !dbg !3600 {
start:
  %f.dbg.spill = alloca ptr, align 8
  %self.dbg.spill = alloca ptr, align 8
  store ptr %self, ptr %self.dbg.spill, align 8
  call void @llvm.dbg.declare(metadata ptr %self.dbg.spill, metadata !3606, metadata !DIExpression()), !dbg !3608
  store ptr %f, ptr %f.dbg.spill, align 8
  call void @llvm.dbg.declare(metadata ptr %f.dbg.spill, metadata !3607, metadata !DIExpression()), !dbg !3609
  %_3.0 = load ptr, ptr %self, align 8, !dbg !3610, !nonnull !18, !align !432, !noundef !18
  %0 = getelementptr inbounds i8, ptr %self, i64 8, !dbg !3610
  %_3.1 = load i64, ptr %0, align 8, !dbg !3610, !noundef !18
; call <str as core::fmt::Display>::fmt
  %_0 = call zeroext i1 @"_ZN42_$LT$str$u20$as$u20$core..fmt..Display$GT$3fmt17h50d95ecc07d0417eE"(ptr align 1 %_3.0, i64 %_3.1, ptr align 8 %f), !dbg !3611
  ret i1 %_0, !dbg !3612
}

; <() as core::fmt::Debug>::fmt
; Function Attrs: inlinehint uwtable
define internal zeroext i1 @"_ZN45_$LT$$LP$$RP$$u20$as$u20$core..fmt..Debug$GT$3fmt17hbcc9c78e43ebc4f5E"(ptr align 1 %self, ptr align 8 %f) unnamed_addr #1 !dbg !3613 {
start:
  %f.dbg.spill = alloca ptr, align 8
  %self.dbg.spill = alloca ptr, align 8
  store ptr %self, ptr %self.dbg.spill, align 8
  call void @llvm.dbg.declare(metadata ptr %self.dbg.spill, metadata !3618, metadata !DIExpression()), !dbg !3620
  store ptr %f, ptr %f.dbg.spill, align 8
  call void @llvm.dbg.declare(metadata ptr %f.dbg.spill, metadata !3619, metadata !DIExpression()), !dbg !3621
; call core::fmt::Formatter::pad
  %_0 = call zeroext i1 @_ZN4core3fmt9Formatter3pad17h2f69a4922a0818bbE(ptr align 8 %f, ptr align 1 @alloc_ae6dc619079e3c3b08144a35532ecff7, i64 2), !dbg !3622
  ret i1 %_0, !dbg !3623
}

; <str as alloc::string::ToString>::to_string
; Function Attrs: inlinehint uwtable
define internal void @"_ZN47_$LT$str$u20$as$u20$alloc..string..ToString$GT$9to_string17ha304020726b80ef3E"(ptr sret(%"alloc::string::String") align 8 %_0, ptr align 1 %self.0, i64 %self.1) unnamed_addr #1 !dbg !3624 {
start:
  %self.dbg.spill2 = alloca { ptr, i64 }, align 8
  %self.dbg.spill = alloca { ptr, i64 }, align 8
  %bytes = alloca %"alloc::vec::Vec<u8>", align 8
  %alloc.dbg.spill1 = alloca %"alloc::alloc::Global", align 1
  %alloc.dbg.spill = alloca %"alloc::alloc::Global", align 1
  call void @llvm.dbg.declare(metadata ptr %alloc.dbg.spill, metadata !3630, metadata !DIExpression()), !dbg !3640
  call void @llvm.dbg.declare(metadata ptr %alloc.dbg.spill1, metadata !3669, metadata !DIExpression()), !dbg !3675
  store ptr %self.0, ptr %self.dbg.spill, align 8, !dbg !3675
  %0 = getelementptr inbounds i8, ptr %self.dbg.spill, i64 8, !dbg !3675
  store i64 %self.1, ptr %0, align 8, !dbg !3675
  call void @llvm.dbg.declare(metadata ptr %self.dbg.spill, metadata !3629, metadata !DIExpression()), !dbg !3677
  call void @llvm.dbg.declare(metadata ptr %self.dbg.spill, metadata !3667, metadata !DIExpression()), !dbg !3678
  call void @llvm.dbg.declare(metadata ptr %self.dbg.spill, metadata !3661, metadata !DIExpression()), !dbg !3679
  call void @llvm.dbg.declare(metadata ptr %self.dbg.spill, metadata !3680, metadata !DIExpression()), !dbg !3684
  call void @llvm.dbg.declare(metadata ptr %bytes, metadata !3686, metadata !DIExpression()), !dbg !3693
  store ptr %self.0, ptr %self.dbg.spill2, align 8, !dbg !3695
  %1 = getelementptr inbounds i8, ptr %self.dbg.spill2, i64 8, !dbg !3695
  store i64 %self.1, ptr %1, align 8, !dbg !3695
  call void @llvm.dbg.declare(metadata ptr %self.dbg.spill2, metadata !3653, metadata !DIExpression()), !dbg !3696
  call void @llvm.dbg.declare(metadata ptr %self.dbg.spill2, metadata !3647, metadata !DIExpression()), !dbg !3697
  call void @llvm.dbg.declare(metadata ptr %self.dbg.spill2, metadata !3639, metadata !DIExpression()), !dbg !3698
  call void @llvm.dbg.declare(metadata ptr %self.dbg.spill2, metadata !3674, metadata !DIExpression()), !dbg !3699
; call <T as alloc::slice::hack::ConvertVec>::to_vec
  call void @"_ZN52_$LT$T$u20$as$u20$alloc..slice..hack..ConvertVec$GT$6to_vec17hdbd99a7dc4db6249E"(ptr sret(%"alloc::vec::Vec<u8>") align 8 %bytes, ptr align 1 %self.0, i64 %self.1), !dbg !3700
  call void @llvm.memcpy.p0.p0.i64(ptr align 8 %_0, ptr align 8 %bytes, i64 24, i1 false), !dbg !3701
  ret void, !dbg !3702
}

; <F as core::str::pattern::Pattern>::into_searcher
; Function Attrs: inlinehint uwtable
define void @"_ZN49_$LT$F$u20$as$u20$core..str..pattern..Pattern$GT$13into_searcher17ha58010357ce5101eE"(ptr sret(%"core::str::pattern::CharPredicateSearcher<'_, {closure@core::str::<impl str>::trim_end::{closure#0}}>") align 8 %_0, ptr align 1 %haystack.0, i64 %haystack.1) unnamed_addr #1 !dbg !3703 {
start:
  %end_or_len.dbg.spill = alloca ptr, align 8
  %self.dbg.spill3 = alloca ptr, align 8
  %len.dbg.spill = alloca i64, align 8
  %self.dbg.spill2 = alloca { ptr, i64 }, align 8
  %self.dbg.spill1 = alloca %"core::str::pattern::MultiCharEqPattern<{closure@core::str::<impl str>::trim_end::{closure#0}}>", align 1
  %haystack.dbg.spill = alloca { ptr, i64 }, align 8
  %self.dbg.spill = alloca %"{closure@core::str::<impl str>::trim_end::{closure#0}}", align 1
  %self = alloca %"core::ptr::non_null::NonNull<[u8]>", align 8
  %ptr = alloca ptr, align 8
  %_7 = alloca %"core::slice::iter::Iter<'_, u8>", align 8
  %_6 = alloca %"core::str::iter::Chars<'_>", align 8
  %_5 = alloca %"core::str::iter::CharIndices<'_>", align 8
  %_3 = alloca %"core::str::pattern::MultiCharEqSearcher<'_, {closure@core::str::<impl str>::trim_end::{closure#0}}>", align 8
  call void @llvm.dbg.declare(metadata ptr %self.dbg.spill, metadata !3708, metadata !DIExpression()), !dbg !3710
  store ptr %haystack.0, ptr %haystack.dbg.spill, align 8
  %0 = getelementptr inbounds i8, ptr %haystack.dbg.spill, i64 8
  store i64 %haystack.1, ptr %0, align 8
  call void @llvm.dbg.declare(metadata ptr %haystack.dbg.spill, metadata !3709, metadata !DIExpression()), !dbg !3711
  call void @llvm.dbg.declare(metadata ptr %haystack.dbg.spill, metadata !3712, metadata !DIExpression()), !dbg !3723
  call void @llvm.dbg.declare(metadata ptr %haystack.dbg.spill, metadata !3725, metadata !DIExpression()), !dbg !3731
  call void @llvm.dbg.declare(metadata ptr %haystack.dbg.spill, metadata !3733, metadata !DIExpression()), !dbg !3739
  call void @llvm.dbg.declare(metadata ptr %haystack.dbg.spill, metadata !3741, metadata !DIExpression()), !dbg !3745
  call void @llvm.dbg.declare(metadata ptr %self.dbg.spill1, metadata !3722, metadata !DIExpression()), !dbg !3747
  call void @llvm.dbg.declare(metadata ptr %ptr, metadata !3748, metadata !DIExpression()), !dbg !3761
  call void @llvm.dbg.declare(metadata ptr %ptr, metadata !3770, metadata !DIExpression()), !dbg !3774
  call void @llvm.dbg.declare(metadata ptr %self, metadata !3776, metadata !DIExpression()), !dbg !3787
  call void @llvm.dbg.declare(metadata ptr %self, metadata !3789, metadata !DIExpression()), !dbg !3796
  store ptr %haystack.0, ptr %self.dbg.spill2, align 8, !dbg !3798
  %1 = getelementptr inbounds i8, ptr %self.dbg.spill2, i64 8, !dbg !3798
  store i64 %haystack.1, ptr %1, align 8, !dbg !3798
  call void @llvm.dbg.declare(metadata ptr %self.dbg.spill2, metadata !3768, metadata !DIExpression()), !dbg !3799
  call void @llvm.dbg.declare(metadata ptr %self.dbg.spill2, metadata !3757, metadata !DIExpression()), !dbg !3800
  call void @llvm.dbg.declare(metadata ptr %self.dbg.spill2, metadata !3801, metadata !DIExpression()), !dbg !3808
  store i64 %haystack.1, ptr %len.dbg.spill, align 8, !dbg !3810
  call void @llvm.dbg.declare(metadata ptr %len.dbg.spill, metadata !3758, metadata !DIExpression()), !dbg !3811
  call void @llvm.dbg.declare(metadata ptr %len.dbg.spill, metadata !3812, metadata !DIExpression()), !dbg !3818
  call void @llvm.dbg.declare(metadata ptr %len.dbg.spill, metadata !3820, metadata !DIExpression()), !dbg !3825
  store ptr %haystack.0, ptr %self, align 8, !dbg !3827
  %2 = getelementptr inbounds i8, ptr %self, i64 8, !dbg !3827
  store i64 %haystack.1, ptr %2, align 8, !dbg !3827
  store ptr %haystack.0, ptr %ptr, align 8, !dbg !3828
  store ptr %haystack.0, ptr %self.dbg.spill3, align 8, !dbg !3829
  call void @llvm.dbg.declare(metadata ptr %self.dbg.spill3, metadata !3824, metadata !DIExpression()), !dbg !3830
  %_13 = getelementptr inbounds i8, ptr %haystack.0, i64 %haystack.1, !dbg !3831
  store ptr %_13, ptr %end_or_len.dbg.spill, align 8, !dbg !3832
  call void @llvm.dbg.declare(metadata ptr %end_or_len.dbg.spill, metadata !3759, metadata !DIExpression()), !dbg !3833
  %3 = load ptr, ptr %ptr, align 8, !dbg !3834, !nonnull !18, !noundef !18
  store ptr %3, ptr %_7, align 8, !dbg !3834
  %4 = getelementptr inbounds i8, ptr %_7, i64 8, !dbg !3834
  store ptr %_13, ptr %4, align 8, !dbg !3834
  %5 = load ptr, ptr %_7, align 8, !dbg !3835, !nonnull !18, !noundef !18
  %6 = getelementptr inbounds i8, ptr %_7, i64 8, !dbg !3835
  %7 = load ptr, ptr %6, align 8, !dbg !3835, !noundef !18
  store ptr %5, ptr %_6, align 8, !dbg !3835
  %8 = getelementptr inbounds i8, ptr %_6, i64 8, !dbg !3835
  store ptr %7, ptr %8, align 8, !dbg !3835
  %9 = getelementptr inbounds i8, ptr %_5, i64 16, !dbg !3836
  store i64 0, ptr %9, align 8, !dbg !3836
  %10 = load ptr, ptr %_6, align 8, !dbg !3836, !nonnull !18, !noundef !18
  %11 = getelementptr inbounds i8, ptr %_6, i64 8, !dbg !3836
  %12 = load ptr, ptr %11, align 8, !dbg !3836, !noundef !18
  store ptr %10, ptr %_5, align 8, !dbg !3836
  %13 = getelementptr inbounds i8, ptr %_5, i64 8, !dbg !3836
  store ptr %12, ptr %13, align 8, !dbg !3836
  store ptr %haystack.0, ptr %_3, align 8, !dbg !3837
  %14 = getelementptr inbounds i8, ptr %_3, i64 8, !dbg !3837
  store i64 %haystack.1, ptr %14, align 8, !dbg !3837
  %15 = getelementptr inbounds i8, ptr %_3, i64 16, !dbg !3837
  call void @llvm.memcpy.p0.p0.i64(ptr align 8 %15, ptr align 8 %_5, i64 24, i1 false), !dbg !3837
  call void @llvm.memcpy.p0.p0.i64(ptr align 8 %_0, ptr align 8 %_3, i64 40, i1 false), !dbg !3838
  ret void, !dbg !3839
}

; <F as core::str::pattern::Pattern>::into_searcher
; Function Attrs: inlinehint uwtable
define void @"_ZN49_$LT$F$u20$as$u20$core..str..pattern..Pattern$GT$13into_searcher17hc4582289b9507bc2E"(ptr sret(%"core::str::pattern::CharPredicateSearcher<'_, {closure@core::str::<impl str>::trim::{closure#0}}>") align 8 %_0, ptr align 1 %haystack.0, i64 %haystack.1) unnamed_addr #1 !dbg !3840 {
start:
  %end_or_len.dbg.spill = alloca ptr, align 8
  %self.dbg.spill3 = alloca ptr, align 8
  %len.dbg.spill = alloca i64, align 8
  %self.dbg.spill2 = alloca { ptr, i64 }, align 8
  %self.dbg.spill1 = alloca %"core::str::pattern::MultiCharEqPattern<{closure@core::str::<impl str>::trim::{closure#0}}>", align 1
  %haystack.dbg.spill = alloca { ptr, i64 }, align 8
  %self.dbg.spill = alloca %"{closure@core::str::<impl str>::trim::{closure#0}}", align 1
  %self = alloca %"core::ptr::non_null::NonNull<[u8]>", align 8
  %ptr = alloca ptr, align 8
  %_7 = alloca %"core::slice::iter::Iter<'_, u8>", align 8
  %_6 = alloca %"core::str::iter::Chars<'_>", align 8
  %_5 = alloca %"core::str::iter::CharIndices<'_>", align 8
  %_3 = alloca %"core::str::pattern::MultiCharEqSearcher<'_, {closure@core::str::<impl str>::trim::{closure#0}}>", align 8
  call void @llvm.dbg.declare(metadata ptr %self.dbg.spill, metadata !3844, metadata !DIExpression()), !dbg !3846
  store ptr %haystack.0, ptr %haystack.dbg.spill, align 8
